(dp1
S'itemid'
p2
(dp3
S'type'
p4
S'reference Item'
p5
sS'sortable'
p6
I2
sS'sql'
p7
S'INTEGER REFERENCES Item(id) ON DELETE CASCADE'
p8
ssS'comment'
p9
(dp10
g4
S'text'
p11
sg6
I4
sg7
S'TEXT'
p12
ssS'date'
p13
(dp14
g4
S'date'
p15
sg6
I5
sg7
S'DATE'
p16
ssS'id'
p17
(dp18
g4
S'id'
p19
sg6
I1
sg7
S'INTEGER PRIMARY KEY AUTOINCREMENT'
p20
ssS'authid'
p21
(dp22
g4
S'reference auth_user'
p23
sg6
I3
sg7
S'INTEGER REFERENCES auth_user(id) ON DELETE CASCADE'
p24
ss.