(dp1
S'releasedate'
p2
(dp3
S'type'
p4
S'string'
p5
sS'sortable'
p6
I3
sS'sql'
p7
S'CHAR(512) NOT NULL'
p8
ssS'director'
p9
(dp10
S'sortable'
p11
I3
sS'type'
p12
S'string'
p13
sS'sql'
p14
S'CHAR(512)'
p15
ssS'singer'
p16
(dp17
g11
I5
sg12
g13
sg14
S'CHAR(512)'
p18
ssS'name'
p19
(dp20
g4
g5
sg6
I2
sg7
S'CHAR(512) NOT NULL'
p21
ssS'id'
p22
(dp23
g4
S'id'
p24
sg6
I1
sg7
S'INTEGER PRIMARY KEY AUTOINCREMENT'
p25
ssS'actor'
p26
(dp27
g11
I4
sg12
g13
sg14
S'CHAR(512)'
p28
ss.