(dp1
S'rating'
p2
(dp3
S'type'
p4
S'integer'
p5
sS'sortable'
p6
I4
sS'sql'
p7
S'INTEGER NOT NULL'
p8
ssS'user'
p9
(dp10
g4
S'string'
p11
sg6
I2
sg7
S'CHAR(512)'
p12
ssS'id'
p13
(dp14
g4
S'id'
p15
sg6
I1
sg7
S'INTEGER PRIMARY KEY AUTOINCREMENT'
p16
ssS'song'
p17
(dp18
g4
S'reference Songs'
p19
sg6
I3
sg7
S'INTEGER REFERENCES Songs(id) ON DELETE CASCADE'
p20
ss.