(dp1
S'City'
p2
(dp3
S'type'
p4
S'string'
p5
sS'sortable'
p6
I3
sS'sql'
p7
S'CHAR(512)'
p8
ssS'Strength'
p9
(dp10
g4
S'integer'
p11
sg6
I4
sg7
S'INTEGER'
p12
ssS'Specialization'
p13
(dp14
g4
g5
sg6
I6
sg7
S'CHAR(512)'
p15
ssS'Citations'
p16
(dp17
g4
g11
sg6
I5
sg7
S'INTEGER'
p18
ssS'Logo'
p19
(dp20
g4
S'upload'
p21
sg6
I7
sg7
S'CHAR(512)'
p22
ssS'id'
p23
(dp24
g4
g23
sg6
I1
sg7
S'INTEGER PRIMARY KEY AUTOINCREMENT'
p25
ssS'Name'
p26
(dp27
g4
g5
sg6
I2
sg7
S'CHAR(512)'
p28
ss.