(dp1
S'ZipFile'
p2
(dp3
S'type'
p4
S'upload'
p5
sS'sortable'
p6
I3
sS'sql'
p7
S'CHAR(512)'
p8
ssS'id'
p9
(dp10
g4
g9
sg6
I1
sg7
S'INTEGER PRIMARY KEY AUTOINCREMENT'
p11
ssS'Name'
p12
(dp13
g4
S'reference Project'
p14
sg6
I2
sg7
S'INTEGER REFERENCES Project(id) ON DELETE CASCADE'
p15
ss.