(dp1
S'output'
p2
S"<type 'exceptions.IndentationError'> unexpected indent (default.py, line 44)"
p3
sS'layer'
p4
S'/home/ds-iiit/web2py/applications/Gordian_Knot/controllers/default.py'
p5
sS'code'
p6
S'# -*- coding: utf-8 -*-\n# this file is released under public domain and you can use without limitations\n\n#########################################################################\n## This is a samples controller\n## - index is the default action of any application\n## - user is required for authentication and authorization\n## - download is for downloading files uploaded in the db (does streaming)\n## - call exposes all registered services (none by default)\n#########################################################################\n@auth.requires_login()\ndef addquestion():\n\tif auth.user_id != 1:\n\t\treturn dict(form="No Donut for you!")\n\tform = crud.create(\'Trivia\')\n\treturn dict(form=form)\n\n@auth.requires_login()\ndef updatequestion():\n\tif auth.user_id != 1:\n\t\treturn dict(form="No Donut for you!")\n\tno = int(request.args(0))\n\tform = crud.update(\'Trivia\',no)\n\treturn dict(form=form)\n\n@auth.requires_login()\ndef ranklist():\n\tx = db(db.auth_user.id > 0).select(orderby = Points)\n\treturn dict(x=x)\n\n@auth.requires_login()\ndef question():\n\tno=request.args(0)\n\tno = int(no)\n\tif auth.user_id == None:\n\t\tredirect(URL(\'landing\'))\n\tif len(db((db.Level.Level == no) & (db.Level.User == auth.user_id)).select()) != 0 or no == 0:\n\t\tquestions = db((db.Trivia.Level == no)).select(db.Trivia.ALL)\n\t\treturn dict(questions = questions)\n\telse:\n\t\tredirect(\'landing\')\n\n@auth.requires_login()\n\tif auth.user_id != 1:\n\t\treturn dict(form="No Donut for you!")\ndef landing():\n\ty = db(db.Level.User == auth.user_id).select(distinct=True)\n\treturn dict(y=y)\n\n@auth.requires_login()\ndef checkans():\n\tans = int(request.vars.ans)\n\tqno = int(request.vars.Qno)\n\tx = db((db.Trivia.id == qno) & (db.Trivia.Answer == ans)).select()\n\tif  len(x) == 0:\n\t\tz = db(db.Level.User == auth.user_id).select(distinct=True)\n\t\tresponse.flash = "I think you can do it!"\n\t\treturn dict(z=z,done=False)\n\telse:\n\t\tdb.Done.insert(User=auth.user.id,Question=qno)\n\t\ty = db((db.Done.User == auth.user.id)).select()\n\t\tif len(y) >= 2:\n\t\t\tresponse.flash = "Congratulations, Level 1 unlocked!"\n\t\t\tdb.Level.insert(User=auth.user_id,Level=1)\n\t\telif len(y) >= 5:\n\t\t\tresponse.flash = "Congratulations, Level 2 unlocked!"\n\t\t\tdb.Level.insert(User=auth.user_id,Level=2)\n\t\telif len(y) >= 10:\n\t\t\tresponse.flash = "Congratulations, Level 4 unlocked!"\n\t\t\tdb.Level.insert(User=auth.user_id,Level=3)\n\t\telif len(y) >= 15:\n\t\t\tresponse.flash = "Congratulations, Level 4 unlocked!"\n\t\t\tdb.Level.insert(User=auth.user_id,Level=4)\t\t\t\n\t\t\tz = db(db.Level.User == auth.user_id).select(distinct=True)\n\t\treturn dict(z=z,done=True)\n\ndef index():\n    """\n    example action using the internationalization operator T and flash\n    rendered by views/default/index.html or views/generic.html\n    """\n    response.flash = "Cut the Gordian Knot!"\n    return dict(message=T(\'What is Gordian Knot?\'))\n\ndef user():\n    """\n    exposes:\n    http://..../[app]/default/user/login\n    http://..../[app]/default/user/logout\n    http://..../[app]/default/user/register\n    http://..../[app]/default/user/profile\n    http://..../[app]/default/user/retrieve_password\n    http://..../[app]/default/user/change_password\n    use @auth.requires_login()\n        @auth.requires_membership(\'group name\')\n        @auth.requires_permission(\'read\',\'table name\',record_id)\n    to decorate functions that need access control\n    """\n    return dict(form=auth())\n\n\ndef download():\n    """\n    allows downloading of uploaded files\n    http://..../[app]/default/download/[filename]\n    """\n    return response.download(request,db)\n\n\ndef call():\n    """\n    exposes services. for example:\n    http://..../[app]/default/call/jsonrpc\n    decorate with @services.jsonrpc the functions to expose\n    supports xml, json, xmlrpc, jsonrpc, amfrpc, rss, csv\n    """\n    return service()\n\n\n@auth.requires_signature()\ndef data():\n    """\n    http://..../[app]/default/data/tables\n    http://..../[app]/default/data/create/[table]\n    http://..../[app]/default/data/read/[table]/[id]\n    http://..../[app]/default/data/update/[table]/[id]\n    http://..../[app]/default/data/delete/[table]/[id]\n    http://..../[app]/default/data/select/[table]\n    http://..../[app]/default/data/search/[table]\n    but URLs must be signed, i.e. linked with\n      A(\'table\',_href=URL(\'data/tables\',user_signature=True))\n    or with the signed load operator\n      LOAD(\'default\',\'data.load\',args=\'tables\',ajax=True,user_signature=True)\n    """\n    return dict(form=crud())\n\n\nresponse._vars=response._caller(question)\n'
p7
sS'snapshot'
p8
(dp9
S'exception'
p10
(dp11
S'__getslice__'
p12
S"<method-wrapper '__getslice__' of exceptions.IndentationError object>"
p13
sS'text'
p14
S"'\\tif auth.user_id != 1:\\n'"
p15
sS'__str__'
p16
S"<method-wrapper '__str__' of exceptions.IndentationError object>"
p17
sS'__reduce__'
p18
S'<built-in method __reduce__ of exceptions.IndentationError object>'
p19
sS'__dict__'
p20
S'{}'
p21
sS'__sizeof__'
p22
S'<built-in method __sizeof__ of exceptions.IndentationError object>'
p23
sS'__init__'
p24
S"<method-wrapper '__init__' of exceptions.IndentationError object>"
p25
sS'__setattr__'
p26
S"<method-wrapper '__setattr__' of exceptions.IndentationError object>"
p27
sS'__reduce_ex__'
p28
S'<built-in method __reduce_ex__ of exceptions.IndentationError object>'
p29
sS'__new__'
p30
S'<built-in method __new__ of type object>'
p31
sS'__format__'
p32
S'<built-in method __format__ of exceptions.IndentationError object>'
p33
sS'__class__'
p34
S"<type 'exceptions.IndentationError'>"
p35
sS'filename'
p36
S"'/home/ds-iiit/web2py/applications/Gordian_Knot/controllers/default.py'"
p37
sS'lineno'
p38
S'44'
p39
sS'msg'
p40
S"'unexpected indent'"
p41
sS'__doc__'
p42
S"'Improper indentation.'"
p43
sS'__getitem__'
p44
S"<method-wrapper '__getitem__' of exceptions.IndentationError object>"
p45
sS'__setstate__'
p46
S'<built-in method __setstate__ of exceptions.IndentationError object>'
p47
sS'__getattribute__'
p48
S"<method-wrapper '__getattribute__' of exceptions.IndentationError object>"
p49
sS'print_file_and_line'
p50
S'None'
p51
sS'args'
p52
S"('unexpected indent', ('/home/ds-iiit/web2py/applications/Gordian_Knot/controllers/default.py', 44, 1, '\\tif auth.user_id != 1:\\n'))"
p53
sS'__subclasshook__'
p54
S'<built-in method __subclasshook__ of type object>'
p55
sS'offset'
p56
S'1'
sS'__unicode__'
p57
S'<built-in method __unicode__ of exceptions.IndentationError object>'
p58
sS'__delattr__'
p59
S"<method-wrapper '__delattr__' of exceptions.IndentationError object>"
p60
sS'__repr__'
p61
S"<method-wrapper '__repr__' of exceptions.IndentationError object>"
p62
sS'__hash__'
p63
S"<method-wrapper '__hash__' of exceptions.IndentationError object>"
p64
ssS'evalue'
p65
S'unexpected indent (default.py, line 44)'
p66
sS'request'
p67
ccopy_reg
_reconstructor
p68
(cgluon.html
BEAUTIFY
p69
c__builtin__
object
p70
NtRp71
(dp72
S'attributes'
p73
(dp74
sS'components'
p75
(lp76
g68
(cgluon.html
TABLE
p77
g70
NtRp78
(dp79
g73
(dp80
S'level'
p81
I5
ssS'parent'
p82
Nsg75
(lp83
g68
(cgluon.html
TR
p84
g70
NtRp85
(dp86
g73
(dp87
sg82
g78
sg75
(lp88
g68
(cgluon.html
TD
p89
g70
NtRp90
(dp91
g73
(dp92
S'_style'
p93
S'font-weight:bold;vertical-align:top'
p94
ssg82
g85
sg75
(lp95
S'ajax'
p96
asbag68
(g89
g70
NtRp97
(dp98
g73
(dp99
S'_valign'
p100
S'top'
p101
ssg82
g85
sg75
(lp102
S':'
asbag68
(g89
g70
NtRp103
(dp104
g73
(dp105
sg82
g85
sg75
(lp106
g68
(g69
g70
NtRp107
(dp108
g73
(dp109
g81
I5
ssg82
g103
sg75
(lp110
S'False'
p111
asbasbasbag68
(g84
g70
NtRp112
(dp113
g73
(dp114
sg82
g78
sg75
(lp115
g68
(g89
g70
NtRp116
(dp117
g73
(dp118
g93
g94
ssg82
g112
sg75
(lp119
S'application'
p120
asbag68
(g89
g70
NtRp121
(dp122
g73
(dp123
g100
g101
ssg82
g112
sg75
(lp124
S':'
asbag68
(g89
g70
NtRp125
(dp126
g73
(dp127
sg82
g112
sg75
(lp128
g68
(g69
g70
NtRp129
(dp130
g73
(dp131
g81
I5
ssg82
g125
sg75
(lp132
S'Gordian_Knot'
p133
asbasbasbag68
(g84
g70
NtRp134
(dp135
g73
(dp136
sg82
g78
sg75
(lp137
g68
(g89
g70
NtRp138
(dp139
g73
(dp140
g93
g94
ssg82
g134
sg75
(lp141
g52
asbag68
(g89
g70
NtRp142
(dp143
g73
(dp144
g100
g101
ssg82
g134
sg75
(lp145
S':'
asbag68
(g89
g70
NtRp146
(dp147
g73
(dp148
sg82
g134
sg75
(lp149
g68
(g69
g70
NtRp150
(dp151
g73
(dp152
g81
I5
ssg82
g146
sg75
(lp153
g68
(g77
g70
NtRp154
(dp155
g73
(dp156
g81
I4
ssg82
Nsg75
(lp157
g68
(g84
g70
NtRp158
(dp159
g73
(dp160
sg82
g154
sg75
(lp161
g68
(g89
g70
NtRp162
(dp163
g73
(dp164
sg82
g158
sg75
(lp165
g68
(g69
g70
NtRp166
(dp167
g73
(dp168
g81
I4
ssg82
g162
sg75
(lp169
S'3'
asbasbasbasbasbasbasbag68
(g84
g70
NtRp170
(dp171
g73
(dp172
sg82
g78
sg75
(lp173
g68
(g89
g70
NtRp174
(dp175
g73
(dp176
g93
g94
ssg82
g170
sg75
(lp177
S'body'
p178
asbag68
(g89
g70
NtRp179
(dp180
g73
(dp181
g100
g101
ssg82
g170
sg75
(lp182
S':'
asbag68
(g89
g70
NtRp183
(dp184
g73
(dp185
sg82
g170
sg75
(lp186
g68
(g69
g70
NtRp187
(dp188
g73
(dp189
g81
I5
ssg82
g183
sg75
(lp190
S'<cStringIO.StringO object at 0x7f0dac44fab0>'
p191
asbasbasbag68
(g84
g70
NtRp192
(dp193
g73
(dp194
sg82
g78
sg75
(lp195
g68
(g89
g70
NtRp196
(dp197
g73
(dp198
g93
g94
ssg82
g192
sg75
(lp199
S'client'
p200
asbag68
(g89
g70
NtRp201
(dp202
g73
(dp203
g100
g101
ssg82
g192
sg75
(lp204
S':'
asbag68
(g89
g70
NtRp205
(dp206
g73
(dp207
sg82
g192
sg75
(lp208
g68
(g69
g70
NtRp209
(dp210
g73
(dp211
g81
I5
ssg82
g205
sg75
(lp212
S'127.0.0.1'
p213
asbasbasbag68
(g84
g70
NtRp214
(dp215
g73
(dp216
sg82
g78
sg75
(lp217
g68
(g89
g70
NtRp218
(dp219
g73
(dp220
g93
g94
ssg82
g214
sg75
(lp221
S'controller'
p222
asbag68
(g89
g70
NtRp223
(dp224
g73
(dp225
g100
g101
ssg82
g214
sg75
(lp226
S':'
asbag68
(g89
g70
NtRp227
(dp228
g73
(dp229
sg82
g214
sg75
(lp230
g68
(g69
g70
NtRp231
(dp232
g73
(dp233
g81
I5
ssg82
g227
sg75
(lp234
S'default'
p235
asbasbasbag68
(g84
g70
NtRp236
(dp237
g73
(dp238
sg82
g78
sg75
(lp239
g68
(g89
g70
NtRp240
(dp241
g73
(dp242
g93
g94
ssg82
g236
sg75
(lp243
S'cookies'
p244
asbag68
(g89
g70
NtRp245
(dp246
g73
(dp247
g100
g101
ssg82
g236
sg75
(lp248
S':'
asbag68
(g89
g70
NtRp249
(dp250
g73
(dp251
sg82
g236
sg75
(lp252
g68
(g69
g70
NtRp253
(dp254
g73
(dp255
g81
I5
ssg82
g249
sg75
(lp256
g68
(g77
g70
NtRp257
(dp258
g73
(dp259
g81
I4
ssg82
Nsg75
(lp260
g68
(g84
g70
NtRp261
(dp262
g73
(dp263
sg82
g257
sg75
(lp264
g68
(g89
g70
NtRp265
(dp266
g73
(dp267
g93
g94
ssg82
g261
sg75
(lp268
S'session_id_admin'
p269
asbag68
(g89
g70
NtRp270
(dp271
g73
(dp272
g100
g101
ssg82
g261
sg75
(lp273
S':'
asbag68
(g89
g70
NtRp274
(dp275
g73
(dp276
sg82
g261
sg75
(lp277
g68
(g69
g70
NtRp278
(dp279
g73
(dp280
g81
I4
ssg82
g274
sg75
(lp281
g68
(g77
g70
NtRp282
(dp283
g73
(dp284
g81
I3
ssg82
Nsg75
(lp285
g68
(g84
g70
NtRp286
(dp287
g73
(dp288
sg82
g282
sg75
(lp289
g68
(g89
g70
NtRp290
(dp291
g73
(dp292
g93
g94
ssg82
g286
sg75
(lp293
S'comment'
p294
asbag68
(g89
g70
NtRp295
(dp296
g73
(dp297
g100
g101
ssg82
g286
sg75
(lp298
S':'
asbag68
(g89
g70
NtRp299
(dp300
g73
(dp301
sg82
g286
sg75
(lp302
g68
(g69
g70
NtRp303
(dp304
g73
(dp305
g81
I3
ssg82
g299
sg75
(lp306
S''
asbasbasbag68
(g84
g70
NtRp307
(dp308
g73
(dp309
sg82
g282
sg75
(lp310
g68
(g89
g70
NtRp311
(dp312
g73
(dp313
g93
g94
ssg82
g307
sg75
(lp314
S'domain'
p315
asbag68
(g89
g70
NtRp316
(dp317
g73
(dp318
g100
g101
ssg82
g307
sg75
(lp319
S':'
asbag68
(g89
g70
NtRp320
(dp321
g73
(dp322
sg82
g307
sg75
(lp323
g68
(g69
g70
NtRp324
(dp325
g73
(dp326
g81
I3
ssg82
g320
sg75
(lp327
S''
asbasbasbag68
(g84
g70
NtRp328
(dp329
g73
(dp330
sg82
g282
sg75
(lp331
g68
(g89
g70
NtRp332
(dp333
g73
(dp334
g93
g94
ssg82
g328
sg75
(lp335
S'expires'
p336
asbag68
(g89
g70
NtRp337
(dp338
g73
(dp339
g100
g101
ssg82
g328
sg75
(lp340
S':'
asbag68
(g89
g70
NtRp341
(dp342
g73
(dp343
sg82
g328
sg75
(lp344
g68
(g69
g70
NtRp345
(dp346
g73
(dp347
g81
I3
ssg82
g341
sg75
(lp348
S''
asbasbasbag68
(g84
g70
NtRp349
(dp350
g73
(dp351
sg82
g282
sg75
(lp352
g68
(g89
g70
NtRp353
(dp354
g73
(dp355
g93
g94
ssg82
g349
sg75
(lp356
S'httponly'
p357
asbag68
(g89
g70
NtRp358
(dp359
g73
(dp360
g100
g101
ssg82
g349
sg75
(lp361
S':'
asbag68
(g89
g70
NtRp362
(dp363
g73
(dp364
sg82
g349
sg75
(lp365
g68
(g69
g70
NtRp366
(dp367
g73
(dp368
g81
I3
ssg82
g362
sg75
(lp369
S''
asbasbasbag68
(g84
g70
NtRp370
(dp371
g73
(dp372
sg82
g282
sg75
(lp373
g68
(g89
g70
NtRp374
(dp375
g73
(dp376
g93
g94
ssg82
g370
sg75
(lp377
S'max-age'
p378
asbag68
(g89
g70
NtRp379
(dp380
g73
(dp381
g100
g101
ssg82
g370
sg75
(lp382
S':'
asbag68
(g89
g70
NtRp383
(dp384
g73
(dp385
sg82
g370
sg75
(lp386
g68
(g69
g70
NtRp387
(dp388
g73
(dp389
g81
I3
ssg82
g383
sg75
(lp390
S''
asbasbasbag68
(g84
g70
NtRp391
(dp392
g73
(dp393
sg82
g282
sg75
(lp394
g68
(g89
g70
NtRp395
(dp396
g73
(dp397
g93
g94
ssg82
g391
sg75
(lp398
S'path'
p399
asbag68
(g89
g70
NtRp400
(dp401
g73
(dp402
g100
g101
ssg82
g391
sg75
(lp403
S':'
asbag68
(g89
g70
NtRp404
(dp405
g73
(dp406
sg82
g391
sg75
(lp407
g68
(g69
g70
NtRp408
(dp409
g73
(dp410
g81
I3
ssg82
g404
sg75
(lp411
S''
asbasbasbag68
(g84
g70
NtRp412
(dp413
g73
(dp414
sg82
g282
sg75
(lp415
g68
(g89
g70
NtRp416
(dp417
g73
(dp418
g93
g94
ssg82
g412
sg75
(lp419
S'secure'
p420
asbag68
(g89
g70
NtRp421
(dp422
g73
(dp423
g100
g101
ssg82
g412
sg75
(lp424
S':'
asbag68
(g89
g70
NtRp425
(dp426
g73
(dp427
sg82
g412
sg75
(lp428
g68
(g69
g70
NtRp429
(dp430
g73
(dp431
g81
I3
ssg82
g425
sg75
(lp432
S''
asbasbasbag68
(g84
g70
NtRp433
(dp434
g73
(dp435
sg82
g282
sg75
(lp436
g68
(g89
g70
NtRp437
(dp438
g73
(dp439
g93
g94
ssg82
g433
sg75
(lp440
S'version'
p441
asbag68
(g89
g70
NtRp442
(dp443
g73
(dp444
g100
g101
ssg82
g433
sg75
(lp445
S':'
asbag68
(g89
g70
NtRp446
(dp447
g73
(dp448
sg82
g433
sg75
(lp449
g68
(g69
g70
NtRp450
(dp451
g73
(dp452
g81
I3
ssg82
g446
sg75
(lp453
S''
asbasbasbasbasbasbasbag68
(g84
g70
NtRp454
(dp455
g73
(dp456
sg82
g257
sg75
(lp457
g68
(g89
g70
NtRp458
(dp459
g73
(dp460
g93
g94
ssg82
g454
sg75
(lp461
S'session_id_gordian_knot'
p462
asbag68
(g89
g70
NtRp463
(dp464
g73
(dp465
g100
g101
ssg82
g454
sg75
(lp466
S':'
asbag68
(g89
g70
NtRp467
(dp468
g73
(dp469
sg82
g454
sg75
(lp470
g68
(g69
g70
NtRp471
(dp472
g73
(dp473
g81
I4
ssg82
g467
sg75
(lp474
g68
(g77
g70
NtRp475
(dp476
g73
(dp477
g81
I3
ssg82
Nsg75
(lp478
g68
(g84
g70
NtRp479
(dp480
g73
(dp481
sg82
g475
sg75
(lp482
g68
(g89
g70
NtRp483
(dp484
g73
(dp485
g93
g94
ssg82
g479
sg75
(lp486
g294
asbag68
(g89
g70
NtRp487
(dp488
g73
(dp489
g100
g101
ssg82
g479
sg75
(lp490
S':'
asbag68
(g89
g70
NtRp491
(dp492
g73
(dp493
sg82
g479
sg75
(lp494
g68
(g69
g70
NtRp495
(dp496
g73
(dp497
g81
I3
ssg82
g491
sg75
(lp498
S''
asbasbasbag68
(g84
g70
NtRp499
(dp500
g73
(dp501
sg82
g475
sg75
(lp502
g68
(g89
g70
NtRp503
(dp504
g73
(dp505
g93
g94
ssg82
g499
sg75
(lp506
g315
asbag68
(g89
g70
NtRp507
(dp508
g73
(dp509
g100
g101
ssg82
g499
sg75
(lp510
S':'
asbag68
(g89
g70
NtRp511
(dp512
g73
(dp513
sg82
g499
sg75
(lp514
g68
(g69
g70
NtRp515
(dp516
g73
(dp517
g81
I3
ssg82
g511
sg75
(lp518
S''
asbasbasbag68
(g84
g70
NtRp519
(dp520
g73
(dp521
sg82
g475
sg75
(lp522
g68
(g89
g70
NtRp523
(dp524
g73
(dp525
g93
g94
ssg82
g519
sg75
(lp526
g336
asbag68
(g89
g70
NtRp527
(dp528
g73
(dp529
g100
g101
ssg82
g519
sg75
(lp530
S':'
asbag68
(g89
g70
NtRp531
(dp532
g73
(dp533
sg82
g519
sg75
(lp534
g68
(g69
g70
NtRp535
(dp536
g73
(dp537
g81
I3
ssg82
g531
sg75
(lp538
S''
asbasbasbag68
(g84
g70
NtRp539
(dp540
g73
(dp541
sg82
g475
sg75
(lp542
g68
(g89
g70
NtRp543
(dp544
g73
(dp545
g93
g94
ssg82
g539
sg75
(lp546
g357
asbag68
(g89
g70
NtRp547
(dp548
g73
(dp549
g100
g101
ssg82
g539
sg75
(lp550
S':'
asbag68
(g89
g70
NtRp551
(dp552
g73
(dp553
sg82
g539
sg75
(lp554
g68
(g69
g70
NtRp555
(dp556
g73
(dp557
g81
I3
ssg82
g551
sg75
(lp558
S''
asbasbasbag68
(g84
g70
NtRp559
(dp560
g73
(dp561
sg82
g475
sg75
(lp562
g68
(g89
g70
NtRp563
(dp564
g73
(dp565
g93
g94
ssg82
g559
sg75
(lp566
g378
asbag68
(g89
g70
NtRp567
(dp568
g73
(dp569
g100
g101
ssg82
g559
sg75
(lp570
S':'
asbag68
(g89
g70
NtRp571
(dp572
g73
(dp573
sg82
g559
sg75
(lp574
g68
(g69
g70
NtRp575
(dp576
g73
(dp577
g81
I3
ssg82
g571
sg75
(lp578
S''
asbasbasbag68
(g84
g70
NtRp579
(dp580
g73
(dp581
sg82
g475
sg75
(lp582
g68
(g89
g70
NtRp583
(dp584
g73
(dp585
g93
g94
ssg82
g579
sg75
(lp586
g399
asbag68
(g89
g70
NtRp587
(dp588
g73
(dp589
g100
g101
ssg82
g579
sg75
(lp590
S':'
asbag68
(g89
g70
NtRp591
(dp592
g73
(dp593
sg82
g579
sg75
(lp594
g68
(g69
g70
NtRp595
(dp596
g73
(dp597
g81
I3
ssg82
g591
sg75
(lp598
S''
asbasbasbag68
(g84
g70
NtRp599
(dp600
g73
(dp601
sg82
g475
sg75
(lp602
g68
(g89
g70
NtRp603
(dp604
g73
(dp605
g93
g94
ssg82
g599
sg75
(lp606
g420
asbag68
(g89
g70
NtRp607
(dp608
g73
(dp609
g100
g101
ssg82
g599
sg75
(lp610
S':'
asbag68
(g89
g70
NtRp611
(dp612
g73
(dp613
sg82
g599
sg75
(lp614
g68
(g69
g70
NtRp615
(dp616
g73
(dp617
g81
I3
ssg82
g611
sg75
(lp618
S''
asbasbasbag68
(g84
g70
NtRp619
(dp620
g73
(dp621
sg82
g475
sg75
(lp622
g68
(g89
g70
NtRp623
(dp624
g73
(dp625
g93
g94
ssg82
g619
sg75
(lp626
g441
asbag68
(g89
g70
NtRp627
(dp628
g73
(dp629
g100
g101
ssg82
g619
sg75
(lp630
S':'
asbag68
(g89
g70
NtRp631
(dp632
g73
(dp633
sg82
g619
sg75
(lp634
g68
(g69
g70
NtRp635
(dp636
g73
(dp637
g81
I3
ssg82
g631
sg75
(lp638
S''
asbasbasbasbasbasbasbag68
(g84
g70
NtRp639
(dp640
g73
(dp641
sg82
g257
sg75
(lp642
g68
(g89
g70
NtRp643
(dp644
g73
(dp645
g93
g94
ssg82
g639
sg75
(lp646
S'session_id_welcome'
p647
asbag68
(g89
g70
NtRp648
(dp649
g73
(dp650
g100
g101
ssg82
g639
sg75
(lp651
S':'
asbag68
(g89
g70
NtRp652
(dp653
g73
(dp654
sg82
g639
sg75
(lp655
g68
(g69
g70
NtRp656
(dp657
g73
(dp658
g81
I4
ssg82
g652
sg75
(lp659
g68
(g77
g70
NtRp660
(dp661
g73
(dp662
g81
I3
ssg82
Nsg75
(lp663
g68
(g84
g70
NtRp664
(dp665
g73
(dp666
sg82
g660
sg75
(lp667
g68
(g89
g70
NtRp668
(dp669
g73
(dp670
g93
g94
ssg82
g664
sg75
(lp671
g294
asbag68
(g89
g70
NtRp672
(dp673
g73
(dp674
g100
g101
ssg82
g664
sg75
(lp675
S':'
asbag68
(g89
g70
NtRp676
(dp677
g73
(dp678
sg82
g664
sg75
(lp679
g68
(g69
g70
NtRp680
(dp681
g73
(dp682
g81
I3
ssg82
g676
sg75
(lp683
S''
asbasbasbag68
(g84
g70
NtRp684
(dp685
g73
(dp686
sg82
g660
sg75
(lp687
g68
(g89
g70
NtRp688
(dp689
g73
(dp690
g93
g94
ssg82
g684
sg75
(lp691
g315
asbag68
(g89
g70
NtRp692
(dp693
g73
(dp694
g100
g101
ssg82
g684
sg75
(lp695
S':'
asbag68
(g89
g70
NtRp696
(dp697
g73
(dp698
sg82
g684
sg75
(lp699
g68
(g69
g70
NtRp700
(dp701
g73
(dp702
g81
I3
ssg82
g696
sg75
(lp703
S''
asbasbasbag68
(g84
g70
NtRp704
(dp705
g73
(dp706
sg82
g660
sg75
(lp707
g68
(g89
g70
NtRp708
(dp709
g73
(dp710
g93
g94
ssg82
g704
sg75
(lp711
g336
asbag68
(g89
g70
NtRp712
(dp713
g73
(dp714
g100
g101
ssg82
g704
sg75
(lp715
S':'
asbag68
(g89
g70
NtRp716
(dp717
g73
(dp718
sg82
g704
sg75
(lp719
g68
(g69
g70
NtRp720
(dp721
g73
(dp722
g81
I3
ssg82
g716
sg75
(lp723
S''
asbasbasbag68
(g84
g70
NtRp724
(dp725
g73
(dp726
sg82
g660
sg75
(lp727
g68
(g89
g70
NtRp728
(dp729
g73
(dp730
g93
g94
ssg82
g724
sg75
(lp731
g357
asbag68
(g89
g70
NtRp732
(dp733
g73
(dp734
g100
g101
ssg82
g724
sg75
(lp735
S':'
asbag68
(g89
g70
NtRp736
(dp737
g73
(dp738
sg82
g724
sg75
(lp739
g68
(g69
g70
NtRp740
(dp741
g73
(dp742
g81
I3
ssg82
g736
sg75
(lp743
S''
asbasbasbag68
(g84
g70
NtRp744
(dp745
g73
(dp746
sg82
g660
sg75
(lp747
g68
(g89
g70
NtRp748
(dp749
g73
(dp750
g93
g94
ssg82
g744
sg75
(lp751
g378
asbag68
(g89
g70
NtRp752
(dp753
g73
(dp754
g100
g101
ssg82
g744
sg75
(lp755
S':'
asbag68
(g89
g70
NtRp756
(dp757
g73
(dp758
sg82
g744
sg75
(lp759
g68
(g69
g70
NtRp760
(dp761
g73
(dp762
g81
I3
ssg82
g756
sg75
(lp763
S''
asbasbasbag68
(g84
g70
NtRp764
(dp765
g73
(dp766
sg82
g660
sg75
(lp767
g68
(g89
g70
NtRp768
(dp769
g73
(dp770
g93
g94
ssg82
g764
sg75
(lp771
g399
asbag68
(g89
g70
NtRp772
(dp773
g73
(dp774
g100
g101
ssg82
g764
sg75
(lp775
S':'
asbag68
(g89
g70
NtRp776
(dp777
g73
(dp778
sg82
g764
sg75
(lp779
g68
(g69
g70
NtRp780
(dp781
g73
(dp782
g81
I3
ssg82
g776
sg75
(lp783
S''
asbasbasbag68
(g84
g70
NtRp784
(dp785
g73
(dp786
sg82
g660
sg75
(lp787
g68
(g89
g70
NtRp788
(dp789
g73
(dp790
g93
g94
ssg82
g784
sg75
(lp791
g420
asbag68
(g89
g70
NtRp792
(dp793
g73
(dp794
g100
g101
ssg82
g784
sg75
(lp795
S':'
asbag68
(g89
g70
NtRp796
(dp797
g73
(dp798
sg82
g784
sg75
(lp799
g68
(g69
g70
NtRp800
(dp801
g73
(dp802
g81
I3
ssg82
g796
sg75
(lp803
S''
asbasbasbag68
(g84
g70
NtRp804
(dp805
g73
(dp806
sg82
g660
sg75
(lp807
g68
(g89
g70
NtRp808
(dp809
g73
(dp810
g93
g94
ssg82
g804
sg75
(lp811
g441
asbag68
(g89
g70
NtRp812
(dp813
g73
(dp814
g100
g101
ssg82
g804
sg75
(lp815
S':'
asbag68
(g89
g70
NtRp816
(dp817
g73
(dp818
sg82
g804
sg75
(lp819
g68
(g69
g70
NtRp820
(dp821
g73
(dp822
g81
I3
ssg82
g816
sg75
(lp823
S''
asbasbasbasbasbasbasbasbasbasbasbag68
(g84
g70
NtRp824
(dp825
g73
(dp826
sg82
g78
sg75
(lp827
g68
(g89
g70
NtRp828
(dp829
g73
(dp830
g93
g94
ssg82
g824
sg75
(lp831
S'env'
p832
asbag68
(g89
g70
NtRp833
(dp834
g73
(dp835
g100
g101
ssg82
g824
sg75
(lp836
S':'
asbag68
(g89
g70
NtRp837
(dp838
g73
(dp839
sg82
g824
sg75
(lp840
g68
(g69
g70
NtRp841
(dp842
g73
(dp843
g81
I5
ssg82
g837
sg75
(lp844
g68
(g77
g70
NtRp845
(dp846
g73
(dp847
g81
I4
ssg82
Nsg75
(lp848
g68
(g84
g70
NtRp849
(dp850
g73
(dp851
sg82
g845
sg75
(lp852
g68
(g89
g70
NtRp853
(dp854
g73
(dp855
g93
g94
ssg82
g849
sg75
(lp856
S'app_folders'
p857
asbag68
(g89
g70
NtRp858
(dp859
g73
(dp860
g100
g101
ssg82
g849
sg75
(lp861
S':'
asbag68
(g89
g70
NtRp862
(dp863
g73
(dp864
sg82
g849
sg75
(lp865
g68
(g69
g70
NtRp866
(dp867
g73
(dp868
g81
I4
ssg82
g862
sg75
(lp869
S"set(['/home/ds-iiit/web2py/applications/Gordian_Knot/', '/home/ds-iiit/web2py/applications/welcome/', '/home/ds-iiit/web2py/applications/admin/'])"
p870
asbasbasbag68
(g84
g70
NtRp871
(dp872
g73
(dp873
sg82
g845
sg75
(lp874
g68
(g89
g70
NtRp875
(dp876
g73
(dp877
g93
g94
ssg82
g871
sg75
(lp878
S'applications_parent'
p879
asbag68
(g89
g70
NtRp880
(dp881
g73
(dp882
g100
g101
ssg82
g871
sg75
(lp883
S':'
asbag68
(g89
g70
NtRp884
(dp885
g73
(dp886
sg82
g871
sg75
(lp887
g68
(g69
g70
NtRp888
(dp889
g73
(dp890
g81
I4
ssg82
g884
sg75
(lp891
S'/home/ds-iiit/web2py'
p892
asbasbasbag68
(g84
g70
NtRp893
(dp894
g73
(dp895
sg82
g845
sg75
(lp896
g68
(g89
g70
NtRp897
(dp898
g73
(dp899
g93
g94
ssg82
g893
sg75
(lp900
S'cmd_args'
p901
asbag68
(g89
g70
NtRp902
(dp903
g73
(dp904
g100
g101
ssg82
g893
sg75
(lp905
S':'
asbag68
(g89
g70
NtRp906
(dp907
g73
(dp908
sg82
g893
sg75
(lp909
g68
(g69
g70
NtRp910
(dp911
g73
(dp912
g81
I4
ssg82
g906
sg75
(lp913
g68
(g77
g70
NtRp914
(dp915
g73
(dp916
g81
I3
ssg82
Nsg75
(lp917
sbasbasbasbag68
(g84
g70
NtRp918
(dp919
g73
(dp920
sg82
g845
sg75
(lp921
g68
(g89
g70
NtRp922
(dp923
g73
(dp924
g93
g94
ssg82
g918
sg75
(lp925
S'cmd_options'
p926
asbag68
(g89
g70
NtRp927
(dp928
g73
(dp929
g100
g101
ssg82
g918
sg75
(lp930
S':'
asbag68
(g89
g70
NtRp931
(dp932
g73
(dp933
sg82
g918
sg75
(lp934
g68
(g69
g70
NtRp935
(dp936
g73
(dp937
g81
I4
ssg82
g931
sg75
(lp938
S"<Values at 0x29bbdd0: {'verbose': False, 'ip': '127.0.0.1', 'shutdown_timeout': 5, 'taskbar': False, 'port': 8000, 'maxthreads': None, 'softcron': False, 'server_name': 'DS-IIIT', 'bpython': False, 'nogui': False, 'nocron': False, 'extcron': False, 'debuglevel': 30, 'test': None, 'folder': '/home/ds-iiit/web2py', 'config': '', 'import_models': False, 'winservice': '', 'shell': None, 'run': '', 'log_filename': 'httpserver.log', 'args': [''], 'socket_timeout': 1, 'profiler_filename': None, 'ssl_private_key': '', 'password': '<ask>', 'request_queue_size': 5, 'ssl_certificate': '', 'cronjob': False, 'plain': False, 'quiet': False, 'interfaces': None, 'minthreads': None, 'timeout': 10, 'numthreads': None, 'nobanner': False, 'pid_filename': 'httpserver.pid'}>"
p939
asbasbasbag68
(g84
g70
NtRp940
(dp941
g73
(dp942
sg82
g845
sg75
(lp943
g68
(g89
g70
NtRp944
(dp945
g73
(dp946
g93
g94
ssg82
g940
sg75
(lp947
S'db_sessions'
p948
asbag68
(g89
g70
NtRp949
(dp950
g73
(dp951
g100
g101
ssg82
g940
sg75
(lp952
S':'
asbag68
(g89
g70
NtRp953
(dp954
g73
(dp955
sg82
g940
sg75
(lp956
g68
(g69
g70
NtRp957
(dp958
g73
(dp959
g81
I4
ssg82
g953
sg75
(lp960
S'set([])'
p961
asbasbasbag68
(g84
g70
NtRp962
(dp963
g73
(dp964
sg82
g845
sg75
(lp965
g68
(g89
g70
NtRp966
(dp967
g73
(dp968
g93
g94
ssg82
g962
sg75
(lp969
S'debugging'
p970
asbag68
(g89
g70
NtRp971
(dp972
g73
(dp973
g100
g101
ssg82
g962
sg75
(lp974
S':'
asbag68
(g89
g70
NtRp975
(dp976
g73
(dp977
sg82
g962
sg75
(lp978
g68
(g69
g70
NtRp979
(dp980
g73
(dp981
g81
I4
ssg82
g975
sg75
(lp982
g111
asbasbasbag68
(g84
g70
NtRp983
(dp984
g73
(dp985
sg82
g845
sg75
(lp986
g68
(g89
g70
NtRp987
(dp988
g73
(dp989
g93
g94
ssg82
g983
sg75
(lp990
S'gluon_parent'
p991
asbag68
(g89
g70
NtRp992
(dp993
g73
(dp994
g100
g101
ssg82
g983
sg75
(lp995
S':'
asbag68
(g89
g70
NtRp996
(dp997
g73
(dp998
sg82
g983
sg75
(lp999
g68
(g69
g70
NtRp1000
(dp1001
g73
(dp1002
g81
I4
ssg82
g996
sg75
(lp1003
S'/usr/share/web2py'
p1004
asbasbasbag68
(g84
g70
NtRp1005
(dp1006
g73
(dp1007
sg82
g845
sg75
(lp1008
g68
(g89
g70
NtRp1009
(dp1010
g73
(dp1011
g93
g94
ssg82
g1005
sg75
(lp1012
S'http_accept'
p1013
asbag68
(g89
g70
NtRp1014
(dp1015
g73
(dp1016
g100
g101
ssg82
g1005
sg75
(lp1017
S':'
asbag68
(g89
g70
NtRp1018
(dp1019
g73
(dp1020
sg82
g1005
sg75
(lp1021
g68
(g69
g70
NtRp1022
(dp1023
g73
(dp1024
g81
I4
ssg82
g1018
sg75
(lp1025
S'text/html,application/xhtml+xml,application/xml;q=0.9,*/*;q=0.8'
p1026
asbasbasbag68
(g84
g70
NtRp1027
(dp1028
g73
(dp1029
sg82
g845
sg75
(lp1030
g68
(g89
g70
NtRp1031
(dp1032
g73
(dp1033
g93
g94
ssg82
g1027
sg75
(lp1034
S'http_accept_encoding'
p1035
asbag68
(g89
g70
NtRp1036
(dp1037
g73
(dp1038
g100
g101
ssg82
g1027
sg75
(lp1039
S':'
asbag68
(g89
g70
NtRp1040
(dp1041
g73
(dp1042
sg82
g1027
sg75
(lp1043
g68
(g69
g70
NtRp1044
(dp1045
g73
(dp1046
g81
I4
ssg82
g1040
sg75
(lp1047
S'gzip,deflate,sdch'
p1048
asbasbasbag68
(g84
g70
NtRp1049
(dp1050
g73
(dp1051
sg82
g845
sg75
(lp1052
g68
(g89
g70
NtRp1053
(dp1054
g73
(dp1055
g93
g94
ssg82
g1049
sg75
(lp1056
S'http_accept_language'
p1057
asbag68
(g89
g70
NtRp1058
(dp1059
g73
(dp1060
g100
g101
ssg82
g1049
sg75
(lp1061
S':'
asbag68
(g89
g70
NtRp1062
(dp1063
g73
(dp1064
sg82
g1049
sg75
(lp1065
g68
(g69
g70
NtRp1066
(dp1067
g73
(dp1068
g81
I4
ssg82
g1062
sg75
(lp1069
S'en-US,en;q=0.8'
p1070
asbasbasbag68
(g84
g70
NtRp1071
(dp1072
g73
(dp1073
sg82
g845
sg75
(lp1074
g68
(g89
g70
NtRp1075
(dp1076
g73
(dp1077
g93
g94
ssg82
g1071
sg75
(lp1078
S'http_cache_control'
p1079
asbag68
(g89
g70
NtRp1080
(dp1081
g73
(dp1082
g100
g101
ssg82
g1071
sg75
(lp1083
S':'
asbag68
(g89
g70
NtRp1084
(dp1085
g73
(dp1086
sg82
g1071
sg75
(lp1087
g68
(g69
g70
NtRp1088
(dp1089
g73
(dp1090
g81
I4
ssg82
g1084
sg75
(lp1091
S'max-age=0'
p1092
asbasbasbag68
(g84
g70
NtRp1093
(dp1094
g73
(dp1095
sg82
g845
sg75
(lp1096
g68
(g89
g70
NtRp1097
(dp1098
g73
(dp1099
g93
g94
ssg82
g1093
sg75
(lp1100
S'http_connection'
p1101
asbag68
(g89
g70
NtRp1102
(dp1103
g73
(dp1104
g100
g101
ssg82
g1093
sg75
(lp1105
S':'
asbag68
(g89
g70
NtRp1106
(dp1107
g73
(dp1108
sg82
g1093
sg75
(lp1109
g68
(g69
g70
NtRp1110
(dp1111
g73
(dp1112
g81
I4
ssg82
g1106
sg75
(lp1113
S'keep-alive'
p1114
asbasbasbag68
(g84
g70
NtRp1115
(dp1116
g73
(dp1117
sg82
g845
sg75
(lp1118
g68
(g89
g70
NtRp1119
(dp1120
g73
(dp1121
g93
g94
ssg82
g1115
sg75
(lp1122
S'http_cookie'
p1123
asbag68
(g89
g70
NtRp1124
(dp1125
g73
(dp1126
g100
g101
ssg82
g1115
sg75
(lp1127
S':'
asbag68
(g89
g70
NtRp1128
(dp1129
g73
(dp1130
sg82
g1115
sg75
(lp1131
g68
(g69
g70
NtRp1132
(dp1133
g73
(dp1134
g81
I4
ssg82
g1128
sg75
(lp1135
S'session_id_welcome=127.0.0.1-4e28eb00-9390-42b6-b28b-84e33f3f3dc5; session_id_admin=127.0.0.1-99be9dae-8f31-4d84-8ac1-dd5f88d7bf21; session_id_gordian_knot=127.0.0.1-7cbbc713-1cb8-4d74-8c67-ceeed6d4fabf'
p1136
asbasbasbag68
(g84
g70
NtRp1137
(dp1138
g73
(dp1139
sg82
g845
sg75
(lp1140
g68
(g89
g70
NtRp1141
(dp1142
g73
(dp1143
g93
g94
ssg82
g1137
sg75
(lp1144
S'http_host'
p1145
asbag68
(g89
g70
NtRp1146
(dp1147
g73
(dp1148
g100
g101
ssg82
g1137
sg75
(lp1149
S':'
asbag68
(g89
g70
NtRp1150
(dp1151
g73
(dp1152
sg82
g1137
sg75
(lp1153
g68
(g69
g70
NtRp1154
(dp1155
g73
(dp1156
g81
I4
ssg82
g1150
sg75
(lp1157
S'127.0.0.1:8001'
p1158
asbasbasbag68
(g84
g70
NtRp1159
(dp1160
g73
(dp1161
sg82
g845
sg75
(lp1162
g68
(g89
g70
NtRp1163
(dp1164
g73
(dp1165
g93
g94
ssg82
g1159
sg75
(lp1166
S'http_user_agent'
p1167
asbag68
(g89
g70
NtRp1168
(dp1169
g73
(dp1170
g100
g101
ssg82
g1159
sg75
(lp1171
S':'
asbag68
(g89
g70
NtRp1172
(dp1173
g73
(dp1174
sg82
g1159
sg75
(lp1175
g68
(g69
g70
NtRp1176
(dp1177
g73
(dp1178
g81
I4
ssg82
g1172
sg75
(lp1179
S'Mozilla/5.0 (X11; Linux x86_64) AppleWebKit/537.36 (KHTML, like Gecko) Chrome/29.0.1547.57 Safari/537.36'
p1180
asbasbasbag68
(g84
g70
NtRp1181
(dp1182
g73
(dp1183
sg82
g845
sg75
(lp1184
g68
(g89
g70
NtRp1185
(dp1186
g73
(dp1187
g93
g94
ssg82
g1181
sg75
(lp1188
S'is_jython'
p1189
asbag68
(g89
g70
NtRp1190
(dp1191
g73
(dp1192
g100
g101
ssg82
g1181
sg75
(lp1193
S':'
asbag68
(g89
g70
NtRp1194
(dp1195
g73
(dp1196
sg82
g1181
sg75
(lp1197
g68
(g69
g70
NtRp1198
(dp1199
g73
(dp1200
g81
I4
ssg82
g1194
sg75
(lp1201
g111
asbasbasbag68
(g84
g70
NtRp1202
(dp1203
g73
(dp1204
sg82
g845
sg75
(lp1205
g68
(g89
g70
NtRp1206
(dp1207
g73
(dp1208
g93
g94
ssg82
g1202
sg75
(lp1209
S'is_pypy'
p1210
asbag68
(g89
g70
NtRp1211
(dp1212
g73
(dp1213
g100
g101
ssg82
g1202
sg75
(lp1214
S':'
asbag68
(g89
g70
NtRp1215
(dp1216
g73
(dp1217
sg82
g1202
sg75
(lp1218
g68
(g69
g70
NtRp1219
(dp1220
g73
(dp1221
g81
I4
ssg82
g1215
sg75
(lp1222
g111
asbasbasbag68
(g84
g70
NtRp1223
(dp1224
g73
(dp1225
sg82
g845
sg75
(lp1226
g68
(g89
g70
NtRp1227
(dp1228
g73
(dp1229
g93
g94
ssg82
g1223
sg75
(lp1230
S'path_info'
p1231
asbag68
(g89
g70
NtRp1232
(dp1233
g73
(dp1234
g100
g101
ssg82
g1223
sg75
(lp1235
S':'
asbag68
(g89
g70
NtRp1236
(dp1237
g73
(dp1238
sg82
g1223
sg75
(lp1239
g68
(g69
g70
NtRp1240
(dp1241
g73
(dp1242
g81
I4
ssg82
g1236
sg75
(lp1243
S'/Gordian_Knot/default/question/3'
p1244
asbasbasbag68
(g84
g70
NtRp1245
(dp1246
g73
(dp1247
sg82
g845
sg75
(lp1248
g68
(g89
g70
NtRp1249
(dp1250
g73
(dp1251
g93
g94
ssg82
g1245
sg75
(lp1252
S'query_string'
p1253
asbag68
(g89
g70
NtRp1254
(dp1255
g73
(dp1256
g100
g101
ssg82
g1245
sg75
(lp1257
S':'
asbag68
(g89
g70
NtRp1258
(dp1259
g73
(dp1260
sg82
g1245
sg75
(lp1261
g68
(g69
g70
NtRp1262
(dp1263
g73
(dp1264
g81
I4
ssg82
g1258
sg75
(lp1265
S''
asbasbasbag68
(g84
g70
NtRp1266
(dp1267
g73
(dp1268
sg82
g845
sg75
(lp1269
g68
(g89
g70
NtRp1270
(dp1271
g73
(dp1272
g93
g94
ssg82
g1266
sg75
(lp1273
S'remote_addr'
p1274
asbag68
(g89
g70
NtRp1275
(dp1276
g73
(dp1277
g100
g101
ssg82
g1266
sg75
(lp1278
S':'
asbag68
(g89
g70
NtRp1279
(dp1280
g73
(dp1281
sg82
g1266
sg75
(lp1282
g68
(g69
g70
NtRp1283
(dp1284
g73
(dp1285
g81
I4
ssg82
g1279
sg75
(lp1286
g213
asbasbasbag68
(g84
g70
NtRp1287
(dp1288
g73
(dp1289
sg82
g845
sg75
(lp1290
g68
(g89
g70
NtRp1291
(dp1292
g73
(dp1293
g93
g94
ssg82
g1287
sg75
(lp1294
S'remote_port'
p1295
asbag68
(g89
g70
NtRp1296
(dp1297
g73
(dp1298
g100
g101
ssg82
g1287
sg75
(lp1299
S':'
asbag68
(g89
g70
NtRp1300
(dp1301
g73
(dp1302
sg82
g1287
sg75
(lp1303
g68
(g69
g70
NtRp1304
(dp1305
g73
(dp1306
g81
I4
ssg82
g1300
sg75
(lp1307
S'40127'
p1308
asbasbasbag68
(g84
g70
NtRp1309
(dp1310
g73
(dp1311
sg82
g845
sg75
(lp1312
g68
(g89
g70
NtRp1313
(dp1314
g73
(dp1315
g93
g94
ssg82
g1309
sg75
(lp1316
S'request_method'
p1317
asbag68
(g89
g70
NtRp1318
(dp1319
g73
(dp1320
g100
g101
ssg82
g1309
sg75
(lp1321
S':'
asbag68
(g89
g70
NtRp1322
(dp1323
g73
(dp1324
sg82
g1309
sg75
(lp1325
g68
(g69
g70
NtRp1326
(dp1327
g73
(dp1328
g81
I4
ssg82
g1322
sg75
(lp1329
S'GET'
p1330
asbasbasbag68
(g84
g70
NtRp1331
(dp1332
g73
(dp1333
sg82
g845
sg75
(lp1334
g68
(g89
g70
NtRp1335
(dp1336
g73
(dp1337
g93
g94
ssg82
g1331
sg75
(lp1338
S'script_name'
p1339
asbag68
(g89
g70
NtRp1340
(dp1341
g73
(dp1342
g100
g101
ssg82
g1331
sg75
(lp1343
S':'
asbag68
(g89
g70
NtRp1344
(dp1345
g73
(dp1346
sg82
g1331
sg75
(lp1347
g68
(g69
g70
NtRp1348
(dp1349
g73
(dp1350
g81
I4
ssg82
g1344
sg75
(lp1351
S''
asbasbasbag68
(g84
g70
NtRp1352
(dp1353
g73
(dp1354
sg82
g845
sg75
(lp1355
g68
(g89
g70
NtRp1356
(dp1357
g73
(dp1358
g93
g94
ssg82
g1352
sg75
(lp1359
S'server_name'
p1360
asbag68
(g89
g70
NtRp1361
(dp1362
g73
(dp1363
g100
g101
ssg82
g1352
sg75
(lp1364
S':'
asbag68
(g89
g70
NtRp1365
(dp1366
g73
(dp1367
sg82
g1352
sg75
(lp1368
g68
(g69
g70
NtRp1369
(dp1370
g73
(dp1371
g81
I4
ssg82
g1365
sg75
(lp1372
S'DS-IIIT'
p1373
asbasbasbag68
(g84
g70
NtRp1374
(dp1375
g73
(dp1376
sg82
g845
sg75
(lp1377
g68
(g89
g70
NtRp1378
(dp1379
g73
(dp1380
g93
g94
ssg82
g1374
sg75
(lp1381
S'server_port'
p1382
asbag68
(g89
g70
NtRp1383
(dp1384
g73
(dp1385
g100
g101
ssg82
g1374
sg75
(lp1386
S':'
asbag68
(g89
g70
NtRp1387
(dp1388
g73
(dp1389
sg82
g1374
sg75
(lp1390
g68
(g69
g70
NtRp1391
(dp1392
g73
(dp1393
g81
I4
ssg82
g1387
sg75
(lp1394
S'8001'
p1395
asbasbasbag68
(g84
g70
NtRp1396
(dp1397
g73
(dp1398
sg82
g845
sg75
(lp1399
g68
(g89
g70
NtRp1400
(dp1401
g73
(dp1402
g93
g94
ssg82
g1396
sg75
(lp1403
S'server_protocol'
p1404
asbag68
(g89
g70
NtRp1405
(dp1406
g73
(dp1407
g100
g101
ssg82
g1396
sg75
(lp1408
S':'
asbag68
(g89
g70
NtRp1409
(dp1410
g73
(dp1411
sg82
g1396
sg75
(lp1412
g68
(g69
g70
NtRp1413
(dp1414
g73
(dp1415
g81
I4
ssg82
g1409
sg75
(lp1416
S'HTTP/1.1'
p1417
asbasbasbag68
(g84
g70
NtRp1418
(dp1419
g73
(dp1420
sg82
g845
sg75
(lp1421
g68
(g89
g70
NtRp1422
(dp1423
g73
(dp1424
g93
g94
ssg82
g1418
sg75
(lp1425
S'server_software'
p1426
asbag68
(g89
g70
NtRp1427
(dp1428
g73
(dp1429
g100
g101
ssg82
g1418
sg75
(lp1430
S':'
asbag68
(g89
g70
NtRp1431
(dp1432
g73
(dp1433
sg82
g1418
sg75
(lp1434
g68
(g69
g70
NtRp1435
(dp1436
g73
(dp1437
g81
I4
ssg82
g1431
sg75
(lp1438
S'Rocket 1.2.4'
p1439
asbasbasbag68
(g84
g70
NtRp1440
(dp1441
g73
(dp1442
sg82
g845
sg75
(lp1443
g68
(g89
g70
NtRp1444
(dp1445
g73
(dp1446
g93
g94
ssg82
g1440
sg75
(lp1447
S'web2py_crontype'
p1448
asbag68
(g89
g70
NtRp1449
(dp1450
g73
(dp1451
g100
g101
ssg82
g1440
sg75
(lp1452
S':'
asbag68
(g89
g70
NtRp1453
(dp1454
g73
(dp1455
sg82
g1440
sg75
(lp1456
g68
(g69
g70
NtRp1457
(dp1458
g73
(dp1459
g81
I4
ssg82
g1453
sg75
(lp1460
S'hard'
p1461
asbasbasbag68
(g84
g70
NtRp1462
(dp1463
g73
(dp1464
sg82
g845
sg75
(lp1465
g68
(g89
g70
NtRp1466
(dp1467
g73
(dp1468
g93
g94
ssg82
g1462
sg75
(lp1469
S'web2py_path'
p1470
asbag68
(g89
g70
NtRp1471
(dp1472
g73
(dp1473
g100
g101
ssg82
g1462
sg75
(lp1474
S':'
asbag68
(g89
g70
NtRp1475
(dp1476
g73
(dp1477
sg82
g1462
sg75
(lp1478
g68
(g69
g70
NtRp1479
(dp1480
g73
(dp1481
g81
I4
ssg82
g1475
sg75
(lp1482
g892
asbasbasbag68
(g84
g70
NtRp1483
(dp1484
g73
(dp1485
sg82
g845
sg75
(lp1486
g68
(g89
g70
NtRp1487
(dp1488
g73
(dp1489
g93
g94
ssg82
g1483
sg75
(lp1490
S'web2py_version'
p1491
asbag68
(g89
g70
NtRp1492
(dp1493
g73
(dp1494
g100
g101
ssg82
g1483
sg75
(lp1495
S':'
asbag68
(g89
g70
NtRp1496
(dp1497
g73
(dp1498
sg82
g1483
sg75
(lp1499
g68
(g69
g70
NtRp1500
(dp1501
g73
(dp1502
g81
I4
ssg82
g1496
sg75
(lp1503
g68
(g77
g70
NtRp1504
(dp1505
g73
(dp1506
g81
I3
ssg82
Nsg75
(lp1507
g68
(g84
g70
NtRp1508
(dp1509
g73
(dp1510
sg82
g1504
sg75
(lp1511
g68
(g89
g70
NtRp1512
(dp1513
g73
(dp1514
sg82
g1508
sg75
(lp1515
g68
(g69
g70
NtRp1516
(dp1517
g73
(dp1518
g81
I3
ssg82
g1512
sg75
(lp1519
S'1'
asbasbasbag68
(g84
g70
NtRp1520
(dp1521
g73
(dp1522
sg82
g1504
sg75
(lp1523
g68
(g89
g70
NtRp1524
(dp1525
g73
(dp1526
sg82
g1520
sg75
(lp1527
g68
(g69
g70
NtRp1528
(dp1529
g73
(dp1530
g81
I3
ssg82
g1524
sg75
(lp1531
S'99'
p1532
asbasbasbag68
(g84
g70
NtRp1533
(dp1534
g73
(dp1535
sg82
g1504
sg75
(lp1536
g68
(g89
g70
NtRp1537
(dp1538
g73
(dp1539
sg82
g1533
sg75
(lp1540
g68
(g69
g70
NtRp1541
(dp1542
g73
(dp1543
g81
I3
ssg82
g1537
sg75
(lp1544
S'4'
asbasbasbag68
(g84
g70
NtRp1545
(dp1546
g73
(dp1547
sg82
g1504
sg75
(lp1548
g68
(g89
g70
NtRp1549
(dp1550
g73
(dp1551
sg82
g1545
sg75
(lp1552
g68
(g69
g70
NtRp1553
(dp1554
g73
(dp1555
g81
I3
ssg82
g1549
sg75
(lp1556
S'datetime.datetime(2011, 12, 14, 14, 46, 14)'
p1557
asbasbasbag68
(g84
g70
NtRp1558
(dp1559
g73
(dp1560
sg82
g1504
sg75
(lp1561
g68
(g89
g70
NtRp1562
(dp1563
g73
(dp1564
sg82
g1558
sg75
(lp1565
g68
(g69
g70
NtRp1566
(dp1567
g73
(dp1568
g81
I3
ssg82
g1562
sg75
(lp1569
S'stable'
p1570
asbasbasbasbasbasbasbag68
(g84
g70
NtRp1571
(dp1572
g73
(dp1573
sg82
g845
sg75
(lp1574
g68
(g89
g70
NtRp1575
(dp1576
g73
(dp1577
g93
g94
ssg82
g1571
sg75
(lp1578
S'wsgi_errors'
p1579
asbag68
(g89
g70
NtRp1580
(dp1581
g73
(dp1582
g100
g101
ssg82
g1571
sg75
(lp1583
S':'
asbag68
(g89
g70
NtRp1584
(dp1585
g73
(dp1586
sg82
g1571
sg75
(lp1587
g68
(g69
g70
NtRp1588
(dp1589
g73
(dp1590
g81
I4
ssg82
g1584
sg75
(lp1591
S"<open file '<stderr>', mode 'w' at 0x7f0ddee12270>"
p1592
asbasbasbag68
(g84
g70
NtRp1593
(dp1594
g73
(dp1595
sg82
g845
sg75
(lp1596
g68
(g89
g70
NtRp1597
(dp1598
g73
(dp1599
g93
g94
ssg82
g1593
sg75
(lp1600
S'wsgi_file_wrapper'
p1601
asbag68
(g89
g70
NtRp1602
(dp1603
g73
(dp1604
g100
g101
ssg82
g1593
sg75
(lp1605
S':'
asbag68
(g89
g70
NtRp1606
(dp1607
g73
(dp1608
sg82
g1593
sg75
(lp1609
g68
(g69
g70
NtRp1610
(dp1611
g73
(dp1612
g81
I4
ssg82
g1606
sg75
(lp1613
S'<class wsgiref.util.FileWrapper at 0x29e8390>'
p1614
asbasbasbag68
(g84
g70
NtRp1615
(dp1616
g73
(dp1617
sg82
g845
sg75
(lp1618
g68
(g89
g70
NtRp1619
(dp1620
g73
(dp1621
g93
g94
ssg82
g1615
sg75
(lp1622
S'wsgi_input'
p1623
asbag68
(g89
g70
NtRp1624
(dp1625
g73
(dp1626
g100
g101
ssg82
g1615
sg75
(lp1627
S':'
asbag68
(g89
g70
NtRp1628
(dp1629
g73
(dp1630
sg82
g1615
sg75
(lp1631
g68
(g69
g70
NtRp1632
(dp1633
g73
(dp1634
g81
I4
ssg82
g1628
sg75
(lp1635
S'<socket._fileobject object at 0x7f0d8421f550>'
p1636
asbasbasbag68
(g84
g70
NtRp1637
(dp1638
g73
(dp1639
sg82
g845
sg75
(lp1640
g68
(g89
g70
NtRp1641
(dp1642
g73
(dp1643
g93
g94
ssg82
g1637
sg75
(lp1644
S'wsgi_multiprocess'
p1645
asbag68
(g89
g70
NtRp1646
(dp1647
g73
(dp1648
g100
g101
ssg82
g1637
sg75
(lp1649
S':'
asbag68
(g89
g70
NtRp1650
(dp1651
g73
(dp1652
sg82
g1637
sg75
(lp1653
g68
(g69
g70
NtRp1654
(dp1655
g73
(dp1656
g81
I4
ssg82
g1650
sg75
(lp1657
g111
asbasbasbag68
(g84
g70
NtRp1658
(dp1659
g73
(dp1660
sg82
g845
sg75
(lp1661
g68
(g89
g70
NtRp1662
(dp1663
g73
(dp1664
g93
g94
ssg82
g1658
sg75
(lp1665
S'wsgi_multithread'
p1666
asbag68
(g89
g70
NtRp1667
(dp1668
g73
(dp1669
g100
g101
ssg82
g1658
sg75
(lp1670
S':'
asbag68
(g89
g70
NtRp1671
(dp1672
g73
(dp1673
sg82
g1658
sg75
(lp1674
g68
(g69
g70
NtRp1675
(dp1676
g73
(dp1677
g81
I4
ssg82
g1671
sg75
(lp1678
S'True'
p1679
asbasbasbag68
(g84
g70
NtRp1680
(dp1681
g73
(dp1682
sg82
g845
sg75
(lp1683
g68
(g89
g70
NtRp1684
(dp1685
g73
(dp1686
g93
g94
ssg82
g1680
sg75
(lp1687
S'wsgi_run_once'
p1688
asbag68
(g89
g70
NtRp1689
(dp1690
g73
(dp1691
g100
g101
ssg82
g1680
sg75
(lp1692
S':'
asbag68
(g89
g70
NtRp1693
(dp1694
g73
(dp1695
sg82
g1680
sg75
(lp1696
g68
(g69
g70
NtRp1697
(dp1698
g73
(dp1699
g81
I4
ssg82
g1693
sg75
(lp1700
g111
asbasbasbag68
(g84
g70
NtRp1701
(dp1702
g73
(dp1703
sg82
g845
sg75
(lp1704
g68
(g89
g70
NtRp1705
(dp1706
g73
(dp1707
g93
g94
ssg82
g1701
sg75
(lp1708
S'wsgi_url_scheme'
p1709
asbag68
(g89
g70
NtRp1710
(dp1711
g73
(dp1712
g100
g101
ssg82
g1701
sg75
(lp1713
S':'
asbag68
(g89
g70
NtRp1714
(dp1715
g73
(dp1716
sg82
g1701
sg75
(lp1717
g68
(g69
g70
NtRp1718
(dp1719
g73
(dp1720
g81
I4
ssg82
g1714
sg75
(lp1721
S'http'
p1722
asbasbasbag68
(g84
g70
NtRp1723
(dp1724
g73
(dp1725
sg82
g845
sg75
(lp1726
g68
(g89
g70
NtRp1727
(dp1728
g73
(dp1729
g93
g94
ssg82
g1723
sg75
(lp1730
S'wsgi_version'
p1731
asbag68
(g89
g70
NtRp1732
(dp1733
g73
(dp1734
g100
g101
ssg82
g1723
sg75
(lp1735
S':'
asbag68
(g89
g70
NtRp1736
(dp1737
g73
(dp1738
sg82
g1723
sg75
(lp1739
g68
(g69
g70
NtRp1740
(dp1741
g73
(dp1742
g81
I4
ssg82
g1736
sg75
(lp1743
g68
(g77
g70
NtRp1744
(dp1745
g73
(dp1746
g81
I3
ssg82
Nsg75
(lp1747
g68
(g84
g70
NtRp1748
(dp1749
g73
(dp1750
sg82
g1744
sg75
(lp1751
g68
(g89
g70
NtRp1752
(dp1753
g73
(dp1754
sg82
g1748
sg75
(lp1755
g68
(g69
g70
NtRp1756
(dp1757
g73
(dp1758
g81
I3
ssg82
g1752
sg75
(lp1759
S'1'
asbasbasbag68
(g84
g70
NtRp1760
(dp1761
g73
(dp1762
sg82
g1744
sg75
(lp1763
g68
(g89
g70
NtRp1764
(dp1765
g73
(dp1766
sg82
g1760
sg75
(lp1767
g68
(g69
g70
NtRp1768
(dp1769
g73
(dp1770
g81
I3
ssg82
g1764
sg75
(lp1771
S'0'
asbasbasbasbasbasbasbasbasbasbasbag68
(g84
g70
NtRp1772
(dp1773
g73
(dp1774
sg82
g78
sg75
(lp1775
g68
(g89
g70
NtRp1776
(dp1777
g73
(dp1778
g93
g94
ssg82
g1772
sg75
(lp1779
S'extension'
p1780
asbag68
(g89
g70
NtRp1781
(dp1782
g73
(dp1783
g100
g101
ssg82
g1772
sg75
(lp1784
S':'
asbag68
(g89
g70
NtRp1785
(dp1786
g73
(dp1787
sg82
g1772
sg75
(lp1788
g68
(g69
g70
NtRp1789
(dp1790
g73
(dp1791
g81
I5
ssg82
g1785
sg75
(lp1792
S'html'
p1793
asbasbasbag68
(g84
g70
NtRp1794
(dp1795
g73
(dp1796
sg82
g78
sg75
(lp1797
g68
(g89
g70
NtRp1798
(dp1799
g73
(dp1800
g93
g94
ssg82
g1794
sg75
(lp1801
S'folder'
p1802
asbag68
(g89
g70
NtRp1803
(dp1804
g73
(dp1805
g100
g101
ssg82
g1794
sg75
(lp1806
S':'
asbag68
(g89
g70
NtRp1807
(dp1808
g73
(dp1809
sg82
g1794
sg75
(lp1810
g68
(g69
g70
NtRp1811
(dp1812
g73
(dp1813
g81
I5
ssg82
g1807
sg75
(lp1814
S'/home/ds-iiit/web2py/applications/Gordian_Knot/'
p1815
asbasbasbag68
(g84
g70
NtRp1816
(dp1817
g73
(dp1818
sg82
g78
sg75
(lp1819
g68
(g89
g70
NtRp1820
(dp1821
g73
(dp1822
g93
g94
ssg82
g1816
sg75
(lp1823
S'function'
p1824
asbag68
(g89
g70
NtRp1825
(dp1826
g73
(dp1827
g100
g101
ssg82
g1816
sg75
(lp1828
S':'
asbag68
(g89
g70
NtRp1829
(dp1830
g73
(dp1831
sg82
g1816
sg75
(lp1832
g68
(g69
g70
NtRp1833
(dp1834
g73
(dp1835
g81
I5
ssg82
g1829
sg75
(lp1836
S'question'
p1837
asbasbasbag68
(g84
g70
NtRp1838
(dp1839
g73
(dp1840
sg82
g78
sg75
(lp1841
g68
(g89
g70
NtRp1842
(dp1843
g73
(dp1844
g93
g94
ssg82
g1838
sg75
(lp1845
S'get_vars'
p1846
asbag68
(g89
g70
NtRp1847
(dp1848
g73
(dp1849
g100
g101
ssg82
g1838
sg75
(lp1850
S':'
asbag68
(g89
g70
NtRp1851
(dp1852
g73
(dp1853
sg82
g1838
sg75
(lp1854
g68
(g69
g70
NtRp1855
(dp1856
g73
(dp1857
g81
I5
ssg82
g1851
sg75
(lp1858
g68
(g77
g70
NtRp1859
(dp1860
g73
(dp1861
g81
I4
ssg82
Nsg75
(lp1862
sbasbasbasbag68
(g84
g70
NtRp1863
(dp1864
g73
(dp1865
sg82
g78
sg75
(lp1866
g68
(g89
g70
NtRp1867
(dp1868
g73
(dp1869
g93
g94
ssg82
g1863
sg75
(lp1870
S'global_settings'
p1871
asbag68
(g89
g70
NtRp1872
(dp1873
g73
(dp1874
g100
g101
ssg82
g1863
sg75
(lp1875
S':'
asbag68
(g89
g70
NtRp1876
(dp1877
g73
(dp1878
sg82
g1863
sg75
(lp1879
g68
(g69
g70
NtRp1880
(dp1881
g73
(dp1882
g81
I5
ssg82
g1876
sg75
(lp1883
g68
(g77
g70
NtRp1884
(dp1885
g73
(dp1886
g81
I4
ssg82
Nsg75
(lp1887
g68
(g84
g70
NtRp1888
(dp1889
g73
(dp1890
sg82
g1884
sg75
(lp1891
g68
(g89
g70
NtRp1892
(dp1893
g73
(dp1894
g93
g94
ssg82
g1888
sg75
(lp1895
g857
asbag68
(g89
g70
NtRp1896
(dp1897
g73
(dp1898
g100
g101
ssg82
g1888
sg75
(lp1899
S':'
asbag68
(g89
g70
NtRp1900
(dp1901
g73
(dp1902
sg82
g1888
sg75
(lp1903
g68
(g69
g70
NtRp1904
(dp1905
g73
(dp1906
g81
I4
ssg82
g1900
sg75
(lp1907
S"set(['/home/ds-iiit/web2py/applications/Gordian_Knot/', '/home/ds-iiit/web2py/applications/welcome/', '/home/ds-iiit/web2py/applications/admin/'])"
p1908
asbasbasbag68
(g84
g70
NtRp1909
(dp1910
g73
(dp1911
sg82
g1884
sg75
(lp1912
g68
(g89
g70
NtRp1913
(dp1914
g73
(dp1915
g93
g94
ssg82
g1909
sg75
(lp1916
g879
asbag68
(g89
g70
NtRp1917
(dp1918
g73
(dp1919
g100
g101
ssg82
g1909
sg75
(lp1920
S':'
asbag68
(g89
g70
NtRp1921
(dp1922
g73
(dp1923
sg82
g1909
sg75
(lp1924
g68
(g69
g70
NtRp1925
(dp1926
g73
(dp1927
g81
I4
ssg82
g1921
sg75
(lp1928
g892
asbasbasbag68
(g84
g70
NtRp1929
(dp1930
g73
(dp1931
sg82
g1884
sg75
(lp1932
g68
(g89
g70
NtRp1933
(dp1934
g73
(dp1935
g93
g94
ssg82
g1929
sg75
(lp1936
g901
asbag68
(g89
g70
NtRp1937
(dp1938
g73
(dp1939
g100
g101
ssg82
g1929
sg75
(lp1940
S':'
asbag68
(g89
g70
NtRp1941
(dp1942
g73
(dp1943
sg82
g1929
sg75
(lp1944
g68
(g69
g70
NtRp1945
(dp1946
g73
(dp1947
g81
I4
ssg82
g1941
sg75
(lp1948
g68
(g77
g70
NtRp1949
(dp1950
g73
(dp1951
g81
I3
ssg82
Nsg75
(lp1952
sbasbasbasbag68
(g84
g70
NtRp1953
(dp1954
g73
(dp1955
sg82
g1884
sg75
(lp1956
g68
(g89
g70
NtRp1957
(dp1958
g73
(dp1959
g93
g94
ssg82
g1953
sg75
(lp1960
g926
asbag68
(g89
g70
NtRp1961
(dp1962
g73
(dp1963
g100
g101
ssg82
g1953
sg75
(lp1964
S':'
asbag68
(g89
g70
NtRp1965
(dp1966
g73
(dp1967
sg82
g1953
sg75
(lp1968
g68
(g69
g70
NtRp1969
(dp1970
g73
(dp1971
g81
I4
ssg82
g1965
sg75
(lp1972
S"<Values at 0x29bbdd0: {'verbose': False, 'ip': '127.0.0.1', 'shutdown_timeout': 5, 'taskbar': False, 'port': 8000, 'maxthreads': None, 'softcron': False, 'server_name': 'DS-IIIT', 'bpython': False, 'nogui': False, 'nocron': False, 'extcron': False, 'debuglevel': 30, 'test': None, 'folder': '/home/ds-iiit/web2py', 'config': '', 'import_models': False, 'winservice': '', 'shell': None, 'run': '', 'log_filename': 'httpserver.log', 'args': [''], 'socket_timeout': 1, 'profiler_filename': None, 'ssl_private_key': '', 'password': '<ask>', 'request_queue_size': 5, 'ssl_certificate': '', 'cronjob': False, 'plain': False, 'quiet': False, 'interfaces': None, 'minthreads': None, 'timeout': 10, 'numthreads': None, 'nobanner': False, 'pid_filename': 'httpserver.pid'}>"
p1973
asbasbasbag68
(g84
g70
NtRp1974
(dp1975
g73
(dp1976
sg82
g1884
sg75
(lp1977
g68
(g89
g70
NtRp1978
(dp1979
g73
(dp1980
g93
g94
ssg82
g1974
sg75
(lp1981
g948
asbag68
(g89
g70
NtRp1982
(dp1983
g73
(dp1984
g100
g101
ssg82
g1974
sg75
(lp1985
S':'
asbag68
(g89
g70
NtRp1986
(dp1987
g73
(dp1988
sg82
g1974
sg75
(lp1989
g68
(g69
g70
NtRp1990
(dp1991
g73
(dp1992
g81
I4
ssg82
g1986
sg75
(lp1993
S'set([])'
p1994
asbasbasbag68
(g84
g70
NtRp1995
(dp1996
g73
(dp1997
sg82
g1884
sg75
(lp1998
g68
(g89
g70
NtRp1999
(dp2000
g73
(dp2001
g93
g94
ssg82
g1995
sg75
(lp2002
g970
asbag68
(g89
g70
NtRp2003
(dp2004
g73
(dp2005
g100
g101
ssg82
g1995
sg75
(lp2006
S':'
asbag68
(g89
g70
NtRp2007
(dp2008
g73
(dp2009
sg82
g1995
sg75
(lp2010
g68
(g69
g70
NtRp2011
(dp2012
g73
(dp2013
g81
I4
ssg82
g2007
sg75
(lp2014
g111
asbasbasbag68
(g84
g70
NtRp2015
(dp2016
g73
(dp2017
sg82
g1884
sg75
(lp2018
g68
(g89
g70
NtRp2019
(dp2020
g73
(dp2021
g93
g94
ssg82
g2015
sg75
(lp2022
g991
asbag68
(g89
g70
NtRp2023
(dp2024
g73
(dp2025
g100
g101
ssg82
g2015
sg75
(lp2026
S':'
asbag68
(g89
g70
NtRp2027
(dp2028
g73
(dp2029
sg82
g2015
sg75
(lp2030
g68
(g69
g70
NtRp2031
(dp2032
g73
(dp2033
g81
I4
ssg82
g2027
sg75
(lp2034
g1004
asbasbasbag68
(g84
g70
NtRp2035
(dp2036
g73
(dp2037
sg82
g1884
sg75
(lp2038
g68
(g89
g70
NtRp2039
(dp2040
g73
(dp2041
g93
g94
ssg82
g2035
sg75
(lp2042
g1189
asbag68
(g89
g70
NtRp2043
(dp2044
g73
(dp2045
g100
g101
ssg82
g2035
sg75
(lp2046
S':'
asbag68
(g89
g70
NtRp2047
(dp2048
g73
(dp2049
sg82
g2035
sg75
(lp2050
g68
(g69
g70
NtRp2051
(dp2052
g73
(dp2053
g81
I4
ssg82
g2047
sg75
(lp2054
g111
asbasbasbag68
(g84
g70
NtRp2055
(dp2056
g73
(dp2057
sg82
g1884
sg75
(lp2058
g68
(g89
g70
NtRp2059
(dp2060
g73
(dp2061
g93
g94
ssg82
g2055
sg75
(lp2062
g1210
asbag68
(g89
g70
NtRp2063
(dp2064
g73
(dp2065
g100
g101
ssg82
g2055
sg75
(lp2066
S':'
asbag68
(g89
g70
NtRp2067
(dp2068
g73
(dp2069
sg82
g2055
sg75
(lp2070
g68
(g69
g70
NtRp2071
(dp2072
g73
(dp2073
g81
I4
ssg82
g2067
sg75
(lp2074
g111
asbasbasbag68
(g84
g70
NtRp2075
(dp2076
g73
(dp2077
sg82
g1884
sg75
(lp2078
g68
(g89
g70
NtRp2079
(dp2080
g73
(dp2081
g93
g94
ssg82
g2075
sg75
(lp2082
g1448
asbag68
(g89
g70
NtRp2083
(dp2084
g73
(dp2085
g100
g101
ssg82
g2075
sg75
(lp2086
S':'
asbag68
(g89
g70
NtRp2087
(dp2088
g73
(dp2089
sg82
g2075
sg75
(lp2090
g68
(g69
g70
NtRp2091
(dp2092
g73
(dp2093
g81
I4
ssg82
g2087
sg75
(lp2094
g1461
asbasbasbag68
(g84
g70
NtRp2095
(dp2096
g73
(dp2097
sg82
g1884
sg75
(lp2098
g68
(g89
g70
NtRp2099
(dp2100
g73
(dp2101
g93
g94
ssg82
g2095
sg75
(lp2102
g1491
asbag68
(g89
g70
NtRp2103
(dp2104
g73
(dp2105
g100
g101
ssg82
g2095
sg75
(lp2106
S':'
asbag68
(g89
g70
NtRp2107
(dp2108
g73
(dp2109
sg82
g2095
sg75
(lp2110
g68
(g69
g70
NtRp2111
(dp2112
g73
(dp2113
g81
I4
ssg82
g2107
sg75
(lp2114
g68
(g77
g70
NtRp2115
(dp2116
g73
(dp2117
g81
I3
ssg82
Nsg75
(lp2118
g68
(g84
g70
NtRp2119
(dp2120
g73
(dp2121
sg82
g2115
sg75
(lp2122
g68
(g89
g70
NtRp2123
(dp2124
g73
(dp2125
sg82
g2119
sg75
(lp2126
g68
(g69
g70
NtRp2127
(dp2128
g73
(dp2129
g81
I3
ssg82
g2123
sg75
(lp2130
S'1'
asbasbasbag68
(g84
g70
NtRp2131
(dp2132
g73
(dp2133
sg82
g2115
sg75
(lp2134
g68
(g89
g70
NtRp2135
(dp2136
g73
(dp2137
sg82
g2131
sg75
(lp2138
g68
(g69
g70
NtRp2139
(dp2140
g73
(dp2141
g81
I3
ssg82
g2135
sg75
(lp2142
S'99'
p2143
asbasbasbag68
(g84
g70
NtRp2144
(dp2145
g73
(dp2146
sg82
g2115
sg75
(lp2147
g68
(g89
g70
NtRp2148
(dp2149
g73
(dp2150
sg82
g2144
sg75
(lp2151
g68
(g69
g70
NtRp2152
(dp2153
g73
(dp2154
g81
I3
ssg82
g2148
sg75
(lp2155
S'4'
asbasbasbag68
(g84
g70
NtRp2156
(dp2157
g73
(dp2158
sg82
g2115
sg75
(lp2159
g68
(g89
g70
NtRp2160
(dp2161
g73
(dp2162
sg82
g2156
sg75
(lp2163
g68
(g69
g70
NtRp2164
(dp2165
g73
(dp2166
g81
I3
ssg82
g2160
sg75
(lp2167
S'datetime.datetime(2011, 12, 14, 14, 46, 14)'
p2168
asbasbasbag68
(g84
g70
NtRp2169
(dp2170
g73
(dp2171
sg82
g2115
sg75
(lp2172
g68
(g89
g70
NtRp2173
(dp2174
g73
(dp2175
sg82
g2169
sg75
(lp2176
g68
(g69
g70
NtRp2177
(dp2178
g73
(dp2179
g81
I3
ssg82
g2173
sg75
(lp2180
g1570
asbasbasbasbasbasbasbasbasbasbasbag68
(g84
g70
NtRp2181
(dp2182
g73
(dp2183
sg82
g78
sg75
(lp2184
g68
(g89
g70
NtRp2185
(dp2186
g73
(dp2187
g93
g94
ssg82
g2181
sg75
(lp2188
S'is_https'
p2189
asbag68
(g89
g70
NtRp2190
(dp2191
g73
(dp2192
g100
g101
ssg82
g2181
sg75
(lp2193
S':'
asbag68
(g89
g70
NtRp2194
(dp2195
g73
(dp2196
sg82
g2181
sg75
(lp2197
g68
(g69
g70
NtRp2198
(dp2199
g73
(dp2200
g81
I5
ssg82
g2194
sg75
(lp2201
g111
asbasbasbag68
(g84
g70
NtRp2202
(dp2203
g73
(dp2204
sg82
g78
sg75
(lp2205
g68
(g89
g70
NtRp2206
(dp2207
g73
(dp2208
g93
g94
ssg82
g2202
sg75
(lp2209
S'is_local'
p2210
asbag68
(g89
g70
NtRp2211
(dp2212
g73
(dp2213
g100
g101
ssg82
g2202
sg75
(lp2214
S':'
asbag68
(g89
g70
NtRp2215
(dp2216
g73
(dp2217
sg82
g2202
sg75
(lp2218
g68
(g69
g70
NtRp2219
(dp2220
g73
(dp2221
g81
I5
ssg82
g2215
sg75
(lp2222
g1679
asbasbasbag68
(g84
g70
NtRp2223
(dp2224
g73
(dp2225
sg82
g78
sg75
(lp2226
g68
(g89
g70
NtRp2227
(dp2228
g73
(dp2229
g93
g94
ssg82
g2223
sg75
(lp2230
S'is_restful'
p2231
asbag68
(g89
g70
NtRp2232
(dp2233
g73
(dp2234
g100
g101
ssg82
g2223
sg75
(lp2235
S':'
asbag68
(g89
g70
NtRp2236
(dp2237
g73
(dp2238
sg82
g2223
sg75
(lp2239
g68
(g69
g70
NtRp2240
(dp2241
g73
(dp2242
g81
I5
ssg82
g2236
sg75
(lp2243
g111
asbasbasbag68
(g84
g70
NtRp2244
(dp2245
g73
(dp2246
sg82
g78
sg75
(lp2247
g68
(g89
g70
NtRp2248
(dp2249
g73
(dp2250
g93
g94
ssg82
g2244
sg75
(lp2251
S'now'
p2252
asbag68
(g89
g70
NtRp2253
(dp2254
g73
(dp2255
g100
g101
ssg82
g2244
sg75
(lp2256
S':'
asbag68
(g89
g70
NtRp2257
(dp2258
g73
(dp2259
sg82
g2244
sg75
(lp2260
g68
(g69
g70
NtRp2261
(dp2262
g73
(dp2263
g81
I5
ssg82
g2257
sg75
(lp2264
S'datetime.datetime(2013, 9, 22, 8, 4, 51, 199687)'
p2265
asbasbasbag68
(g84
g70
NtRp2266
(dp2267
g73
(dp2268
sg82
g78
sg75
(lp2269
g68
(g89
g70
NtRp2270
(dp2271
g73
(dp2272
g93
g94
ssg82
g2266
sg75
(lp2273
S'post_vars'
p2274
asbag68
(g89
g70
NtRp2275
(dp2276
g73
(dp2277
g100
g101
ssg82
g2266
sg75
(lp2278
S':'
asbag68
(g89
g70
NtRp2279
(dp2280
g73
(dp2281
sg82
g2266
sg75
(lp2282
g68
(g69
g70
NtRp2283
(dp2284
g73
(dp2285
g81
I5
ssg82
g2279
sg75
(lp2286
g68
(g77
g70
NtRp2287
(dp2288
g73
(dp2289
g81
I4
ssg82
Nsg75
(lp2290
sbasbasbasbag68
(g84
g70
NtRp2291
(dp2292
g73
(dp2293
sg82
g78
sg75
(lp2294
g68
(g89
g70
NtRp2295
(dp2296
g73
(dp2297
g93
g94
ssg82
g2291
sg75
(lp2298
S'raw_args'
p2299
asbag68
(g89
g70
NtRp2300
(dp2301
g73
(dp2302
g100
g101
ssg82
g2291
sg75
(lp2303
S':'
asbag68
(g89
g70
NtRp2304
(dp2305
g73
(dp2306
sg82
g2291
sg75
(lp2307
g68
(g69
g70
NtRp2308
(dp2309
g73
(dp2310
g81
I5
ssg82
g2304
sg75
(lp2311
S'3'
asbasbasbag68
(g84
g70
NtRp2312
(dp2313
g73
(dp2314
sg82
g78
sg75
(lp2315
g68
(g89
g70
NtRp2316
(dp2317
g73
(dp2318
g93
g94
ssg82
g2312
sg75
(lp2319
S'url'
p2320
asbag68
(g89
g70
NtRp2321
(dp2322
g73
(dp2323
g100
g101
ssg82
g2312
sg75
(lp2324
S':'
asbag68
(g89
g70
NtRp2325
(dp2326
g73
(dp2327
sg82
g2312
sg75
(lp2328
g68
(g69
g70
NtRp2329
(dp2330
g73
(dp2331
g81
I5
ssg82
g2325
sg75
(lp2332
S'/Gordian_Knot/default/question/3'
p2333
asbasbasbag68
(g84
g70
NtRp2334
(dp2335
g73
(dp2336
sg82
g78
sg75
(lp2337
g68
(g89
g70
NtRp2338
(dp2339
g73
(dp2340
g93
g94
ssg82
g2334
sg75
(lp2341
S'utcnow'
p2342
asbag68
(g89
g70
NtRp2343
(dp2344
g73
(dp2345
g100
g101
ssg82
g2334
sg75
(lp2346
S':'
asbag68
(g89
g70
NtRp2347
(dp2348
g73
(dp2349
sg82
g2334
sg75
(lp2350
g68
(g69
g70
NtRp2351
(dp2352
g73
(dp2353
g81
I5
ssg82
g2347
sg75
(lp2354
S'datetime.datetime(2013, 9, 22, 2, 34, 51, 199709)'
p2355
asbasbasbag68
(g84
g70
NtRp2356
(dp2357
g73
(dp2358
sg82
g78
sg75
(lp2359
g68
(g89
g70
NtRp2360
(dp2361
g73
(dp2362
g93
g94
ssg82
g2356
sg75
(lp2363
S'uuid'
p2364
asbag68
(g89
g70
NtRp2365
(dp2366
g73
(dp2367
g100
g101
ssg82
g2356
sg75
(lp2368
S':'
asbag68
(g89
g70
NtRp2369
(dp2370
g73
(dp2371
sg82
g2356
sg75
(lp2372
g68
(g69
g70
NtRp2373
(dp2374
g73
(dp2375
g81
I5
ssg82
g2369
sg75
(lp2376
S'Gordian_Knot/127.0.0.1.2013-09-22.08-04-51.db8a461b-9362-417c-a080-2c730f237119'
p2377
asbasbasbag68
(g84
g70
NtRp2378
(dp2379
g73
(dp2380
sg82
g78
sg75
(lp2381
g68
(g89
g70
NtRp2382
(dp2383
g73
(dp2384
g93
g94
ssg82
g2378
sg75
(lp2385
S'vars'
p2386
asbag68
(g89
g70
NtRp2387
(dp2388
g73
(dp2389
g100
g101
ssg82
g2378
sg75
(lp2390
S':'
asbag68
(g89
g70
NtRp2391
(dp2392
g73
(dp2393
sg82
g2378
sg75
(lp2394
g68
(g69
g70
NtRp2395
(dp2396
g73
(dp2397
g81
I5
ssg82
g2391
sg75
(lp2398
g68
(g77
g70
NtRp2399
(dp2400
g73
(dp2401
g81
I4
ssg82
Nsg75
(lp2402
sbasbasbasbag68
(g84
g70
NtRp2403
(dp2404
g73
(dp2405
sg82
g78
sg75
(lp2406
g68
(g89
g70
NtRp2407
(dp2408
g73
(dp2409
g93
g94
ssg82
g2403
sg75
(lp2410
S'wsgi'
p2411
asbag68
(g89
g70
NtRp2412
(dp2413
g73
(dp2414
g100
g101
ssg82
g2403
sg75
(lp2415
S':'
asbag68
(g89
g70
NtRp2416
(dp2417
g73
(dp2418
sg82
g2403
sg75
(lp2419
g68
(g69
g70
NtRp2420
(dp2421
g73
(dp2422
g81
I5
ssg82
g2416
sg75
(lp2423
g68
(g77
g70
NtRp2424
(dp2425
g73
(dp2426
g81
I4
ssg82
Nsg75
(lp2427
g68
(g84
g70
NtRp2428
(dp2429
g73
(dp2430
sg82
g2424
sg75
(lp2431
g68
(g89
g70
NtRp2432
(dp2433
g73
(dp2434
g93
g94
ssg82
g2428
sg75
(lp2435
S'environ'
p2436
asbag68
(g89
g70
NtRp2437
(dp2438
g73
(dp2439
g100
g101
ssg82
g2428
sg75
(lp2440
S':'
asbag68
(g89
g70
NtRp2441
(dp2442
g73
(dp2443
sg82
g2428
sg75
(lp2444
g68
(g69
g70
NtRp2445
(dp2446
g73
(dp2447
g81
I4
ssg82
g2441
sg75
(lp2448
g68
(g77
g70
NtRp2449
(dp2450
g73
(dp2451
g81
I3
ssg82
Nsg75
(lp2452
g68
(g84
g70
NtRp2453
(dp2454
g73
(dp2455
sg82
g2449
sg75
(lp2456
g68
(g89
g70
NtRp2457
(dp2458
g73
(dp2459
g93
g94
ssg82
g2453
sg75
(lp2460
S'HTTP_ACCEPT'
p2461
asbag68
(g89
g70
NtRp2462
(dp2463
g73
(dp2464
g100
g101
ssg82
g2453
sg75
(lp2465
S':'
asbag68
(g89
g70
NtRp2466
(dp2467
g73
(dp2468
sg82
g2453
sg75
(lp2469
g68
(g69
g70
NtRp2470
(dp2471
g73
(dp2472
g81
I3
ssg82
g2466
sg75
(lp2473
g1026
asbasbasbag68
(g84
g70
NtRp2474
(dp2475
g73
(dp2476
sg82
g2449
sg75
(lp2477
g68
(g89
g70
NtRp2478
(dp2479
g73
(dp2480
g93
g94
ssg82
g2474
sg75
(lp2481
S'HTTP_ACCEPT_ENCODING'
p2482
asbag68
(g89
g70
NtRp2483
(dp2484
g73
(dp2485
g100
g101
ssg82
g2474
sg75
(lp2486
S':'
asbag68
(g89
g70
NtRp2487
(dp2488
g73
(dp2489
sg82
g2474
sg75
(lp2490
g68
(g69
g70
NtRp2491
(dp2492
g73
(dp2493
g81
I3
ssg82
g2487
sg75
(lp2494
g1048
asbasbasbag68
(g84
g70
NtRp2495
(dp2496
g73
(dp2497
sg82
g2449
sg75
(lp2498
g68
(g89
g70
NtRp2499
(dp2500
g73
(dp2501
g93
g94
ssg82
g2495
sg75
(lp2502
S'HTTP_ACCEPT_LANGUAGE'
p2503
asbag68
(g89
g70
NtRp2504
(dp2505
g73
(dp2506
g100
g101
ssg82
g2495
sg75
(lp2507
S':'
asbag68
(g89
g70
NtRp2508
(dp2509
g73
(dp2510
sg82
g2495
sg75
(lp2511
g68
(g69
g70
NtRp2512
(dp2513
g73
(dp2514
g81
I3
ssg82
g2508
sg75
(lp2515
g1070
asbasbasbag68
(g84
g70
NtRp2516
(dp2517
g73
(dp2518
sg82
g2449
sg75
(lp2519
g68
(g89
g70
NtRp2520
(dp2521
g73
(dp2522
g93
g94
ssg82
g2516
sg75
(lp2523
S'HTTP_CACHE_CONTROL'
p2524
asbag68
(g89
g70
NtRp2525
(dp2526
g73
(dp2527
g100
g101
ssg82
g2516
sg75
(lp2528
S':'
asbag68
(g89
g70
NtRp2529
(dp2530
g73
(dp2531
sg82
g2516
sg75
(lp2532
g68
(g69
g70
NtRp2533
(dp2534
g73
(dp2535
g81
I3
ssg82
g2529
sg75
(lp2536
g1092
asbasbasbag68
(g84
g70
NtRp2537
(dp2538
g73
(dp2539
sg82
g2449
sg75
(lp2540
g68
(g89
g70
NtRp2541
(dp2542
g73
(dp2543
g93
g94
ssg82
g2537
sg75
(lp2544
S'HTTP_CONNECTION'
p2545
asbag68
(g89
g70
NtRp2546
(dp2547
g73
(dp2548
g100
g101
ssg82
g2537
sg75
(lp2549
S':'
asbag68
(g89
g70
NtRp2550
(dp2551
g73
(dp2552
sg82
g2537
sg75
(lp2553
g68
(g69
g70
NtRp2554
(dp2555
g73
(dp2556
g81
I3
ssg82
g2550
sg75
(lp2557
g1114
asbasbasbag68
(g84
g70
NtRp2558
(dp2559
g73
(dp2560
sg82
g2449
sg75
(lp2561
g68
(g89
g70
NtRp2562
(dp2563
g73
(dp2564
g93
g94
ssg82
g2558
sg75
(lp2565
S'HTTP_COOKIE'
p2566
asbag68
(g89
g70
NtRp2567
(dp2568
g73
(dp2569
g100
g101
ssg82
g2558
sg75
(lp2570
S':'
asbag68
(g89
g70
NtRp2571
(dp2572
g73
(dp2573
sg82
g2558
sg75
(lp2574
g68
(g69
g70
NtRp2575
(dp2576
g73
(dp2577
g81
I3
ssg82
g2571
sg75
(lp2578
g1136
asbasbasbag68
(g84
g70
NtRp2579
(dp2580
g73
(dp2581
sg82
g2449
sg75
(lp2582
g68
(g89
g70
NtRp2583
(dp2584
g73
(dp2585
g93
g94
ssg82
g2579
sg75
(lp2586
S'HTTP_HOST'
p2587
asbag68
(g89
g70
NtRp2588
(dp2589
g73
(dp2590
g100
g101
ssg82
g2579
sg75
(lp2591
S':'
asbag68
(g89
g70
NtRp2592
(dp2593
g73
(dp2594
sg82
g2579
sg75
(lp2595
g68
(g69
g70
NtRp2596
(dp2597
g73
(dp2598
g81
I3
ssg82
g2592
sg75
(lp2599
g1158
asbasbasbag68
(g84
g70
NtRp2600
(dp2601
g73
(dp2602
sg82
g2449
sg75
(lp2603
g68
(g89
g70
NtRp2604
(dp2605
g73
(dp2606
g93
g94
ssg82
g2600
sg75
(lp2607
S'HTTP_USER_AGENT'
p2608
asbag68
(g89
g70
NtRp2609
(dp2610
g73
(dp2611
g100
g101
ssg82
g2600
sg75
(lp2612
S':'
asbag68
(g89
g70
NtRp2613
(dp2614
g73
(dp2615
sg82
g2600
sg75
(lp2616
g68
(g69
g70
NtRp2617
(dp2618
g73
(dp2619
g81
I3
ssg82
g2613
sg75
(lp2620
g1180
asbasbasbag68
(g84
g70
NtRp2621
(dp2622
g73
(dp2623
sg82
g2449
sg75
(lp2624
g68
(g89
g70
NtRp2625
(dp2626
g73
(dp2627
g93
g94
ssg82
g2621
sg75
(lp2628
S'PATH_INFO'
p2629
asbag68
(g89
g70
NtRp2630
(dp2631
g73
(dp2632
g100
g101
ssg82
g2621
sg75
(lp2633
S':'
asbag68
(g89
g70
NtRp2634
(dp2635
g73
(dp2636
sg82
g2621
sg75
(lp2637
g68
(g69
g70
NtRp2638
(dp2639
g73
(dp2640
g81
I3
ssg82
g2634
sg75
(lp2641
g1244
asbasbasbag68
(g84
g70
NtRp2642
(dp2643
g73
(dp2644
sg82
g2449
sg75
(lp2645
g68
(g89
g70
NtRp2646
(dp2647
g73
(dp2648
g93
g94
ssg82
g2642
sg75
(lp2649
S'QUERY_STRING'
p2650
asbag68
(g89
g70
NtRp2651
(dp2652
g73
(dp2653
g100
g101
ssg82
g2642
sg75
(lp2654
S':'
asbag68
(g89
g70
NtRp2655
(dp2656
g73
(dp2657
sg82
g2642
sg75
(lp2658
g68
(g69
g70
NtRp2659
(dp2660
g73
(dp2661
g81
I3
ssg82
g2655
sg75
(lp2662
S''
asbasbasbag68
(g84
g70
NtRp2663
(dp2664
g73
(dp2665
sg82
g2449
sg75
(lp2666
g68
(g89
g70
NtRp2667
(dp2668
g73
(dp2669
g93
g94
ssg82
g2663
sg75
(lp2670
S'REMOTE_ADDR'
p2671
asbag68
(g89
g70
NtRp2672
(dp2673
g73
(dp2674
g100
g101
ssg82
g2663
sg75
(lp2675
S':'
asbag68
(g89
g70
NtRp2676
(dp2677
g73
(dp2678
sg82
g2663
sg75
(lp2679
g68
(g69
g70
NtRp2680
(dp2681
g73
(dp2682
g81
I3
ssg82
g2676
sg75
(lp2683
g213
asbasbasbag68
(g84
g70
NtRp2684
(dp2685
g73
(dp2686
sg82
g2449
sg75
(lp2687
g68
(g89
g70
NtRp2688
(dp2689
g73
(dp2690
g93
g94
ssg82
g2684
sg75
(lp2691
S'REMOTE_PORT'
p2692
asbag68
(g89
g70
NtRp2693
(dp2694
g73
(dp2695
g100
g101
ssg82
g2684
sg75
(lp2696
S':'
asbag68
(g89
g70
NtRp2697
(dp2698
g73
(dp2699
sg82
g2684
sg75
(lp2700
g68
(g69
g70
NtRp2701
(dp2702
g73
(dp2703
g81
I3
ssg82
g2697
sg75
(lp2704
g1308
asbasbasbag68
(g84
g70
NtRp2705
(dp2706
g73
(dp2707
sg82
g2449
sg75
(lp2708
g68
(g89
g70
NtRp2709
(dp2710
g73
(dp2711
g93
g94
ssg82
g2705
sg75
(lp2712
S'REQUEST_METHOD'
p2713
asbag68
(g89
g70
NtRp2714
(dp2715
g73
(dp2716
g100
g101
ssg82
g2705
sg75
(lp2717
S':'
asbag68
(g89
g70
NtRp2718
(dp2719
g73
(dp2720
sg82
g2705
sg75
(lp2721
g68
(g69
g70
NtRp2722
(dp2723
g73
(dp2724
g81
I3
ssg82
g2718
sg75
(lp2725
g1330
asbasbasbag68
(g84
g70
NtRp2726
(dp2727
g73
(dp2728
sg82
g2449
sg75
(lp2729
g68
(g89
g70
NtRp2730
(dp2731
g73
(dp2732
g93
g94
ssg82
g2726
sg75
(lp2733
S'SCRIPT_NAME'
p2734
asbag68
(g89
g70
NtRp2735
(dp2736
g73
(dp2737
g100
g101
ssg82
g2726
sg75
(lp2738
S':'
asbag68
(g89
g70
NtRp2739
(dp2740
g73
(dp2741
sg82
g2726
sg75
(lp2742
g68
(g69
g70
NtRp2743
(dp2744
g73
(dp2745
g81
I3
ssg82
g2739
sg75
(lp2746
S''
asbasbasbag68
(g84
g70
NtRp2747
(dp2748
g73
(dp2749
sg82
g2449
sg75
(lp2750
g68
(g89
g70
NtRp2751
(dp2752
g73
(dp2753
g93
g94
ssg82
g2747
sg75
(lp2754
S'SERVER_NAME'
p2755
asbag68
(g89
g70
NtRp2756
(dp2757
g73
(dp2758
g100
g101
ssg82
g2747
sg75
(lp2759
S':'
asbag68
(g89
g70
NtRp2760
(dp2761
g73
(dp2762
sg82
g2747
sg75
(lp2763
g68
(g69
g70
NtRp2764
(dp2765
g73
(dp2766
g81
I3
ssg82
g2760
sg75
(lp2767
g1373
asbasbasbag68
(g84
g70
NtRp2768
(dp2769
g73
(dp2770
sg82
g2449
sg75
(lp2771
g68
(g89
g70
NtRp2772
(dp2773
g73
(dp2774
g93
g94
ssg82
g2768
sg75
(lp2775
S'SERVER_PORT'
p2776
asbag68
(g89
g70
NtRp2777
(dp2778
g73
(dp2779
g100
g101
ssg82
g2768
sg75
(lp2780
S':'
asbag68
(g89
g70
NtRp2781
(dp2782
g73
(dp2783
sg82
g2768
sg75
(lp2784
g68
(g69
g70
NtRp2785
(dp2786
g73
(dp2787
g81
I3
ssg82
g2781
sg75
(lp2788
g1395
asbasbasbag68
(g84
g70
NtRp2789
(dp2790
g73
(dp2791
sg82
g2449
sg75
(lp2792
g68
(g89
g70
NtRp2793
(dp2794
g73
(dp2795
g93
g94
ssg82
g2789
sg75
(lp2796
S'SERVER_PROTOCOL'
p2797
asbag68
(g89
g70
NtRp2798
(dp2799
g73
(dp2800
g100
g101
ssg82
g2789
sg75
(lp2801
S':'
asbag68
(g89
g70
NtRp2802
(dp2803
g73
(dp2804
sg82
g2789
sg75
(lp2805
g68
(g69
g70
NtRp2806
(dp2807
g73
(dp2808
g81
I3
ssg82
g2802
sg75
(lp2809
g1417
asbasbasbag68
(g84
g70
NtRp2810
(dp2811
g73
(dp2812
sg82
g2449
sg75
(lp2813
g68
(g89
g70
NtRp2814
(dp2815
g73
(dp2816
g93
g94
ssg82
g2810
sg75
(lp2817
S'SERVER_SOFTWARE'
p2818
asbag68
(g89
g70
NtRp2819
(dp2820
g73
(dp2821
g100
g101
ssg82
g2810
sg75
(lp2822
S':'
asbag68
(g89
g70
NtRp2823
(dp2824
g73
(dp2825
sg82
g2810
sg75
(lp2826
g68
(g69
g70
NtRp2827
(dp2828
g73
(dp2829
g81
I3
ssg82
g2823
sg75
(lp2830
g1439
asbasbasbag68
(g84
g70
NtRp2831
(dp2832
g73
(dp2833
sg82
g2449
sg75
(lp2834
g68
(g89
g70
NtRp2835
(dp2836
g73
(dp2837
g93
g94
ssg82
g2831
sg75
(lp2838
S'wsgi.errors'
p2839
asbag68
(g89
g70
NtRp2840
(dp2841
g73
(dp2842
g100
g101
ssg82
g2831
sg75
(lp2843
S':'
asbag68
(g89
g70
NtRp2844
(dp2845
g73
(dp2846
sg82
g2831
sg75
(lp2847
g68
(g69
g70
NtRp2848
(dp2849
g73
(dp2850
g81
I3
ssg82
g2844
sg75
(lp2851
S"<open file '<stderr>', mode 'w' at 0x7f0ddee12270>"
p2852
asbasbasbag68
(g84
g70
NtRp2853
(dp2854
g73
(dp2855
sg82
g2449
sg75
(lp2856
g68
(g89
g70
NtRp2857
(dp2858
g73
(dp2859
g93
g94
ssg82
g2853
sg75
(lp2860
S'wsgi.file_wrapper'
p2861
asbag68
(g89
g70
NtRp2862
(dp2863
g73
(dp2864
g100
g101
ssg82
g2853
sg75
(lp2865
S':'
asbag68
(g89
g70
NtRp2866
(dp2867
g73
(dp2868
sg82
g2853
sg75
(lp2869
g68
(g69
g70
NtRp2870
(dp2871
g73
(dp2872
g81
I3
ssg82
g2866
sg75
(lp2873
S'<class wsgiref.util.FileWrapper at 0x29e8390>'
p2874
asbasbasbag68
(g84
g70
NtRp2875
(dp2876
g73
(dp2877
sg82
g2449
sg75
(lp2878
g68
(g89
g70
NtRp2879
(dp2880
g73
(dp2881
g93
g94
ssg82
g2875
sg75
(lp2882
S'wsgi.input'
p2883
asbag68
(g89
g70
NtRp2884
(dp2885
g73
(dp2886
g100
g101
ssg82
g2875
sg75
(lp2887
S':'
asbag68
(g89
g70
NtRp2888
(dp2889
g73
(dp2890
sg82
g2875
sg75
(lp2891
g68
(g69
g70
NtRp2892
(dp2893
g73
(dp2894
g81
I3
ssg82
g2888
sg75
(lp2895
S'<cStringIO.StringO object at 0x7f0dac44fab0>'
p2896
asbasbasbag68
(g84
g70
NtRp2897
(dp2898
g73
(dp2899
sg82
g2449
sg75
(lp2900
g68
(g89
g70
NtRp2901
(dp2902
g73
(dp2903
g93
g94
ssg82
g2897
sg75
(lp2904
S'wsgi.multiprocess'
p2905
asbag68
(g89
g70
NtRp2906
(dp2907
g73
(dp2908
g100
g101
ssg82
g2897
sg75
(lp2909
S':'
asbag68
(g89
g70
NtRp2910
(dp2911
g73
(dp2912
sg82
g2897
sg75
(lp2913
g68
(g69
g70
NtRp2914
(dp2915
g73
(dp2916
g81
I3
ssg82
g2910
sg75
(lp2917
g111
asbasbasbag68
(g84
g70
NtRp2918
(dp2919
g73
(dp2920
sg82
g2449
sg75
(lp2921
g68
(g89
g70
NtRp2922
(dp2923
g73
(dp2924
g93
g94
ssg82
g2918
sg75
(lp2925
S'wsgi.multithread'
p2926
asbag68
(g89
g70
NtRp2927
(dp2928
g73
(dp2929
g100
g101
ssg82
g2918
sg75
(lp2930
S':'
asbag68
(g89
g70
NtRp2931
(dp2932
g73
(dp2933
sg82
g2918
sg75
(lp2934
g68
(g69
g70
NtRp2935
(dp2936
g73
(dp2937
g81
I3
ssg82
g2931
sg75
(lp2938
g1679
asbasbasbag68
(g84
g70
NtRp2939
(dp2940
g73
(dp2941
sg82
g2449
sg75
(lp2942
g68
(g89
g70
NtRp2943
(dp2944
g73
(dp2945
g93
g94
ssg82
g2939
sg75
(lp2946
S'wsgi.run_once'
p2947
asbag68
(g89
g70
NtRp2948
(dp2949
g73
(dp2950
g100
g101
ssg82
g2939
sg75
(lp2951
S':'
asbag68
(g89
g70
NtRp2952
(dp2953
g73
(dp2954
sg82
g2939
sg75
(lp2955
g68
(g69
g70
NtRp2956
(dp2957
g73
(dp2958
g81
I3
ssg82
g2952
sg75
(lp2959
g111
asbasbasbag68
(g84
g70
NtRp2960
(dp2961
g73
(dp2962
sg82
g2449
sg75
(lp2963
g68
(g89
g70
NtRp2964
(dp2965
g73
(dp2966
g93
g94
ssg82
g2960
sg75
(lp2967
S'wsgi.url_scheme'
p2968
asbag68
(g89
g70
NtRp2969
(dp2970
g73
(dp2971
g100
g101
ssg82
g2960
sg75
(lp2972
S':'
asbag68
(g89
g70
NtRp2973
(dp2974
g73
(dp2975
sg82
g2960
sg75
(lp2976
g68
(g69
g70
NtRp2977
(dp2978
g73
(dp2979
g81
I3
ssg82
g2973
sg75
(lp2980
g1722
asbasbasbag68
(g84
g70
NtRp2981
(dp2982
g73
(dp2983
sg82
g2449
sg75
(lp2984
g68
(g89
g70
NtRp2985
(dp2986
g73
(dp2987
g93
g94
ssg82
g2981
sg75
(lp2988
S'wsgi.version'
p2989
asbag68
(g89
g70
NtRp2990
(dp2991
g73
(dp2992
g100
g101
ssg82
g2981
sg75
(lp2993
S':'
asbag68
(g89
g70
NtRp2994
(dp2995
g73
(dp2996
sg82
g2981
sg75
(lp2997
g68
(g69
g70
NtRp2998
(dp2999
g73
(dp3000
g81
I3
ssg82
g2994
sg75
(lp3001
S'1'
asbasbasbasbasbasbasbasbasbasbasbasbasbsS'frames'
p3002
(lp3003
(dp3004
S'file'
p3005
S'/usr/lib/pymodules/python2.7/gluon/restricted.py'
p3006
sS'dump'
p3007
(dp3008
S'code'
p3009
S"'# -*- coding: utf-8 -*-\\n# this file is released ...d())\\n\\n\\nresponse._vars=response._caller(question)\\n'"
p3010
sS'layer'
p3011
S"'/home/ds-iiit/web2py/applications/Gordian_Knot/controllers/default.py'"
p3012
sS'global compile2'
p3013
S'<function compile2>'
p3014
sS'ccode'
p3015
S'undefined'
p3016
ssS'lnum'
p3017
I203
sS'lines'
p3018
(dp3019
I198
S"    environment['__file__'] = layer"
p3020
sI199
S'    try:'
p3021
sI200
S'        if type(code) == types.CodeType:'
p3022
sI201
S'            ccode = code'
p3023
sI202
S'        else:'
p3024
sI203
S'            ccode = compile2(code,layer)'
p3025
sI204
S'        exec ccode in environment'
p3026
sI205
S'    except HTTP:'
p3027
sI206
S'        raise'
p3028
sI207
S'    except RestrictedError:'
p3029
ssS'call'
p3030
S"(code='# -*- coding: utf-8 -*-\\n# this file is released ...d())\\n\\n\\nresponse._vars=response._caller(question)\\n', environment={'A': <class 'gluon.html.A'>, 'Auth': <class 'gluon.tools.Auth'>, 'B': <class 'gluon.html.B'>, 'BEAUTIFY': <class 'gluon.html.BEAUTIFY'>, 'BODY': <class 'gluon.html.BODY'>, 'BR': <class 'gluon.html.BR'>, 'BUTTON': <class 'gluon.html.BUTTON'>, 'CAT': <class 'gluon.html.CAT'>, 'CENTER': <class 'gluon.html.CENTER'>, 'CLEANUP': <class 'gluon.validators.CLEANUP'>, ...}, layer='/home/ds-iiit/web2py/applications/Gordian_Knot/controllers/default.py')"
p3031
sS'func'
p3032
S'restricted'
p3033
sa(dp3034
g3005
S'/usr/lib/pymodules/python2.7/gluon/restricted.py'
p3035
sg3007
(dp3036
S'builtincompile'
p3037
S'<built-in function compile>'
p3038
sS'code'
p3039
S"'# -*- coding: utf-8 -*-\\n# this file is released ...d())\\n\\n\\nresponse._vars=response._caller(question)\\n'"
p3040
sS'code.rstrip'
p3041
S'<built-in method rstrip of str object>'
p3042
sS').replace'
p3043
g3016
sS'layer'
p3044
S"'/home/ds-iiit/web2py/applications/Gordian_Knot/controllers/default.py'"
p3045
ssg3017
I189
sg3018
(dp3046
I192
S'    """'
p3047
sI193
S'    runs code in environment and returns the output. if an exception occurs'
p3048
sI184
S''
sI185
S'def compile2(code,layer):'
p3049
sI186
S'    """'
p3050
sI187
S"    The +'\\n' is necessary else compile fails when code ends in a comment."
p3051
sI188
S'    """'
p3052
sI189
S"    return compile(code.rstrip().replace('\\r\\n','\\n')+'\\n', layer, 'exec')"
p3053
sI190
S''
sI191
S"def restricted(code, environment=None, layer='Unknown'):"
p3054
ssg3030
S"(code='# -*- coding: utf-8 -*-\\n# this file is released ...d())\\n\\n\\nresponse._vars=response._caller(question)\\n', layer='/home/ds-iiit/web2py/applications/Gordian_Knot/controllers/default.py')"
p3055
sg3032
S'compile2'
p3056
sasS'pyver'
p3057
S'Python 2.7.3: /usr/bin/python'
p3058
sS'session'
p3059
g68
(g69
g70
NtRp3060
(dp3061
g73
(dp3062
sg75
(lp3063
g68
(g77
g70
NtRp3064
(dp3065
g73
(dp3066
g81
I5
ssg82
Nsg75
(lp3067
g68
(g84
g70
NtRp3068
(dp3069
g73
(dp3070
sg82
g3064
sg75
(lp3071
g68
(g89
g70
NtRp3072
(dp3073
g73
(dp3074
g93
g94
ssg82
g3068
sg75
(lp3075
S'auth'
p3076
asbag68
(g89
g70
NtRp3077
(dp3078
g73
(dp3079
g100
g101
ssg82
g3068
sg75
(lp3080
S':'
asbag68
(g89
g70
NtRp3081
(dp3082
g73
(dp3083
sg82
g3068
sg75
(lp3084
g68
(g69
g70
NtRp3085
(dp3086
g73
(dp3087
g81
I5
ssg82
g3081
sg75
(lp3088
g68
(g77
g70
NtRp3089
(dp3090
g73
(dp3091
g81
I4
ssg82
Nsg75
(lp3092
g68
(g84
g70
NtRp3093
(dp3094
g73
(dp3095
sg82
g3089
sg75
(lp3096
g68
(g89
g70
NtRp3097
(dp3098
g73
(dp3099
g93
g94
ssg82
g3093
sg75
(lp3100
S'expiration'
p3101
asbag68
(g89
g70
NtRp3102
(dp3103
g73
(dp3104
g100
g101
ssg82
g3093
sg75
(lp3105
S':'
asbag68
(g89
g70
NtRp3106
(dp3107
g73
(dp3108
sg82
g3093
sg75
(lp3109
g68
(g69
g70
NtRp3110
(dp3111
g73
(dp3112
g81
I4
ssg82
g3106
sg75
(lp3113
S'2592000'
p3114
asbasbasbag68
(g84
g70
NtRp3115
(dp3116
g73
(dp3117
sg82
g3089
sg75
(lp3118
g68
(g89
g70
NtRp3119
(dp3120
g73
(dp3121
g93
g94
ssg82
g3115
sg75
(lp3122
S'hmac_key'
p3123
asbag68
(g89
g70
NtRp3124
(dp3125
g73
(dp3126
g100
g101
ssg82
g3115
sg75
(lp3127
S':'
asbag68
(g89
g70
NtRp3128
(dp3129
g73
(dp3130
sg82
g3115
sg75
(lp3131
g68
(g69
g70
NtRp3132
(dp3133
g73
(dp3134
g81
I4
ssg82
g3128
sg75
(lp3135
S'e1e5d73f-bb90-4477-8cca-9d5266dfa972'
p3136
asbasbasbag68
(g84
g70
NtRp3137
(dp3138
g73
(dp3139
sg82
g3089
sg75
(lp3140
g68
(g89
g70
NtRp3141
(dp3142
g73
(dp3143
g93
g94
ssg82
g3137
sg75
(lp3144
S'last_visit'
p3145
asbag68
(g89
g70
NtRp3146
(dp3147
g73
(dp3148
g100
g101
ssg82
g3137
sg75
(lp3149
S':'
asbag68
(g89
g70
NtRp3150
(dp3151
g73
(dp3152
sg82
g3137
sg75
(lp3153
g68
(g69
g70
NtRp3154
(dp3155
g73
(dp3156
g81
I4
ssg82
g3150
sg75
(lp3157
S'datetime.datetime(2013, 9, 22, 8, 1, 19, 967382)'
p3158
asbasbasbag68
(g84
g70
NtRp3159
(dp3160
g73
(dp3161
sg82
g3089
sg75
(lp3162
g68
(g89
g70
NtRp3163
(dp3164
g73
(dp3165
g93
g94
ssg82
g3159
sg75
(lp3166
S'remember'
p3167
asbag68
(g89
g70
NtRp3168
(dp3169
g73
(dp3170
g100
g101
ssg82
g3159
sg75
(lp3171
S':'
asbag68
(g89
g70
NtRp3172
(dp3173
g73
(dp3174
sg82
g3159
sg75
(lp3175
g68
(g69
g70
NtRp3176
(dp3177
g73
(dp3178
g81
I4
ssg82
g3172
sg75
(lp3179
g111
asbasbasbag68
(g84
g70
NtRp3180
(dp3181
g73
(dp3182
sg82
g3089
sg75
(lp3183
g68
(g89
g70
NtRp3184
(dp3185
g73
(dp3186
g93
g94
ssg82
g3180
sg75
(lp3187
S'user'
p3188
asbag68
(g89
g70
NtRp3189
(dp3190
g73
(dp3191
g100
g101
ssg82
g3180
sg75
(lp3192
S':'
asbag68
(g89
g70
NtRp3193
(dp3194
g73
(dp3195
sg82
g3180
sg75
(lp3196
g68
(g69
g70
NtRp3197
(dp3198
g73
(dp3199
g81
I4
ssg82
g3193
sg75
(lp3200
g68
(g77
g70
NtRp3201
(dp3202
g73
(dp3203
g81
I3
ssg82
Nsg75
(lp3204
g68
(g84
g70
NtRp3205
(dp3206
g73
(dp3207
sg82
g3201
sg75
(lp3208
g68
(g89
g70
NtRp3209
(dp3210
g73
(dp3211
g93
g94
ssg82
g3205
sg75
(lp3212
S'Points'
p3213
asbag68
(g89
g70
NtRp3214
(dp3215
g73
(dp3216
g100
g101
ssg82
g3205
sg75
(lp3217
S':'
asbag68
(g89
g70
NtRp3218
(dp3219
g73
(dp3220
sg82
g3205
sg75
(lp3221
g68
(g69
g70
NtRp3222
(dp3223
g73
(dp3224
g81
I3
ssg82
g3218
sg75
(lp3225
S'100'
p3226
asbasbasbag68
(g84
g70
NtRp3227
(dp3228
g73
(dp3229
sg82
g3201
sg75
(lp3230
g68
(g89
g70
NtRp3231
(dp3232
g73
(dp3233
g93
g94
ssg82
g3227
sg75
(lp3234
S'RollNo'
p3235
asbag68
(g89
g70
NtRp3236
(dp3237
g73
(dp3238
g100
g101
ssg82
g3227
sg75
(lp3239
S':'
asbag68
(g89
g70
NtRp3240
(dp3241
g73
(dp3242
sg82
g3227
sg75
(lp3243
g68
(g69
g70
NtRp3244
(dp3245
g73
(dp3246
g81
I3
ssg82
g3240
sg75
(lp3247
S'201256053'
p3248
asbasbasbag68
(g84
g70
NtRp3249
(dp3250
g73
(dp3251
sg82
g3201
sg75
(lp3252
g68
(g89
g70
NtRp3253
(dp3254
g73
(dp3255
g93
g94
ssg82
g3249
sg75
(lp3256
S'email'
p3257
asbag68
(g89
g70
NtRp3258
(dp3259
g73
(dp3260
g100
g101
ssg82
g3249
sg75
(lp3261
S':'
asbag68
(g89
g70
NtRp3262
(dp3263
g73
(dp3264
sg82
g3249
sg75
(lp3265
g68
(g69
g70
NtRp3266
(dp3267
g73
(dp3268
g81
I3
ssg82
g3262
sg75
(lp3269
S'devansh.shah@students.iiit.ac.in'
p3270
asbasbasbag68
(g84
g70
NtRp3271
(dp3272
g73
(dp3273
sg82
g3201
sg75
(lp3274
g68
(g89
g70
NtRp3275
(dp3276
g73
(dp3277
g93
g94
ssg82
g3271
sg75
(lp3278
S'first_name'
p3279
asbag68
(g89
g70
NtRp3280
(dp3281
g73
(dp3282
g100
g101
ssg82
g3271
sg75
(lp3283
S':'
asbag68
(g89
g70
NtRp3284
(dp3285
g73
(dp3286
sg82
g3271
sg75
(lp3287
g68
(g69
g70
NtRp3288
(dp3289
g73
(dp3290
g81
I3
ssg82
g3284
sg75
(lp3291
S'Devansh'
p3292
asbasbasbag68
(g84
g70
NtRp3293
(dp3294
g73
(dp3295
sg82
g3201
sg75
(lp3296
g68
(g89
g70
NtRp3297
(dp3298
g73
(dp3299
g93
g94
ssg82
g3293
sg75
(lp3300
S'id'
p3301
asbag68
(g89
g70
NtRp3302
(dp3303
g73
(dp3304
g100
g101
ssg82
g3293
sg75
(lp3305
S':'
asbag68
(g89
g70
NtRp3306
(dp3307
g73
(dp3308
sg82
g3293
sg75
(lp3309
g68
(g69
g70
NtRp3310
(dp3311
g73
(dp3312
g81
I3
ssg82
g3306
sg75
(lp3313
S'1'
asbasbasbag68
(g84
g70
NtRp3314
(dp3315
g73
(dp3316
sg82
g3201
sg75
(lp3317
g68
(g89
g70
NtRp3318
(dp3319
g73
(dp3320
g93
g94
ssg82
g3314
sg75
(lp3321
S'last_name'
p3322
asbag68
(g89
g70
NtRp3323
(dp3324
g73
(dp3325
g100
g101
ssg82
g3314
sg75
(lp3326
S':'
asbag68
(g89
g70
NtRp3327
(dp3328
g73
(dp3329
sg82
g3314
sg75
(lp3330
g68
(g69
g70
NtRp3331
(dp3332
g73
(dp3333
g81
I3
ssg82
g3327
sg75
(lp3334
S'Shah'
p3335
asbasbasbag68
(g84
g70
NtRp3336
(dp3337
g73
(dp3338
sg82
g3201
sg75
(lp3339
g68
(g89
g70
NtRp3340
(dp3341
g73
(dp3342
g93
g94
ssg82
g3336
sg75
(lp3343
S'password'
p3344
asbag68
(g89
g70
NtRp3345
(dp3346
g73
(dp3347
g100
g101
ssg82
g3336
sg75
(lp3348
S':'
asbag68
(g89
g70
NtRp3349
(dp3350
g73
(dp3351
sg82
g3336
sg75
(lp3352
g68
(g69
g70
NtRp3353
(dp3354
g73
(dp3355
g81
I3
ssg82
g3349
sg75
(lp3356
S'4fa78620b77f92c7faf768350dccbc8d'
p3357
asbasbasbag68
(g84
g70
NtRp3358
(dp3359
g73
(dp3360
sg82
g3201
sg75
(lp3361
g68
(g89
g70
NtRp3362
(dp3363
g73
(dp3364
g93
g94
ssg82
g3358
sg75
(lp3365
S'registration_id'
p3366
asbag68
(g89
g70
NtRp3367
(dp3368
g73
(dp3369
g100
g101
ssg82
g3358
sg75
(lp3370
S':'
asbag68
(g89
g70
NtRp3371
(dp3372
g73
(dp3373
sg82
g3358
sg75
(lp3374
g68
(g69
g70
NtRp3375
(dp3376
g73
(dp3377
g81
I3
ssg82
g3371
sg75
(lp3378
S''
asbasbasbag68
(g84
g70
NtRp3379
(dp3380
g73
(dp3381
sg82
g3201
sg75
(lp3382
g68
(g89
g70
NtRp3383
(dp3384
g73
(dp3385
g93
g94
ssg82
g3379
sg75
(lp3386
S'registration_key'
p3387
asbag68
(g89
g70
NtRp3388
(dp3389
g73
(dp3390
g100
g101
ssg82
g3379
sg75
(lp3391
S':'
asbag68
(g89
g70
NtRp3392
(dp3393
g73
(dp3394
sg82
g3379
sg75
(lp3395
g68
(g69
g70
NtRp3396
(dp3397
g73
(dp3398
g81
I3
ssg82
g3392
sg75
(lp3399
S''
asbasbasbag68
(g84
g70
NtRp3400
(dp3401
g73
(dp3402
sg82
g3201
sg75
(lp3403
g68
(g89
g70
NtRp3404
(dp3405
g73
(dp3406
g93
g94
ssg82
g3400
sg75
(lp3407
S'reset_password_key'
p3408
asbag68
(g89
g70
NtRp3409
(dp3410
g73
(dp3411
g100
g101
ssg82
g3400
sg75
(lp3412
S':'
asbag68
(g89
g70
NtRp3413
(dp3414
g73
(dp3415
sg82
g3400
sg75
(lp3416
g68
(g69
g70
NtRp3417
(dp3418
g73
(dp3419
g81
I3
ssg82
g3413
sg75
(lp3420
S''
asbasbasbasbasbasbasbasbasbasbasbag68
(g84
g70
NtRp3421
(dp3422
g73
(dp3423
sg82
g3064
sg75
(lp3424
g68
(g89
g70
NtRp3425
(dp3426
g73
(dp3427
g93
g94
ssg82
g3421
sg75
(lp3428
S'last_query'
p3429
asbag68
(g89
g70
NtRp3430
(dp3431
g73
(dp3432
g100
g101
ssg82
g3421
sg75
(lp3433
S':'
asbag68
(g89
g70
NtRp3434
(dp3435
g73
(dp3436
sg82
g3421
sg75
(lp3437
g68
(g69
g70
NtRp3438
(dp3439
g73
(dp3440
g81
I5
ssg82
g3434
sg75
(lp3441
S'db.Done.id>0'
p3442
asbasbasbasbasbsS'etype'
p3443
S"<type 'exceptions.IndentationError'>"
p3444
sS'date'
p3445
S'Sun Sep 22 08:04:51 2013'
p3446
sS'response'
p3447
g68
(g69
g70
NtRp3448
(dp3449
g73
(dp3450
sg75
(lp3451
g68
(g77
g70
NtRp3452
(dp3453
g73
(dp3454
g81
I5
ssg82
Nsg75
(lp3455
g68
(g84
g70
NtRp3456
(dp3457
g73
(dp3458
sg82
g3452
sg75
(lp3459
g68
(g89
g70
NtRp3460
(dp3461
g73
(dp3462
g93
g94
ssg82
g3456
sg75
(lp3463
g178
asbag68
(g89
g70
NtRp3464
(dp3465
g73
(dp3466
g100
g101
ssg82
g3456
sg75
(lp3467
S':'
asbag68
(g89
g70
NtRp3468
(dp3469
g73
(dp3470
sg82
g3456
sg75
(lp3471
g68
(g69
g70
NtRp3472
(dp3473
g73
(dp3474
g81
I5
ssg82
g3468
sg75
(lp3475
S'<cStringIO.StringO object at 0x7f0d9833bca8>'
p3476
asbasbasbag68
(g84
g70
NtRp3477
(dp3478
g73
(dp3479
sg82
g3452
sg75
(lp3480
g68
(g89
g70
NtRp3481
(dp3482
g73
(dp3483
g93
g94
ssg82
g3477
sg75
(lp3484
g244
asbag68
(g89
g70
NtRp3485
(dp3486
g73
(dp3487
g100
g101
ssg82
g3477
sg75
(lp3488
S':'
asbag68
(g89
g70
NtRp3489
(dp3490
g73
(dp3491
sg82
g3477
sg75
(lp3492
g68
(g69
g70
NtRp3493
(dp3494
g73
(dp3495
g81
I5
ssg82
g3489
sg75
(lp3496
g68
(g77
g70
NtRp3497
(dp3498
g73
(dp3499
g81
I4
ssg82
Nsg75
(lp3500
g68
(g84
g70
NtRp3501
(dp3502
g73
(dp3503
sg82
g3497
sg75
(lp3504
g68
(g89
g70
NtRp3505
(dp3506
g73
(dp3507
g93
g94
ssg82
g3501
sg75
(lp3508
S'session_id_gordian_knot'
p3509
asbag68
(g89
g70
NtRp3510
(dp3511
g73
(dp3512
g100
g101
ssg82
g3501
sg75
(lp3513
S':'
asbag68
(g89
g70
NtRp3514
(dp3515
g73
(dp3516
sg82
g3501
sg75
(lp3517
g68
(g69
g70
NtRp3518
(dp3519
g73
(dp3520
g81
I4
ssg82
g3514
sg75
(lp3521
g68
(g77
g70
NtRp3522
(dp3523
g73
(dp3524
g81
I3
ssg82
Nsg75
(lp3525
g68
(g84
g70
NtRp3526
(dp3527
g73
(dp3528
sg82
g3522
sg75
(lp3529
g68
(g89
g70
NtRp3530
(dp3531
g73
(dp3532
g93
g94
ssg82
g3526
sg75
(lp3533
g294
asbag68
(g89
g70
NtRp3534
(dp3535
g73
(dp3536
g100
g101
ssg82
g3526
sg75
(lp3537
S':'
asbag68
(g89
g70
NtRp3538
(dp3539
g73
(dp3540
sg82
g3526
sg75
(lp3541
g68
(g69
g70
NtRp3542
(dp3543
g73
(dp3544
g81
I3
ssg82
g3538
sg75
(lp3545
S''
asbasbasbag68
(g84
g70
NtRp3546
(dp3547
g73
(dp3548
sg82
g3522
sg75
(lp3549
g68
(g89
g70
NtRp3550
(dp3551
g73
(dp3552
g93
g94
ssg82
g3546
sg75
(lp3553
g315
asbag68
(g89
g70
NtRp3554
(dp3555
g73
(dp3556
g100
g101
ssg82
g3546
sg75
(lp3557
S':'
asbag68
(g89
g70
NtRp3558
(dp3559
g73
(dp3560
sg82
g3546
sg75
(lp3561
g68
(g69
g70
NtRp3562
(dp3563
g73
(dp3564
g81
I3
ssg82
g3558
sg75
(lp3565
S''
asbasbasbag68
(g84
g70
NtRp3566
(dp3567
g73
(dp3568
sg82
g3522
sg75
(lp3569
g68
(g89
g70
NtRp3570
(dp3571
g73
(dp3572
g93
g94
ssg82
g3566
sg75
(lp3573
g336
asbag68
(g89
g70
NtRp3574
(dp3575
g73
(dp3576
g100
g101
ssg82
g3566
sg75
(lp3577
S':'
asbag68
(g89
g70
NtRp3578
(dp3579
g73
(dp3580
sg82
g3566
sg75
(lp3581
g68
(g69
g70
NtRp3582
(dp3583
g73
(dp3584
g81
I3
ssg82
g3578
sg75
(lp3585
S''
asbasbasbag68
(g84
g70
NtRp3586
(dp3587
g73
(dp3588
sg82
g3522
sg75
(lp3589
g68
(g89
g70
NtRp3590
(dp3591
g73
(dp3592
g93
g94
ssg82
g3586
sg75
(lp3593
g357
asbag68
(g89
g70
NtRp3594
(dp3595
g73
(dp3596
g100
g101
ssg82
g3586
sg75
(lp3597
S':'
asbag68
(g89
g70
NtRp3598
(dp3599
g73
(dp3600
sg82
g3586
sg75
(lp3601
g68
(g69
g70
NtRp3602
(dp3603
g73
(dp3604
g81
I3
ssg82
g3598
sg75
(lp3605
S''
asbasbasbag68
(g84
g70
NtRp3606
(dp3607
g73
(dp3608
sg82
g3522
sg75
(lp3609
g68
(g89
g70
NtRp3610
(dp3611
g73
(dp3612
g93
g94
ssg82
g3606
sg75
(lp3613
g378
asbag68
(g89
g70
NtRp3614
(dp3615
g73
(dp3616
g100
g101
ssg82
g3606
sg75
(lp3617
S':'
asbag68
(g89
g70
NtRp3618
(dp3619
g73
(dp3620
sg82
g3606
sg75
(lp3621
g68
(g69
g70
NtRp3622
(dp3623
g73
(dp3624
g81
I3
ssg82
g3618
sg75
(lp3625
S''
asbasbasbag68
(g84
g70
NtRp3626
(dp3627
g73
(dp3628
sg82
g3522
sg75
(lp3629
g68
(g89
g70
NtRp3630
(dp3631
g73
(dp3632
g93
g94
ssg82
g3626
sg75
(lp3633
g399
asbag68
(g89
g70
NtRp3634
(dp3635
g73
(dp3636
g100
g101
ssg82
g3626
sg75
(lp3637
S':'
asbag68
(g89
g70
NtRp3638
(dp3639
g73
(dp3640
sg82
g3626
sg75
(lp3641
g68
(g69
g70
NtRp3642
(dp3643
g73
(dp3644
g81
I3
ssg82
g3638
sg75
(lp3645
S'/'
asbasbasbag68
(g84
g70
NtRp3646
(dp3647
g73
(dp3648
sg82
g3522
sg75
(lp3649
g68
(g89
g70
NtRp3650
(dp3651
g73
(dp3652
g93
g94
ssg82
g3646
sg75
(lp3653
g420
asbag68
(g89
g70
NtRp3654
(dp3655
g73
(dp3656
g100
g101
ssg82
g3646
sg75
(lp3657
S':'
asbag68
(g89
g70
NtRp3658
(dp3659
g73
(dp3660
sg82
g3646
sg75
(lp3661
g68
(g69
g70
NtRp3662
(dp3663
g73
(dp3664
g81
I3
ssg82
g3658
sg75
(lp3665
S''
asbasbasbag68
(g84
g70
NtRp3666
(dp3667
g73
(dp3668
sg82
g3522
sg75
(lp3669
g68
(g89
g70
NtRp3670
(dp3671
g73
(dp3672
g93
g94
ssg82
g3666
sg75
(lp3673
g441
asbag68
(g89
g70
NtRp3674
(dp3675
g73
(dp3676
g100
g101
ssg82
g3666
sg75
(lp3677
S':'
asbag68
(g89
g70
NtRp3678
(dp3679
g73
(dp3680
sg82
g3666
sg75
(lp3681
g68
(g69
g70
NtRp3682
(dp3683
g73
(dp3684
g81
I3
ssg82
g3678
sg75
(lp3685
S''
asbasbasbasbasbasbasbasbasbasbasbag68
(g84
g70
NtRp3686
(dp3687
g73
(dp3688
sg82
g3452
sg75
(lp3689
g68
(g89
g70
NtRp3690
(dp3691
g73
(dp3692
g93
g94
ssg82
g3686
sg75
(lp3693
S'files'
p3694
asbag68
(g89
g70
NtRp3695
(dp3696
g73
(dp3697
g100
g101
ssg82
g3686
sg75
(lp3698
S':'
asbag68
(g89
g70
NtRp3699
(dp3700
g73
(dp3701
sg82
g3686
sg75
(lp3702
g68
(g69
g70
NtRp3703
(dp3704
g73
(dp3705
g81
I5
ssg82
g3699
sg75
(lp3706
g68
(g77
g70
NtRp3707
(dp3708
g73
(dp3709
g81
I4
ssg82
Nsg75
(lp3710
sbasbasbasbag68
(g84
g70
NtRp3711
(dp3712
g73
(dp3713
sg82
g3452
sg75
(lp3714
g68
(g89
g70
NtRp3715
(dp3716
g73
(dp3717
g93
g94
ssg82
g3711
sg75
(lp3718
S'flash'
p3719
asbag68
(g89
g70
NtRp3720
(dp3721
g73
(dp3722
g100
g101
ssg82
g3711
sg75
(lp3723
S':'
asbag68
(g89
g70
NtRp3724
(dp3725
g73
(dp3726
sg82
g3711
sg75
(lp3727
g68
(g69
g70
NtRp3728
(dp3729
g73
(dp3730
g81
I5
ssg82
g3724
sg75
(lp3731
S''
asbasbasbag68
(g84
g70
NtRp3732
(dp3733
g73
(dp3734
sg82
g3452
sg75
(lp3735
g68
(g89
g70
NtRp3736
(dp3737
g73
(dp3738
g93
g94
ssg82
g3732
sg75
(lp3739
S'generic_patterns'
p3740
asbag68
(g89
g70
NtRp3741
(dp3742
g73
(dp3743
g100
g101
ssg82
g3732
sg75
(lp3744
S':'
asbag68
(g89
g70
NtRp3745
(dp3746
g73
(dp3747
sg82
g3732
sg75
(lp3748
g68
(g69
g70
NtRp3749
(dp3750
g73
(dp3751
g81
I5
ssg82
g3745
sg75
(lp3752
g68
(g77
g70
NtRp3753
(dp3754
g73
(dp3755
g81
I4
ssg82
Nsg75
(lp3756
g68
(g84
g70
NtRp3757
(dp3758
g73
(dp3759
sg82
g3753
sg75
(lp3760
g68
(g89
g70
NtRp3761
(dp3762
g73
(dp3763
sg82
g3757
sg75
(lp3764
g68
(g69
g70
NtRp3765
(dp3766
g73
(dp3767
g81
I4
ssg82
g3761
sg75
(lp3768
S'*'
asbasbasbasbasbasbasbag68
(g84
g70
NtRp3769
(dp3770
g73
(dp3771
sg82
g3452
sg75
(lp3772
g68
(g89
g70
NtRp3773
(dp3774
g73
(dp3775
g93
g94
ssg82
g3769
sg75
(lp3776
S'headers'
p3777
asbag68
(g89
g70
NtRp3778
(dp3779
g73
(dp3780
g100
g101
ssg82
g3769
sg75
(lp3781
S':'
asbag68
(g89
g70
NtRp3782
(dp3783
g73
(dp3784
sg82
g3769
sg75
(lp3785
g68
(g69
g70
NtRp3786
(dp3787
g73
(dp3788
g81
I5
ssg82
g3782
sg75
(lp3789
g68
(g77
g70
NtRp3790
(dp3791
g73
(dp3792
g81
I4
ssg82
Nsg75
(lp3793
g68
(g84
g70
NtRp3794
(dp3795
g73
(dp3796
sg82
g3790
sg75
(lp3797
g68
(g89
g70
NtRp3798
(dp3799
g73
(dp3800
g93
g94
ssg82
g3794
sg75
(lp3801
S'Cache-Control'
p3802
asbag68
(g89
g70
NtRp3803
(dp3804
g73
(dp3805
g100
g101
ssg82
g3794
sg75
(lp3806
S':'
asbag68
(g89
g70
NtRp3807
(dp3808
g73
(dp3809
sg82
g3794
sg75
(lp3810
g68
(g69
g70
NtRp3811
(dp3812
g73
(dp3813
g81
I4
ssg82
g3807
sg75
(lp3814
S'no-store, no-cache, must-revalidate, post-check=0, pre-check=0'
p3815
asbasbasbag68
(g84
g70
NtRp3816
(dp3817
g73
(dp3818
sg82
g3790
sg75
(lp3819
g68
(g89
g70
NtRp3820
(dp3821
g73
(dp3822
g93
g94
ssg82
g3816
sg75
(lp3823
S'Content-Type'
p3824
asbag68
(g89
g70
NtRp3825
(dp3826
g73
(dp3827
g100
g101
ssg82
g3816
sg75
(lp3828
S':'
asbag68
(g89
g70
NtRp3829
(dp3830
g73
(dp3831
sg82
g3816
sg75
(lp3832
g68
(g69
g70
NtRp3833
(dp3834
g73
(dp3835
g81
I4
ssg82
g3829
sg75
(lp3836
S'text/html; charset=utf-8'
p3837
asbasbasbag68
(g84
g70
NtRp3838
(dp3839
g73
(dp3840
sg82
g3790
sg75
(lp3841
g68
(g89
g70
NtRp3842
(dp3843
g73
(dp3844
g93
g94
ssg82
g3838
sg75
(lp3845
S'Expires'
p3846
asbag68
(g89
g70
NtRp3847
(dp3848
g73
(dp3849
g100
g101
ssg82
g3838
sg75
(lp3850
S':'
asbag68
(g89
g70
NtRp3851
(dp3852
g73
(dp3853
sg82
g3838
sg75
(lp3854
g68
(g69
g70
NtRp3855
(dp3856
g73
(dp3857
g81
I4
ssg82
g3851
sg75
(lp3858
S'Sun, 22 Sep 2013 02:34:51 GMT'
p3859
asbasbasbag68
(g84
g70
NtRp3860
(dp3861
g73
(dp3862
sg82
g3790
sg75
(lp3863
g68
(g89
g70
NtRp3864
(dp3865
g73
(dp3866
g93
g94
ssg82
g3860
sg75
(lp3867
S'Pragma'
p3868
asbag68
(g89
g70
NtRp3869
(dp3870
g73
(dp3871
g100
g101
ssg82
g3860
sg75
(lp3872
S':'
asbag68
(g89
g70
NtRp3873
(dp3874
g73
(dp3875
sg82
g3860
sg75
(lp3876
g68
(g69
g70
NtRp3877
(dp3878
g73
(dp3879
g81
I4
ssg82
g3873
sg75
(lp3880
S'no-cache'
p3881
asbasbasbag68
(g84
g70
NtRp3882
(dp3883
g73
(dp3884
sg82
g3790
sg75
(lp3885
g68
(g89
g70
NtRp3886
(dp3887
g73
(dp3888
g93
g94
ssg82
g3882
sg75
(lp3889
S'X-Powered-By'
p3890
asbag68
(g89
g70
NtRp3891
(dp3892
g73
(dp3893
g100
g101
ssg82
g3882
sg75
(lp3894
S':'
asbag68
(g89
g70
NtRp3895
(dp3896
g73
(dp3897
sg82
g3882
sg75
(lp3898
g68
(g69
g70
NtRp3899
(dp3900
g73
(dp3901
g81
I4
ssg82
g3895
sg75
(lp3902
S'web2py'
p3903
asbasbasbasbasbasbasbag68
(g84
g70
NtRp3904
(dp3905
g73
(dp3906
sg82
g3452
sg75
(lp3907
g68
(g89
g70
NtRp3908
(dp3909
g73
(dp3910
g93
g94
ssg82
g3904
sg75
(lp3911
S'menu'
p3912
asbag68
(g89
g70
NtRp3913
(dp3914
g73
(dp3915
g100
g101
ssg82
g3904
sg75
(lp3916
S':'
asbag68
(g89
g70
NtRp3917
(dp3918
g73
(dp3919
sg82
g3904
sg75
(lp3920
g68
(g69
g70
NtRp3921
(dp3922
g73
(dp3923
g81
I5
ssg82
g3917
sg75
(lp3924
g68
(g77
g70
NtRp3925
(dp3926
g73
(dp3927
g81
I4
ssg82
Nsg75
(lp3928
g68
(g84
g70
NtRp3929
(dp3930
g73
(dp3931
sg82
g3925
sg75
(lp3932
g68
(g89
g70
NtRp3933
(dp3934
g73
(dp3935
sg82
g3929
sg75
(lp3936
g68
(g69
g70
NtRp3937
(dp3938
g73
(dp3939
g81
I4
ssg82
g3933
sg75
(lp3940
g68
(g77
g70
NtRp3941
(dp3942
g73
(dp3943
g81
I3
ssg82
Nsg75
(lp3944
g68
(g84
g70
NtRp3945
(dp3946
g73
(dp3947
sg82
g3941
sg75
(lp3948
g68
(g89
g70
NtRp3949
(dp3950
g73
(dp3951
sg82
g3945
sg75
(lp3952
g68
(g69
g70
NtRp3953
(dp3954
g73
(dp3955
g81
I3
ssg82
g3949
sg75
(lp3956
cgluon.languages
lazyT_unpickle
p3957
(S't\x04\x00\x00\x00Home'
tRp3958
asbasbasbag68
(g84
g70
NtRp3959
(dp3960
g73
(dp3961
sg82
g3941
sg75
(lp3962
g68
(g89
g70
NtRp3963
(dp3964
g73
(dp3965
sg82
g3959
sg75
(lp3966
g68
(g69
g70
NtRp3967
(dp3968
g73
(dp3969
g81
I3
ssg82
g3963
sg75
(lp3970
g111
asbasbasbag68
(g84
g70
NtRp3971
(dp3972
g73
(dp3973
sg82
g3941
sg75
(lp3974
g68
(g89
g70
NtRp3975
(dp3976
g73
(dp3977
sg82
g3971
sg75
(lp3978
g68
(g69
g70
NtRp3979
(dp3980
g73
(dp3981
g81
I3
ssg82
g3975
sg75
(lp3982
S'/Gordian_Knot/default/index'
p3983
asbasbasbag68
(g84
g70
NtRp3984
(dp3985
g73
(dp3986
sg82
g3941
sg75
(lp3987
g68
(g89
g70
NtRp3988
(dp3989
g73
(dp3990
sg82
g3984
sg75
(lp3991
g68
(g69
g70
NtRp3992
(dp3993
g73
(dp3994
g81
I3
ssg82
g3988
sg75
(lp3995
g68
(g77
g70
NtRp3996
(dp3997
g73
(dp3998
g81
I2
ssg82
Nsg75
(lp3999
sbasbasbasbasbasbasbasbag68
(g84
g70
NtRp4000
(dp4001
g73
(dp4002
sg82
g3925
sg75
(lp4003
g68
(g89
g70
NtRp4004
(dp4005
g73
(dp4006
sg82
g4000
sg75
(lp4007
g68
(g69
g70
NtRp4008
(dp4009
g73
(dp4010
g81
I4
ssg82
g4004
sg75
(lp4011
g68
(g77
g70
NtRp4012
(dp4013
g73
(dp4014
g81
I3
ssg82
Nsg75
(lp4015
g68
(g84
g70
NtRp4016
(dp4017
g73
(dp4018
sg82
g4012
sg75
(lp4019
g68
(g89
g70
NtRp4020
(dp4021
g73
(dp4022
sg82
g4016
sg75
(lp4023
g68
(g69
g70
NtRp4024
(dp4025
g73
(dp4026
g81
I3
ssg82
g4020
sg75
(lp4027
g68
(cgluon.html
SPAN
p4028
g70
NtRp4029
(dp4030
g73
(dp4031
g93
S'color:yellow'
p4032
ssg82
Nsg75
(lp4033
g3903
asbasbasbasbag68
(g84
g70
NtRp4034
(dp4035
g73
(dp4036
sg82
g4012
sg75
(lp4037
g68
(g89
g70
NtRp4038
(dp4039
g73
(dp4040
sg82
g4034
sg75
(lp4041
g68
(g69
g70
NtRp4042
(dp4043
g73
(dp4044
g81
I3
ssg82
g4038
sg75
(lp4045
g111
asbasbasbag68
(g84
g70
NtRp4046
(dp4047
g73
(dp4048
sg82
g4012
sg75
(lp4049
g68
(g89
g70
NtRp4050
(dp4051
g73
(dp4052
sg82
g4046
sg75
(lp4053
g68
(g69
g70
NtRp4054
(dp4055
g73
(dp4056
g81
I3
ssg82
g4050
sg75
(lp4057
S'None'
p4058
asbasbasbag68
(g84
g70
NtRp4059
(dp4060
g73
(dp4061
sg82
g4012
sg75
(lp4062
g68
(g89
g70
NtRp4063
(dp4064
g73
(dp4065
sg82
g4059
sg75
(lp4066
g68
(g69
g70
NtRp4067
(dp4068
g73
(dp4069
g81
I3
ssg82
g4063
sg75
(lp4070
g68
(g77
g70
NtRp4071
(dp4072
g73
(dp4073
g81
I2
ssg82
Nsg75
(lp4074
g68
(g84
g70
NtRp4075
(dp4076
g73
(dp4077
sg82
g4071
sg75
(lp4078
g68
(g89
g70
NtRp4079
(dp4080
g73
(dp4081
sg82
g4075
sg75
(lp4082
g68
(g69
g70
NtRp4083
(dp4084
g73
(dp4085
g81
I2
ssg82
g4079
sg75
(lp4086
g68
(g77
g70
NtRp4087
(dp4088
g73
(dp4089
g81
I1
ssg82
Nsg75
(lp4090
g68
(g84
g70
NtRp4091
(dp4092
g73
(dp4093
sg82
g4087
sg75
(lp4094
g68
(g89
g70
NtRp4095
(dp4096
g73
(dp4097
sg82
g4091
sg75
(lp4098
g68
(g69
g70
NtRp4099
(dp4100
g73
(dp4101
g81
I1
ssg82
g4095
sg75
(lp4102
g3957
(S's\x08\x00\x00\x00My Sites'
tRp4103
asbasbasbag68
(g84
g70
NtRp4104
(dp4105
g73
(dp4106
sg82
g4087
sg75
(lp4107
g68
(g89
g70
NtRp4108
(dp4109
g73
(dp4110
sg82
g4104
sg75
(lp4111
g68
(g69
g70
NtRp4112
(dp4113
g73
(dp4114
g81
I1
ssg82
g4108
sg75
(lp4115
I00
asbasbasbag68
(g84
g70
NtRp4116
(dp4117
g73
(dp4118
sg82
g4087
sg75
(lp4119
g68
(g89
g70
NtRp4120
(dp4121
g73
(dp4122
sg82
g4116
sg75
(lp4123
g68
(g69
g70
NtRp4124
(dp4125
g73
(dp4126
g81
I1
ssg82
g4120
sg75
(lp4127
S'/admin/default/site'
p4128
asbasbasbasbasbasbasbag68
(g84
g70
NtRp4129
(dp4130
g73
(dp4131
sg82
g4071
sg75
(lp4132
g68
(g89
g70
NtRp4133
(dp4134
g73
(dp4135
sg82
g4129
sg75
(lp4136
g68
(g69
g70
NtRp4137
(dp4138
g73
(dp4139
g81
I2
ssg82
g4133
sg75
(lp4140
g68
(g77
g70
NtRp4141
(dp4142
g73
(dp4143
g81
I1
ssg82
Nsg75
(lp4144
g68
(g84
g70
NtRp4145
(dp4146
g73
(dp4147
sg82
g4141
sg75
(lp4148
g68
(g89
g70
NtRp4149
(dp4150
g73
(dp4151
sg82
g4145
sg75
(lp4152
g68
(g69
g70
NtRp4153
(dp4154
g73
(dp4155
g81
I1
ssg82
g4149
sg75
(lp4156
g3957
(S's\x08\x00\x00\x00This App'
tRp4157
asbasbasbag68
(g84
g70
NtRp4158
(dp4159
g73
(dp4160
sg82
g4141
sg75
(lp4161
g68
(g89
g70
NtRp4162
(dp4163
g73
(dp4164
sg82
g4158
sg75
(lp4165
g68
(g69
g70
NtRp4166
(dp4167
g73
(dp4168
g81
I1
ssg82
g4162
sg75
(lp4169
I00
asbasbasbag68
(g84
g70
NtRp4170
(dp4171
g73
(dp4172
sg82
g4141
sg75
(lp4173
g68
(g89
g70
NtRp4174
(dp4175
g73
(dp4176
sg82
g4170
sg75
(lp4177
g68
(g69
g70
NtRp4178
(dp4179
g73
(dp4180
g81
I1
ssg82
g4174
sg75
(lp4181
S'/admin/default/design/Gordian_Knot'
p4182
asbasbasbag68
(g84
g70
NtRp4183
(dp4184
g73
(dp4185
sg82
g4141
sg75
(lp4186
g68
(g89
g70
NtRp4187
(dp4188
g73
(dp4189
sg82
g4183
sg75
(lp4190
g68
(g69
g70
NtRp4191
(dp4192
g73
(dp4193
g81
I1
ssg82
g4187
sg75
(lp4194
(lp4195
(g3957
(S't\n\x00\x00\x00Controller'
tRp4196
I00
S'/admin/default/edit/Gordian_Knot/controllers/default.py'
tp4197
a(g3957
(S't\x04\x00\x00\x00View'
tRp4198
I00
S'/admin/default/edit/Gordian_Knot/views/default/question.html'
tp4199
a(g3957
(S't\x06\x00\x00\x00Layout'
tRp4200
I00
S'/admin/default/edit/Gordian_Knot/views/layout.html'
tp4201
a(g3957
(S't\n\x00\x00\x00Stylesheet'
tRp4202
I00
S'/admin/default/edit/Gordian_Knot/static/css/web2py.css'
tp4203
a(g3957
(S's\x08\x00\x00\x00DB Model'
tRp4204
I00
S'/admin/default/edit/Gordian_Knot/models/db.py'
tp4205
a(g3957
(S's\n\x00\x00\x00Menu Model'
tRp4206
I00
S'/admin/default/edit/Gordian_Knot/models/menu.py'
tp4207
a(g3957
(S't\x08\x00\x00\x00Database'
tRp4208
I00
S'/Gordian_Knot/appadmin/index'
tp4209
a(g3957
(S't\x06\x00\x00\x00Errors'
tRp4210
I00
S'/admin/default/errors/Gordian_Knot'
tp4211
a(g3957
(S't\x05\x00\x00\x00About'
tRp4212
I00
S'/admin/default/about/Gordian_Knot'
tp4213
aasbasbasbasbasbasbasbag68
(g84
g70
NtRp4214
(dp4215
g73
(dp4216
sg82
g4071
sg75
(lp4217
g68
(g89
g70
NtRp4218
(dp4219
g73
(dp4220
sg82
g4214
sg75
(lp4221
g68
(g69
g70
NtRp4222
(dp4223
g73
(dp4224
g81
I2
ssg82
g4218
sg75
(lp4225
g68
(g77
g70
NtRp4226
(dp4227
g73
(dp4228
g81
I1
ssg82
Nsg75
(lp4229
g68
(g84
g70
NtRp4230
(dp4231
g73
(dp4232
sg82
g4226
sg75
(lp4233
g68
(g89
g70
NtRp4234
(dp4235
g73
(dp4236
sg82
g4230
sg75
(lp4237
g68
(g69
g70
NtRp4238
(dp4239
g73
(dp4240
g81
I1
ssg82
g4234
sg75
(lp4241
S'web2py.com'
p4242
asbasbasbag68
(g84
g70
NtRp4243
(dp4244
g73
(dp4245
sg82
g4226
sg75
(lp4246
g68
(g89
g70
NtRp4247
(dp4248
g73
(dp4249
sg82
g4243
sg75
(lp4250
g68
(g69
g70
NtRp4251
(dp4252
g73
(dp4253
g81
I1
ssg82
g4247
sg75
(lp4254
I00
asbasbasbag68
(g84
g70
NtRp4255
(dp4256
g73
(dp4257
sg82
g4226
sg75
(lp4258
g68
(g89
g70
NtRp4259
(dp4260
g73
(dp4261
sg82
g4255
sg75
(lp4262
g68
(g69
g70
NtRp4263
(dp4264
g73
(dp4265
g81
I1
ssg82
g4259
sg75
(lp4266
S'http://www.web2py.com'
p4267
asbasbasbag68
(g84
g70
NtRp4268
(dp4269
g73
(dp4270
sg82
g4226
sg75
(lp4271
g68
(g89
g70
NtRp4272
(dp4273
g73
(dp4274
sg82
g4268
sg75
(lp4275
g68
(g69
g70
NtRp4276
(dp4277
g73
(dp4278
g81
I1
ssg82
g4272
sg75
(lp4279
(lp4280
(g3957
(S't\x08\x00\x00\x00Download'
tRp4281
I00
S'http://www.web2py.com/examples/default/download'
p4282
tp4283
a(g3957
(S't\x07\x00\x00\x00Support'
tRp4284
I00
S'http://www.web2py.com/examples/default/support'
p4285
tp4286
a(g3957
(S't\x04\x00\x00\x00Demo'
tRp4287
I00
S'http://web2py.com/demo_admin'
p4288
tp4289
a(g3957
(S's\x0e\x00\x00\x00Quick Examples'
tRp4290
I00
S'http://web2py.com/examples/default/examples'
p4291
tp4292
a(g3957
(S't\x03\x00\x00\x00FAQ'
tRp4293
I00
S'http://web2py.com/AlterEgo'
p4294
tp4295
a(g3957
(S't\x06\x00\x00\x00Videos'
tRp4296
I00
S'http://www.web2py.com/examples/default/videos/'
p4297
tp4298
a(g3957
(S's\x11\x00\x00\x00Free Applications'
tRp4299
I00
S'http://web2py.com/appliances'
p4300
tp4301
a(g3957
(S't\x07\x00\x00\x00Plugins'
tRp4302
I00
S'http://web2py.com/plugins'
p4303
tp4304
a(g3957
(S't\x07\x00\x00\x00Layouts'
tRp4305
I00
S'http://web2py.com/layouts'
p4306
tp4307
a(g3957
(S't\x07\x00\x00\x00Recipes'
tRp4308
I00
S'http://web2pyslices.com/'
p4309
tp4310
a(g3957
(S't\x08\x00\x00\x00Semantic'
tRp4311
I00
S'http://web2py.com/semantic'
p4312
tp4313
aasbasbasbasbasbasbasbag68
(g84
g70
NtRp4314
(dp4315
g73
(dp4316
sg82
g4071
sg75
(lp4317
g68
(g89
g70
NtRp4318
(dp4319
g73
(dp4320
sg82
g4314
sg75
(lp4321
g68
(g69
g70
NtRp4322
(dp4323
g73
(dp4324
g81
I2
ssg82
g4318
sg75
(lp4325
g68
(g77
g70
NtRp4326
(dp4327
g73
(dp4328
g81
I1
ssg82
Nsg75
(lp4329
g68
(g84
g70
NtRp4330
(dp4331
g73
(dp4332
sg82
g4326
sg75
(lp4333
g68
(g89
g70
NtRp4334
(dp4335
g73
(dp4336
sg82
g4330
sg75
(lp4337
g68
(g69
g70
NtRp4338
(dp4339
g73
(dp4340
g81
I1
ssg82
g4334
sg75
(lp4341
g3957
(S't\r\x00\x00\x00Documentation'
tRp4342
asbasbasbag68
(g84
g70
NtRp4343
(dp4344
g73
(dp4345
sg82
g4326
sg75
(lp4346
g68
(g89
g70
NtRp4347
(dp4348
g73
(dp4349
sg82
g4343
sg75
(lp4350
g68
(g69
g70
NtRp4351
(dp4352
g73
(dp4353
g81
I1
ssg82
g4347
sg75
(lp4354
I00
asbasbasbag68
(g84
g70
NtRp4355
(dp4356
g73
(dp4357
sg82
g4326
sg75
(lp4358
g68
(g89
g70
NtRp4359
(dp4360
g73
(dp4361
sg82
g4355
sg75
(lp4362
g68
(g69
g70
NtRp4363
(dp4364
g73
(dp4365
g81
I1
ssg82
g4359
sg75
(lp4366
S'http://www.web2py.com/book'
p4367
asbasbasbag68
(g84
g70
NtRp4368
(dp4369
g73
(dp4370
sg82
g4326
sg75
(lp4371
g68
(g89
g70
NtRp4372
(dp4373
g73
(dp4374
sg82
g4368
sg75
(lp4375
g68
(g69
g70
NtRp4376
(dp4377
g73
(dp4378
g81
I1
ssg82
g4372
sg75
(lp4379
(lp4380
(g3957
(S't\x07\x00\x00\x00Preface'
tRp4381
I00
S'http://www.web2py.com/book/default/chapter/00'
p4382
tp4383
a(g3957
(S't\x0c\x00\x00\x00Introduction'
tRp4384
I00
S'http://www.web2py.com/book/default/chapter/01'
p4385
tp4386
a(g3957
(S't\x06\x00\x00\x00Python'
tRp4387
I00
S'http://www.web2py.com/book/default/chapter/02'
p4388
tp4389
a(g3957
(S't\x08\x00\x00\x00Overview'
tRp4390
I00
S'http://www.web2py.com/book/default/chapter/03'
p4391
tp4392
a(g3957
(S's\x08\x00\x00\x00The Core'
tRp4393
I00
S'http://www.web2py.com/book/default/chapter/04'
p4394
tp4395
a(g3957
(S's\t\x00\x00\x00The Views'
tRp4396
I00
S'http://www.web2py.com/book/default/chapter/05'
p4397
tp4398
a(g3957
(S't\x08\x00\x00\x00Database'
tRp4399
I00
S'http://www.web2py.com/book/default/chapter/06'
p4400
tp4401
a(g3957
(S's\x14\x00\x00\x00Forms and Validators'
tRp4402
I00
S'http://www.web2py.com/book/default/chapter/07'
p4403
tp4404
a(g3957
(S's\r\x00\x00\x00Email and SMS'
tRp4405
I00
S'http://www.web2py.com/book/default/chapter/08'
p4406
tp4407
a(g3957
(S's\x0e\x00\x00\x00Access Control'
tRp4408
I00
S'http://www.web2py.com/book/default/chapter/09'
p4409
tp4410
a(g3957
(S't\x08\x00\x00\x00Services'
tRp4411
I00
S'http://www.web2py.com/book/default/chapter/10'
p4412
tp4413
a(g3957
(S's\x0c\x00\x00\x00Ajax Recipes'
tRp4414
I00
S'http://www.web2py.com/book/default/chapter/11'
p4415
tp4416
a(g3957
(S's\x16\x00\x00\x00Components and Plugins'
tRp4417
I00
S'http://www.web2py.com/book/default/chapter/12'
p4418
tp4419
a(g3957
(S's\x12\x00\x00\x00Deployment Recipes'
tRp4420
I00
S'http://www.web2py.com/book/default/chapter/13'
p4421
tp4422
a(g3957
(S's\r\x00\x00\x00Other Recipes'
tRp4423
I00
S'http://www.web2py.com/book/default/chapter/14'
p4424
tp4425
a(g3957
(S's\r\x00\x00\x00Buy this book'
tRp4426
I00
S'http://stores.lulu.com/web2py'
p4427
tp4428
aasbasbasbasbasbasbasbag68
(g84
g70
NtRp4429
(dp4430
g73
(dp4431
sg82
g4071
sg75
(lp4432
g68
(g89
g70
NtRp4433
(dp4434
g73
(dp4435
sg82
g4429
sg75
(lp4436
g68
(g69
g70
NtRp4437
(dp4438
g73
(dp4439
g81
I2
ssg82
g4433
sg75
(lp4440
g68
(g77
g70
NtRp4441
(dp4442
g73
(dp4443
g81
I1
ssg82
Nsg75
(lp4444
g68
(g84
g70
NtRp4445
(dp4446
g73
(dp4447
sg82
g4441
sg75
(lp4448
g68
(g89
g70
NtRp4449
(dp4450
g73
(dp4451
sg82
g4445
sg75
(lp4452
g68
(g69
g70
NtRp4453
(dp4454
g73
(dp4455
g81
I1
ssg82
g4449
sg75
(lp4456
g3957
(S't\t\x00\x00\x00Community'
tRp4457
asbasbasbag68
(g84
g70
NtRp4458
(dp4459
g73
(dp4460
sg82
g4441
sg75
(lp4461
g68
(g89
g70
NtRp4462
(dp4463
g73
(dp4464
sg82
g4458
sg75
(lp4465
g68
(g69
g70
NtRp4466
(dp4467
g73
(dp4468
g81
I1
ssg82
g4462
sg75
(lp4469
I00
asbasbasbag68
(g84
g70
NtRp4470
(dp4471
g73
(dp4472
sg82
g4441
sg75
(lp4473
g68
(g89
g70
NtRp4474
(dp4475
g73
(dp4476
sg82
g4470
sg75
(lp4477
g68
(g69
g70
NtRp4478
(dp4479
g73
(dp4480
g81
I1
ssg82
g4474
sg75
(lp4481
Nasbasbasbag68
(g84
g70
NtRp4482
(dp4483
g73
(dp4484
sg82
g4441
sg75
(lp4485
g68
(g89
g70
NtRp4486
(dp4487
g73
(dp4488
sg82
g4482
sg75
(lp4489
g68
(g69
g70
NtRp4490
(dp4491
g73
(dp4492
g81
I1
ssg82
g4486
sg75
(lp4493
(lp4494
(g3957
(S't\x06\x00\x00\x00Groups'
tRp4495
I00
S'http://www.web2py.com/examples/default/usergroups'
p4496
tp4497
a(g3957
(S't\x07\x00\x00\x00Twitter'
tRp4498
I00
S'http://twitter.com/web2py'
p4499
tp4500
a(g3957
(S's\t\x00\x00\x00Live Chat'
tRp4501
I00
S'http://webchat.freenode.net/?channels=web2py'
p4502
tp4503
aasbasbasbasbasbasbasbag68
(g84
g70
NtRp4504
(dp4505
g73
(dp4506
sg82
g4071
sg75
(lp4507
g68
(g89
g70
NtRp4508
(dp4509
g73
(dp4510
sg82
g4504
sg75
(lp4511
g68
(g69
g70
NtRp4512
(dp4513
g73
(dp4514
g81
I2
ssg82
g4508
sg75
(lp4515
g68
(g77
g70
NtRp4516
(dp4517
g73
(dp4518
g81
I1
ssg82
Nsg75
(lp4519
g68
(g84
g70
NtRp4520
(dp4521
g73
(dp4522
sg82
g4516
sg75
(lp4523
g68
(g89
g70
NtRp4524
(dp4525
g73
(dp4526
sg82
g4520
sg75
(lp4527
g68
(g69
g70
NtRp4528
(dp4529
g73
(dp4530
g81
I1
ssg82
g4524
sg75
(lp4531
g3957
(S't\x07\x00\x00\x00Plugins'
tRp4532
asbasbasbag68
(g84
g70
NtRp4533
(dp4534
g73
(dp4535
sg82
g4516
sg75
(lp4536
g68
(g89
g70
NtRp4537
(dp4538
g73
(dp4539
sg82
g4533
sg75
(lp4540
g68
(g69
g70
NtRp4541
(dp4542
g73
(dp4543
g81
I1
ssg82
g4537
sg75
(lp4544
I00
asbasbasbag68
(g84
g70
NtRp4545
(dp4546
g73
(dp4547
sg82
g4516
sg75
(lp4548
g68
(g89
g70
NtRp4549
(dp4550
g73
(dp4551
sg82
g4545
sg75
(lp4552
g68
(g69
g70
NtRp4553
(dp4554
g73
(dp4555
g81
I1
ssg82
g4549
sg75
(lp4556
Nasbasbasbag68
(g84
g70
NtRp4557
(dp4558
g73
(dp4559
sg82
g4516
sg75
(lp4560
g68
(g89
g70
NtRp4561
(dp4562
g73
(dp4563
sg82
g4557
sg75
(lp4564
g68
(g69
g70
NtRp4565
(dp4566
g73
(dp4567
g81
I1
ssg82
g4561
sg75
(lp4568
(lp4569
(S'plugin_wiki'
p4570
I00
S'http://web2py.com/examples/default/download'
p4571
tp4572
a(g3957
(S's\r\x00\x00\x00Other Plugins'
tRp4573
I00
g4303
tp4574
a(g3957
(S's\x0e\x00\x00\x00Layout Plugins'
tRp4575
I00
g4306
tp4576
aasbasbasbasbasbasbasbasbasbasbasbasbasbasbasbasbasbasbasbag68
(g84
g70
NtRp4577
(dp4578
g73
(dp4579
sg82
g3452
sg75
(lp4580
g68
(g89
g70
NtRp4581
(dp4582
g73
(dp4583
g93
g94
ssg82
g4577
sg75
(lp4584
S'meta'
p4585
asbag68
(g89
g70
NtRp4586
(dp4587
g73
(dp4588
g100
g101
ssg82
g4577
sg75
(lp4589
S':'
asbag68
(g89
g70
NtRp4590
(dp4591
g73
(dp4592
sg82
g4577
sg75
(lp4593
g68
(g69
g70
NtRp4594
(dp4595
g73
(dp4596
g81
I5
ssg82
g4590
sg75
(lp4597
g68
(g77
g70
NtRp4598
(dp4599
g73
(dp4600
g81
I4
ssg82
Nsg75
(lp4601
g68
(g84
g70
NtRp4602
(dp4603
g73
(dp4604
sg82
g4598
sg75
(lp4605
g68
(g89
g70
NtRp4606
(dp4607
g73
(dp4608
g93
g94
ssg82
g4602
sg75
(lp4609
S'author'
p4610
asbag68
(g89
g70
NtRp4611
(dp4612
g73
(dp4613
g100
g101
ssg82
g4602
sg75
(lp4614
S':'
asbag68
(g89
g70
NtRp4615
(dp4616
g73
(dp4617
sg82
g4602
sg75
(lp4618
g68
(g69
g70
NtRp4619
(dp4620
g73
(dp4621
g81
I4
ssg82
g4615
sg75
(lp4622
S'Your Name <you@example.com>'
p4623
asbasbasbag68
(g84
g70
NtRp4624
(dp4625
g73
(dp4626
sg82
g4598
sg75
(lp4627
g68
(g89
g70
NtRp4628
(dp4629
g73
(dp4630
g93
g94
ssg82
g4624
sg75
(lp4631
S'copyright'
p4632
asbag68
(g89
g70
NtRp4633
(dp4634
g73
(dp4635
g100
g101
ssg82
g4624
sg75
(lp4636
S':'
asbag68
(g89
g70
NtRp4637
(dp4638
g73
(dp4639
sg82
g4624
sg75
(lp4640
g68
(g69
g70
NtRp4641
(dp4642
g73
(dp4643
g81
I4
ssg82
g4637
sg75
(lp4644
S'Copyright 2011'
p4645
asbasbasbag68
(g84
g70
NtRp4646
(dp4647
g73
(dp4648
sg82
g4598
sg75
(lp4649
g68
(g89
g70
NtRp4650
(dp4651
g73
(dp4652
g93
g94
ssg82
g4646
sg75
(lp4653
S'description'
p4654
asbag68
(g89
g70
NtRp4655
(dp4656
g73
(dp4657
g100
g101
ssg82
g4646
sg75
(lp4658
S':'
asbag68
(g89
g70
NtRp4659
(dp4660
g73
(dp4661
sg82
g4646
sg75
(lp4662
g68
(g69
g70
NtRp4663
(dp4664
g73
(dp4665
g81
I4
ssg82
g4659
sg75
(lp4666
S'a cool new app'
p4667
asbasbasbag68
(g84
g70
NtRp4668
(dp4669
g73
(dp4670
sg82
g4598
sg75
(lp4671
g68
(g89
g70
NtRp4672
(dp4673
g73
(dp4674
g93
g94
ssg82
g4668
sg75
(lp4675
S'generator'
p4676
asbag68
(g89
g70
NtRp4677
(dp4678
g73
(dp4679
g100
g101
ssg82
g4668
sg75
(lp4680
S':'
asbag68
(g89
g70
NtRp4681
(dp4682
g73
(dp4683
sg82
g4668
sg75
(lp4684
g68
(g69
g70
NtRp4685
(dp4686
g73
(dp4687
g81
I4
ssg82
g4681
sg75
(lp4688
S'Web2py Web Framework'
p4689
asbasbasbag68
(g84
g70
NtRp4690
(dp4691
g73
(dp4692
sg82
g4598
sg75
(lp4693
g68
(g89
g70
NtRp4694
(dp4695
g73
(dp4696
g93
g94
ssg82
g4690
sg75
(lp4697
S'keywords'
p4698
asbag68
(g89
g70
NtRp4699
(dp4700
g73
(dp4701
g100
g101
ssg82
g4690
sg75
(lp4702
S':'
asbag68
(g89
g70
NtRp4703
(dp4704
g73
(dp4705
sg82
g4690
sg75
(lp4706
g68
(g69
g70
NtRp4707
(dp4708
g73
(dp4709
g81
I4
ssg82
g4703
sg75
(lp4710
S'web2py, python, framework'
p4711
asbasbasbasbasbasbasbag68
(g84
g70
NtRp4712
(dp4713
g73
(dp4714
sg82
g3452
sg75
(lp4715
g68
(g89
g70
NtRp4716
(dp4717
g73
(dp4718
g93
g94
ssg82
g4712
sg75
(lp4719
S'postprocessing'
p4720
asbag68
(g89
g70
NtRp4721
(dp4722
g73
(dp4723
g100
g101
ssg82
g4712
sg75
(lp4724
S':'
asbag68
(g89
g70
NtRp4725
(dp4726
g73
(dp4727
sg82
g4712
sg75
(lp4728
g68
(g69
g70
NtRp4729
(dp4730
g73
(dp4731
g81
I5
ssg82
g4725
sg75
(lp4732
g68
(g77
g70
NtRp4733
(dp4734
g73
(dp4735
g81
I4
ssg82
Nsg75
(lp4736
sbasbasbasbag68
(g84
g70
NtRp4737
(dp4738
g73
(dp4739
sg82
g3452
sg75
(lp4740
g68
(g89
g70
NtRp4741
(dp4742
g73
(dp4743
g93
g94
ssg82
g4737
sg75
(lp4744
S'session_file'
p4745
asbag68
(g89
g70
NtRp4746
(dp4747
g73
(dp4748
g100
g101
ssg82
g4737
sg75
(lp4749
S':'
asbag68
(g89
g70
NtRp4750
(dp4751
g73
(dp4752
sg82
g4737
sg75
(lp4753
g68
(g69
g70
NtRp4754
(dp4755
g73
(dp4756
g81
I5
ssg82
g4750
sg75
(lp4757
S"<open file '/home/ds-iiit/web2py/applications/Gordian_Knot/sessions/127.0.0.1-7cbbc713-1cb8-4d74-8c67-ceeed6d4fabf', mode 'rb+' at 0x7f0d84441810>"
p4758
asbasbasbag68
(g84
g70
NtRp4759
(dp4760
g73
(dp4761
sg82
g3452
sg75
(lp4762
g68
(g89
g70
NtRp4763
(dp4764
g73
(dp4765
g93
g94
ssg82
g4759
sg75
(lp4766
S'session_filename'
p4767
asbag68
(g89
g70
NtRp4768
(dp4769
g73
(dp4770
g100
g101
ssg82
g4759
sg75
(lp4771
S':'
asbag68
(g89
g70
NtRp4772
(dp4773
g73
(dp4774
sg82
g4759
sg75
(lp4775
g68
(g69
g70
NtRp4776
(dp4777
g73
(dp4778
g81
I5
ssg82
g4772
sg75
(lp4779
S'/home/ds-iiit/web2py/applications/Gordian_Knot/sessions/127.0.0.1-7cbbc713-1cb8-4d74-8c67-ceeed6d4fabf'
p4780
asbasbasbag68
(g84
g70
NtRp4781
(dp4782
g73
(dp4783
sg82
g3452
sg75
(lp4784
g68
(g89
g70
NtRp4785
(dp4786
g73
(dp4787
g93
g94
ssg82
g4781
sg75
(lp4788
S'session_id'
p4789
asbag68
(g89
g70
NtRp4790
(dp4791
g73
(dp4792
g100
g101
ssg82
g4781
sg75
(lp4793
S':'
asbag68
(g89
g70
NtRp4794
(dp4795
g73
(dp4796
sg82
g4781
sg75
(lp4797
g68
(g69
g70
NtRp4798
(dp4799
g73
(dp4800
g81
I5
ssg82
g4794
sg75
(lp4801
S'127.0.0.1-7cbbc713-1cb8-4d74-8c67-ceeed6d4fabf'
p4802
asbasbasbag68
(g84
g70
NtRp4803
(dp4804
g73
(dp4805
sg82
g3452
sg75
(lp4806
g68
(g89
g70
NtRp4807
(dp4808
g73
(dp4809
g93
g94
ssg82
g4803
sg75
(lp4810
S'session_id_name'
p4811
asbag68
(g89
g70
NtRp4812
(dp4813
g73
(dp4814
g100
g101
ssg82
g4803
sg75
(lp4815
S':'
asbag68
(g89
g70
NtRp4816
(dp4817
g73
(dp4818
sg82
g4803
sg75
(lp4819
g68
(g69
g70
NtRp4820
(dp4821
g73
(dp4822
g81
I5
ssg82
g4816
sg75
(lp4823
g3509
asbasbasbag68
(g84
g70
NtRp4824
(dp4825
g73
(dp4826
sg82
g3452
sg75
(lp4827
g68
(g89
g70
NtRp4828
(dp4829
g73
(dp4830
g93
g94
ssg82
g4824
sg75
(lp4831
S'session_locked'
p4832
asbag68
(g89
g70
NtRp4833
(dp4834
g73
(dp4835
g100
g101
ssg82
g4824
sg75
(lp4836
S':'
asbag68
(g89
g70
NtRp4837
(dp4838
g73
(dp4839
sg82
g4824
sg75
(lp4840
g68
(g69
g70
NtRp4841
(dp4842
g73
(dp4843
g81
I5
ssg82
g4837
sg75
(lp4844
g1679
asbasbasbag68
(g84
g70
NtRp4845
(dp4846
g73
(dp4847
sg82
g3452
sg75
(lp4848
g68
(g89
g70
NtRp4849
(dp4850
g73
(dp4851
g93
g94
ssg82
g4845
sg75
(lp4852
S'session_new'
p4853
asbag68
(g89
g70
NtRp4854
(dp4855
g73
(dp4856
g100
g101
ssg82
g4845
sg75
(lp4857
S':'
asbag68
(g89
g70
NtRp4858
(dp4859
g73
(dp4860
sg82
g4845
sg75
(lp4861
g68
(g69
g70
NtRp4862
(dp4863
g73
(dp4864
g81
I5
ssg82
g4858
sg75
(lp4865
g111
asbasbasbag68
(g84
g70
NtRp4866
(dp4867
g73
(dp4868
sg82
g3452
sg75
(lp4869
g68
(g89
g70
NtRp4870
(dp4871
g73
(dp4872
g93
g94
ssg82
g4866
sg75
(lp4873
S'status'
p4874
asbag68
(g89
g70
NtRp4875
(dp4876
g73
(dp4877
g100
g101
ssg82
g4866
sg75
(lp4878
S':'
asbag68
(g89
g70
NtRp4879
(dp4880
g73
(dp4881
sg82
g4866
sg75
(lp4882
g68
(g69
g70
NtRp4883
(dp4884
g73
(dp4885
g81
I5
ssg82
g4879
sg75
(lp4886
S'200'
p4887
asbasbasbag68
(g84
g70
NtRp4888
(dp4889
g73
(dp4890
sg82
g3452
sg75
(lp4891
g68
(g89
g70
NtRp4892
(dp4893
g73
(dp4894
g93
g94
ssg82
g4888
sg75
(lp4895
S'subtitle'
p4896
asbag68
(g89
g70
NtRp4897
(dp4898
g73
(dp4899
g100
g101
ssg82
g4888
sg75
(lp4900
S':'
asbag68
(g89
g70
NtRp4901
(dp4902
g73
(dp4903
sg82
g4888
sg75
(lp4904
g68
(g69
g70
NtRp4905
(dp4906
g73
(dp4907
g81
I5
ssg82
g4901
sg75
(lp4908
g3957
(S's\r\x00\x00\x00customize me!'
tRp4909
asbasbasbag68
(g84
g70
NtRp4910
(dp4911
g73
(dp4912
sg82
g3452
sg75
(lp4913
g68
(g89
g70
NtRp4914
(dp4915
g73
(dp4916
g93
g94
ssg82
g4910
sg75
(lp4917
S'title'
p4918
asbag68
(g89
g70
NtRp4919
(dp4920
g73
(dp4921
g100
g101
ssg82
g4910
sg75
(lp4922
S':'
asbag68
(g89
g70
NtRp4923
(dp4924
g73
(dp4925
sg82
g4910
sg75
(lp4926
g68
(g69
g70
NtRp4927
(dp4928
g73
(dp4929
g81
I5
ssg82
g4923
sg75
(lp4930
S'Gordian Knot'
p4931
asbasbasbag68
(g84
g70
NtRp4932
(dp4933
g73
(dp4934
sg82
g3452
sg75
(lp4935
g68
(g89
g70
NtRp4936
(dp4937
g73
(dp4938
g93
g94
ssg82
g4932
sg75
(lp4939
g2364
asbag68
(g89
g70
NtRp4940
(dp4941
g73
(dp4942
g100
g101
ssg82
g4932
sg75
(lp4943
S':'
asbag68
(g89
g70
NtRp4944
(dp4945
g73
(dp4946
sg82
g4932
sg75
(lp4947
g68
(g69
g70
NtRp4948
(dp4949
g73
(dp4950
g81
I5
ssg82
g4944
sg75
(lp4951
g2377
asbasbasbag68
(g84
g70
NtRp4952
(dp4953
g73
(dp4954
sg82
g3452
sg75
(lp4955
g68
(g89
g70
NtRp4956
(dp4957
g73
(dp4958
g93
g94
ssg82
g4952
sg75
(lp4959
S'view'
p4960
asbag68
(g89
g70
NtRp4961
(dp4962
g73
(dp4963
g100
g101
ssg82
g4952
sg75
(lp4964
S':'
asbag68
(g89
g70
NtRp4965
(dp4966
g73
(dp4967
sg82
g4952
sg75
(lp4968
g68
(g69
g70
NtRp4969
(dp4970
g73
(dp4971
g81
I5
ssg82
g4965
sg75
(lp4972
S'default/question.html'
p4973
asbasbasbasbasbsS'locals'
p4974
(dp4975
g4
S"'/home/ds-iiit/web2py/applications/Gordian_Knot/controllers/default.py'"
p4976
sg6
S"'# -*- coding: utf-8 -*-\\n# this file is released ...d())\\n\\n\\nresponse._vars=response._caller(question)\\n'"
p4977
sssS'traceback'
p4978
S'Traceback (most recent call last):\n  File "/usr/lib/pymodules/python2.7/gluon/restricted.py", line 203, in restricted\n    ccode = compile2(code,layer)\n  File "/usr/lib/pymodules/python2.7/gluon/restricted.py", line 189, in compile2\n    return compile(code.rstrip().replace(\'\\r\\n\',\'\\n\')+\'\\n\', layer, \'exec\')\n  File "/home/ds-iiit/web2py/applications/Gordian_Knot/controllers/default.py", line 44\n    if auth.user_id != 1:\n   ^\nIndentationError: unexpected indent\n'
p4979
s.