(dp1
S'output'
p2
S"<type 'exceptions.AttributeError'> 'NoneType' object has no attribute 'id'"
p3
sS'layer'
p4
S'/home/ds-iiit/web2py/applications/Gordian_Knot/controllers/default.py'
p5
sS'code'
p6
S'# -*- coding: utf-8 -*-\n# this file is released under public domain and you can use without limitations\n\n#########################################################################\n## This is a samples controller\n## - index is the default action of any application\n## - user is required for authentication and authorization\n## - download is for downloading files uploaded in the db (does streaming)\n## - call exposes all registered services (none by default)\n#########################################################################\ndef addquestion():\n\tform = crud.create(\'Trivia\')\n\treturn dict(form=form)\ndef updatequestion():\n\tno = int(request.args(0))\n\tform = crud.update(\'Trivia\',no)\n\treturn dict(form=form)\n\ndef ranklist():\n\tx = db(db.auth_user.id > 0).select(orderby = Points)\n\treturn dict(x=x)\n\ndef question():\n\tno=request.args(0)\n\tno = int(no)\n\tprint auth.user_id\n\tif db((db.Level.Level == no) & (db.Level.User == auth.user.id)) is not None or no == 0:\n\t\tquestions = db((db.Trivia.Level == no) & (db.Done.Question != db.Trivia.Question)  & (db.Done.User == auth.user_id)).select()\n\t\treturn dict(questions = questions)\n\telse:\n\t\tredirect(\'landing\')\n\ndef landing():\n\ty = db((db.Level.Level == no) & (db.Level.User == auth.user_id))\n\treturn dict(y=y)\n\ndef checkans():\n\ttry:\n\t\tans = int(request.vars(\'Ans\'))\n\texcept:\n\t\tredirect(\'landing\')\n\tqno = request.vars(\'Qno\')\n\tx = db((db.Trivia.id == Qno) & (db.Trivia.Answer == ans))\n\tif not x:\n\t\treturn False\n\telse:\n\t\tdb.Done.Insert(User=auth.user.id,Question=qno)\n\t\ty = db((db.Question.User == auth.user.id))\n\t\tif len(y) >= 5:\n\t\t\tdb.Level.insert(User=auth.user_id,Level=1)\n\t\telif len(y) >= 10:\n\t\t\tdb.Level.insert(User=auth.user_id,Level=2)\n\t\telif len(y) >= 15:\n\t\t\tdb.Level.insert(User=auth.user_id,Level=3)\n\t\telif len(y) >= 20:\n\t\t\tdb.Level.insert(User=auth.user_id,Level=4)\n\t\t\t\n\t\treturn True\n\n\ndef index():\n    """\n    example action using the internationalization operator T and flash\n    rendered by views/default/index.html or views/generic.html\n    """\n    response.flash = "Welcome to web2py!"\n    return dict(message=T(\'Hello World\'))\n\ndef user():\n    """\n    exposes:\n    http://..../[app]/default/user/login\n    http://..../[app]/default/user/logout\n    http://..../[app]/default/user/register\n    http://..../[app]/default/user/profile\n    http://..../[app]/default/user/retrieve_password\n    http://..../[app]/default/user/change_password\n    use @auth.requires_login()\n        @auth.requires_membership(\'group name\')\n        @auth.requires_permission(\'read\',\'table name\',record_id)\n    to decorate functions that need access control\n    """\n    return dict(form=auth())\n\n\ndef download():\n    """\n    allows downloading of uploaded files\n    http://..../[app]/default/download/[filename]\n    """\n    return response.download(request,db)\n\n\ndef call():\n    """\n    exposes services. for example:\n    http://..../[app]/default/call/jsonrpc\n    decorate with @services.jsonrpc the functions to expose\n    supports xml, json, xmlrpc, jsonrpc, amfrpc, rss, csv\n    """\n    return service()\n\n\n@auth.requires_signature()\ndef data():\n    """\n    http://..../[app]/default/data/tables\n    http://..../[app]/default/data/create/[table]\n    http://..../[app]/default/data/read/[table]/[id]\n    http://..../[app]/default/data/update/[table]/[id]\n    http://..../[app]/default/data/delete/[table]/[id]\n    http://..../[app]/default/data/select/[table]\n    http://..../[app]/default/data/search/[table]\n    but URLs must be signed, i.e. linked with\n      A(\'table\',_href=URL(\'data/tables\',user_signature=True))\n    or with the signed load operator\n      LOAD(\'default\',\'data.load\',args=\'tables\',ajax=True,user_signature=True)\n    """\n    return dict(form=crud())\n\n\nresponse._vars=response._caller(question)\n'
p7
sS'snapshot'
p8
(dp9
S'exception'
p10
(dp11
S'__hash__'
p12
S"<method-wrapper '__hash__' of exceptions.AttributeError object>"
p13
sS'__setattr__'
p14
S"<method-wrapper '__setattr__' of exceptions.AttributeError object>"
p15
sS'__reduce_ex__'
p16
S'<built-in method __reduce_ex__ of exceptions.AttributeError object>'
p17
sS'__getslice__'
p18
S"<method-wrapper '__getslice__' of exceptions.AttributeError object>"
p19
sS'__getitem__'
p20
S"<method-wrapper '__getitem__' of exceptions.AttributeError object>"
p21
sS'__setstate__'
p22
S'<built-in method __setstate__ of exceptions.AttributeError object>'
p23
sS'args'
p24
S'("\'NoneType\' object has no attribute \'id\'",)'
p25
sS'__reduce__'
p26
S'<built-in method __reduce__ of exceptions.AttributeError object>'
p27
sS'__str__'
p28
S"<method-wrapper '__str__' of exceptions.AttributeError object>"
p29
sS'__format__'
p30
S'<built-in method __format__ of exceptions.AttributeError object>'
p31
sS'__getattribute__'
p32
S"<method-wrapper '__getattribute__' of exceptions.AttributeError object>"
p33
sS'__class__'
p34
S"<type 'exceptions.AttributeError'>"
p35
sS'__unicode__'
p36
S'<built-in method __unicode__ of exceptions.AttributeError object>'
p37
sS'__delattr__'
p38
S"<method-wrapper '__delattr__' of exceptions.AttributeError object>"
p39
sS'__subclasshook__'
p40
S'<built-in method __subclasshook__ of type object>'
p41
sS'__repr__'
p42
S"<method-wrapper '__repr__' of exceptions.AttributeError object>"
p43
sS'__dict__'
p44
S'{}'
p45
sS'__sizeof__'
p46
S'<built-in method __sizeof__ of exceptions.AttributeError object>'
p47
sS'__doc__'
p48
S"'Attribute not found.'"
p49
sS'__init__'
p50
S"<method-wrapper '__init__' of exceptions.AttributeError object>"
p51
sS'__new__'
p52
S'<built-in method __new__ of type object>'
p53
ssS'evalue'
p54
S"'NoneType' object has no attribute 'id'"
p55
sS'request'
p56
ccopy_reg
_reconstructor
p57
(cgluon.html
BEAUTIFY
p58
c__builtin__
object
p59
NtRp60
(dp61
S'attributes'
p62
(dp63
sS'components'
p64
(lp65
g57
(cgluon.html
TABLE
p66
g59
NtRp67
(dp68
g62
(dp69
S'level'
p70
I5
ssS'parent'
p71
Nsg64
(lp72
g57
(cgluon.html
TR
p73
g59
NtRp74
(dp75
g62
(dp76
sg71
g67
sg64
(lp77
g57
(cgluon.html
TD
p78
g59
NtRp79
(dp80
g62
(dp81
S'_style'
p82
S'font-weight:bold;vertical-align:top'
p83
ssg71
g74
sg64
(lp84
S'ajax'
p85
asbag57
(g78
g59
NtRp86
(dp87
g62
(dp88
S'_valign'
p89
S'top'
p90
ssg71
g74
sg64
(lp91
S':'
asbag57
(g78
g59
NtRp92
(dp93
g62
(dp94
sg71
g74
sg64
(lp95
g57
(g58
g59
NtRp96
(dp97
g62
(dp98
g70
I5
ssg71
g92
sg64
(lp99
S'False'
p100
asbasbasbag57
(g73
g59
NtRp101
(dp102
g62
(dp103
sg71
g67
sg64
(lp104
g57
(g78
g59
NtRp105
(dp106
g62
(dp107
g82
g83
ssg71
g101
sg64
(lp108
S'application'
p109
asbag57
(g78
g59
NtRp110
(dp111
g62
(dp112
g89
g90
ssg71
g101
sg64
(lp113
S':'
asbag57
(g78
g59
NtRp114
(dp115
g62
(dp116
sg71
g101
sg64
(lp117
g57
(g58
g59
NtRp118
(dp119
g62
(dp120
g70
I5
ssg71
g114
sg64
(lp121
S'Gordian_Knot'
p122
asbasbasbag57
(g73
g59
NtRp123
(dp124
g62
(dp125
sg71
g67
sg64
(lp126
g57
(g78
g59
NtRp127
(dp128
g62
(dp129
g82
g83
ssg71
g123
sg64
(lp130
g24
asbag57
(g78
g59
NtRp131
(dp132
g62
(dp133
g89
g90
ssg71
g123
sg64
(lp134
S':'
asbag57
(g78
g59
NtRp135
(dp136
g62
(dp137
sg71
g123
sg64
(lp138
g57
(g58
g59
NtRp139
(dp140
g62
(dp141
g70
I5
ssg71
g135
sg64
(lp142
g57
(g66
g59
NtRp143
(dp144
g62
(dp145
g70
I4
ssg71
Nsg64
(lp146
g57
(g73
g59
NtRp147
(dp148
g62
(dp149
sg71
g143
sg64
(lp150
g57
(g78
g59
NtRp151
(dp152
g62
(dp153
sg71
g147
sg64
(lp154
g57
(g58
g59
NtRp155
(dp156
g62
(dp157
g70
I4
ssg71
g151
sg64
(lp158
S'1'
asbasbasbasbasbasbasbag57
(g73
g59
NtRp159
(dp160
g62
(dp161
sg71
g67
sg64
(lp162
g57
(g78
g59
NtRp163
(dp164
g62
(dp165
g82
g83
ssg71
g159
sg64
(lp166
S'body'
p167
asbag57
(g78
g59
NtRp168
(dp169
g62
(dp170
g89
g90
ssg71
g159
sg64
(lp171
S':'
asbag57
(g78
g59
NtRp172
(dp173
g62
(dp174
sg71
g159
sg64
(lp175
g57
(g58
g59
NtRp176
(dp177
g62
(dp178
g70
I5
ssg71
g172
sg64
(lp179
S'<cStringIO.StringO object at 0x7f0d8c283f48>'
p180
asbasbasbag57
(g73
g59
NtRp181
(dp182
g62
(dp183
sg71
g67
sg64
(lp184
g57
(g78
g59
NtRp185
(dp186
g62
(dp187
g82
g83
ssg71
g181
sg64
(lp188
S'client'
p189
asbag57
(g78
g59
NtRp190
(dp191
g62
(dp192
g89
g90
ssg71
g181
sg64
(lp193
S':'
asbag57
(g78
g59
NtRp194
(dp195
g62
(dp196
sg71
g181
sg64
(lp197
g57
(g58
g59
NtRp198
(dp199
g62
(dp200
g70
I5
ssg71
g194
sg64
(lp201
S'127.0.0.1'
p202
asbasbasbag57
(g73
g59
NtRp203
(dp204
g62
(dp205
sg71
g67
sg64
(lp206
g57
(g78
g59
NtRp207
(dp208
g62
(dp209
g82
g83
ssg71
g203
sg64
(lp210
S'controller'
p211
asbag57
(g78
g59
NtRp212
(dp213
g62
(dp214
g89
g90
ssg71
g203
sg64
(lp215
S':'
asbag57
(g78
g59
NtRp216
(dp217
g62
(dp218
sg71
g203
sg64
(lp219
g57
(g58
g59
NtRp220
(dp221
g62
(dp222
g70
I5
ssg71
g216
sg64
(lp223
S'default'
p224
asbasbasbag57
(g73
g59
NtRp225
(dp226
g62
(dp227
sg71
g67
sg64
(lp228
g57
(g78
g59
NtRp229
(dp230
g62
(dp231
g82
g83
ssg71
g225
sg64
(lp232
S'cookies'
p233
asbag57
(g78
g59
NtRp234
(dp235
g62
(dp236
g89
g90
ssg71
g225
sg64
(lp237
S':'
asbag57
(g78
g59
NtRp238
(dp239
g62
(dp240
sg71
g225
sg64
(lp241
g57
(g58
g59
NtRp242
(dp243
g62
(dp244
g70
I5
ssg71
g238
sg64
(lp245
g57
(g66
g59
NtRp246
(dp247
g62
(dp248
g70
I4
ssg71
Nsg64
(lp249
g57
(g73
g59
NtRp250
(dp251
g62
(dp252
sg71
g246
sg64
(lp253
g57
(g78
g59
NtRp254
(dp255
g62
(dp256
g82
g83
ssg71
g250
sg64
(lp257
S'session_id_admin'
p258
asbag57
(g78
g59
NtRp259
(dp260
g62
(dp261
g89
g90
ssg71
g250
sg64
(lp262
S':'
asbag57
(g78
g59
NtRp263
(dp264
g62
(dp265
sg71
g250
sg64
(lp266
g57
(g58
g59
NtRp267
(dp268
g62
(dp269
g70
I4
ssg71
g263
sg64
(lp270
g57
(g66
g59
NtRp271
(dp272
g62
(dp273
g70
I3
ssg71
Nsg64
(lp274
g57
(g73
g59
NtRp275
(dp276
g62
(dp277
sg71
g271
sg64
(lp278
g57
(g78
g59
NtRp279
(dp280
g62
(dp281
g82
g83
ssg71
g275
sg64
(lp282
S'comment'
p283
asbag57
(g78
g59
NtRp284
(dp285
g62
(dp286
g89
g90
ssg71
g275
sg64
(lp287
S':'
asbag57
(g78
g59
NtRp288
(dp289
g62
(dp290
sg71
g275
sg64
(lp291
g57
(g58
g59
NtRp292
(dp293
g62
(dp294
g70
I3
ssg71
g288
sg64
(lp295
S''
asbasbasbag57
(g73
g59
NtRp296
(dp297
g62
(dp298
sg71
g271
sg64
(lp299
g57
(g78
g59
NtRp300
(dp301
g62
(dp302
g82
g83
ssg71
g296
sg64
(lp303
S'domain'
p304
asbag57
(g78
g59
NtRp305
(dp306
g62
(dp307
g89
g90
ssg71
g296
sg64
(lp308
S':'
asbag57
(g78
g59
NtRp309
(dp310
g62
(dp311
sg71
g296
sg64
(lp312
g57
(g58
g59
NtRp313
(dp314
g62
(dp315
g70
I3
ssg71
g309
sg64
(lp316
S''
asbasbasbag57
(g73
g59
NtRp317
(dp318
g62
(dp319
sg71
g271
sg64
(lp320
g57
(g78
g59
NtRp321
(dp322
g62
(dp323
g82
g83
ssg71
g317
sg64
(lp324
S'expires'
p325
asbag57
(g78
g59
NtRp326
(dp327
g62
(dp328
g89
g90
ssg71
g317
sg64
(lp329
S':'
asbag57
(g78
g59
NtRp330
(dp331
g62
(dp332
sg71
g317
sg64
(lp333
g57
(g58
g59
NtRp334
(dp335
g62
(dp336
g70
I3
ssg71
g330
sg64
(lp337
S''
asbasbasbag57
(g73
g59
NtRp338
(dp339
g62
(dp340
sg71
g271
sg64
(lp341
g57
(g78
g59
NtRp342
(dp343
g62
(dp344
g82
g83
ssg71
g338
sg64
(lp345
S'httponly'
p346
asbag57
(g78
g59
NtRp347
(dp348
g62
(dp349
g89
g90
ssg71
g338
sg64
(lp350
S':'
asbag57
(g78
g59
NtRp351
(dp352
g62
(dp353
sg71
g338
sg64
(lp354
g57
(g58
g59
NtRp355
(dp356
g62
(dp357
g70
I3
ssg71
g351
sg64
(lp358
S''
asbasbasbag57
(g73
g59
NtRp359
(dp360
g62
(dp361
sg71
g271
sg64
(lp362
g57
(g78
g59
NtRp363
(dp364
g62
(dp365
g82
g83
ssg71
g359
sg64
(lp366
S'max-age'
p367
asbag57
(g78
g59
NtRp368
(dp369
g62
(dp370
g89
g90
ssg71
g359
sg64
(lp371
S':'
asbag57
(g78
g59
NtRp372
(dp373
g62
(dp374
sg71
g359
sg64
(lp375
g57
(g58
g59
NtRp376
(dp377
g62
(dp378
g70
I3
ssg71
g372
sg64
(lp379
S''
asbasbasbag57
(g73
g59
NtRp380
(dp381
g62
(dp382
sg71
g271
sg64
(lp383
g57
(g78
g59
NtRp384
(dp385
g62
(dp386
g82
g83
ssg71
g380
sg64
(lp387
S'path'
p388
asbag57
(g78
g59
NtRp389
(dp390
g62
(dp391
g89
g90
ssg71
g380
sg64
(lp392
S':'
asbag57
(g78
g59
NtRp393
(dp394
g62
(dp395
sg71
g380
sg64
(lp396
g57
(g58
g59
NtRp397
(dp398
g62
(dp399
g70
I3
ssg71
g393
sg64
(lp400
S''
asbasbasbag57
(g73
g59
NtRp401
(dp402
g62
(dp403
sg71
g271
sg64
(lp404
g57
(g78
g59
NtRp405
(dp406
g62
(dp407
g82
g83
ssg71
g401
sg64
(lp408
S'secure'
p409
asbag57
(g78
g59
NtRp410
(dp411
g62
(dp412
g89
g90
ssg71
g401
sg64
(lp413
S':'
asbag57
(g78
g59
NtRp414
(dp415
g62
(dp416
sg71
g401
sg64
(lp417
g57
(g58
g59
NtRp418
(dp419
g62
(dp420
g70
I3
ssg71
g414
sg64
(lp421
S''
asbasbasbag57
(g73
g59
NtRp422
(dp423
g62
(dp424
sg71
g271
sg64
(lp425
g57
(g78
g59
NtRp426
(dp427
g62
(dp428
g82
g83
ssg71
g422
sg64
(lp429
S'version'
p430
asbag57
(g78
g59
NtRp431
(dp432
g62
(dp433
g89
g90
ssg71
g422
sg64
(lp434
S':'
asbag57
(g78
g59
NtRp435
(dp436
g62
(dp437
sg71
g422
sg64
(lp438
g57
(g58
g59
NtRp439
(dp440
g62
(dp441
g70
I3
ssg71
g435
sg64
(lp442
S''
asbasbasbasbasbasbasbag57
(g73
g59
NtRp443
(dp444
g62
(dp445
sg71
g246
sg64
(lp446
g57
(g78
g59
NtRp447
(dp448
g62
(dp449
g82
g83
ssg71
g443
sg64
(lp450
S'session_id_gordian_knot'
p451
asbag57
(g78
g59
NtRp452
(dp453
g62
(dp454
g89
g90
ssg71
g443
sg64
(lp455
S':'
asbag57
(g78
g59
NtRp456
(dp457
g62
(dp458
sg71
g443
sg64
(lp459
g57
(g58
g59
NtRp460
(dp461
g62
(dp462
g70
I4
ssg71
g456
sg64
(lp463
g57
(g66
g59
NtRp464
(dp465
g62
(dp466
g70
I3
ssg71
Nsg64
(lp467
g57
(g73
g59
NtRp468
(dp469
g62
(dp470
sg71
g464
sg64
(lp471
g57
(g78
g59
NtRp472
(dp473
g62
(dp474
g82
g83
ssg71
g468
sg64
(lp475
g283
asbag57
(g78
g59
NtRp476
(dp477
g62
(dp478
g89
g90
ssg71
g468
sg64
(lp479
S':'
asbag57
(g78
g59
NtRp480
(dp481
g62
(dp482
sg71
g468
sg64
(lp483
g57
(g58
g59
NtRp484
(dp485
g62
(dp486
g70
I3
ssg71
g480
sg64
(lp487
S''
asbasbasbag57
(g73
g59
NtRp488
(dp489
g62
(dp490
sg71
g464
sg64
(lp491
g57
(g78
g59
NtRp492
(dp493
g62
(dp494
g82
g83
ssg71
g488
sg64
(lp495
g304
asbag57
(g78
g59
NtRp496
(dp497
g62
(dp498
g89
g90
ssg71
g488
sg64
(lp499
S':'
asbag57
(g78
g59
NtRp500
(dp501
g62
(dp502
sg71
g488
sg64
(lp503
g57
(g58
g59
NtRp504
(dp505
g62
(dp506
g70
I3
ssg71
g500
sg64
(lp507
S''
asbasbasbag57
(g73
g59
NtRp508
(dp509
g62
(dp510
sg71
g464
sg64
(lp511
g57
(g78
g59
NtRp512
(dp513
g62
(dp514
g82
g83
ssg71
g508
sg64
(lp515
g325
asbag57
(g78
g59
NtRp516
(dp517
g62
(dp518
g89
g90
ssg71
g508
sg64
(lp519
S':'
asbag57
(g78
g59
NtRp520
(dp521
g62
(dp522
sg71
g508
sg64
(lp523
g57
(g58
g59
NtRp524
(dp525
g62
(dp526
g70
I3
ssg71
g520
sg64
(lp527
S''
asbasbasbag57
(g73
g59
NtRp528
(dp529
g62
(dp530
sg71
g464
sg64
(lp531
g57
(g78
g59
NtRp532
(dp533
g62
(dp534
g82
g83
ssg71
g528
sg64
(lp535
g346
asbag57
(g78
g59
NtRp536
(dp537
g62
(dp538
g89
g90
ssg71
g528
sg64
(lp539
S':'
asbag57
(g78
g59
NtRp540
(dp541
g62
(dp542
sg71
g528
sg64
(lp543
g57
(g58
g59
NtRp544
(dp545
g62
(dp546
g70
I3
ssg71
g540
sg64
(lp547
S''
asbasbasbag57
(g73
g59
NtRp548
(dp549
g62
(dp550
sg71
g464
sg64
(lp551
g57
(g78
g59
NtRp552
(dp553
g62
(dp554
g82
g83
ssg71
g548
sg64
(lp555
g367
asbag57
(g78
g59
NtRp556
(dp557
g62
(dp558
g89
g90
ssg71
g548
sg64
(lp559
S':'
asbag57
(g78
g59
NtRp560
(dp561
g62
(dp562
sg71
g548
sg64
(lp563
g57
(g58
g59
NtRp564
(dp565
g62
(dp566
g70
I3
ssg71
g560
sg64
(lp567
S''
asbasbasbag57
(g73
g59
NtRp568
(dp569
g62
(dp570
sg71
g464
sg64
(lp571
g57
(g78
g59
NtRp572
(dp573
g62
(dp574
g82
g83
ssg71
g568
sg64
(lp575
g388
asbag57
(g78
g59
NtRp576
(dp577
g62
(dp578
g89
g90
ssg71
g568
sg64
(lp579
S':'
asbag57
(g78
g59
NtRp580
(dp581
g62
(dp582
sg71
g568
sg64
(lp583
g57
(g58
g59
NtRp584
(dp585
g62
(dp586
g70
I3
ssg71
g580
sg64
(lp587
S''
asbasbasbag57
(g73
g59
NtRp588
(dp589
g62
(dp590
sg71
g464
sg64
(lp591
g57
(g78
g59
NtRp592
(dp593
g62
(dp594
g82
g83
ssg71
g588
sg64
(lp595
g409
asbag57
(g78
g59
NtRp596
(dp597
g62
(dp598
g89
g90
ssg71
g588
sg64
(lp599
S':'
asbag57
(g78
g59
NtRp600
(dp601
g62
(dp602
sg71
g588
sg64
(lp603
g57
(g58
g59
NtRp604
(dp605
g62
(dp606
g70
I3
ssg71
g600
sg64
(lp607
S''
asbasbasbag57
(g73
g59
NtRp608
(dp609
g62
(dp610
sg71
g464
sg64
(lp611
g57
(g78
g59
NtRp612
(dp613
g62
(dp614
g82
g83
ssg71
g608
sg64
(lp615
g430
asbag57
(g78
g59
NtRp616
(dp617
g62
(dp618
g89
g90
ssg71
g608
sg64
(lp619
S':'
asbag57
(g78
g59
NtRp620
(dp621
g62
(dp622
sg71
g608
sg64
(lp623
g57
(g58
g59
NtRp624
(dp625
g62
(dp626
g70
I3
ssg71
g620
sg64
(lp627
S''
asbasbasbasbasbasbasbag57
(g73
g59
NtRp628
(dp629
g62
(dp630
sg71
g246
sg64
(lp631
g57
(g78
g59
NtRp632
(dp633
g62
(dp634
g82
g83
ssg71
g628
sg64
(lp635
S'session_id_welcome'
p636
asbag57
(g78
g59
NtRp637
(dp638
g62
(dp639
g89
g90
ssg71
g628
sg64
(lp640
S':'
asbag57
(g78
g59
NtRp641
(dp642
g62
(dp643
sg71
g628
sg64
(lp644
g57
(g58
g59
NtRp645
(dp646
g62
(dp647
g70
I4
ssg71
g641
sg64
(lp648
g57
(g66
g59
NtRp649
(dp650
g62
(dp651
g70
I3
ssg71
Nsg64
(lp652
g57
(g73
g59
NtRp653
(dp654
g62
(dp655
sg71
g649
sg64
(lp656
g57
(g78
g59
NtRp657
(dp658
g62
(dp659
g82
g83
ssg71
g653
sg64
(lp660
g283
asbag57
(g78
g59
NtRp661
(dp662
g62
(dp663
g89
g90
ssg71
g653
sg64
(lp664
S':'
asbag57
(g78
g59
NtRp665
(dp666
g62
(dp667
sg71
g653
sg64
(lp668
g57
(g58
g59
NtRp669
(dp670
g62
(dp671
g70
I3
ssg71
g665
sg64
(lp672
S''
asbasbasbag57
(g73
g59
NtRp673
(dp674
g62
(dp675
sg71
g649
sg64
(lp676
g57
(g78
g59
NtRp677
(dp678
g62
(dp679
g82
g83
ssg71
g673
sg64
(lp680
g304
asbag57
(g78
g59
NtRp681
(dp682
g62
(dp683
g89
g90
ssg71
g673
sg64
(lp684
S':'
asbag57
(g78
g59
NtRp685
(dp686
g62
(dp687
sg71
g673
sg64
(lp688
g57
(g58
g59
NtRp689
(dp690
g62
(dp691
g70
I3
ssg71
g685
sg64
(lp692
S''
asbasbasbag57
(g73
g59
NtRp693
(dp694
g62
(dp695
sg71
g649
sg64
(lp696
g57
(g78
g59
NtRp697
(dp698
g62
(dp699
g82
g83
ssg71
g693
sg64
(lp700
g325
asbag57
(g78
g59
NtRp701
(dp702
g62
(dp703
g89
g90
ssg71
g693
sg64
(lp704
S':'
asbag57
(g78
g59
NtRp705
(dp706
g62
(dp707
sg71
g693
sg64
(lp708
g57
(g58
g59
NtRp709
(dp710
g62
(dp711
g70
I3
ssg71
g705
sg64
(lp712
S''
asbasbasbag57
(g73
g59
NtRp713
(dp714
g62
(dp715
sg71
g649
sg64
(lp716
g57
(g78
g59
NtRp717
(dp718
g62
(dp719
g82
g83
ssg71
g713
sg64
(lp720
g346
asbag57
(g78
g59
NtRp721
(dp722
g62
(dp723
g89
g90
ssg71
g713
sg64
(lp724
S':'
asbag57
(g78
g59
NtRp725
(dp726
g62
(dp727
sg71
g713
sg64
(lp728
g57
(g58
g59
NtRp729
(dp730
g62
(dp731
g70
I3
ssg71
g725
sg64
(lp732
S''
asbasbasbag57
(g73
g59
NtRp733
(dp734
g62
(dp735
sg71
g649
sg64
(lp736
g57
(g78
g59
NtRp737
(dp738
g62
(dp739
g82
g83
ssg71
g733
sg64
(lp740
g367
asbag57
(g78
g59
NtRp741
(dp742
g62
(dp743
g89
g90
ssg71
g733
sg64
(lp744
S':'
asbag57
(g78
g59
NtRp745
(dp746
g62
(dp747
sg71
g733
sg64
(lp748
g57
(g58
g59
NtRp749
(dp750
g62
(dp751
g70
I3
ssg71
g745
sg64
(lp752
S''
asbasbasbag57
(g73
g59
NtRp753
(dp754
g62
(dp755
sg71
g649
sg64
(lp756
g57
(g78
g59
NtRp757
(dp758
g62
(dp759
g82
g83
ssg71
g753
sg64
(lp760
g388
asbag57
(g78
g59
NtRp761
(dp762
g62
(dp763
g89
g90
ssg71
g753
sg64
(lp764
S':'
asbag57
(g78
g59
NtRp765
(dp766
g62
(dp767
sg71
g753
sg64
(lp768
g57
(g58
g59
NtRp769
(dp770
g62
(dp771
g70
I3
ssg71
g765
sg64
(lp772
S''
asbasbasbag57
(g73
g59
NtRp773
(dp774
g62
(dp775
sg71
g649
sg64
(lp776
g57
(g78
g59
NtRp777
(dp778
g62
(dp779
g82
g83
ssg71
g773
sg64
(lp780
g409
asbag57
(g78
g59
NtRp781
(dp782
g62
(dp783
g89
g90
ssg71
g773
sg64
(lp784
S':'
asbag57
(g78
g59
NtRp785
(dp786
g62
(dp787
sg71
g773
sg64
(lp788
g57
(g58
g59
NtRp789
(dp790
g62
(dp791
g70
I3
ssg71
g785
sg64
(lp792
S''
asbasbasbag57
(g73
g59
NtRp793
(dp794
g62
(dp795
sg71
g649
sg64
(lp796
g57
(g78
g59
NtRp797
(dp798
g62
(dp799
g82
g83
ssg71
g793
sg64
(lp800
g430
asbag57
(g78
g59
NtRp801
(dp802
g62
(dp803
g89
g90
ssg71
g793
sg64
(lp804
S':'
asbag57
(g78
g59
NtRp805
(dp806
g62
(dp807
sg71
g793
sg64
(lp808
g57
(g58
g59
NtRp809
(dp810
g62
(dp811
g70
I3
ssg71
g805
sg64
(lp812
S''
asbasbasbasbasbasbasbasbasbasbasbag57
(g73
g59
NtRp813
(dp814
g62
(dp815
sg71
g67
sg64
(lp816
g57
(g78
g59
NtRp817
(dp818
g62
(dp819
g82
g83
ssg71
g813
sg64
(lp820
S'env'
p821
asbag57
(g78
g59
NtRp822
(dp823
g62
(dp824
g89
g90
ssg71
g813
sg64
(lp825
S':'
asbag57
(g78
g59
NtRp826
(dp827
g62
(dp828
sg71
g813
sg64
(lp829
g57
(g58
g59
NtRp830
(dp831
g62
(dp832
g70
I5
ssg71
g826
sg64
(lp833
g57
(g66
g59
NtRp834
(dp835
g62
(dp836
g70
I4
ssg71
Nsg64
(lp837
g57
(g73
g59
NtRp838
(dp839
g62
(dp840
sg71
g834
sg64
(lp841
g57
(g78
g59
NtRp842
(dp843
g62
(dp844
g82
g83
ssg71
g838
sg64
(lp845
S'app_folders'
p846
asbag57
(g78
g59
NtRp847
(dp848
g62
(dp849
g89
g90
ssg71
g838
sg64
(lp850
S':'
asbag57
(g78
g59
NtRp851
(dp852
g62
(dp853
sg71
g838
sg64
(lp854
g57
(g58
g59
NtRp855
(dp856
g62
(dp857
g70
I4
ssg71
g851
sg64
(lp858
S"set(['/home/ds-iiit/web2py/applications/Gordian_Knot/', '/home/ds-iiit/web2py/applications/welcome/', '/home/ds-iiit/web2py/applications/admin/'])"
p859
asbasbasbag57
(g73
g59
NtRp860
(dp861
g62
(dp862
sg71
g834
sg64
(lp863
g57
(g78
g59
NtRp864
(dp865
g62
(dp866
g82
g83
ssg71
g860
sg64
(lp867
S'applications_parent'
p868
asbag57
(g78
g59
NtRp869
(dp870
g62
(dp871
g89
g90
ssg71
g860
sg64
(lp872
S':'
asbag57
(g78
g59
NtRp873
(dp874
g62
(dp875
sg71
g860
sg64
(lp876
g57
(g58
g59
NtRp877
(dp878
g62
(dp879
g70
I4
ssg71
g873
sg64
(lp880
S'/home/ds-iiit/web2py'
p881
asbasbasbag57
(g73
g59
NtRp882
(dp883
g62
(dp884
sg71
g834
sg64
(lp885
g57
(g78
g59
NtRp886
(dp887
g62
(dp888
g82
g83
ssg71
g882
sg64
(lp889
S'cmd_args'
p890
asbag57
(g78
g59
NtRp891
(dp892
g62
(dp893
g89
g90
ssg71
g882
sg64
(lp894
S':'
asbag57
(g78
g59
NtRp895
(dp896
g62
(dp897
sg71
g882
sg64
(lp898
g57
(g58
g59
NtRp899
(dp900
g62
(dp901
g70
I4
ssg71
g895
sg64
(lp902
g57
(g66
g59
NtRp903
(dp904
g62
(dp905
g70
I3
ssg71
Nsg64
(lp906
sbasbasbasbag57
(g73
g59
NtRp907
(dp908
g62
(dp909
sg71
g834
sg64
(lp910
g57
(g78
g59
NtRp911
(dp912
g62
(dp913
g82
g83
ssg71
g907
sg64
(lp914
S'cmd_options'
p915
asbag57
(g78
g59
NtRp916
(dp917
g62
(dp918
g89
g90
ssg71
g907
sg64
(lp919
S':'
asbag57
(g78
g59
NtRp920
(dp921
g62
(dp922
sg71
g907
sg64
(lp923
g57
(g58
g59
NtRp924
(dp925
g62
(dp926
g70
I4
ssg71
g920
sg64
(lp927
S"<Values at 0x29bbdd0: {'verbose': False, 'ip': '127.0.0.1', 'shutdown_timeout': 5, 'taskbar': False, 'port': 8000, 'maxthreads': None, 'softcron': False, 'server_name': 'DS-IIIT', 'bpython': False, 'nogui': False, 'nocron': False, 'extcron': False, 'debuglevel': 30, 'test': None, 'folder': '/home/ds-iiit/web2py', 'config': '', 'import_models': False, 'winservice': '', 'shell': None, 'run': '', 'log_filename': 'httpserver.log', 'args': [''], 'socket_timeout': 1, 'profiler_filename': None, 'ssl_private_key': '', 'password': '<ask>', 'request_queue_size': 5, 'ssl_certificate': '', 'cronjob': False, 'plain': False, 'quiet': False, 'interfaces': None, 'minthreads': None, 'timeout': 10, 'numthreads': None, 'nobanner': False, 'pid_filename': 'httpserver.pid'}>"
p928
asbasbasbag57
(g73
g59
NtRp929
(dp930
g62
(dp931
sg71
g834
sg64
(lp932
g57
(g78
g59
NtRp933
(dp934
g62
(dp935
g82
g83
ssg71
g929
sg64
(lp936
S'db_sessions'
p937
asbag57
(g78
g59
NtRp938
(dp939
g62
(dp940
g89
g90
ssg71
g929
sg64
(lp941
S':'
asbag57
(g78
g59
NtRp942
(dp943
g62
(dp944
sg71
g929
sg64
(lp945
g57
(g58
g59
NtRp946
(dp947
g62
(dp948
g70
I4
ssg71
g942
sg64
(lp949
S'set([])'
p950
asbasbasbag57
(g73
g59
NtRp951
(dp952
g62
(dp953
sg71
g834
sg64
(lp954
g57
(g78
g59
NtRp955
(dp956
g62
(dp957
g82
g83
ssg71
g951
sg64
(lp958
S'debugging'
p959
asbag57
(g78
g59
NtRp960
(dp961
g62
(dp962
g89
g90
ssg71
g951
sg64
(lp963
S':'
asbag57
(g78
g59
NtRp964
(dp965
g62
(dp966
sg71
g951
sg64
(lp967
g57
(g58
g59
NtRp968
(dp969
g62
(dp970
g70
I4
ssg71
g964
sg64
(lp971
g100
asbasbasbag57
(g73
g59
NtRp972
(dp973
g62
(dp974
sg71
g834
sg64
(lp975
g57
(g78
g59
NtRp976
(dp977
g62
(dp978
g82
g83
ssg71
g972
sg64
(lp979
S'gluon_parent'
p980
asbag57
(g78
g59
NtRp981
(dp982
g62
(dp983
g89
g90
ssg71
g972
sg64
(lp984
S':'
asbag57
(g78
g59
NtRp985
(dp986
g62
(dp987
sg71
g972
sg64
(lp988
g57
(g58
g59
NtRp989
(dp990
g62
(dp991
g70
I4
ssg71
g985
sg64
(lp992
S'/usr/share/web2py'
p993
asbasbasbag57
(g73
g59
NtRp994
(dp995
g62
(dp996
sg71
g834
sg64
(lp997
g57
(g78
g59
NtRp998
(dp999
g62
(dp1000
g82
g83
ssg71
g994
sg64
(lp1001
S'http_accept'
p1002
asbag57
(g78
g59
NtRp1003
(dp1004
g62
(dp1005
g89
g90
ssg71
g994
sg64
(lp1006
S':'
asbag57
(g78
g59
NtRp1007
(dp1008
g62
(dp1009
sg71
g994
sg64
(lp1010
g57
(g58
g59
NtRp1011
(dp1012
g62
(dp1013
g70
I4
ssg71
g1007
sg64
(lp1014
S'text/html,application/xhtml+xml,application/xml;q=0.9,*/*;q=0.8'
p1015
asbasbasbag57
(g73
g59
NtRp1016
(dp1017
g62
(dp1018
sg71
g834
sg64
(lp1019
g57
(g78
g59
NtRp1020
(dp1021
g62
(dp1022
g82
g83
ssg71
g1016
sg64
(lp1023
S'http_accept_encoding'
p1024
asbag57
(g78
g59
NtRp1025
(dp1026
g62
(dp1027
g89
g90
ssg71
g1016
sg64
(lp1028
S':'
asbag57
(g78
g59
NtRp1029
(dp1030
g62
(dp1031
sg71
g1016
sg64
(lp1032
g57
(g58
g59
NtRp1033
(dp1034
g62
(dp1035
g70
I4
ssg71
g1029
sg64
(lp1036
S'gzip,deflate,sdch'
p1037
asbasbasbag57
(g73
g59
NtRp1038
(dp1039
g62
(dp1040
sg71
g834
sg64
(lp1041
g57
(g78
g59
NtRp1042
(dp1043
g62
(dp1044
g82
g83
ssg71
g1038
sg64
(lp1045
S'http_accept_language'
p1046
asbag57
(g78
g59
NtRp1047
(dp1048
g62
(dp1049
g89
g90
ssg71
g1038
sg64
(lp1050
S':'
asbag57
(g78
g59
NtRp1051
(dp1052
g62
(dp1053
sg71
g1038
sg64
(lp1054
g57
(g58
g59
NtRp1055
(dp1056
g62
(dp1057
g70
I4
ssg71
g1051
sg64
(lp1058
S'en-US,en;q=0.8'
p1059
asbasbasbag57
(g73
g59
NtRp1060
(dp1061
g62
(dp1062
sg71
g834
sg64
(lp1063
g57
(g78
g59
NtRp1064
(dp1065
g62
(dp1066
g82
g83
ssg71
g1060
sg64
(lp1067
S'http_cache_control'
p1068
asbag57
(g78
g59
NtRp1069
(dp1070
g62
(dp1071
g89
g90
ssg71
g1060
sg64
(lp1072
S':'
asbag57
(g78
g59
NtRp1073
(dp1074
g62
(dp1075
sg71
g1060
sg64
(lp1076
g57
(g58
g59
NtRp1077
(dp1078
g62
(dp1079
g70
I4
ssg71
g1073
sg64
(lp1080
S'max-age=0'
p1081
asbasbasbag57
(g73
g59
NtRp1082
(dp1083
g62
(dp1084
sg71
g834
sg64
(lp1085
g57
(g78
g59
NtRp1086
(dp1087
g62
(dp1088
g82
g83
ssg71
g1082
sg64
(lp1089
S'http_connection'
p1090
asbag57
(g78
g59
NtRp1091
(dp1092
g62
(dp1093
g89
g90
ssg71
g1082
sg64
(lp1094
S':'
asbag57
(g78
g59
NtRp1095
(dp1096
g62
(dp1097
sg71
g1082
sg64
(lp1098
g57
(g58
g59
NtRp1099
(dp1100
g62
(dp1101
g70
I4
ssg71
g1095
sg64
(lp1102
S'keep-alive'
p1103
asbasbasbag57
(g73
g59
NtRp1104
(dp1105
g62
(dp1106
sg71
g834
sg64
(lp1107
g57
(g78
g59
NtRp1108
(dp1109
g62
(dp1110
g82
g83
ssg71
g1104
sg64
(lp1111
S'http_cookie'
p1112
asbag57
(g78
g59
NtRp1113
(dp1114
g62
(dp1115
g89
g90
ssg71
g1104
sg64
(lp1116
S':'
asbag57
(g78
g59
NtRp1117
(dp1118
g62
(dp1119
sg71
g1104
sg64
(lp1120
g57
(g58
g59
NtRp1121
(dp1122
g62
(dp1123
g70
I4
ssg71
g1117
sg64
(lp1124
S'session_id_welcome=127.0.0.1-4e28eb00-9390-42b6-b28b-84e33f3f3dc5; session_id_gordian_knot=127.0.0.1-7cbbc713-1cb8-4d74-8c67-ceeed6d4fabf; session_id_admin=127.0.0.1-99be9dae-8f31-4d84-8ac1-dd5f88d7bf21'
p1125
asbasbasbag57
(g73
g59
NtRp1126
(dp1127
g62
(dp1128
sg71
g834
sg64
(lp1129
g57
(g78
g59
NtRp1130
(dp1131
g62
(dp1132
g82
g83
ssg71
g1126
sg64
(lp1133
S'http_host'
p1134
asbag57
(g78
g59
NtRp1135
(dp1136
g62
(dp1137
g89
g90
ssg71
g1126
sg64
(lp1138
S':'
asbag57
(g78
g59
NtRp1139
(dp1140
g62
(dp1141
sg71
g1126
sg64
(lp1142
g57
(g58
g59
NtRp1143
(dp1144
g62
(dp1145
g70
I4
ssg71
g1139
sg64
(lp1146
S'127.0.0.1:8001'
p1147
asbasbasbag57
(g73
g59
NtRp1148
(dp1149
g62
(dp1150
sg71
g834
sg64
(lp1151
g57
(g78
g59
NtRp1152
(dp1153
g62
(dp1154
g82
g83
ssg71
g1148
sg64
(lp1155
S'http_user_agent'
p1156
asbag57
(g78
g59
NtRp1157
(dp1158
g62
(dp1159
g89
g90
ssg71
g1148
sg64
(lp1160
S':'
asbag57
(g78
g59
NtRp1161
(dp1162
g62
(dp1163
sg71
g1148
sg64
(lp1164
g57
(g58
g59
NtRp1165
(dp1166
g62
(dp1167
g70
I4
ssg71
g1161
sg64
(lp1168
S'Mozilla/5.0 (X11; Linux x86_64) AppleWebKit/537.36 (KHTML, like Gecko) Chrome/29.0.1547.57 Safari/537.36'
p1169
asbasbasbag57
(g73
g59
NtRp1170
(dp1171
g62
(dp1172
sg71
g834
sg64
(lp1173
g57
(g78
g59
NtRp1174
(dp1175
g62
(dp1176
g82
g83
ssg71
g1170
sg64
(lp1177
S'is_jython'
p1178
asbag57
(g78
g59
NtRp1179
(dp1180
g62
(dp1181
g89
g90
ssg71
g1170
sg64
(lp1182
S':'
asbag57
(g78
g59
NtRp1183
(dp1184
g62
(dp1185
sg71
g1170
sg64
(lp1186
g57
(g58
g59
NtRp1187
(dp1188
g62
(dp1189
g70
I4
ssg71
g1183
sg64
(lp1190
g100
asbasbasbag57
(g73
g59
NtRp1191
(dp1192
g62
(dp1193
sg71
g834
sg64
(lp1194
g57
(g78
g59
NtRp1195
(dp1196
g62
(dp1197
g82
g83
ssg71
g1191
sg64
(lp1198
S'is_pypy'
p1199
asbag57
(g78
g59
NtRp1200
(dp1201
g62
(dp1202
g89
g90
ssg71
g1191
sg64
(lp1203
S':'
asbag57
(g78
g59
NtRp1204
(dp1205
g62
(dp1206
sg71
g1191
sg64
(lp1207
g57
(g58
g59
NtRp1208
(dp1209
g62
(dp1210
g70
I4
ssg71
g1204
sg64
(lp1211
g100
asbasbasbag57
(g73
g59
NtRp1212
(dp1213
g62
(dp1214
sg71
g834
sg64
(lp1215
g57
(g78
g59
NtRp1216
(dp1217
g62
(dp1218
g82
g83
ssg71
g1212
sg64
(lp1219
S'path_info'
p1220
asbag57
(g78
g59
NtRp1221
(dp1222
g62
(dp1223
g89
g90
ssg71
g1212
sg64
(lp1224
S':'
asbag57
(g78
g59
NtRp1225
(dp1226
g62
(dp1227
sg71
g1212
sg64
(lp1228
g57
(g58
g59
NtRp1229
(dp1230
g62
(dp1231
g70
I4
ssg71
g1225
sg64
(lp1232
S'/Gordian_Knot/default/question/1'
p1233
asbasbasbag57
(g73
g59
NtRp1234
(dp1235
g62
(dp1236
sg71
g834
sg64
(lp1237
g57
(g78
g59
NtRp1238
(dp1239
g62
(dp1240
g82
g83
ssg71
g1234
sg64
(lp1241
S'query_string'
p1242
asbag57
(g78
g59
NtRp1243
(dp1244
g62
(dp1245
g89
g90
ssg71
g1234
sg64
(lp1246
S':'
asbag57
(g78
g59
NtRp1247
(dp1248
g62
(dp1249
sg71
g1234
sg64
(lp1250
g57
(g58
g59
NtRp1251
(dp1252
g62
(dp1253
g70
I4
ssg71
g1247
sg64
(lp1254
S''
asbasbasbag57
(g73
g59
NtRp1255
(dp1256
g62
(dp1257
sg71
g834
sg64
(lp1258
g57
(g78
g59
NtRp1259
(dp1260
g62
(dp1261
g82
g83
ssg71
g1255
sg64
(lp1262
S'remote_addr'
p1263
asbag57
(g78
g59
NtRp1264
(dp1265
g62
(dp1266
g89
g90
ssg71
g1255
sg64
(lp1267
S':'
asbag57
(g78
g59
NtRp1268
(dp1269
g62
(dp1270
sg71
g1255
sg64
(lp1271
g57
(g58
g59
NtRp1272
(dp1273
g62
(dp1274
g70
I4
ssg71
g1268
sg64
(lp1275
g202
asbasbasbag57
(g73
g59
NtRp1276
(dp1277
g62
(dp1278
sg71
g834
sg64
(lp1279
g57
(g78
g59
NtRp1280
(dp1281
g62
(dp1282
g82
g83
ssg71
g1276
sg64
(lp1283
S'remote_port'
p1284
asbag57
(g78
g59
NtRp1285
(dp1286
g62
(dp1287
g89
g90
ssg71
g1276
sg64
(lp1288
S':'
asbag57
(g78
g59
NtRp1289
(dp1290
g62
(dp1291
sg71
g1276
sg64
(lp1292
g57
(g58
g59
NtRp1293
(dp1294
g62
(dp1295
g70
I4
ssg71
g1289
sg64
(lp1296
S'40039'
p1297
asbasbasbag57
(g73
g59
NtRp1298
(dp1299
g62
(dp1300
sg71
g834
sg64
(lp1301
g57
(g78
g59
NtRp1302
(dp1303
g62
(dp1304
g82
g83
ssg71
g1298
sg64
(lp1305
S'request_method'
p1306
asbag57
(g78
g59
NtRp1307
(dp1308
g62
(dp1309
g89
g90
ssg71
g1298
sg64
(lp1310
S':'
asbag57
(g78
g59
NtRp1311
(dp1312
g62
(dp1313
sg71
g1298
sg64
(lp1314
g57
(g58
g59
NtRp1315
(dp1316
g62
(dp1317
g70
I4
ssg71
g1311
sg64
(lp1318
S'GET'
p1319
asbasbasbag57
(g73
g59
NtRp1320
(dp1321
g62
(dp1322
sg71
g834
sg64
(lp1323
g57
(g78
g59
NtRp1324
(dp1325
g62
(dp1326
g82
g83
ssg71
g1320
sg64
(lp1327
S'script_name'
p1328
asbag57
(g78
g59
NtRp1329
(dp1330
g62
(dp1331
g89
g90
ssg71
g1320
sg64
(lp1332
S':'
asbag57
(g78
g59
NtRp1333
(dp1334
g62
(dp1335
sg71
g1320
sg64
(lp1336
g57
(g58
g59
NtRp1337
(dp1338
g62
(dp1339
g70
I4
ssg71
g1333
sg64
(lp1340
S''
asbasbasbag57
(g73
g59
NtRp1341
(dp1342
g62
(dp1343
sg71
g834
sg64
(lp1344
g57
(g78
g59
NtRp1345
(dp1346
g62
(dp1347
g82
g83
ssg71
g1341
sg64
(lp1348
S'server_name'
p1349
asbag57
(g78
g59
NtRp1350
(dp1351
g62
(dp1352
g89
g90
ssg71
g1341
sg64
(lp1353
S':'
asbag57
(g78
g59
NtRp1354
(dp1355
g62
(dp1356
sg71
g1341
sg64
(lp1357
g57
(g58
g59
NtRp1358
(dp1359
g62
(dp1360
g70
I4
ssg71
g1354
sg64
(lp1361
S'DS-IIIT'
p1362
asbasbasbag57
(g73
g59
NtRp1363
(dp1364
g62
(dp1365
sg71
g834
sg64
(lp1366
g57
(g78
g59
NtRp1367
(dp1368
g62
(dp1369
g82
g83
ssg71
g1363
sg64
(lp1370
S'server_port'
p1371
asbag57
(g78
g59
NtRp1372
(dp1373
g62
(dp1374
g89
g90
ssg71
g1363
sg64
(lp1375
S':'
asbag57
(g78
g59
NtRp1376
(dp1377
g62
(dp1378
sg71
g1363
sg64
(lp1379
g57
(g58
g59
NtRp1380
(dp1381
g62
(dp1382
g70
I4
ssg71
g1376
sg64
(lp1383
S'8001'
p1384
asbasbasbag57
(g73
g59
NtRp1385
(dp1386
g62
(dp1387
sg71
g834
sg64
(lp1388
g57
(g78
g59
NtRp1389
(dp1390
g62
(dp1391
g82
g83
ssg71
g1385
sg64
(lp1392
S'server_protocol'
p1393
asbag57
(g78
g59
NtRp1394
(dp1395
g62
(dp1396
g89
g90
ssg71
g1385
sg64
(lp1397
S':'
asbag57
(g78
g59
NtRp1398
(dp1399
g62
(dp1400
sg71
g1385
sg64
(lp1401
g57
(g58
g59
NtRp1402
(dp1403
g62
(dp1404
g70
I4
ssg71
g1398
sg64
(lp1405
S'HTTP/1.1'
p1406
asbasbasbag57
(g73
g59
NtRp1407
(dp1408
g62
(dp1409
sg71
g834
sg64
(lp1410
g57
(g78
g59
NtRp1411
(dp1412
g62
(dp1413
g82
g83
ssg71
g1407
sg64
(lp1414
S'server_software'
p1415
asbag57
(g78
g59
NtRp1416
(dp1417
g62
(dp1418
g89
g90
ssg71
g1407
sg64
(lp1419
S':'
asbag57
(g78
g59
NtRp1420
(dp1421
g62
(dp1422
sg71
g1407
sg64
(lp1423
g57
(g58
g59
NtRp1424
(dp1425
g62
(dp1426
g70
I4
ssg71
g1420
sg64
(lp1427
S'Rocket 1.2.4'
p1428
asbasbasbag57
(g73
g59
NtRp1429
(dp1430
g62
(dp1431
sg71
g834
sg64
(lp1432
g57
(g78
g59
NtRp1433
(dp1434
g62
(dp1435
g82
g83
ssg71
g1429
sg64
(lp1436
S'web2py_crontype'
p1437
asbag57
(g78
g59
NtRp1438
(dp1439
g62
(dp1440
g89
g90
ssg71
g1429
sg64
(lp1441
S':'
asbag57
(g78
g59
NtRp1442
(dp1443
g62
(dp1444
sg71
g1429
sg64
(lp1445
g57
(g58
g59
NtRp1446
(dp1447
g62
(dp1448
g70
I4
ssg71
g1442
sg64
(lp1449
S'hard'
p1450
asbasbasbag57
(g73
g59
NtRp1451
(dp1452
g62
(dp1453
sg71
g834
sg64
(lp1454
g57
(g78
g59
NtRp1455
(dp1456
g62
(dp1457
g82
g83
ssg71
g1451
sg64
(lp1458
S'web2py_path'
p1459
asbag57
(g78
g59
NtRp1460
(dp1461
g62
(dp1462
g89
g90
ssg71
g1451
sg64
(lp1463
S':'
asbag57
(g78
g59
NtRp1464
(dp1465
g62
(dp1466
sg71
g1451
sg64
(lp1467
g57
(g58
g59
NtRp1468
(dp1469
g62
(dp1470
g70
I4
ssg71
g1464
sg64
(lp1471
g881
asbasbasbag57
(g73
g59
NtRp1472
(dp1473
g62
(dp1474
sg71
g834
sg64
(lp1475
g57
(g78
g59
NtRp1476
(dp1477
g62
(dp1478
g82
g83
ssg71
g1472
sg64
(lp1479
S'web2py_version'
p1480
asbag57
(g78
g59
NtRp1481
(dp1482
g62
(dp1483
g89
g90
ssg71
g1472
sg64
(lp1484
S':'
asbag57
(g78
g59
NtRp1485
(dp1486
g62
(dp1487
sg71
g1472
sg64
(lp1488
g57
(g58
g59
NtRp1489
(dp1490
g62
(dp1491
g70
I4
ssg71
g1485
sg64
(lp1492
g57
(g66
g59
NtRp1493
(dp1494
g62
(dp1495
g70
I3
ssg71
Nsg64
(lp1496
g57
(g73
g59
NtRp1497
(dp1498
g62
(dp1499
sg71
g1493
sg64
(lp1500
g57
(g78
g59
NtRp1501
(dp1502
g62
(dp1503
sg71
g1497
sg64
(lp1504
g57
(g58
g59
NtRp1505
(dp1506
g62
(dp1507
g70
I3
ssg71
g1501
sg64
(lp1508
S'1'
asbasbasbag57
(g73
g59
NtRp1509
(dp1510
g62
(dp1511
sg71
g1493
sg64
(lp1512
g57
(g78
g59
NtRp1513
(dp1514
g62
(dp1515
sg71
g1509
sg64
(lp1516
g57
(g58
g59
NtRp1517
(dp1518
g62
(dp1519
g70
I3
ssg71
g1513
sg64
(lp1520
S'99'
p1521
asbasbasbag57
(g73
g59
NtRp1522
(dp1523
g62
(dp1524
sg71
g1493
sg64
(lp1525
g57
(g78
g59
NtRp1526
(dp1527
g62
(dp1528
sg71
g1522
sg64
(lp1529
g57
(g58
g59
NtRp1530
(dp1531
g62
(dp1532
g70
I3
ssg71
g1526
sg64
(lp1533
S'4'
asbasbasbag57
(g73
g59
NtRp1534
(dp1535
g62
(dp1536
sg71
g1493
sg64
(lp1537
g57
(g78
g59
NtRp1538
(dp1539
g62
(dp1540
sg71
g1534
sg64
(lp1541
g57
(g58
g59
NtRp1542
(dp1543
g62
(dp1544
g70
I3
ssg71
g1538
sg64
(lp1545
S'datetime.datetime(2011, 12, 14, 14, 46, 14)'
p1546
asbasbasbag57
(g73
g59
NtRp1547
(dp1548
g62
(dp1549
sg71
g1493
sg64
(lp1550
g57
(g78
g59
NtRp1551
(dp1552
g62
(dp1553
sg71
g1547
sg64
(lp1554
g57
(g58
g59
NtRp1555
(dp1556
g62
(dp1557
g70
I3
ssg71
g1551
sg64
(lp1558
S'stable'
p1559
asbasbasbasbasbasbasbag57
(g73
g59
NtRp1560
(dp1561
g62
(dp1562
sg71
g834
sg64
(lp1563
g57
(g78
g59
NtRp1564
(dp1565
g62
(dp1566
g82
g83
ssg71
g1560
sg64
(lp1567
S'wsgi_errors'
p1568
asbag57
(g78
g59
NtRp1569
(dp1570
g62
(dp1571
g89
g90
ssg71
g1560
sg64
(lp1572
S':'
asbag57
(g78
g59
NtRp1573
(dp1574
g62
(dp1575
sg71
g1560
sg64
(lp1576
g57
(g58
g59
NtRp1577
(dp1578
g62
(dp1579
g70
I4
ssg71
g1573
sg64
(lp1580
S"<open file '<stderr>', mode 'w' at 0x7f0ddee12270>"
p1581
asbasbasbag57
(g73
g59
NtRp1582
(dp1583
g62
(dp1584
sg71
g834
sg64
(lp1585
g57
(g78
g59
NtRp1586
(dp1587
g62
(dp1588
g82
g83
ssg71
g1582
sg64
(lp1589
S'wsgi_file_wrapper'
p1590
asbag57
(g78
g59
NtRp1591
(dp1592
g62
(dp1593
g89
g90
ssg71
g1582
sg64
(lp1594
S':'
asbag57
(g78
g59
NtRp1595
(dp1596
g62
(dp1597
sg71
g1582
sg64
(lp1598
g57
(g58
g59
NtRp1599
(dp1600
g62
(dp1601
g70
I4
ssg71
g1595
sg64
(lp1602
S'<class wsgiref.util.FileWrapper at 0x29e8390>'
p1603
asbasbasbag57
(g73
g59
NtRp1604
(dp1605
g62
(dp1606
sg71
g834
sg64
(lp1607
g57
(g78
g59
NtRp1608
(dp1609
g62
(dp1610
g82
g83
ssg71
g1604
sg64
(lp1611
S'wsgi_input'
p1612
asbag57
(g78
g59
NtRp1613
(dp1614
g62
(dp1615
g89
g90
ssg71
g1604
sg64
(lp1616
S':'
asbag57
(g78
g59
NtRp1617
(dp1618
g62
(dp1619
sg71
g1604
sg64
(lp1620
g57
(g58
g59
NtRp1621
(dp1622
g62
(dp1623
g70
I4
ssg71
g1617
sg64
(lp1624
S'<socket._fileobject object at 0x7f0d841798d0>'
p1625
asbasbasbag57
(g73
g59
NtRp1626
(dp1627
g62
(dp1628
sg71
g834
sg64
(lp1629
g57
(g78
g59
NtRp1630
(dp1631
g62
(dp1632
g82
g83
ssg71
g1626
sg64
(lp1633
S'wsgi_multiprocess'
p1634
asbag57
(g78
g59
NtRp1635
(dp1636
g62
(dp1637
g89
g90
ssg71
g1626
sg64
(lp1638
S':'
asbag57
(g78
g59
NtRp1639
(dp1640
g62
(dp1641
sg71
g1626
sg64
(lp1642
g57
(g58
g59
NtRp1643
(dp1644
g62
(dp1645
g70
I4
ssg71
g1639
sg64
(lp1646
g100
asbasbasbag57
(g73
g59
NtRp1647
(dp1648
g62
(dp1649
sg71
g834
sg64
(lp1650
g57
(g78
g59
NtRp1651
(dp1652
g62
(dp1653
g82
g83
ssg71
g1647
sg64
(lp1654
S'wsgi_multithread'
p1655
asbag57
(g78
g59
NtRp1656
(dp1657
g62
(dp1658
g89
g90
ssg71
g1647
sg64
(lp1659
S':'
asbag57
(g78
g59
NtRp1660
(dp1661
g62
(dp1662
sg71
g1647
sg64
(lp1663
g57
(g58
g59
NtRp1664
(dp1665
g62
(dp1666
g70
I4
ssg71
g1660
sg64
(lp1667
S'True'
p1668
asbasbasbag57
(g73
g59
NtRp1669
(dp1670
g62
(dp1671
sg71
g834
sg64
(lp1672
g57
(g78
g59
NtRp1673
(dp1674
g62
(dp1675
g82
g83
ssg71
g1669
sg64
(lp1676
S'wsgi_run_once'
p1677
asbag57
(g78
g59
NtRp1678
(dp1679
g62
(dp1680
g89
g90
ssg71
g1669
sg64
(lp1681
S':'
asbag57
(g78
g59
NtRp1682
(dp1683
g62
(dp1684
sg71
g1669
sg64
(lp1685
g57
(g58
g59
NtRp1686
(dp1687
g62
(dp1688
g70
I4
ssg71
g1682
sg64
(lp1689
g100
asbasbasbag57
(g73
g59
NtRp1690
(dp1691
g62
(dp1692
sg71
g834
sg64
(lp1693
g57
(g78
g59
NtRp1694
(dp1695
g62
(dp1696
g82
g83
ssg71
g1690
sg64
(lp1697
S'wsgi_url_scheme'
p1698
asbag57
(g78
g59
NtRp1699
(dp1700
g62
(dp1701
g89
g90
ssg71
g1690
sg64
(lp1702
S':'
asbag57
(g78
g59
NtRp1703
(dp1704
g62
(dp1705
sg71
g1690
sg64
(lp1706
g57
(g58
g59
NtRp1707
(dp1708
g62
(dp1709
g70
I4
ssg71
g1703
sg64
(lp1710
S'http'
p1711
asbasbasbag57
(g73
g59
NtRp1712
(dp1713
g62
(dp1714
sg71
g834
sg64
(lp1715
g57
(g78
g59
NtRp1716
(dp1717
g62
(dp1718
g82
g83
ssg71
g1712
sg64
(lp1719
S'wsgi_version'
p1720
asbag57
(g78
g59
NtRp1721
(dp1722
g62
(dp1723
g89
g90
ssg71
g1712
sg64
(lp1724
S':'
asbag57
(g78
g59
NtRp1725
(dp1726
g62
(dp1727
sg71
g1712
sg64
(lp1728
g57
(g58
g59
NtRp1729
(dp1730
g62
(dp1731
g70
I4
ssg71
g1725
sg64
(lp1732
g57
(g66
g59
NtRp1733
(dp1734
g62
(dp1735
g70
I3
ssg71
Nsg64
(lp1736
g57
(g73
g59
NtRp1737
(dp1738
g62
(dp1739
sg71
g1733
sg64
(lp1740
g57
(g78
g59
NtRp1741
(dp1742
g62
(dp1743
sg71
g1737
sg64
(lp1744
g57
(g58
g59
NtRp1745
(dp1746
g62
(dp1747
g70
I3
ssg71
g1741
sg64
(lp1748
S'1'
asbasbasbag57
(g73
g59
NtRp1749
(dp1750
g62
(dp1751
sg71
g1733
sg64
(lp1752
g57
(g78
g59
NtRp1753
(dp1754
g62
(dp1755
sg71
g1749
sg64
(lp1756
g57
(g58
g59
NtRp1757
(dp1758
g62
(dp1759
g70
I3
ssg71
g1753
sg64
(lp1760
S'0'
asbasbasbasbasbasbasbasbasbasbasbag57
(g73
g59
NtRp1761
(dp1762
g62
(dp1763
sg71
g67
sg64
(lp1764
g57
(g78
g59
NtRp1765
(dp1766
g62
(dp1767
g82
g83
ssg71
g1761
sg64
(lp1768
S'extension'
p1769
asbag57
(g78
g59
NtRp1770
(dp1771
g62
(dp1772
g89
g90
ssg71
g1761
sg64
(lp1773
S':'
asbag57
(g78
g59
NtRp1774
(dp1775
g62
(dp1776
sg71
g1761
sg64
(lp1777
g57
(g58
g59
NtRp1778
(dp1779
g62
(dp1780
g70
I5
ssg71
g1774
sg64
(lp1781
S'html'
p1782
asbasbasbag57
(g73
g59
NtRp1783
(dp1784
g62
(dp1785
sg71
g67
sg64
(lp1786
g57
(g78
g59
NtRp1787
(dp1788
g62
(dp1789
g82
g83
ssg71
g1783
sg64
(lp1790
S'folder'
p1791
asbag57
(g78
g59
NtRp1792
(dp1793
g62
(dp1794
g89
g90
ssg71
g1783
sg64
(lp1795
S':'
asbag57
(g78
g59
NtRp1796
(dp1797
g62
(dp1798
sg71
g1783
sg64
(lp1799
g57
(g58
g59
NtRp1800
(dp1801
g62
(dp1802
g70
I5
ssg71
g1796
sg64
(lp1803
S'/home/ds-iiit/web2py/applications/Gordian_Knot/'
p1804
asbasbasbag57
(g73
g59
NtRp1805
(dp1806
g62
(dp1807
sg71
g67
sg64
(lp1808
g57
(g78
g59
NtRp1809
(dp1810
g62
(dp1811
g82
g83
ssg71
g1805
sg64
(lp1812
S'function'
p1813
asbag57
(g78
g59
NtRp1814
(dp1815
g62
(dp1816
g89
g90
ssg71
g1805
sg64
(lp1817
S':'
asbag57
(g78
g59
NtRp1818
(dp1819
g62
(dp1820
sg71
g1805
sg64
(lp1821
g57
(g58
g59
NtRp1822
(dp1823
g62
(dp1824
g70
I5
ssg71
g1818
sg64
(lp1825
S'question'
p1826
asbasbasbag57
(g73
g59
NtRp1827
(dp1828
g62
(dp1829
sg71
g67
sg64
(lp1830
g57
(g78
g59
NtRp1831
(dp1832
g62
(dp1833
g82
g83
ssg71
g1827
sg64
(lp1834
S'get_vars'
p1835
asbag57
(g78
g59
NtRp1836
(dp1837
g62
(dp1838
g89
g90
ssg71
g1827
sg64
(lp1839
S':'
asbag57
(g78
g59
NtRp1840
(dp1841
g62
(dp1842
sg71
g1827
sg64
(lp1843
g57
(g58
g59
NtRp1844
(dp1845
g62
(dp1846
g70
I5
ssg71
g1840
sg64
(lp1847
g57
(g66
g59
NtRp1848
(dp1849
g62
(dp1850
g70
I4
ssg71
Nsg64
(lp1851
sbasbasbasbag57
(g73
g59
NtRp1852
(dp1853
g62
(dp1854
sg71
g67
sg64
(lp1855
g57
(g78
g59
NtRp1856
(dp1857
g62
(dp1858
g82
g83
ssg71
g1852
sg64
(lp1859
S'global_settings'
p1860
asbag57
(g78
g59
NtRp1861
(dp1862
g62
(dp1863
g89
g90
ssg71
g1852
sg64
(lp1864
S':'
asbag57
(g78
g59
NtRp1865
(dp1866
g62
(dp1867
sg71
g1852
sg64
(lp1868
g57
(g58
g59
NtRp1869
(dp1870
g62
(dp1871
g70
I5
ssg71
g1865
sg64
(lp1872
g57
(g66
g59
NtRp1873
(dp1874
g62
(dp1875
g70
I4
ssg71
Nsg64
(lp1876
g57
(g73
g59
NtRp1877
(dp1878
g62
(dp1879
sg71
g1873
sg64
(lp1880
g57
(g78
g59
NtRp1881
(dp1882
g62
(dp1883
g82
g83
ssg71
g1877
sg64
(lp1884
g846
asbag57
(g78
g59
NtRp1885
(dp1886
g62
(dp1887
g89
g90
ssg71
g1877
sg64
(lp1888
S':'
asbag57
(g78
g59
NtRp1889
(dp1890
g62
(dp1891
sg71
g1877
sg64
(lp1892
g57
(g58
g59
NtRp1893
(dp1894
g62
(dp1895
g70
I4
ssg71
g1889
sg64
(lp1896
S"set(['/home/ds-iiit/web2py/applications/Gordian_Knot/', '/home/ds-iiit/web2py/applications/welcome/', '/home/ds-iiit/web2py/applications/admin/'])"
p1897
asbasbasbag57
(g73
g59
NtRp1898
(dp1899
g62
(dp1900
sg71
g1873
sg64
(lp1901
g57
(g78
g59
NtRp1902
(dp1903
g62
(dp1904
g82
g83
ssg71
g1898
sg64
(lp1905
g868
asbag57
(g78
g59
NtRp1906
(dp1907
g62
(dp1908
g89
g90
ssg71
g1898
sg64
(lp1909
S':'
asbag57
(g78
g59
NtRp1910
(dp1911
g62
(dp1912
sg71
g1898
sg64
(lp1913
g57
(g58
g59
NtRp1914
(dp1915
g62
(dp1916
g70
I4
ssg71
g1910
sg64
(lp1917
g881
asbasbasbag57
(g73
g59
NtRp1918
(dp1919
g62
(dp1920
sg71
g1873
sg64
(lp1921
g57
(g78
g59
NtRp1922
(dp1923
g62
(dp1924
g82
g83
ssg71
g1918
sg64
(lp1925
g890
asbag57
(g78
g59
NtRp1926
(dp1927
g62
(dp1928
g89
g90
ssg71
g1918
sg64
(lp1929
S':'
asbag57
(g78
g59
NtRp1930
(dp1931
g62
(dp1932
sg71
g1918
sg64
(lp1933
g57
(g58
g59
NtRp1934
(dp1935
g62
(dp1936
g70
I4
ssg71
g1930
sg64
(lp1937
g57
(g66
g59
NtRp1938
(dp1939
g62
(dp1940
g70
I3
ssg71
Nsg64
(lp1941
sbasbasbasbag57
(g73
g59
NtRp1942
(dp1943
g62
(dp1944
sg71
g1873
sg64
(lp1945
g57
(g78
g59
NtRp1946
(dp1947
g62
(dp1948
g82
g83
ssg71
g1942
sg64
(lp1949
g915
asbag57
(g78
g59
NtRp1950
(dp1951
g62
(dp1952
g89
g90
ssg71
g1942
sg64
(lp1953
S':'
asbag57
(g78
g59
NtRp1954
(dp1955
g62
(dp1956
sg71
g1942
sg64
(lp1957
g57
(g58
g59
NtRp1958
(dp1959
g62
(dp1960
g70
I4
ssg71
g1954
sg64
(lp1961
S"<Values at 0x29bbdd0: {'verbose': False, 'ip': '127.0.0.1', 'shutdown_timeout': 5, 'taskbar': False, 'port': 8000, 'maxthreads': None, 'softcron': False, 'server_name': 'DS-IIIT', 'bpython': False, 'nogui': False, 'nocron': False, 'extcron': False, 'debuglevel': 30, 'test': None, 'folder': '/home/ds-iiit/web2py', 'config': '', 'import_models': False, 'winservice': '', 'shell': None, 'run': '', 'log_filename': 'httpserver.log', 'args': [''], 'socket_timeout': 1, 'profiler_filename': None, 'ssl_private_key': '', 'password': '<ask>', 'request_queue_size': 5, 'ssl_certificate': '', 'cronjob': False, 'plain': False, 'quiet': False, 'interfaces': None, 'minthreads': None, 'timeout': 10, 'numthreads': None, 'nobanner': False, 'pid_filename': 'httpserver.pid'}>"
p1962
asbasbasbag57
(g73
g59
NtRp1963
(dp1964
g62
(dp1965
sg71
g1873
sg64
(lp1966
g57
(g78
g59
NtRp1967
(dp1968
g62
(dp1969
g82
g83
ssg71
g1963
sg64
(lp1970
g937
asbag57
(g78
g59
NtRp1971
(dp1972
g62
(dp1973
g89
g90
ssg71
g1963
sg64
(lp1974
S':'
asbag57
(g78
g59
NtRp1975
(dp1976
g62
(dp1977
sg71
g1963
sg64
(lp1978
g57
(g58
g59
NtRp1979
(dp1980
g62
(dp1981
g70
I4
ssg71
g1975
sg64
(lp1982
S'set([])'
p1983
asbasbasbag57
(g73
g59
NtRp1984
(dp1985
g62
(dp1986
sg71
g1873
sg64
(lp1987
g57
(g78
g59
NtRp1988
(dp1989
g62
(dp1990
g82
g83
ssg71
g1984
sg64
(lp1991
g959
asbag57
(g78
g59
NtRp1992
(dp1993
g62
(dp1994
g89
g90
ssg71
g1984
sg64
(lp1995
S':'
asbag57
(g78
g59
NtRp1996
(dp1997
g62
(dp1998
sg71
g1984
sg64
(lp1999
g57
(g58
g59
NtRp2000
(dp2001
g62
(dp2002
g70
I4
ssg71
g1996
sg64
(lp2003
g100
asbasbasbag57
(g73
g59
NtRp2004
(dp2005
g62
(dp2006
sg71
g1873
sg64
(lp2007
g57
(g78
g59
NtRp2008
(dp2009
g62
(dp2010
g82
g83
ssg71
g2004
sg64
(lp2011
g980
asbag57
(g78
g59
NtRp2012
(dp2013
g62
(dp2014
g89
g90
ssg71
g2004
sg64
(lp2015
S':'
asbag57
(g78
g59
NtRp2016
(dp2017
g62
(dp2018
sg71
g2004
sg64
(lp2019
g57
(g58
g59
NtRp2020
(dp2021
g62
(dp2022
g70
I4
ssg71
g2016
sg64
(lp2023
g993
asbasbasbag57
(g73
g59
NtRp2024
(dp2025
g62
(dp2026
sg71
g1873
sg64
(lp2027
g57
(g78
g59
NtRp2028
(dp2029
g62
(dp2030
g82
g83
ssg71
g2024
sg64
(lp2031
g1178
asbag57
(g78
g59
NtRp2032
(dp2033
g62
(dp2034
g89
g90
ssg71
g2024
sg64
(lp2035
S':'
asbag57
(g78
g59
NtRp2036
(dp2037
g62
(dp2038
sg71
g2024
sg64
(lp2039
g57
(g58
g59
NtRp2040
(dp2041
g62
(dp2042
g70
I4
ssg71
g2036
sg64
(lp2043
g100
asbasbasbag57
(g73
g59
NtRp2044
(dp2045
g62
(dp2046
sg71
g1873
sg64
(lp2047
g57
(g78
g59
NtRp2048
(dp2049
g62
(dp2050
g82
g83
ssg71
g2044
sg64
(lp2051
g1199
asbag57
(g78
g59
NtRp2052
(dp2053
g62
(dp2054
g89
g90
ssg71
g2044
sg64
(lp2055
S':'
asbag57
(g78
g59
NtRp2056
(dp2057
g62
(dp2058
sg71
g2044
sg64
(lp2059
g57
(g58
g59
NtRp2060
(dp2061
g62
(dp2062
g70
I4
ssg71
g2056
sg64
(lp2063
g100
asbasbasbag57
(g73
g59
NtRp2064
(dp2065
g62
(dp2066
sg71
g1873
sg64
(lp2067
g57
(g78
g59
NtRp2068
(dp2069
g62
(dp2070
g82
g83
ssg71
g2064
sg64
(lp2071
g1437
asbag57
(g78
g59
NtRp2072
(dp2073
g62
(dp2074
g89
g90
ssg71
g2064
sg64
(lp2075
S':'
asbag57
(g78
g59
NtRp2076
(dp2077
g62
(dp2078
sg71
g2064
sg64
(lp2079
g57
(g58
g59
NtRp2080
(dp2081
g62
(dp2082
g70
I4
ssg71
g2076
sg64
(lp2083
g1450
asbasbasbag57
(g73
g59
NtRp2084
(dp2085
g62
(dp2086
sg71
g1873
sg64
(lp2087
g57
(g78
g59
NtRp2088
(dp2089
g62
(dp2090
g82
g83
ssg71
g2084
sg64
(lp2091
g1480
asbag57
(g78
g59
NtRp2092
(dp2093
g62
(dp2094
g89
g90
ssg71
g2084
sg64
(lp2095
S':'
asbag57
(g78
g59
NtRp2096
(dp2097
g62
(dp2098
sg71
g2084
sg64
(lp2099
g57
(g58
g59
NtRp2100
(dp2101
g62
(dp2102
g70
I4
ssg71
g2096
sg64
(lp2103
g57
(g66
g59
NtRp2104
(dp2105
g62
(dp2106
g70
I3
ssg71
Nsg64
(lp2107
g57
(g73
g59
NtRp2108
(dp2109
g62
(dp2110
sg71
g2104
sg64
(lp2111
g57
(g78
g59
NtRp2112
(dp2113
g62
(dp2114
sg71
g2108
sg64
(lp2115
g57
(g58
g59
NtRp2116
(dp2117
g62
(dp2118
g70
I3
ssg71
g2112
sg64
(lp2119
S'1'
asbasbasbag57
(g73
g59
NtRp2120
(dp2121
g62
(dp2122
sg71
g2104
sg64
(lp2123
g57
(g78
g59
NtRp2124
(dp2125
g62
(dp2126
sg71
g2120
sg64
(lp2127
g57
(g58
g59
NtRp2128
(dp2129
g62
(dp2130
g70
I3
ssg71
g2124
sg64
(lp2131
S'99'
p2132
asbasbasbag57
(g73
g59
NtRp2133
(dp2134
g62
(dp2135
sg71
g2104
sg64
(lp2136
g57
(g78
g59
NtRp2137
(dp2138
g62
(dp2139
sg71
g2133
sg64
(lp2140
g57
(g58
g59
NtRp2141
(dp2142
g62
(dp2143
g70
I3
ssg71
g2137
sg64
(lp2144
S'4'
asbasbasbag57
(g73
g59
NtRp2145
(dp2146
g62
(dp2147
sg71
g2104
sg64
(lp2148
g57
(g78
g59
NtRp2149
(dp2150
g62
(dp2151
sg71
g2145
sg64
(lp2152
g57
(g58
g59
NtRp2153
(dp2154
g62
(dp2155
g70
I3
ssg71
g2149
sg64
(lp2156
S'datetime.datetime(2011, 12, 14, 14, 46, 14)'
p2157
asbasbasbag57
(g73
g59
NtRp2158
(dp2159
g62
(dp2160
sg71
g2104
sg64
(lp2161
g57
(g78
g59
NtRp2162
(dp2163
g62
(dp2164
sg71
g2158
sg64
(lp2165
g57
(g58
g59
NtRp2166
(dp2167
g62
(dp2168
g70
I3
ssg71
g2162
sg64
(lp2169
g1559
asbasbasbasbasbasbasbasbasbasbasbag57
(g73
g59
NtRp2170
(dp2171
g62
(dp2172
sg71
g67
sg64
(lp2173
g57
(g78
g59
NtRp2174
(dp2175
g62
(dp2176
g82
g83
ssg71
g2170
sg64
(lp2177
S'is_https'
p2178
asbag57
(g78
g59
NtRp2179
(dp2180
g62
(dp2181
g89
g90
ssg71
g2170
sg64
(lp2182
S':'
asbag57
(g78
g59
NtRp2183
(dp2184
g62
(dp2185
sg71
g2170
sg64
(lp2186
g57
(g58
g59
NtRp2187
(dp2188
g62
(dp2189
g70
I5
ssg71
g2183
sg64
(lp2190
g100
asbasbasbag57
(g73
g59
NtRp2191
(dp2192
g62
(dp2193
sg71
g67
sg64
(lp2194
g57
(g78
g59
NtRp2195
(dp2196
g62
(dp2197
g82
g83
ssg71
g2191
sg64
(lp2198
S'is_local'
p2199
asbag57
(g78
g59
NtRp2200
(dp2201
g62
(dp2202
g89
g90
ssg71
g2191
sg64
(lp2203
S':'
asbag57
(g78
g59
NtRp2204
(dp2205
g62
(dp2206
sg71
g2191
sg64
(lp2207
g57
(g58
g59
NtRp2208
(dp2209
g62
(dp2210
g70
I5
ssg71
g2204
sg64
(lp2211
g1668
asbasbasbag57
(g73
g59
NtRp2212
(dp2213
g62
(dp2214
sg71
g67
sg64
(lp2215
g57
(g78
g59
NtRp2216
(dp2217
g62
(dp2218
g82
g83
ssg71
g2212
sg64
(lp2219
S'is_restful'
p2220
asbag57
(g78
g59
NtRp2221
(dp2222
g62
(dp2223
g89
g90
ssg71
g2212
sg64
(lp2224
S':'
asbag57
(g78
g59
NtRp2225
(dp2226
g62
(dp2227
sg71
g2212
sg64
(lp2228
g57
(g58
g59
NtRp2229
(dp2230
g62
(dp2231
g70
I5
ssg71
g2225
sg64
(lp2232
g100
asbasbasbag57
(g73
g59
NtRp2233
(dp2234
g62
(dp2235
sg71
g67
sg64
(lp2236
g57
(g78
g59
NtRp2237
(dp2238
g62
(dp2239
g82
g83
ssg71
g2233
sg64
(lp2240
S'now'
p2241
asbag57
(g78
g59
NtRp2242
(dp2243
g62
(dp2244
g89
g90
ssg71
g2233
sg64
(lp2245
S':'
asbag57
(g78
g59
NtRp2246
(dp2247
g62
(dp2248
sg71
g2233
sg64
(lp2249
g57
(g58
g59
NtRp2250
(dp2251
g62
(dp2252
g70
I5
ssg71
g2246
sg64
(lp2253
S'datetime.datetime(2013, 9, 22, 3, 53, 35, 97933)'
p2254
asbasbasbag57
(g73
g59
NtRp2255
(dp2256
g62
(dp2257
sg71
g67
sg64
(lp2258
g57
(g78
g59
NtRp2259
(dp2260
g62
(dp2261
g82
g83
ssg71
g2255
sg64
(lp2262
S'post_vars'
p2263
asbag57
(g78
g59
NtRp2264
(dp2265
g62
(dp2266
g89
g90
ssg71
g2255
sg64
(lp2267
S':'
asbag57
(g78
g59
NtRp2268
(dp2269
g62
(dp2270
sg71
g2255
sg64
(lp2271
g57
(g58
g59
NtRp2272
(dp2273
g62
(dp2274
g70
I5
ssg71
g2268
sg64
(lp2275
g57
(g66
g59
NtRp2276
(dp2277
g62
(dp2278
g70
I4
ssg71
Nsg64
(lp2279
sbasbasbasbag57
(g73
g59
NtRp2280
(dp2281
g62
(dp2282
sg71
g67
sg64
(lp2283
g57
(g78
g59
NtRp2284
(dp2285
g62
(dp2286
g82
g83
ssg71
g2280
sg64
(lp2287
S'raw_args'
p2288
asbag57
(g78
g59
NtRp2289
(dp2290
g62
(dp2291
g89
g90
ssg71
g2280
sg64
(lp2292
S':'
asbag57
(g78
g59
NtRp2293
(dp2294
g62
(dp2295
sg71
g2280
sg64
(lp2296
g57
(g58
g59
NtRp2297
(dp2298
g62
(dp2299
g70
I5
ssg71
g2293
sg64
(lp2300
S'1'
asbasbasbag57
(g73
g59
NtRp2301
(dp2302
g62
(dp2303
sg71
g67
sg64
(lp2304
g57
(g78
g59
NtRp2305
(dp2306
g62
(dp2307
g82
g83
ssg71
g2301
sg64
(lp2308
S'url'
p2309
asbag57
(g78
g59
NtRp2310
(dp2311
g62
(dp2312
g89
g90
ssg71
g2301
sg64
(lp2313
S':'
asbag57
(g78
g59
NtRp2314
(dp2315
g62
(dp2316
sg71
g2301
sg64
(lp2317
g57
(g58
g59
NtRp2318
(dp2319
g62
(dp2320
g70
I5
ssg71
g2314
sg64
(lp2321
S'/Gordian_Knot/default/question/1'
p2322
asbasbasbag57
(g73
g59
NtRp2323
(dp2324
g62
(dp2325
sg71
g67
sg64
(lp2326
g57
(g78
g59
NtRp2327
(dp2328
g62
(dp2329
g82
g83
ssg71
g2323
sg64
(lp2330
S'utcnow'
p2331
asbag57
(g78
g59
NtRp2332
(dp2333
g62
(dp2334
g89
g90
ssg71
g2323
sg64
(lp2335
S':'
asbag57
(g78
g59
NtRp2336
(dp2337
g62
(dp2338
sg71
g2323
sg64
(lp2339
g57
(g58
g59
NtRp2340
(dp2341
g62
(dp2342
g70
I5
ssg71
g2336
sg64
(lp2343
S'datetime.datetime(2013, 9, 21, 22, 23, 35, 97950)'
p2344
asbasbasbag57
(g73
g59
NtRp2345
(dp2346
g62
(dp2347
sg71
g67
sg64
(lp2348
g57
(g78
g59
NtRp2349
(dp2350
g62
(dp2351
g82
g83
ssg71
g2345
sg64
(lp2352
S'uuid'
p2353
asbag57
(g78
g59
NtRp2354
(dp2355
g62
(dp2356
g89
g90
ssg71
g2345
sg64
(lp2357
S':'
asbag57
(g78
g59
NtRp2358
(dp2359
g62
(dp2360
sg71
g2345
sg64
(lp2361
g57
(g58
g59
NtRp2362
(dp2363
g62
(dp2364
g70
I5
ssg71
g2358
sg64
(lp2365
S'Gordian_Knot/127.0.0.1.2013-09-22.03-53-35.890a63c1-c9c1-4b24-b742-b2f80e22338b'
p2366
asbasbasbag57
(g73
g59
NtRp2367
(dp2368
g62
(dp2369
sg71
g67
sg64
(lp2370
g57
(g78
g59
NtRp2371
(dp2372
g62
(dp2373
g82
g83
ssg71
g2367
sg64
(lp2374
S'vars'
p2375
asbag57
(g78
g59
NtRp2376
(dp2377
g62
(dp2378
g89
g90
ssg71
g2367
sg64
(lp2379
S':'
asbag57
(g78
g59
NtRp2380
(dp2381
g62
(dp2382
sg71
g2367
sg64
(lp2383
g57
(g58
g59
NtRp2384
(dp2385
g62
(dp2386
g70
I5
ssg71
g2380
sg64
(lp2387
g57
(g66
g59
NtRp2388
(dp2389
g62
(dp2390
g70
I4
ssg71
Nsg64
(lp2391
sbasbasbasbag57
(g73
g59
NtRp2392
(dp2393
g62
(dp2394
sg71
g67
sg64
(lp2395
g57
(g78
g59
NtRp2396
(dp2397
g62
(dp2398
g82
g83
ssg71
g2392
sg64
(lp2399
S'wsgi'
p2400
asbag57
(g78
g59
NtRp2401
(dp2402
g62
(dp2403
g89
g90
ssg71
g2392
sg64
(lp2404
S':'
asbag57
(g78
g59
NtRp2405
(dp2406
g62
(dp2407
sg71
g2392
sg64
(lp2408
g57
(g58
g59
NtRp2409
(dp2410
g62
(dp2411
g70
I5
ssg71
g2405
sg64
(lp2412
g57
(g66
g59
NtRp2413
(dp2414
g62
(dp2415
g70
I4
ssg71
Nsg64
(lp2416
g57
(g73
g59
NtRp2417
(dp2418
g62
(dp2419
sg71
g2413
sg64
(lp2420
g57
(g78
g59
NtRp2421
(dp2422
g62
(dp2423
g82
g83
ssg71
g2417
sg64
(lp2424
S'environ'
p2425
asbag57
(g78
g59
NtRp2426
(dp2427
g62
(dp2428
g89
g90
ssg71
g2417
sg64
(lp2429
S':'
asbag57
(g78
g59
NtRp2430
(dp2431
g62
(dp2432
sg71
g2417
sg64
(lp2433
g57
(g58
g59
NtRp2434
(dp2435
g62
(dp2436
g70
I4
ssg71
g2430
sg64
(lp2437
g57
(g66
g59
NtRp2438
(dp2439
g62
(dp2440
g70
I3
ssg71
Nsg64
(lp2441
g57
(g73
g59
NtRp2442
(dp2443
g62
(dp2444
sg71
g2438
sg64
(lp2445
g57
(g78
g59
NtRp2446
(dp2447
g62
(dp2448
g82
g83
ssg71
g2442
sg64
(lp2449
S'HTTP_ACCEPT'
p2450
asbag57
(g78
g59
NtRp2451
(dp2452
g62
(dp2453
g89
g90
ssg71
g2442
sg64
(lp2454
S':'
asbag57
(g78
g59
NtRp2455
(dp2456
g62
(dp2457
sg71
g2442
sg64
(lp2458
g57
(g58
g59
NtRp2459
(dp2460
g62
(dp2461
g70
I3
ssg71
g2455
sg64
(lp2462
g1015
asbasbasbag57
(g73
g59
NtRp2463
(dp2464
g62
(dp2465
sg71
g2438
sg64
(lp2466
g57
(g78
g59
NtRp2467
(dp2468
g62
(dp2469
g82
g83
ssg71
g2463
sg64
(lp2470
S'HTTP_ACCEPT_ENCODING'
p2471
asbag57
(g78
g59
NtRp2472
(dp2473
g62
(dp2474
g89
g90
ssg71
g2463
sg64
(lp2475
S':'
asbag57
(g78
g59
NtRp2476
(dp2477
g62
(dp2478
sg71
g2463
sg64
(lp2479
g57
(g58
g59
NtRp2480
(dp2481
g62
(dp2482
g70
I3
ssg71
g2476
sg64
(lp2483
g1037
asbasbasbag57
(g73
g59
NtRp2484
(dp2485
g62
(dp2486
sg71
g2438
sg64
(lp2487
g57
(g78
g59
NtRp2488
(dp2489
g62
(dp2490
g82
g83
ssg71
g2484
sg64
(lp2491
S'HTTP_ACCEPT_LANGUAGE'
p2492
asbag57
(g78
g59
NtRp2493
(dp2494
g62
(dp2495
g89
g90
ssg71
g2484
sg64
(lp2496
S':'
asbag57
(g78
g59
NtRp2497
(dp2498
g62
(dp2499
sg71
g2484
sg64
(lp2500
g57
(g58
g59
NtRp2501
(dp2502
g62
(dp2503
g70
I3
ssg71
g2497
sg64
(lp2504
g1059
asbasbasbag57
(g73
g59
NtRp2505
(dp2506
g62
(dp2507
sg71
g2438
sg64
(lp2508
g57
(g78
g59
NtRp2509
(dp2510
g62
(dp2511
g82
g83
ssg71
g2505
sg64
(lp2512
S'HTTP_CACHE_CONTROL'
p2513
asbag57
(g78
g59
NtRp2514
(dp2515
g62
(dp2516
g89
g90
ssg71
g2505
sg64
(lp2517
S':'
asbag57
(g78
g59
NtRp2518
(dp2519
g62
(dp2520
sg71
g2505
sg64
(lp2521
g57
(g58
g59
NtRp2522
(dp2523
g62
(dp2524
g70
I3
ssg71
g2518
sg64
(lp2525
g1081
asbasbasbag57
(g73
g59
NtRp2526
(dp2527
g62
(dp2528
sg71
g2438
sg64
(lp2529
g57
(g78
g59
NtRp2530
(dp2531
g62
(dp2532
g82
g83
ssg71
g2526
sg64
(lp2533
S'HTTP_CONNECTION'
p2534
asbag57
(g78
g59
NtRp2535
(dp2536
g62
(dp2537
g89
g90
ssg71
g2526
sg64
(lp2538
S':'
asbag57
(g78
g59
NtRp2539
(dp2540
g62
(dp2541
sg71
g2526
sg64
(lp2542
g57
(g58
g59
NtRp2543
(dp2544
g62
(dp2545
g70
I3
ssg71
g2539
sg64
(lp2546
g1103
asbasbasbag57
(g73
g59
NtRp2547
(dp2548
g62
(dp2549
sg71
g2438
sg64
(lp2550
g57
(g78
g59
NtRp2551
(dp2552
g62
(dp2553
g82
g83
ssg71
g2547
sg64
(lp2554
S'HTTP_COOKIE'
p2555
asbag57
(g78
g59
NtRp2556
(dp2557
g62
(dp2558
g89
g90
ssg71
g2547
sg64
(lp2559
S':'
asbag57
(g78
g59
NtRp2560
(dp2561
g62
(dp2562
sg71
g2547
sg64
(lp2563
g57
(g58
g59
NtRp2564
(dp2565
g62
(dp2566
g70
I3
ssg71
g2560
sg64
(lp2567
g1125
asbasbasbag57
(g73
g59
NtRp2568
(dp2569
g62
(dp2570
sg71
g2438
sg64
(lp2571
g57
(g78
g59
NtRp2572
(dp2573
g62
(dp2574
g82
g83
ssg71
g2568
sg64
(lp2575
S'HTTP_HOST'
p2576
asbag57
(g78
g59
NtRp2577
(dp2578
g62
(dp2579
g89
g90
ssg71
g2568
sg64
(lp2580
S':'
asbag57
(g78
g59
NtRp2581
(dp2582
g62
(dp2583
sg71
g2568
sg64
(lp2584
g57
(g58
g59
NtRp2585
(dp2586
g62
(dp2587
g70
I3
ssg71
g2581
sg64
(lp2588
g1147
asbasbasbag57
(g73
g59
NtRp2589
(dp2590
g62
(dp2591
sg71
g2438
sg64
(lp2592
g57
(g78
g59
NtRp2593
(dp2594
g62
(dp2595
g82
g83
ssg71
g2589
sg64
(lp2596
S'HTTP_USER_AGENT'
p2597
asbag57
(g78
g59
NtRp2598
(dp2599
g62
(dp2600
g89
g90
ssg71
g2589
sg64
(lp2601
S':'
asbag57
(g78
g59
NtRp2602
(dp2603
g62
(dp2604
sg71
g2589
sg64
(lp2605
g57
(g58
g59
NtRp2606
(dp2607
g62
(dp2608
g70
I3
ssg71
g2602
sg64
(lp2609
g1169
asbasbasbag57
(g73
g59
NtRp2610
(dp2611
g62
(dp2612
sg71
g2438
sg64
(lp2613
g57
(g78
g59
NtRp2614
(dp2615
g62
(dp2616
g82
g83
ssg71
g2610
sg64
(lp2617
S'PATH_INFO'
p2618
asbag57
(g78
g59
NtRp2619
(dp2620
g62
(dp2621
g89
g90
ssg71
g2610
sg64
(lp2622
S':'
asbag57
(g78
g59
NtRp2623
(dp2624
g62
(dp2625
sg71
g2610
sg64
(lp2626
g57
(g58
g59
NtRp2627
(dp2628
g62
(dp2629
g70
I3
ssg71
g2623
sg64
(lp2630
g1233
asbasbasbag57
(g73
g59
NtRp2631
(dp2632
g62
(dp2633
sg71
g2438
sg64
(lp2634
g57
(g78
g59
NtRp2635
(dp2636
g62
(dp2637
g82
g83
ssg71
g2631
sg64
(lp2638
S'QUERY_STRING'
p2639
asbag57
(g78
g59
NtRp2640
(dp2641
g62
(dp2642
g89
g90
ssg71
g2631
sg64
(lp2643
S':'
asbag57
(g78
g59
NtRp2644
(dp2645
g62
(dp2646
sg71
g2631
sg64
(lp2647
g57
(g58
g59
NtRp2648
(dp2649
g62
(dp2650
g70
I3
ssg71
g2644
sg64
(lp2651
S''
asbasbasbag57
(g73
g59
NtRp2652
(dp2653
g62
(dp2654
sg71
g2438
sg64
(lp2655
g57
(g78
g59
NtRp2656
(dp2657
g62
(dp2658
g82
g83
ssg71
g2652
sg64
(lp2659
S'REMOTE_ADDR'
p2660
asbag57
(g78
g59
NtRp2661
(dp2662
g62
(dp2663
g89
g90
ssg71
g2652
sg64
(lp2664
S':'
asbag57
(g78
g59
NtRp2665
(dp2666
g62
(dp2667
sg71
g2652
sg64
(lp2668
g57
(g58
g59
NtRp2669
(dp2670
g62
(dp2671
g70
I3
ssg71
g2665
sg64
(lp2672
g202
asbasbasbag57
(g73
g59
NtRp2673
(dp2674
g62
(dp2675
sg71
g2438
sg64
(lp2676
g57
(g78
g59
NtRp2677
(dp2678
g62
(dp2679
g82
g83
ssg71
g2673
sg64
(lp2680
S'REMOTE_PORT'
p2681
asbag57
(g78
g59
NtRp2682
(dp2683
g62
(dp2684
g89
g90
ssg71
g2673
sg64
(lp2685
S':'
asbag57
(g78
g59
NtRp2686
(dp2687
g62
(dp2688
sg71
g2673
sg64
(lp2689
g57
(g58
g59
NtRp2690
(dp2691
g62
(dp2692
g70
I3
ssg71
g2686
sg64
(lp2693
g1297
asbasbasbag57
(g73
g59
NtRp2694
(dp2695
g62
(dp2696
sg71
g2438
sg64
(lp2697
g57
(g78
g59
NtRp2698
(dp2699
g62
(dp2700
g82
g83
ssg71
g2694
sg64
(lp2701
S'REQUEST_METHOD'
p2702
asbag57
(g78
g59
NtRp2703
(dp2704
g62
(dp2705
g89
g90
ssg71
g2694
sg64
(lp2706
S':'
asbag57
(g78
g59
NtRp2707
(dp2708
g62
(dp2709
sg71
g2694
sg64
(lp2710
g57
(g58
g59
NtRp2711
(dp2712
g62
(dp2713
g70
I3
ssg71
g2707
sg64
(lp2714
g1319
asbasbasbag57
(g73
g59
NtRp2715
(dp2716
g62
(dp2717
sg71
g2438
sg64
(lp2718
g57
(g78
g59
NtRp2719
(dp2720
g62
(dp2721
g82
g83
ssg71
g2715
sg64
(lp2722
S'SCRIPT_NAME'
p2723
asbag57
(g78
g59
NtRp2724
(dp2725
g62
(dp2726
g89
g90
ssg71
g2715
sg64
(lp2727
S':'
asbag57
(g78
g59
NtRp2728
(dp2729
g62
(dp2730
sg71
g2715
sg64
(lp2731
g57
(g58
g59
NtRp2732
(dp2733
g62
(dp2734
g70
I3
ssg71
g2728
sg64
(lp2735
S''
asbasbasbag57
(g73
g59
NtRp2736
(dp2737
g62
(dp2738
sg71
g2438
sg64
(lp2739
g57
(g78
g59
NtRp2740
(dp2741
g62
(dp2742
g82
g83
ssg71
g2736
sg64
(lp2743
S'SERVER_NAME'
p2744
asbag57
(g78
g59
NtRp2745
(dp2746
g62
(dp2747
g89
g90
ssg71
g2736
sg64
(lp2748
S':'
asbag57
(g78
g59
NtRp2749
(dp2750
g62
(dp2751
sg71
g2736
sg64
(lp2752
g57
(g58
g59
NtRp2753
(dp2754
g62
(dp2755
g70
I3
ssg71
g2749
sg64
(lp2756
g1362
asbasbasbag57
(g73
g59
NtRp2757
(dp2758
g62
(dp2759
sg71
g2438
sg64
(lp2760
g57
(g78
g59
NtRp2761
(dp2762
g62
(dp2763
g82
g83
ssg71
g2757
sg64
(lp2764
S'SERVER_PORT'
p2765
asbag57
(g78
g59
NtRp2766
(dp2767
g62
(dp2768
g89
g90
ssg71
g2757
sg64
(lp2769
S':'
asbag57
(g78
g59
NtRp2770
(dp2771
g62
(dp2772
sg71
g2757
sg64
(lp2773
g57
(g58
g59
NtRp2774
(dp2775
g62
(dp2776
g70
I3
ssg71
g2770
sg64
(lp2777
g1384
asbasbasbag57
(g73
g59
NtRp2778
(dp2779
g62
(dp2780
sg71
g2438
sg64
(lp2781
g57
(g78
g59
NtRp2782
(dp2783
g62
(dp2784
g82
g83
ssg71
g2778
sg64
(lp2785
S'SERVER_PROTOCOL'
p2786
asbag57
(g78
g59
NtRp2787
(dp2788
g62
(dp2789
g89
g90
ssg71
g2778
sg64
(lp2790
S':'
asbag57
(g78
g59
NtRp2791
(dp2792
g62
(dp2793
sg71
g2778
sg64
(lp2794
g57
(g58
g59
NtRp2795
(dp2796
g62
(dp2797
g70
I3
ssg71
g2791
sg64
(lp2798
g1406
asbasbasbag57
(g73
g59
NtRp2799
(dp2800
g62
(dp2801
sg71
g2438
sg64
(lp2802
g57
(g78
g59
NtRp2803
(dp2804
g62
(dp2805
g82
g83
ssg71
g2799
sg64
(lp2806
S'SERVER_SOFTWARE'
p2807
asbag57
(g78
g59
NtRp2808
(dp2809
g62
(dp2810
g89
g90
ssg71
g2799
sg64
(lp2811
S':'
asbag57
(g78
g59
NtRp2812
(dp2813
g62
(dp2814
sg71
g2799
sg64
(lp2815
g57
(g58
g59
NtRp2816
(dp2817
g62
(dp2818
g70
I3
ssg71
g2812
sg64
(lp2819
g1428
asbasbasbag57
(g73
g59
NtRp2820
(dp2821
g62
(dp2822
sg71
g2438
sg64
(lp2823
g57
(g78
g59
NtRp2824
(dp2825
g62
(dp2826
g82
g83
ssg71
g2820
sg64
(lp2827
S'wsgi.errors'
p2828
asbag57
(g78
g59
NtRp2829
(dp2830
g62
(dp2831
g89
g90
ssg71
g2820
sg64
(lp2832
S':'
asbag57
(g78
g59
NtRp2833
(dp2834
g62
(dp2835
sg71
g2820
sg64
(lp2836
g57
(g58
g59
NtRp2837
(dp2838
g62
(dp2839
g70
I3
ssg71
g2833
sg64
(lp2840
S"<open file '<stderr>', mode 'w' at 0x7f0ddee12270>"
p2841
asbasbasbag57
(g73
g59
NtRp2842
(dp2843
g62
(dp2844
sg71
g2438
sg64
(lp2845
g57
(g78
g59
NtRp2846
(dp2847
g62
(dp2848
g82
g83
ssg71
g2842
sg64
(lp2849
S'wsgi.file_wrapper'
p2850
asbag57
(g78
g59
NtRp2851
(dp2852
g62
(dp2853
g89
g90
ssg71
g2842
sg64
(lp2854
S':'
asbag57
(g78
g59
NtRp2855
(dp2856
g62
(dp2857
sg71
g2842
sg64
(lp2858
g57
(g58
g59
NtRp2859
(dp2860
g62
(dp2861
g70
I3
ssg71
g2855
sg64
(lp2862
S'<class wsgiref.util.FileWrapper at 0x29e8390>'
p2863
asbasbasbag57
(g73
g59
NtRp2864
(dp2865
g62
(dp2866
sg71
g2438
sg64
(lp2867
g57
(g78
g59
NtRp2868
(dp2869
g62
(dp2870
g82
g83
ssg71
g2864
sg64
(lp2871
S'wsgi.input'
p2872
asbag57
(g78
g59
NtRp2873
(dp2874
g62
(dp2875
g89
g90
ssg71
g2864
sg64
(lp2876
S':'
asbag57
(g78
g59
NtRp2877
(dp2878
g62
(dp2879
sg71
g2864
sg64
(lp2880
g57
(g58
g59
NtRp2881
(dp2882
g62
(dp2883
g70
I3
ssg71
g2877
sg64
(lp2884
S'<cStringIO.StringO object at 0x7f0d8c283f48>'
p2885
asbasbasbag57
(g73
g59
NtRp2886
(dp2887
g62
(dp2888
sg71
g2438
sg64
(lp2889
g57
(g78
g59
NtRp2890
(dp2891
g62
(dp2892
g82
g83
ssg71
g2886
sg64
(lp2893
S'wsgi.multiprocess'
p2894
asbag57
(g78
g59
NtRp2895
(dp2896
g62
(dp2897
g89
g90
ssg71
g2886
sg64
(lp2898
S':'
asbag57
(g78
g59
NtRp2899
(dp2900
g62
(dp2901
sg71
g2886
sg64
(lp2902
g57
(g58
g59
NtRp2903
(dp2904
g62
(dp2905
g70
I3
ssg71
g2899
sg64
(lp2906
g100
asbasbasbag57
(g73
g59
NtRp2907
(dp2908
g62
(dp2909
sg71
g2438
sg64
(lp2910
g57
(g78
g59
NtRp2911
(dp2912
g62
(dp2913
g82
g83
ssg71
g2907
sg64
(lp2914
S'wsgi.multithread'
p2915
asbag57
(g78
g59
NtRp2916
(dp2917
g62
(dp2918
g89
g90
ssg71
g2907
sg64
(lp2919
S':'
asbag57
(g78
g59
NtRp2920
(dp2921
g62
(dp2922
sg71
g2907
sg64
(lp2923
g57
(g58
g59
NtRp2924
(dp2925
g62
(dp2926
g70
I3
ssg71
g2920
sg64
(lp2927
g1668
asbasbasbag57
(g73
g59
NtRp2928
(dp2929
g62
(dp2930
sg71
g2438
sg64
(lp2931
g57
(g78
g59
NtRp2932
(dp2933
g62
(dp2934
g82
g83
ssg71
g2928
sg64
(lp2935
S'wsgi.run_once'
p2936
asbag57
(g78
g59
NtRp2937
(dp2938
g62
(dp2939
g89
g90
ssg71
g2928
sg64
(lp2940
S':'
asbag57
(g78
g59
NtRp2941
(dp2942
g62
(dp2943
sg71
g2928
sg64
(lp2944
g57
(g58
g59
NtRp2945
(dp2946
g62
(dp2947
g70
I3
ssg71
g2941
sg64
(lp2948
g100
asbasbasbag57
(g73
g59
NtRp2949
(dp2950
g62
(dp2951
sg71
g2438
sg64
(lp2952
g57
(g78
g59
NtRp2953
(dp2954
g62
(dp2955
g82
g83
ssg71
g2949
sg64
(lp2956
S'wsgi.url_scheme'
p2957
asbag57
(g78
g59
NtRp2958
(dp2959
g62
(dp2960
g89
g90
ssg71
g2949
sg64
(lp2961
S':'
asbag57
(g78
g59
NtRp2962
(dp2963
g62
(dp2964
sg71
g2949
sg64
(lp2965
g57
(g58
g59
NtRp2966
(dp2967
g62
(dp2968
g70
I3
ssg71
g2962
sg64
(lp2969
g1711
asbasbasbag57
(g73
g59
NtRp2970
(dp2971
g62
(dp2972
sg71
g2438
sg64
(lp2973
g57
(g78
g59
NtRp2974
(dp2975
g62
(dp2976
g82
g83
ssg71
g2970
sg64
(lp2977
S'wsgi.version'
p2978
asbag57
(g78
g59
NtRp2979
(dp2980
g62
(dp2981
g89
g90
ssg71
g2970
sg64
(lp2982
S':'
asbag57
(g78
g59
NtRp2983
(dp2984
g62
(dp2985
sg71
g2970
sg64
(lp2986
g57
(g58
g59
NtRp2987
(dp2988
g62
(dp2989
g70
I3
ssg71
g2983
sg64
(lp2990
S'1'
asbasbasbasbasbasbasbasbasbasbasbasbasbsS'frames'
p2991
(lp2992
(dp2993
S'file'
p2994
S'/usr/lib/pymodules/python2.7/gluon/restricted.py'
p2995
sS'dump'
p2996
(dp2997
S'environment'
p2998
S"{'A': <class 'gluon.html.A'>, 'Auth': <class 'gluon.tools.Auth'>, 'B': <class 'gluon.html.B'>, 'BEAUTIFY': <class 'gluon.html.BEAUTIFY'>, 'BODY': <class 'gluon.html.BODY'>, 'BR': <class 'gluon.html.BR'>, 'BUTTON': <class 'gluon.html.BUTTON'>, 'CAT': <class 'gluon.html.CAT'>, 'CENTER': <class 'gluon.html.CENTER'>, 'CLEANUP': <class 'gluon.validators.CLEANUP'>, ...}"
p2999
sS'ccode'
p3000
S'<code object <module> at 0x7f0d84176c30, file "/...ns/Gordian_Knot/controllers/default.py", line 11>'
p3001
ssS'lnum'
p3002
I204
sS'lines'
p3003
(dp3004
I199
S'    try:'
p3005
sI200
S'        if type(code) == types.CodeType:'
p3006
sI201
S'            ccode = code'
p3007
sI202
S'        else:'
p3008
sI203
S'            ccode = compile2(code,layer)'
p3009
sI204
S'        exec ccode in environment'
p3010
sI205
S'    except HTTP:'
p3011
sI206
S'        raise'
p3012
sI207
S'    except RestrictedError:'
p3013
sI208
S'        # do not encapsulate (obfuscate) the original RestrictedError'
p3014
ssS'call'
p3015
S"(code='# -*- coding: utf-8 -*-\\n# this file is released ...d())\\n\\n\\nresponse._vars=response._caller(question)\\n', environment={'A': <class 'gluon.html.A'>, 'Auth': <class 'gluon.tools.Auth'>, 'B': <class 'gluon.html.B'>, 'BEAUTIFY': <class 'gluon.html.BEAUTIFY'>, 'BODY': <class 'gluon.html.BODY'>, 'BR': <class 'gluon.html.BR'>, 'BUTTON': <class 'gluon.html.BUTTON'>, 'CAT': <class 'gluon.html.CAT'>, 'CENTER': <class 'gluon.html.CENTER'>, 'CLEANUP': <class 'gluon.validators.CLEANUP'>, ...}, layer='/home/ds-iiit/web2py/applications/Gordian_Knot/controllers/default.py')"
p3016
sS'func'
p3017
S'restricted'
p3018
sa(dp3019
g2994
S'/home/ds-iiit/web2py/applications/Gordian_Knot/controllers/default.py'
p3020
sg2996
(dp3021
sg3002
I122
sg3003
(dp3022
I111
S'    http://..../[app]/default/data/delete/[table]/[id]'
p3023
sI112
S'    http://..../[app]/default/data/select/[table]'
p3024
sI113
S'    http://..../[app]/default/data/search/[table]'
p3025
sI114
S'    but URLs must be signed, i.e. linked with'
p3026
sI115
S"      A('table',_href=URL('data/tables',user_signature=True))"
p3027
sI116
S'    or with the signed load operator'
p3028
sI117
S"      LOAD('default','data.load',args='tables',ajax=True,user_signature=True)"
p3029
sI118
S'    """'
p3030
sI119
S'    return dict(form=crud())'
p3031
sI120
S''
ssg3015
S'()'
p3032
sg3017
S'<module>'
p3033
sa(dp3034
g2994
S'/usr/lib/pymodules/python2.7/gluon/globals.py'
p3035
sg2996
(dp3036
S'self'
p3037
S'undefined'
p3038
sS'f'
S'<function question>'
p3039
ssg3002
I172
sg3003
(dp3040
I167
S'        self.meta = Storage()      # used by web2py_ajax.html'
p3041
sI168
S'        self.menu = []             # used by the default view layout'
p3042
sI169
S'        self.files = []            # used by web2py_ajax.html'
p3043
sI170
S'        self.generic_patterns = [] # patterns to allow generic views'
p3044
sI171
S'        self._vars = None'
p3045
sI172
S'        self._caller = lambda f: f()'
p3046
sI173
S'        self._view_environment = None'
p3047
sI174
S'        self._custom_commit = None'
p3048
sI175
S'        self._custom_rollback = None'
p3049
sI176
S''
ssg3015
S'(f=<function question>)'
p3050
sg3017
S'<lambda>'
p3051
sa(dp3052
g2994
S'/home/ds-iiit/web2py/applications/Gordian_Knot/controllers/default.py'
p3053
sg2996
(dp3054
S'db.Level.Level'
p3055
S'<gluon.dal.Field object>'
p3056
sS'db.Level.User'
p3057
S'<gluon.dal.Field object>'
p3058
sS'auth.user.id'
p3059
g3038
sS'no'
p3060
S'1'
sS'auth.user'
p3061
S'None'
p3062
sS'builtinNone'
p3063
S'None'
p3064
sS'global auth'
p3065
S'<gluon.tools.Auth object>'
p3066
sS'db.Level'
p3067
S"<Table {'ALL': <gluon.dal.SQLALL object at 0x7f0...object at 0x7f0dac102650>, '_singular': 'Level'}>"
p3068
sS'global db'
p3069
S"<DAL {'auth_event': <Table {'origin': <gluon.dal...': <gluon.dal.Field object at 0x7f0d900f6250>}>}>"
p3070
ssg3002
I27
sg3003
(dp3071
I22
S''
sI23
S'def question():'
p3072
sI24
S'\tno=request.args(0)'
p3073
sI25
S'\tno = int(no)'
p3074
sI26
S'\tprint auth.user_id'
p3075
sI27
S'\tif db((db.Level.Level == no) & (db.Level.User == auth.user.id)) is not None or no == 0:'
p3076
sI28
S'\t\tquestions = db((db.Trivia.Level == no) & (db.Done.Question != db.Trivia.Question)  & (db.Done.User == auth.user_id)).select()'
p3077
sI29
S'\t\treturn dict(questions = questions)'
p3078
sI30
S'\telse:'
p3079
sI31
S"\t\tredirect('landing')"
p3080
ssg3015
S'()'
p3081
sg3017
S'question'
p3082
sasS'pyver'
p3083
S'Python 2.7.3: /usr/bin/python'
p3084
sS'session'
p3085
g57
(g58
g59
NtRp3086
(dp3087
g62
(dp3088
sg64
(lp3089
g57
(g66
g59
NtRp3090
(dp3091
g62
(dp3092
g70
I5
ssg71
Nsg64
(lp3093
g57
(g73
g59
NtRp3094
(dp3095
g62
(dp3096
sg71
g3090
sg64
(lp3097
g57
(g78
g59
NtRp3098
(dp3099
g62
(dp3100
g82
g83
ssg71
g3094
sg64
(lp3101
S'last_query'
p3102
asbag57
(g78
g59
NtRp3103
(dp3104
g62
(dp3105
g89
g90
ssg71
g3094
sg64
(lp3106
S':'
asbag57
(g78
g59
NtRp3107
(dp3108
g62
(dp3109
sg71
g3094
sg64
(lp3110
g57
(g58
g59
NtRp3111
(dp3112
g62
(dp3113
g70
I5
ssg71
g3107
sg64
(lp3114
S'db.Trivia.id>0'
p3115
asbasbasbasbasbsS'etype'
p3116
S"<type 'exceptions.AttributeError'>"
p3117
sS'date'
p3118
S'Sun Sep 22 03:53:35 2013'
p3119
sS'response'
p3120
g57
(g58
g59
NtRp3121
(dp3122
g62
(dp3123
sg64
(lp3124
g57
(g66
g59
NtRp3125
(dp3126
g62
(dp3127
g70
I5
ssg71
Nsg64
(lp3128
g57
(g73
g59
NtRp3129
(dp3130
g62
(dp3131
sg71
g3125
sg64
(lp3132
g57
(g78
g59
NtRp3133
(dp3134
g62
(dp3135
g82
g83
ssg71
g3129
sg64
(lp3136
g167
asbag57
(g78
g59
NtRp3137
(dp3138
g62
(dp3139
g89
g90
ssg71
g3129
sg64
(lp3140
S':'
asbag57
(g78
g59
NtRp3141
(dp3142
g62
(dp3143
sg71
g3129
sg64
(lp3144
g57
(g58
g59
NtRp3145
(dp3146
g62
(dp3147
g70
I5
ssg71
g3141
sg64
(lp3148
S'<cStringIO.StringO object at 0x7f0d8c283df8>'
p3149
asbasbasbag57
(g73
g59
NtRp3150
(dp3151
g62
(dp3152
sg71
g3125
sg64
(lp3153
g57
(g78
g59
NtRp3154
(dp3155
g62
(dp3156
g82
g83
ssg71
g3150
sg64
(lp3157
g233
asbag57
(g78
g59
NtRp3158
(dp3159
g62
(dp3160
g89
g90
ssg71
g3150
sg64
(lp3161
S':'
asbag57
(g78
g59
NtRp3162
(dp3163
g62
(dp3164
sg71
g3150
sg64
(lp3165
g57
(g58
g59
NtRp3166
(dp3167
g62
(dp3168
g70
I5
ssg71
g3162
sg64
(lp3169
g57
(g66
g59
NtRp3170
(dp3171
g62
(dp3172
g70
I4
ssg71
Nsg64
(lp3173
g57
(g73
g59
NtRp3174
(dp3175
g62
(dp3176
sg71
g3170
sg64
(lp3177
g57
(g78
g59
NtRp3178
(dp3179
g62
(dp3180
g82
g83
ssg71
g3174
sg64
(lp3181
S'session_id_gordian_knot'
p3182
asbag57
(g78
g59
NtRp3183
(dp3184
g62
(dp3185
g89
g90
ssg71
g3174
sg64
(lp3186
S':'
asbag57
(g78
g59
NtRp3187
(dp3188
g62
(dp3189
sg71
g3174
sg64
(lp3190
g57
(g58
g59
NtRp3191
(dp3192
g62
(dp3193
g70
I4
ssg71
g3187
sg64
(lp3194
g57
(g66
g59
NtRp3195
(dp3196
g62
(dp3197
g70
I3
ssg71
Nsg64
(lp3198
g57
(g73
g59
NtRp3199
(dp3200
g62
(dp3201
sg71
g3195
sg64
(lp3202
g57
(g78
g59
NtRp3203
(dp3204
g62
(dp3205
g82
g83
ssg71
g3199
sg64
(lp3206
g283
asbag57
(g78
g59
NtRp3207
(dp3208
g62
(dp3209
g89
g90
ssg71
g3199
sg64
(lp3210
S':'
asbag57
(g78
g59
NtRp3211
(dp3212
g62
(dp3213
sg71
g3199
sg64
(lp3214
g57
(g58
g59
NtRp3215
(dp3216
g62
(dp3217
g70
I3
ssg71
g3211
sg64
(lp3218
S''
asbasbasbag57
(g73
g59
NtRp3219
(dp3220
g62
(dp3221
sg71
g3195
sg64
(lp3222
g57
(g78
g59
NtRp3223
(dp3224
g62
(dp3225
g82
g83
ssg71
g3219
sg64
(lp3226
g304
asbag57
(g78
g59
NtRp3227
(dp3228
g62
(dp3229
g89
g90
ssg71
g3219
sg64
(lp3230
S':'
asbag57
(g78
g59
NtRp3231
(dp3232
g62
(dp3233
sg71
g3219
sg64
(lp3234
g57
(g58
g59
NtRp3235
(dp3236
g62
(dp3237
g70
I3
ssg71
g3231
sg64
(lp3238
S''
asbasbasbag57
(g73
g59
NtRp3239
(dp3240
g62
(dp3241
sg71
g3195
sg64
(lp3242
g57
(g78
g59
NtRp3243
(dp3244
g62
(dp3245
g82
g83
ssg71
g3239
sg64
(lp3246
g325
asbag57
(g78
g59
NtRp3247
(dp3248
g62
(dp3249
g89
g90
ssg71
g3239
sg64
(lp3250
S':'
asbag57
(g78
g59
NtRp3251
(dp3252
g62
(dp3253
sg71
g3239
sg64
(lp3254
g57
(g58
g59
NtRp3255
(dp3256
g62
(dp3257
g70
I3
ssg71
g3251
sg64
(lp3258
S''
asbasbasbag57
(g73
g59
NtRp3259
(dp3260
g62
(dp3261
sg71
g3195
sg64
(lp3262
g57
(g78
g59
NtRp3263
(dp3264
g62
(dp3265
g82
g83
ssg71
g3259
sg64
(lp3266
g346
asbag57
(g78
g59
NtRp3267
(dp3268
g62
(dp3269
g89
g90
ssg71
g3259
sg64
(lp3270
S':'
asbag57
(g78
g59
NtRp3271
(dp3272
g62
(dp3273
sg71
g3259
sg64
(lp3274
g57
(g58
g59
NtRp3275
(dp3276
g62
(dp3277
g70
I3
ssg71
g3271
sg64
(lp3278
S''
asbasbasbag57
(g73
g59
NtRp3279
(dp3280
g62
(dp3281
sg71
g3195
sg64
(lp3282
g57
(g78
g59
NtRp3283
(dp3284
g62
(dp3285
g82
g83
ssg71
g3279
sg64
(lp3286
g367
asbag57
(g78
g59
NtRp3287
(dp3288
g62
(dp3289
g89
g90
ssg71
g3279
sg64
(lp3290
S':'
asbag57
(g78
g59
NtRp3291
(dp3292
g62
(dp3293
sg71
g3279
sg64
(lp3294
g57
(g58
g59
NtRp3295
(dp3296
g62
(dp3297
g70
I3
ssg71
g3291
sg64
(lp3298
S''
asbasbasbag57
(g73
g59
NtRp3299
(dp3300
g62
(dp3301
sg71
g3195
sg64
(lp3302
g57
(g78
g59
NtRp3303
(dp3304
g62
(dp3305
g82
g83
ssg71
g3299
sg64
(lp3306
g388
asbag57
(g78
g59
NtRp3307
(dp3308
g62
(dp3309
g89
g90
ssg71
g3299
sg64
(lp3310
S':'
asbag57
(g78
g59
NtRp3311
(dp3312
g62
(dp3313
sg71
g3299
sg64
(lp3314
g57
(g58
g59
NtRp3315
(dp3316
g62
(dp3317
g70
I3
ssg71
g3311
sg64
(lp3318
S'/'
asbasbasbag57
(g73
g59
NtRp3319
(dp3320
g62
(dp3321
sg71
g3195
sg64
(lp3322
g57
(g78
g59
NtRp3323
(dp3324
g62
(dp3325
g82
g83
ssg71
g3319
sg64
(lp3326
g409
asbag57
(g78
g59
NtRp3327
(dp3328
g62
(dp3329
g89
g90
ssg71
g3319
sg64
(lp3330
S':'
asbag57
(g78
g59
NtRp3331
(dp3332
g62
(dp3333
sg71
g3319
sg64
(lp3334
g57
(g58
g59
NtRp3335
(dp3336
g62
(dp3337
g70
I3
ssg71
g3331
sg64
(lp3338
S''
asbasbasbag57
(g73
g59
NtRp3339
(dp3340
g62
(dp3341
sg71
g3195
sg64
(lp3342
g57
(g78
g59
NtRp3343
(dp3344
g62
(dp3345
g82
g83
ssg71
g3339
sg64
(lp3346
g430
asbag57
(g78
g59
NtRp3347
(dp3348
g62
(dp3349
g89
g90
ssg71
g3339
sg64
(lp3350
S':'
asbag57
(g78
g59
NtRp3351
(dp3352
g62
(dp3353
sg71
g3339
sg64
(lp3354
g57
(g58
g59
NtRp3355
(dp3356
g62
(dp3357
g70
I3
ssg71
g3351
sg64
(lp3358
S''
asbasbasbasbasbasbasbasbasbasbasbag57
(g73
g59
NtRp3359
(dp3360
g62
(dp3361
sg71
g3125
sg64
(lp3362
g57
(g78
g59
NtRp3363
(dp3364
g62
(dp3365
g82
g83
ssg71
g3359
sg64
(lp3366
S'files'
p3367
asbag57
(g78
g59
NtRp3368
(dp3369
g62
(dp3370
g89
g90
ssg71
g3359
sg64
(lp3371
S':'
asbag57
(g78
g59
NtRp3372
(dp3373
g62
(dp3374
sg71
g3359
sg64
(lp3375
g57
(g58
g59
NtRp3376
(dp3377
g62
(dp3378
g70
I5
ssg71
g3372
sg64
(lp3379
g57
(g66
g59
NtRp3380
(dp3381
g62
(dp3382
g70
I4
ssg71
Nsg64
(lp3383
sbasbasbasbag57
(g73
g59
NtRp3384
(dp3385
g62
(dp3386
sg71
g3125
sg64
(lp3387
g57
(g78
g59
NtRp3388
(dp3389
g62
(dp3390
g82
g83
ssg71
g3384
sg64
(lp3391
S'flash'
p3392
asbag57
(g78
g59
NtRp3393
(dp3394
g62
(dp3395
g89
g90
ssg71
g3384
sg64
(lp3396
S':'
asbag57
(g78
g59
NtRp3397
(dp3398
g62
(dp3399
sg71
g3384
sg64
(lp3400
g57
(g58
g59
NtRp3401
(dp3402
g62
(dp3403
g70
I5
ssg71
g3397
sg64
(lp3404
S''
asbasbasbag57
(g73
g59
NtRp3405
(dp3406
g62
(dp3407
sg71
g3125
sg64
(lp3408
g57
(g78
g59
NtRp3409
(dp3410
g62
(dp3411
g82
g83
ssg71
g3405
sg64
(lp3412
S'generic_patterns'
p3413
asbag57
(g78
g59
NtRp3414
(dp3415
g62
(dp3416
g89
g90
ssg71
g3405
sg64
(lp3417
S':'
asbag57
(g78
g59
NtRp3418
(dp3419
g62
(dp3420
sg71
g3405
sg64
(lp3421
g57
(g58
g59
NtRp3422
(dp3423
g62
(dp3424
g70
I5
ssg71
g3418
sg64
(lp3425
g57
(g66
g59
NtRp3426
(dp3427
g62
(dp3428
g70
I4
ssg71
Nsg64
(lp3429
g57
(g73
g59
NtRp3430
(dp3431
g62
(dp3432
sg71
g3426
sg64
(lp3433
g57
(g78
g59
NtRp3434
(dp3435
g62
(dp3436
sg71
g3430
sg64
(lp3437
g57
(g58
g59
NtRp3438
(dp3439
g62
(dp3440
g70
I4
ssg71
g3434
sg64
(lp3441
S'*'
asbasbasbasbasbasbasbag57
(g73
g59
NtRp3442
(dp3443
g62
(dp3444
sg71
g3125
sg64
(lp3445
g57
(g78
g59
NtRp3446
(dp3447
g62
(dp3448
g82
g83
ssg71
g3442
sg64
(lp3449
S'headers'
p3450
asbag57
(g78
g59
NtRp3451
(dp3452
g62
(dp3453
g89
g90
ssg71
g3442
sg64
(lp3454
S':'
asbag57
(g78
g59
NtRp3455
(dp3456
g62
(dp3457
sg71
g3442
sg64
(lp3458
g57
(g58
g59
NtRp3459
(dp3460
g62
(dp3461
g70
I5
ssg71
g3455
sg64
(lp3462
g57
(g66
g59
NtRp3463
(dp3464
g62
(dp3465
g70
I4
ssg71
Nsg64
(lp3466
g57
(g73
g59
NtRp3467
(dp3468
g62
(dp3469
sg71
g3463
sg64
(lp3470
g57
(g78
g59
NtRp3471
(dp3472
g62
(dp3473
g82
g83
ssg71
g3467
sg64
(lp3474
S'Cache-Control'
p3475
asbag57
(g78
g59
NtRp3476
(dp3477
g62
(dp3478
g89
g90
ssg71
g3467
sg64
(lp3479
S':'
asbag57
(g78
g59
NtRp3480
(dp3481
g62
(dp3482
sg71
g3467
sg64
(lp3483
g57
(g58
g59
NtRp3484
(dp3485
g62
(dp3486
g70
I4
ssg71
g3480
sg64
(lp3487
S'no-store, no-cache, must-revalidate, post-check=0, pre-check=0'
p3488
asbasbasbag57
(g73
g59
NtRp3489
(dp3490
g62
(dp3491
sg71
g3463
sg64
(lp3492
g57
(g78
g59
NtRp3493
(dp3494
g62
(dp3495
g82
g83
ssg71
g3489
sg64
(lp3496
S'Content-Type'
p3497
asbag57
(g78
g59
NtRp3498
(dp3499
g62
(dp3500
g89
g90
ssg71
g3489
sg64
(lp3501
S':'
asbag57
(g78
g59
NtRp3502
(dp3503
g62
(dp3504
sg71
g3489
sg64
(lp3505
g57
(g58
g59
NtRp3506
(dp3507
g62
(dp3508
g70
I4
ssg71
g3502
sg64
(lp3509
S'text/html; charset=utf-8'
p3510
asbasbasbag57
(g73
g59
NtRp3511
(dp3512
g62
(dp3513
sg71
g3463
sg64
(lp3514
g57
(g78
g59
NtRp3515
(dp3516
g62
(dp3517
g82
g83
ssg71
g3511
sg64
(lp3518
S'Expires'
p3519
asbag57
(g78
g59
NtRp3520
(dp3521
g62
(dp3522
g89
g90
ssg71
g3511
sg64
(lp3523
S':'
asbag57
(g78
g59
NtRp3524
(dp3525
g62
(dp3526
sg71
g3511
sg64
(lp3527
g57
(g58
g59
NtRp3528
(dp3529
g62
(dp3530
g70
I4
ssg71
g3524
sg64
(lp3531
S'Sat, 21 Sep 2013 22:23:35 GMT'
p3532
asbasbasbag57
(g73
g59
NtRp3533
(dp3534
g62
(dp3535
sg71
g3463
sg64
(lp3536
g57
(g78
g59
NtRp3537
(dp3538
g62
(dp3539
g82
g83
ssg71
g3533
sg64
(lp3540
S'Pragma'
p3541
asbag57
(g78
g59
NtRp3542
(dp3543
g62
(dp3544
g89
g90
ssg71
g3533
sg64
(lp3545
S':'
asbag57
(g78
g59
NtRp3546
(dp3547
g62
(dp3548
sg71
g3533
sg64
(lp3549
g57
(g58
g59
NtRp3550
(dp3551
g62
(dp3552
g70
I4
ssg71
g3546
sg64
(lp3553
S'no-cache'
p3554
asbasbasbag57
(g73
g59
NtRp3555
(dp3556
g62
(dp3557
sg71
g3463
sg64
(lp3558
g57
(g78
g59
NtRp3559
(dp3560
g62
(dp3561
g82
g83
ssg71
g3555
sg64
(lp3562
S'X-Powered-By'
p3563
asbag57
(g78
g59
NtRp3564
(dp3565
g62
(dp3566
g89
g90
ssg71
g3555
sg64
(lp3567
S':'
asbag57
(g78
g59
NtRp3568
(dp3569
g62
(dp3570
sg71
g3555
sg64
(lp3571
g57
(g58
g59
NtRp3572
(dp3573
g62
(dp3574
g70
I4
ssg71
g3568
sg64
(lp3575
S'web2py'
p3576
asbasbasbasbasbasbasbag57
(g73
g59
NtRp3577
(dp3578
g62
(dp3579
sg71
g3125
sg64
(lp3580
g57
(g78
g59
NtRp3581
(dp3582
g62
(dp3583
g82
g83
ssg71
g3577
sg64
(lp3584
S'menu'
p3585
asbag57
(g78
g59
NtRp3586
(dp3587
g62
(dp3588
g89
g90
ssg71
g3577
sg64
(lp3589
S':'
asbag57
(g78
g59
NtRp3590
(dp3591
g62
(dp3592
sg71
g3577
sg64
(lp3593
g57
(g58
g59
NtRp3594
(dp3595
g62
(dp3596
g70
I5
ssg71
g3590
sg64
(lp3597
g57
(g66
g59
NtRp3598
(dp3599
g62
(dp3600
g70
I4
ssg71
Nsg64
(lp3601
g57
(g73
g59
NtRp3602
(dp3603
g62
(dp3604
sg71
g3598
sg64
(lp3605
g57
(g78
g59
NtRp3606
(dp3607
g62
(dp3608
sg71
g3602
sg64
(lp3609
g57
(g58
g59
NtRp3610
(dp3611
g62
(dp3612
g70
I4
ssg71
g3606
sg64
(lp3613
g57
(g66
g59
NtRp3614
(dp3615
g62
(dp3616
g70
I3
ssg71
Nsg64
(lp3617
g57
(g73
g59
NtRp3618
(dp3619
g62
(dp3620
sg71
g3614
sg64
(lp3621
g57
(g78
g59
NtRp3622
(dp3623
g62
(dp3624
sg71
g3618
sg64
(lp3625
g57
(g58
g59
NtRp3626
(dp3627
g62
(dp3628
g70
I3
ssg71
g3622
sg64
(lp3629
cgluon.languages
lazyT_unpickle
p3630
(S't\x04\x00\x00\x00Home'
tRp3631
asbasbasbag57
(g73
g59
NtRp3632
(dp3633
g62
(dp3634
sg71
g3614
sg64
(lp3635
g57
(g78
g59
NtRp3636
(dp3637
g62
(dp3638
sg71
g3632
sg64
(lp3639
g57
(g58
g59
NtRp3640
(dp3641
g62
(dp3642
g70
I3
ssg71
g3636
sg64
(lp3643
g100
asbasbasbag57
(g73
g59
NtRp3644
(dp3645
g62
(dp3646
sg71
g3614
sg64
(lp3647
g57
(g78
g59
NtRp3648
(dp3649
g62
(dp3650
sg71
g3644
sg64
(lp3651
g57
(g58
g59
NtRp3652
(dp3653
g62
(dp3654
g70
I3
ssg71
g3648
sg64
(lp3655
S'/Gordian_Knot/default/index'
p3656
asbasbasbag57
(g73
g59
NtRp3657
(dp3658
g62
(dp3659
sg71
g3614
sg64
(lp3660
g57
(g78
g59
NtRp3661
(dp3662
g62
(dp3663
sg71
g3657
sg64
(lp3664
g57
(g58
g59
NtRp3665
(dp3666
g62
(dp3667
g70
I3
ssg71
g3661
sg64
(lp3668
g57
(g66
g59
NtRp3669
(dp3670
g62
(dp3671
g70
I2
ssg71
Nsg64
(lp3672
sbasbasbasbasbasbasbasbag57
(g73
g59
NtRp3673
(dp3674
g62
(dp3675
sg71
g3598
sg64
(lp3676
g57
(g78
g59
NtRp3677
(dp3678
g62
(dp3679
sg71
g3673
sg64
(lp3680
g57
(g58
g59
NtRp3681
(dp3682
g62
(dp3683
g70
I4
ssg71
g3677
sg64
(lp3684
g57
(g66
g59
NtRp3685
(dp3686
g62
(dp3687
g70
I3
ssg71
Nsg64
(lp3688
g57
(g73
g59
NtRp3689
(dp3690
g62
(dp3691
sg71
g3685
sg64
(lp3692
g57
(g78
g59
NtRp3693
(dp3694
g62
(dp3695
sg71
g3689
sg64
(lp3696
g57
(g58
g59
NtRp3697
(dp3698
g62
(dp3699
g70
I3
ssg71
g3693
sg64
(lp3700
g57
(cgluon.html
SPAN
p3701
g59
NtRp3702
(dp3703
g62
(dp3704
g82
S'color:yellow'
p3705
ssg71
Nsg64
(lp3706
g3576
asbasbasbasbag57
(g73
g59
NtRp3707
(dp3708
g62
(dp3709
sg71
g3685
sg64
(lp3710
g57
(g78
g59
NtRp3711
(dp3712
g62
(dp3713
sg71
g3707
sg64
(lp3714
g57
(g58
g59
NtRp3715
(dp3716
g62
(dp3717
g70
I3
ssg71
g3711
sg64
(lp3718
g100
asbasbasbag57
(g73
g59
NtRp3719
(dp3720
g62
(dp3721
sg71
g3685
sg64
(lp3722
g57
(g78
g59
NtRp3723
(dp3724
g62
(dp3725
sg71
g3719
sg64
(lp3726
g57
(g58
g59
NtRp3727
(dp3728
g62
(dp3729
g70
I3
ssg71
g3723
sg64
(lp3730
S'None'
p3731
asbasbasbag57
(g73
g59
NtRp3732
(dp3733
g62
(dp3734
sg71
g3685
sg64
(lp3735
g57
(g78
g59
NtRp3736
(dp3737
g62
(dp3738
sg71
g3732
sg64
(lp3739
g57
(g58
g59
NtRp3740
(dp3741
g62
(dp3742
g70
I3
ssg71
g3736
sg64
(lp3743
g57
(g66
g59
NtRp3744
(dp3745
g62
(dp3746
g70
I2
ssg71
Nsg64
(lp3747
g57
(g73
g59
NtRp3748
(dp3749
g62
(dp3750
sg71
g3744
sg64
(lp3751
g57
(g78
g59
NtRp3752
(dp3753
g62
(dp3754
sg71
g3748
sg64
(lp3755
g57
(g58
g59
NtRp3756
(dp3757
g62
(dp3758
g70
I2
ssg71
g3752
sg64
(lp3759
g57
(g66
g59
NtRp3760
(dp3761
g62
(dp3762
g70
I1
ssg71
Nsg64
(lp3763
g57
(g73
g59
NtRp3764
(dp3765
g62
(dp3766
sg71
g3760
sg64
(lp3767
g57
(g78
g59
NtRp3768
(dp3769
g62
(dp3770
sg71
g3764
sg64
(lp3771
g57
(g58
g59
NtRp3772
(dp3773
g62
(dp3774
g70
I1
ssg71
g3768
sg64
(lp3775
g3630
(S's\x08\x00\x00\x00My Sites'
tRp3776
asbasbasbag57
(g73
g59
NtRp3777
(dp3778
g62
(dp3779
sg71
g3760
sg64
(lp3780
g57
(g78
g59
NtRp3781
(dp3782
g62
(dp3783
sg71
g3777
sg64
(lp3784
g57
(g58
g59
NtRp3785
(dp3786
g62
(dp3787
g70
I1
ssg71
g3781
sg64
(lp3788
I00
asbasbasbag57
(g73
g59
NtRp3789
(dp3790
g62
(dp3791
sg71
g3760
sg64
(lp3792
g57
(g78
g59
NtRp3793
(dp3794
g62
(dp3795
sg71
g3789
sg64
(lp3796
g57
(g58
g59
NtRp3797
(dp3798
g62
(dp3799
g70
I1
ssg71
g3793
sg64
(lp3800
S'/admin/default/site'
p3801
asbasbasbasbasbasbasbag57
(g73
g59
NtRp3802
(dp3803
g62
(dp3804
sg71
g3744
sg64
(lp3805
g57
(g78
g59
NtRp3806
(dp3807
g62
(dp3808
sg71
g3802
sg64
(lp3809
g57
(g58
g59
NtRp3810
(dp3811
g62
(dp3812
g70
I2
ssg71
g3806
sg64
(lp3813
g57
(g66
g59
NtRp3814
(dp3815
g62
(dp3816
g70
I1
ssg71
Nsg64
(lp3817
g57
(g73
g59
NtRp3818
(dp3819
g62
(dp3820
sg71
g3814
sg64
(lp3821
g57
(g78
g59
NtRp3822
(dp3823
g62
(dp3824
sg71
g3818
sg64
(lp3825
g57
(g58
g59
NtRp3826
(dp3827
g62
(dp3828
g70
I1
ssg71
g3822
sg64
(lp3829
g3630
(S's\x08\x00\x00\x00This App'
tRp3830
asbasbasbag57
(g73
g59
NtRp3831
(dp3832
g62
(dp3833
sg71
g3814
sg64
(lp3834
g57
(g78
g59
NtRp3835
(dp3836
g62
(dp3837
sg71
g3831
sg64
(lp3838
g57
(g58
g59
NtRp3839
(dp3840
g62
(dp3841
g70
I1
ssg71
g3835
sg64
(lp3842
I00
asbasbasbag57
(g73
g59
NtRp3843
(dp3844
g62
(dp3845
sg71
g3814
sg64
(lp3846
g57
(g78
g59
NtRp3847
(dp3848
g62
(dp3849
sg71
g3843
sg64
(lp3850
g57
(g58
g59
NtRp3851
(dp3852
g62
(dp3853
g70
I1
ssg71
g3847
sg64
(lp3854
S'/admin/default/design/Gordian_Knot'
p3855
asbasbasbag57
(g73
g59
NtRp3856
(dp3857
g62
(dp3858
sg71
g3814
sg64
(lp3859
g57
(g78
g59
NtRp3860
(dp3861
g62
(dp3862
sg71
g3856
sg64
(lp3863
g57
(g58
g59
NtRp3864
(dp3865
g62
(dp3866
g70
I1
ssg71
g3860
sg64
(lp3867
(lp3868
(g3630
(S't\n\x00\x00\x00Controller'
tRp3869
I00
S'/admin/default/edit/Gordian_Knot/controllers/default.py'
tp3870
a(g3630
(S't\x04\x00\x00\x00View'
tRp3871
I00
S'/admin/default/edit/Gordian_Knot/views/default/question.html'
tp3872
a(g3630
(S't\x06\x00\x00\x00Layout'
tRp3873
I00
S'/admin/default/edit/Gordian_Knot/views/layout.html'
tp3874
a(g3630
(S't\n\x00\x00\x00Stylesheet'
tRp3875
I00
S'/admin/default/edit/Gordian_Knot/static/css/web2py.css'
tp3876
a(g3630
(S's\x08\x00\x00\x00DB Model'
tRp3877
I00
S'/admin/default/edit/Gordian_Knot/models/db.py'
tp3878
a(g3630
(S's\n\x00\x00\x00Menu Model'
tRp3879
I00
S'/admin/default/edit/Gordian_Knot/models/menu.py'
tp3880
a(g3630
(S't\x08\x00\x00\x00Database'
tRp3881
I00
S'/Gordian_Knot/appadmin/index'
tp3882
a(g3630
(S't\x06\x00\x00\x00Errors'
tRp3883
I00
S'/admin/default/errors/Gordian_Knot'
tp3884
a(g3630
(S't\x05\x00\x00\x00About'
tRp3885
I00
S'/admin/default/about/Gordian_Knot'
tp3886
aasbasbasbasbasbasbasbag57
(g73
g59
NtRp3887
(dp3888
g62
(dp3889
sg71
g3744
sg64
(lp3890
g57
(g78
g59
NtRp3891
(dp3892
g62
(dp3893
sg71
g3887
sg64
(lp3894
g57
(g58
g59
NtRp3895
(dp3896
g62
(dp3897
g70
I2
ssg71
g3891
sg64
(lp3898
g57
(g66
g59
NtRp3899
(dp3900
g62
(dp3901
g70
I1
ssg71
Nsg64
(lp3902
g57
(g73
g59
NtRp3903
(dp3904
g62
(dp3905
sg71
g3899
sg64
(lp3906
g57
(g78
g59
NtRp3907
(dp3908
g62
(dp3909
sg71
g3903
sg64
(lp3910
g57
(g58
g59
NtRp3911
(dp3912
g62
(dp3913
g70
I1
ssg71
g3907
sg64
(lp3914
S'web2py.com'
p3915
asbasbasbag57
(g73
g59
NtRp3916
(dp3917
g62
(dp3918
sg71
g3899
sg64
(lp3919
g57
(g78
g59
NtRp3920
(dp3921
g62
(dp3922
sg71
g3916
sg64
(lp3923
g57
(g58
g59
NtRp3924
(dp3925
g62
(dp3926
g70
I1
ssg71
g3920
sg64
(lp3927
I00
asbasbasbag57
(g73
g59
NtRp3928
(dp3929
g62
(dp3930
sg71
g3899
sg64
(lp3931
g57
(g78
g59
NtRp3932
(dp3933
g62
(dp3934
sg71
g3928
sg64
(lp3935
g57
(g58
g59
NtRp3936
(dp3937
g62
(dp3938
g70
I1
ssg71
g3932
sg64
(lp3939
S'http://www.web2py.com'
p3940
asbasbasbag57
(g73
g59
NtRp3941
(dp3942
g62
(dp3943
sg71
g3899
sg64
(lp3944
g57
(g78
g59
NtRp3945
(dp3946
g62
(dp3947
sg71
g3941
sg64
(lp3948
g57
(g58
g59
NtRp3949
(dp3950
g62
(dp3951
g70
I1
ssg71
g3945
sg64
(lp3952
(lp3953
(g3630
(S't\x08\x00\x00\x00Download'
tRp3954
I00
S'http://www.web2py.com/examples/default/download'
p3955
tp3956
a(g3630
(S't\x07\x00\x00\x00Support'
tRp3957
I00
S'http://www.web2py.com/examples/default/support'
p3958
tp3959
a(g3630
(S't\x04\x00\x00\x00Demo'
tRp3960
I00
S'http://web2py.com/demo_admin'
p3961
tp3962
a(g3630
(S's\x0e\x00\x00\x00Quick Examples'
tRp3963
I00
S'http://web2py.com/examples/default/examples'
p3964
tp3965
a(g3630
(S't\x03\x00\x00\x00FAQ'
tRp3966
I00
S'http://web2py.com/AlterEgo'
p3967
tp3968
a(g3630
(S't\x06\x00\x00\x00Videos'
tRp3969
I00
S'http://www.web2py.com/examples/default/videos/'
p3970
tp3971
a(g3630
(S's\x11\x00\x00\x00Free Applications'
tRp3972
I00
S'http://web2py.com/appliances'
p3973
tp3974
a(g3630
(S't\x07\x00\x00\x00Plugins'
tRp3975
I00
S'http://web2py.com/plugins'
p3976
tp3977
a(g3630
(S't\x07\x00\x00\x00Layouts'
tRp3978
I00
S'http://web2py.com/layouts'
p3979
tp3980
a(g3630
(S't\x07\x00\x00\x00Recipes'
tRp3981
I00
S'http://web2pyslices.com/'
p3982
tp3983
a(g3630
(S't\x08\x00\x00\x00Semantic'
tRp3984
I00
S'http://web2py.com/semantic'
p3985
tp3986
aasbasbasbasbasbasbasbag57
(g73
g59
NtRp3987
(dp3988
g62
(dp3989
sg71
g3744
sg64
(lp3990
g57
(g78
g59
NtRp3991
(dp3992
g62
(dp3993
sg71
g3987
sg64
(lp3994
g57
(g58
g59
NtRp3995
(dp3996
g62
(dp3997
g70
I2
ssg71
g3991
sg64
(lp3998
g57
(g66
g59
NtRp3999
(dp4000
g62
(dp4001
g70
I1
ssg71
Nsg64
(lp4002
g57
(g73
g59
NtRp4003
(dp4004
g62
(dp4005
sg71
g3999
sg64
(lp4006
g57
(g78
g59
NtRp4007
(dp4008
g62
(dp4009
sg71
g4003
sg64
(lp4010
g57
(g58
g59
NtRp4011
(dp4012
g62
(dp4013
g70
I1
ssg71
g4007
sg64
(lp4014
g3630
(S't\r\x00\x00\x00Documentation'
tRp4015
asbasbasbag57
(g73
g59
NtRp4016
(dp4017
g62
(dp4018
sg71
g3999
sg64
(lp4019
g57
(g78
g59
NtRp4020
(dp4021
g62
(dp4022
sg71
g4016
sg64
(lp4023
g57
(g58
g59
NtRp4024
(dp4025
g62
(dp4026
g70
I1
ssg71
g4020
sg64
(lp4027
I00
asbasbasbag57
(g73
g59
NtRp4028
(dp4029
g62
(dp4030
sg71
g3999
sg64
(lp4031
g57
(g78
g59
NtRp4032
(dp4033
g62
(dp4034
sg71
g4028
sg64
(lp4035
g57
(g58
g59
NtRp4036
(dp4037
g62
(dp4038
g70
I1
ssg71
g4032
sg64
(lp4039
S'http://www.web2py.com/book'
p4040
asbasbasbag57
(g73
g59
NtRp4041
(dp4042
g62
(dp4043
sg71
g3999
sg64
(lp4044
g57
(g78
g59
NtRp4045
(dp4046
g62
(dp4047
sg71
g4041
sg64
(lp4048
g57
(g58
g59
NtRp4049
(dp4050
g62
(dp4051
g70
I1
ssg71
g4045
sg64
(lp4052
(lp4053
(g3630
(S't\x07\x00\x00\x00Preface'
tRp4054
I00
S'http://www.web2py.com/book/default/chapter/00'
p4055
tp4056
a(g3630
(S't\x0c\x00\x00\x00Introduction'
tRp4057
I00
S'http://www.web2py.com/book/default/chapter/01'
p4058
tp4059
a(g3630
(S't\x06\x00\x00\x00Python'
tRp4060
I00
S'http://www.web2py.com/book/default/chapter/02'
p4061
tp4062
a(g3630
(S't\x08\x00\x00\x00Overview'
tRp4063
I00
S'http://www.web2py.com/book/default/chapter/03'
p4064
tp4065
a(g3630
(S's\x08\x00\x00\x00The Core'
tRp4066
I00
S'http://www.web2py.com/book/default/chapter/04'
p4067
tp4068
a(g3630
(S's\t\x00\x00\x00The Views'
tRp4069
I00
S'http://www.web2py.com/book/default/chapter/05'
p4070
tp4071
a(g3630
(S't\x08\x00\x00\x00Database'
tRp4072
I00
S'http://www.web2py.com/book/default/chapter/06'
p4073
tp4074
a(g3630
(S's\x14\x00\x00\x00Forms and Validators'
tRp4075
I00
S'http://www.web2py.com/book/default/chapter/07'
p4076
tp4077
a(g3630
(S's\r\x00\x00\x00Email and SMS'
tRp4078
I00
S'http://www.web2py.com/book/default/chapter/08'
p4079
tp4080
a(g3630
(S's\x0e\x00\x00\x00Access Control'
tRp4081
I00
S'http://www.web2py.com/book/default/chapter/09'
p4082
tp4083
a(g3630
(S't\x08\x00\x00\x00Services'
tRp4084
I00
S'http://www.web2py.com/book/default/chapter/10'
p4085
tp4086
a(g3630
(S's\x0c\x00\x00\x00Ajax Recipes'
tRp4087
I00
S'http://www.web2py.com/book/default/chapter/11'
p4088
tp4089
a(g3630
(S's\x16\x00\x00\x00Components and Plugins'
tRp4090
I00
S'http://www.web2py.com/book/default/chapter/12'
p4091
tp4092
a(g3630
(S's\x12\x00\x00\x00Deployment Recipes'
tRp4093
I00
S'http://www.web2py.com/book/default/chapter/13'
p4094
tp4095
a(g3630
(S's\r\x00\x00\x00Other Recipes'
tRp4096
I00
S'http://www.web2py.com/book/default/chapter/14'
p4097
tp4098
a(g3630
(S's\r\x00\x00\x00Buy this book'
tRp4099
I00
S'http://stores.lulu.com/web2py'
p4100
tp4101
aasbasbasbasbasbasbasbag57
(g73
g59
NtRp4102
(dp4103
g62
(dp4104
sg71
g3744
sg64
(lp4105
g57
(g78
g59
NtRp4106
(dp4107
g62
(dp4108
sg71
g4102
sg64
(lp4109
g57
(g58
g59
NtRp4110
(dp4111
g62
(dp4112
g70
I2
ssg71
g4106
sg64
(lp4113
g57
(g66
g59
NtRp4114
(dp4115
g62
(dp4116
g70
I1
ssg71
Nsg64
(lp4117
g57
(g73
g59
NtRp4118
(dp4119
g62
(dp4120
sg71
g4114
sg64
(lp4121
g57
(g78
g59
NtRp4122
(dp4123
g62
(dp4124
sg71
g4118
sg64
(lp4125
g57
(g58
g59
NtRp4126
(dp4127
g62
(dp4128
g70
I1
ssg71
g4122
sg64
(lp4129
g3630
(S't\t\x00\x00\x00Community'
tRp4130
asbasbasbag57
(g73
g59
NtRp4131
(dp4132
g62
(dp4133
sg71
g4114
sg64
(lp4134
g57
(g78
g59
NtRp4135
(dp4136
g62
(dp4137
sg71
g4131
sg64
(lp4138
g57
(g58
g59
NtRp4139
(dp4140
g62
(dp4141
g70
I1
ssg71
g4135
sg64
(lp4142
I00
asbasbasbag57
(g73
g59
NtRp4143
(dp4144
g62
(dp4145
sg71
g4114
sg64
(lp4146
g57
(g78
g59
NtRp4147
(dp4148
g62
(dp4149
sg71
g4143
sg64
(lp4150
g57
(g58
g59
NtRp4151
(dp4152
g62
(dp4153
g70
I1
ssg71
g4147
sg64
(lp4154
Nasbasbasbag57
(g73
g59
NtRp4155
(dp4156
g62
(dp4157
sg71
g4114
sg64
(lp4158
g57
(g78
g59
NtRp4159
(dp4160
g62
(dp4161
sg71
g4155
sg64
(lp4162
g57
(g58
g59
NtRp4163
(dp4164
g62
(dp4165
g70
I1
ssg71
g4159
sg64
(lp4166
(lp4167
(g3630
(S't\x06\x00\x00\x00Groups'
tRp4168
I00
S'http://www.web2py.com/examples/default/usergroups'
p4169
tp4170
a(g3630
(S't\x07\x00\x00\x00Twitter'
tRp4171
I00
S'http://twitter.com/web2py'
p4172
tp4173
a(g3630
(S's\t\x00\x00\x00Live Chat'
tRp4174
I00
S'http://webchat.freenode.net/?channels=web2py'
p4175
tp4176
aasbasbasbasbasbasbasbag57
(g73
g59
NtRp4177
(dp4178
g62
(dp4179
sg71
g3744
sg64
(lp4180
g57
(g78
g59
NtRp4181
(dp4182
g62
(dp4183
sg71
g4177
sg64
(lp4184
g57
(g58
g59
NtRp4185
(dp4186
g62
(dp4187
g70
I2
ssg71
g4181
sg64
(lp4188
g57
(g66
g59
NtRp4189
(dp4190
g62
(dp4191
g70
I1
ssg71
Nsg64
(lp4192
g57
(g73
g59
NtRp4193
(dp4194
g62
(dp4195
sg71
g4189
sg64
(lp4196
g57
(g78
g59
NtRp4197
(dp4198
g62
(dp4199
sg71
g4193
sg64
(lp4200
g57
(g58
g59
NtRp4201
(dp4202
g62
(dp4203
g70
I1
ssg71
g4197
sg64
(lp4204
g3630
(S't\x07\x00\x00\x00Plugins'
tRp4205
asbasbasbag57
(g73
g59
NtRp4206
(dp4207
g62
(dp4208
sg71
g4189
sg64
(lp4209
g57
(g78
g59
NtRp4210
(dp4211
g62
(dp4212
sg71
g4206
sg64
(lp4213
g57
(g58
g59
NtRp4214
(dp4215
g62
(dp4216
g70
I1
ssg71
g4210
sg64
(lp4217
I00
asbasbasbag57
(g73
g59
NtRp4218
(dp4219
g62
(dp4220
sg71
g4189
sg64
(lp4221
g57
(g78
g59
NtRp4222
(dp4223
g62
(dp4224
sg71
g4218
sg64
(lp4225
g57
(g58
g59
NtRp4226
(dp4227
g62
(dp4228
g70
I1
ssg71
g4222
sg64
(lp4229
Nasbasbasbag57
(g73
g59
NtRp4230
(dp4231
g62
(dp4232
sg71
g4189
sg64
(lp4233
g57
(g78
g59
NtRp4234
(dp4235
g62
(dp4236
sg71
g4230
sg64
(lp4237
g57
(g58
g59
NtRp4238
(dp4239
g62
(dp4240
g70
I1
ssg71
g4234
sg64
(lp4241
(lp4242
(S'plugin_wiki'
p4243
I00
S'http://web2py.com/examples/default/download'
p4244
tp4245
a(g3630
(S's\r\x00\x00\x00Other Plugins'
tRp4246
I00
g3976
tp4247
a(g3630
(S's\x0e\x00\x00\x00Layout Plugins'
tRp4248
I00
g3979
tp4249
aasbasbasbasbasbasbasbasbasbasbasbasbasbasbasbasbasbasbasbag57
(g73
g59
NtRp4250
(dp4251
g62
(dp4252
sg71
g3125
sg64
(lp4253
g57
(g78
g59
NtRp4254
(dp4255
g62
(dp4256
g82
g83
ssg71
g4250
sg64
(lp4257
S'meta'
p4258
asbag57
(g78
g59
NtRp4259
(dp4260
g62
(dp4261
g89
g90
ssg71
g4250
sg64
(lp4262
S':'
asbag57
(g78
g59
NtRp4263
(dp4264
g62
(dp4265
sg71
g4250
sg64
(lp4266
g57
(g58
g59
NtRp4267
(dp4268
g62
(dp4269
g70
I5
ssg71
g4263
sg64
(lp4270
g57
(g66
g59
NtRp4271
(dp4272
g62
(dp4273
g70
I4
ssg71
Nsg64
(lp4274
g57
(g73
g59
NtRp4275
(dp4276
g62
(dp4277
sg71
g4271
sg64
(lp4278
g57
(g78
g59
NtRp4279
(dp4280
g62
(dp4281
g82
g83
ssg71
g4275
sg64
(lp4282
S'author'
p4283
asbag57
(g78
g59
NtRp4284
(dp4285
g62
(dp4286
g89
g90
ssg71
g4275
sg64
(lp4287
S':'
asbag57
(g78
g59
NtRp4288
(dp4289
g62
(dp4290
sg71
g4275
sg64
(lp4291
g57
(g58
g59
NtRp4292
(dp4293
g62
(dp4294
g70
I4
ssg71
g4288
sg64
(lp4295
S'Your Name <you@example.com>'
p4296
asbasbasbag57
(g73
g59
NtRp4297
(dp4298
g62
(dp4299
sg71
g4271
sg64
(lp4300
g57
(g78
g59
NtRp4301
(dp4302
g62
(dp4303
g82
g83
ssg71
g4297
sg64
(lp4304
S'copyright'
p4305
asbag57
(g78
g59
NtRp4306
(dp4307
g62
(dp4308
g89
g90
ssg71
g4297
sg64
(lp4309
S':'
asbag57
(g78
g59
NtRp4310
(dp4311
g62
(dp4312
sg71
g4297
sg64
(lp4313
g57
(g58
g59
NtRp4314
(dp4315
g62
(dp4316
g70
I4
ssg71
g4310
sg64
(lp4317
S'Copyright 2011'
p4318
asbasbasbag57
(g73
g59
NtRp4319
(dp4320
g62
(dp4321
sg71
g4271
sg64
(lp4322
g57
(g78
g59
NtRp4323
(dp4324
g62
(dp4325
g82
g83
ssg71
g4319
sg64
(lp4326
S'description'
p4327
asbag57
(g78
g59
NtRp4328
(dp4329
g62
(dp4330
g89
g90
ssg71
g4319
sg64
(lp4331
S':'
asbag57
(g78
g59
NtRp4332
(dp4333
g62
(dp4334
sg71
g4319
sg64
(lp4335
g57
(g58
g59
NtRp4336
(dp4337
g62
(dp4338
g70
I4
ssg71
g4332
sg64
(lp4339
S'a cool new app'
p4340
asbasbasbag57
(g73
g59
NtRp4341
(dp4342
g62
(dp4343
sg71
g4271
sg64
(lp4344
g57
(g78
g59
NtRp4345
(dp4346
g62
(dp4347
g82
g83
ssg71
g4341
sg64
(lp4348
S'generator'
p4349
asbag57
(g78
g59
NtRp4350
(dp4351
g62
(dp4352
g89
g90
ssg71
g4341
sg64
(lp4353
S':'
asbag57
(g78
g59
NtRp4354
(dp4355
g62
(dp4356
sg71
g4341
sg64
(lp4357
g57
(g58
g59
NtRp4358
(dp4359
g62
(dp4360
g70
I4
ssg71
g4354
sg64
(lp4361
S'Web2py Web Framework'
p4362
asbasbasbag57
(g73
g59
NtRp4363
(dp4364
g62
(dp4365
sg71
g4271
sg64
(lp4366
g57
(g78
g59
NtRp4367
(dp4368
g62
(dp4369
g82
g83
ssg71
g4363
sg64
(lp4370
S'keywords'
p4371
asbag57
(g78
g59
NtRp4372
(dp4373
g62
(dp4374
g89
g90
ssg71
g4363
sg64
(lp4375
S':'
asbag57
(g78
g59
NtRp4376
(dp4377
g62
(dp4378
sg71
g4363
sg64
(lp4379
g57
(g58
g59
NtRp4380
(dp4381
g62
(dp4382
g70
I4
ssg71
g4376
sg64
(lp4383
S'web2py, python, framework'
p4384
asbasbasbasbasbasbasbag57
(g73
g59
NtRp4385
(dp4386
g62
(dp4387
sg71
g3125
sg64
(lp4388
g57
(g78
g59
NtRp4389
(dp4390
g62
(dp4391
g82
g83
ssg71
g4385
sg64
(lp4392
S'postprocessing'
p4393
asbag57
(g78
g59
NtRp4394
(dp4395
g62
(dp4396
g89
g90
ssg71
g4385
sg64
(lp4397
S':'
asbag57
(g78
g59
NtRp4398
(dp4399
g62
(dp4400
sg71
g4385
sg64
(lp4401
g57
(g58
g59
NtRp4402
(dp4403
g62
(dp4404
g70
I5
ssg71
g4398
sg64
(lp4405
g57
(g66
g59
NtRp4406
(dp4407
g62
(dp4408
g70
I4
ssg71
Nsg64
(lp4409
sbasbasbasbag57
(g73
g59
NtRp4410
(dp4411
g62
(dp4412
sg71
g3125
sg64
(lp4413
g57
(g78
g59
NtRp4414
(dp4415
g62
(dp4416
g82
g83
ssg71
g4410
sg64
(lp4417
S'session_file'
p4418
asbag57
(g78
g59
NtRp4419
(dp4420
g62
(dp4421
g89
g90
ssg71
g4410
sg64
(lp4422
S':'
asbag57
(g78
g59
NtRp4423
(dp4424
g62
(dp4425
sg71
g4410
sg64
(lp4426
g57
(g58
g59
NtRp4427
(dp4428
g62
(dp4429
g70
I5
ssg71
g4423
sg64
(lp4430
S"<open file '/home/ds-iiit/web2py/applications/Gordian_Knot/sessions/127.0.0.1-7cbbc713-1cb8-4d74-8c67-ceeed6d4fabf', mode 'rb+' at 0x7f0da0289930>"
p4431
asbasbasbag57
(g73
g59
NtRp4432
(dp4433
g62
(dp4434
sg71
g3125
sg64
(lp4435
g57
(g78
g59
NtRp4436
(dp4437
g62
(dp4438
g82
g83
ssg71
g4432
sg64
(lp4439
S'session_filename'
p4440
asbag57
(g78
g59
NtRp4441
(dp4442
g62
(dp4443
g89
g90
ssg71
g4432
sg64
(lp4444
S':'
asbag57
(g78
g59
NtRp4445
(dp4446
g62
(dp4447
sg71
g4432
sg64
(lp4448
g57
(g58
g59
NtRp4449
(dp4450
g62
(dp4451
g70
I5
ssg71
g4445
sg64
(lp4452
S'/home/ds-iiit/web2py/applications/Gordian_Knot/sessions/127.0.0.1-7cbbc713-1cb8-4d74-8c67-ceeed6d4fabf'
p4453
asbasbasbag57
(g73
g59
NtRp4454
(dp4455
g62
(dp4456
sg71
g3125
sg64
(lp4457
g57
(g78
g59
NtRp4458
(dp4459
g62
(dp4460
g82
g83
ssg71
g4454
sg64
(lp4461
S'session_id'
p4462
asbag57
(g78
g59
NtRp4463
(dp4464
g62
(dp4465
g89
g90
ssg71
g4454
sg64
(lp4466
S':'
asbag57
(g78
g59
NtRp4467
(dp4468
g62
(dp4469
sg71
g4454
sg64
(lp4470
g57
(g58
g59
NtRp4471
(dp4472
g62
(dp4473
g70
I5
ssg71
g4467
sg64
(lp4474
S'127.0.0.1-7cbbc713-1cb8-4d74-8c67-ceeed6d4fabf'
p4475
asbasbasbag57
(g73
g59
NtRp4476
(dp4477
g62
(dp4478
sg71
g3125
sg64
(lp4479
g57
(g78
g59
NtRp4480
(dp4481
g62
(dp4482
g82
g83
ssg71
g4476
sg64
(lp4483
S'session_id_name'
p4484
asbag57
(g78
g59
NtRp4485
(dp4486
g62
(dp4487
g89
g90
ssg71
g4476
sg64
(lp4488
S':'
asbag57
(g78
g59
NtRp4489
(dp4490
g62
(dp4491
sg71
g4476
sg64
(lp4492
g57
(g58
g59
NtRp4493
(dp4494
g62
(dp4495
g70
I5
ssg71
g4489
sg64
(lp4496
g3182
asbasbasbag57
(g73
g59
NtRp4497
(dp4498
g62
(dp4499
sg71
g3125
sg64
(lp4500
g57
(g78
g59
NtRp4501
(dp4502
g62
(dp4503
g82
g83
ssg71
g4497
sg64
(lp4504
S'session_locked'
p4505
asbag57
(g78
g59
NtRp4506
(dp4507
g62
(dp4508
g89
g90
ssg71
g4497
sg64
(lp4509
S':'
asbag57
(g78
g59
NtRp4510
(dp4511
g62
(dp4512
sg71
g4497
sg64
(lp4513
g57
(g58
g59
NtRp4514
(dp4515
g62
(dp4516
g70
I5
ssg71
g4510
sg64
(lp4517
g1668
asbasbasbag57
(g73
g59
NtRp4518
(dp4519
g62
(dp4520
sg71
g3125
sg64
(lp4521
g57
(g78
g59
NtRp4522
(dp4523
g62
(dp4524
g82
g83
ssg71
g4518
sg64
(lp4525
S'session_new'
p4526
asbag57
(g78
g59
NtRp4527
(dp4528
g62
(dp4529
g89
g90
ssg71
g4518
sg64
(lp4530
S':'
asbag57
(g78
g59
NtRp4531
(dp4532
g62
(dp4533
sg71
g4518
sg64
(lp4534
g57
(g58
g59
NtRp4535
(dp4536
g62
(dp4537
g70
I5
ssg71
g4531
sg64
(lp4538
g100
asbasbasbag57
(g73
g59
NtRp4539
(dp4540
g62
(dp4541
sg71
g3125
sg64
(lp4542
g57
(g78
g59
NtRp4543
(dp4544
g62
(dp4545
g82
g83
ssg71
g4539
sg64
(lp4546
S'status'
p4547
asbag57
(g78
g59
NtRp4548
(dp4549
g62
(dp4550
g89
g90
ssg71
g4539
sg64
(lp4551
S':'
asbag57
(g78
g59
NtRp4552
(dp4553
g62
(dp4554
sg71
g4539
sg64
(lp4555
g57
(g58
g59
NtRp4556
(dp4557
g62
(dp4558
g70
I5
ssg71
g4552
sg64
(lp4559
S'200'
p4560
asbasbasbag57
(g73
g59
NtRp4561
(dp4562
g62
(dp4563
sg71
g3125
sg64
(lp4564
g57
(g78
g59
NtRp4565
(dp4566
g62
(dp4567
g82
g83
ssg71
g4561
sg64
(lp4568
S'subtitle'
p4569
asbag57
(g78
g59
NtRp4570
(dp4571
g62
(dp4572
g89
g90
ssg71
g4561
sg64
(lp4573
S':'
asbag57
(g78
g59
NtRp4574
(dp4575
g62
(dp4576
sg71
g4561
sg64
(lp4577
g57
(g58
g59
NtRp4578
(dp4579
g62
(dp4580
g70
I5
ssg71
g4574
sg64
(lp4581
g3630
(S's\r\x00\x00\x00customize me!'
tRp4582
asbasbasbag57
(g73
g59
NtRp4583
(dp4584
g62
(dp4585
sg71
g3125
sg64
(lp4586
g57
(g78
g59
NtRp4587
(dp4588
g62
(dp4589
g82
g83
ssg71
g4583
sg64
(lp4590
S'title'
p4591
asbag57
(g78
g59
NtRp4592
(dp4593
g62
(dp4594
g89
g90
ssg71
g4583
sg64
(lp4595
S':'
asbag57
(g78
g59
NtRp4596
(dp4597
g62
(dp4598
sg71
g4583
sg64
(lp4599
g57
(g58
g59
NtRp4600
(dp4601
g62
(dp4602
g70
I5
ssg71
g4596
sg64
(lp4603
S'Gordian Knot'
p4604
asbasbasbag57
(g73
g59
NtRp4605
(dp4606
g62
(dp4607
sg71
g3125
sg64
(lp4608
g57
(g78
g59
NtRp4609
(dp4610
g62
(dp4611
g82
g83
ssg71
g4605
sg64
(lp4612
g2353
asbag57
(g78
g59
NtRp4613
(dp4614
g62
(dp4615
g89
g90
ssg71
g4605
sg64
(lp4616
S':'
asbag57
(g78
g59
NtRp4617
(dp4618
g62
(dp4619
sg71
g4605
sg64
(lp4620
g57
(g58
g59
NtRp4621
(dp4622
g62
(dp4623
g70
I5
ssg71
g4617
sg64
(lp4624
g2366
asbasbasbag57
(g73
g59
NtRp4625
(dp4626
g62
(dp4627
sg71
g3125
sg64
(lp4628
g57
(g78
g59
NtRp4629
(dp4630
g62
(dp4631
g82
g83
ssg71
g4625
sg64
(lp4632
S'view'
p4633
asbag57
(g78
g59
NtRp4634
(dp4635
g62
(dp4636
g89
g90
ssg71
g4625
sg64
(lp4637
S':'
asbag57
(g78
g59
NtRp4638
(dp4639
g62
(dp4640
sg71
g4625
sg64
(lp4641
g57
(g58
g59
NtRp4642
(dp4643
g62
(dp4644
g70
I5
ssg71
g4638
sg64
(lp4645
S'default/question.html'
p4646
asbasbasbasbasbsS'locals'
p4647
(dp4648
S'no'
p4649
S'1'
sssS'traceback'
p4650
S'Traceback (most recent call last):\n  File "/usr/lib/pymodules/python2.7/gluon/restricted.py", line 204, in restricted\n    exec ccode in environment\n  File "/home/ds-iiit/web2py/applications/Gordian_Knot/controllers/default.py", line 122, in <module>\n  File "/usr/lib/pymodules/python2.7/gluon/globals.py", line 172, in <lambda>\n    self._caller = lambda f: f()\n  File "/home/ds-iiit/web2py/applications/Gordian_Knot/controllers/default.py", line 27, in question\n    if db((db.Level.Level == no) & (db.Level.User == auth.user.id)) is not None or no == 0:\nAttributeError: \'NoneType\' object has no attribute \'id\'\n'
p4651
s.