(dp1
S'output'
p2
S"<type 'exceptions.UnboundLocalError'> local variable 'qno' referenced before assignment"
p3
sS'layer'
p4
S'/home/ds-iiit/web2py/applications/Gordian_Knot/controllers/default.py'
p5
sS'code'
p6
S'# -*- coding: utf-8 -*-\n# this file is released under public domain and you can use without limitations\n\n#########################################################################\n## This is a samples controller\n## - index is the default action of any application\n## - user is required for authentication and authorization\n## - download is for downloading files uploaded in the db (does streaming)\n## - call exposes all registered services (none by default)\n#########################################################################\n@auth.requires_login()\ndef addquestion():\n\tif auth.user_id != 1:\n\t\treturn dict(form="No Donut for you!")\n\tform = crud.create(\'Trivia\')\n\treturn dict(form=form)\n\n@auth.requires_login()\ndef updatequestion():\n\tif auth.user_id != 1:\n\t\treturn dict(form="No Donut for you!")\n\tno = int(request.args(0))\n\tform = crud.update(\'Trivia\',no)\n\treturn dict(form=form)\n\n@auth.requires_login()\ndef ranklist():\n\tx = db(db.auth_user.id > 0).select(orderby = Points)\n\treturn dict(x=x)\n\n@auth.requires_login()\ndef solved():\n\tx = db((db.Done.User == auth.user_id) & (db.Done.Question == db.Trivia.id)).select(orderby=db.Done.Question)\n\treturn dict(x=x)\n\n@auth.requires_login()\ndef question():\n\tno=request.args(0)\n\tno = int(no)\n\tif auth.user_id == None:\n\t\tredirect(URL(\'landing\'))\n\tif len(db((db.Level.Level == no) & (db.Level.User == auth.user_id)).select()) != 0 or no == 0:\n\t\tquestions = []\n\t\tx = db((db.Trivia.Level == no) & ((db.Done.User == auth.user_id) & (db.Done.Question == db.Trivia.id))).select(db.Trivia.ALL)\n\t\ty = db(db.Trivia.Level == no).select()\n\t\tfor i in y:\n\t\t\tif i not in x:\n\t\t\t\tquestions.append(i)\n\t\treturn dict(questions = questions)\n\telse:\n\t\tsession.flash = "You are yet to reach that level yet!"\n\t\tredirect(URL(\'landing\'))\n\n@auth.requires_login()\ndef think():\n\t#Perform validation here\n\tno = int(request.vars.qno)\n\tif len(db((db.Level.Level == db.Trivia.Level) & (db.Trivia.id == no) & (db.Level.User == auth.user_id)).select()) > 0 or len(db((db.Trivia.id == no) & (db.Trivia.Level == 0)).select()) > 0:\n\t\tx = db(db.Trivia.id == no).select()\n\telse:\n\t\tx = []\n\t\tsession.flash = "No Donot for you kiddo!"\n\t\tredirect(URL(\'landing\'))\n\treturn dict(x=x)\n\n@auth.requires_login()\ndef landing():\n\ty = db(db.Level.User == auth.user_id).select(distinct=True)\n\treturn dict(y=y)\n\n@auth.requires_login()\ndef checkans():\n\ttry:\n\t\tans = int(request.vars.ans)\n\t\tqno = int(request.vars.Qno)\n\texcept:\n\t\tsession.flash = \'Invalid answer. Please enter a positive integer\'\n\t\tredirect(URL(\'think\',args=qno))\n\tx = db((db.Trivia.id == qno) & (db.Trivia.Answer == ans)).select()\n\tif  len(x) == 0:\n\t\tz = db(db.Level.User == auth.user_id).select(distinct=True)\n\t\tresponse.flash = "I think you can do it!"\n\t\treturn dict(z=z,done=False)\n\telse:\n\t\tdb.Done.insert(User=auth.user.id,Question=qno)\n\t\ty = db((db.Done.User == auth.user.id)).select()\n\t\tif len(y) >= 2:\n\t\t\tresponse.flash = "Congratulations, Level 1 unlocked!"\n\t\t\tdb.Level.insert(User=auth.user_id,Level=1)\n\t\telif len(y) >= 5:\n\t\t\tresponse.flash = "Congratulations, Level 2 unlocked!"\n\t\t\tdb.Level.insert(User=auth.user_id,Level=2)\n\t\telif len(y) >= 10:\n\t\t\tresponse.flash = "Congratulations, Level 3 unlocked!"\n\t\t\tdb.Level.insert(User=auth.user_id,Level=3)\n\t\telif len(y) >= 15:\n\t\t\tresponse.flash = "Congratulations, Level 4 unlocked!"\n\t\t\tdb.Level.insert(User=auth.user_id,Level=4)\t\t\t\n\t\t\tz = db(db.Level.User == auth.user_id).select(distinct=True)\n\t\treturn dict(z=z,done=True)\n\ndef index():\n    """\n    example action using the internationalization operator T and flash\n    rendered by views/default/index.html or views/generic.html\n    """\n    response.flash = "Cut the Gordian Knot!"\n    return dict(message=T(\'What is Gordian Knot?\'))\n\ndef user():\n    """\n    exposes:\n    http://..../[app]/default/user/login\n    http://..../[app]/default/user/logout\n    http://..../[app]/default/user/register\n    http://..../[app]/default/user/profile\n    http://..../[app]/default/user/retrieve_password\n    http://..../[app]/default/user/change_password\n    use @auth.requires_login()\n        @auth.requires_membership(\'group name\')\n        @auth.requires_permission(\'read\',\'table name\',record_id)\n    to decorate functions that need access control\n    """\n    return dict(form=auth())\n\n\ndef download():\n    """\n    allows downloading of uploaded files\n    http://..../[app]/default/download/[filename]\n    """\n    return response.download(request,db)\n\n\ndef call():\n    """\n    exposes services. for example:\n    http://..../[app]/default/call/jsonrpc\n    decorate with @services.jsonrpc the functions to expose\n    supports xml, json, xmlrpc, jsonrpc, amfrpc, rss, csv\n    """\n    return service()\n\n\n@auth.requires_signature()\ndef data():\n    """\n    http://..../[app]/default/data/tables\n    http://..../[app]/default/data/create/[table]\n    http://..../[app]/default/data/read/[table]/[id]\n    http://..../[app]/default/data/update/[table]/[id]\n    http://..../[app]/default/data/delete/[table]/[id]\n    http://..../[app]/default/data/select/[table]\n    http://..../[app]/default/data/search/[table]\n    but URLs must be signed, i.e. linked with\n      A(\'table\',_href=URL(\'data/tables\',user_signature=True))\n    or with the signed load operator\n      LOAD(\'default\',\'data.load\',args=\'tables\',ajax=True,user_signature=True)\n    """\n    return dict(form=crud())\n\n\nresponse._vars=response._caller(checkans)\n'
p7
sS'snapshot'
p8
(dp9
S'exception'
p10
(dp11
S'__hash__'
p12
S"<method-wrapper '__hash__' of exceptions.UnboundLocalError object>"
p13
sS'__setattr__'
p14
S"<method-wrapper '__setattr__' of exceptions.UnboundLocalError object>"
p15
sS'__reduce_ex__'
p16
S'<built-in method __reduce_ex__ of exceptions.UnboundLocalError object>'
p17
sS'__getslice__'
p18
S"<method-wrapper '__getslice__' of exceptions.UnboundLocalError object>"
p19
sS'__getitem__'
p20
S"<method-wrapper '__getitem__' of exceptions.UnboundLocalError object>"
p21
sS'__setstate__'
p22
S'<built-in method __setstate__ of exceptions.UnboundLocalError object>'
p23
sS'args'
p24
S'("local variable \'qno\' referenced before assignment",)'
p25
sS'__reduce__'
p26
S'<built-in method __reduce__ of exceptions.UnboundLocalError object>'
p27
sS'__str__'
p28
S"<method-wrapper '__str__' of exceptions.UnboundLocalError object>"
p29
sS'__format__'
p30
S'<built-in method __format__ of exceptions.UnboundLocalError object>'
p31
sS'__getattribute__'
p32
S"<method-wrapper '__getattribute__' of exceptions.UnboundLocalError object>"
p33
sS'__class__'
p34
S"<type 'exceptions.UnboundLocalError'>"
p35
sS'__unicode__'
p36
S'<built-in method __unicode__ of exceptions.UnboundLocalError object>'
p37
sS'__delattr__'
p38
S"<method-wrapper '__delattr__' of exceptions.UnboundLocalError object>"
p39
sS'__subclasshook__'
p40
S'<built-in method __subclasshook__ of type object>'
p41
sS'__repr__'
p42
S"<method-wrapper '__repr__' of exceptions.UnboundLocalError object>"
p43
sS'__dict__'
p44
S'{}'
p45
sS'__sizeof__'
p46
S'<built-in method __sizeof__ of exceptions.UnboundLocalError object>'
p47
sS'__doc__'
p48
S"'Local name referenced but not bound to a value.'"
p49
sS'__init__'
p50
S"<method-wrapper '__init__' of exceptions.UnboundLocalError object>"
p51
sS'__new__'
p52
S'<built-in method __new__ of type object>'
p53
ssS'evalue'
p54
S"local variable 'qno' referenced before assignment"
p55
sS'request'
p56
ccopy_reg
_reconstructor
p57
(cgluon.html
BEAUTIFY
p58
c__builtin__
object
p59
NtRp60
(dp61
S'attributes'
p62
(dp63
sS'components'
p64
(lp65
g57
(cgluon.html
TABLE
p66
g59
NtRp67
(dp68
g62
(dp69
S'level'
p70
I5
ssS'parent'
p71
Nsg64
(lp72
g57
(cgluon.html
TR
p73
g59
NtRp74
(dp75
g62
(dp76
sg71
g67
sg64
(lp77
g57
(cgluon.html
TD
p78
g59
NtRp79
(dp80
g62
(dp81
S'_style'
p82
S'font-weight:bold;vertical-align:top'
p83
ssg71
g74
sg64
(lp84
S'ajax'
p85
asbag57
(g78
g59
NtRp86
(dp87
g62
(dp88
S'_valign'
p89
S'top'
p90
ssg71
g74
sg64
(lp91
S':'
asbag57
(g78
g59
NtRp92
(dp93
g62
(dp94
sg71
g74
sg64
(lp95
g57
(g58
g59
NtRp96
(dp97
g62
(dp98
g70
I5
ssg71
g92
sg64
(lp99
S'False'
p100
asbasbasbag57
(g73
g59
NtRp101
(dp102
g62
(dp103
sg71
g67
sg64
(lp104
g57
(g78
g59
NtRp105
(dp106
g62
(dp107
g82
g83
ssg71
g101
sg64
(lp108
S'application'
p109
asbag57
(g78
g59
NtRp110
(dp111
g62
(dp112
g89
g90
ssg71
g101
sg64
(lp113
S':'
asbag57
(g78
g59
NtRp114
(dp115
g62
(dp116
sg71
g101
sg64
(lp117
g57
(g58
g59
NtRp118
(dp119
g62
(dp120
g70
I5
ssg71
g114
sg64
(lp121
S'Gordian_Knot'
p122
asbasbasbag57
(g73
g59
NtRp123
(dp124
g62
(dp125
sg71
g67
sg64
(lp126
g57
(g78
g59
NtRp127
(dp128
g62
(dp129
g82
g83
ssg71
g123
sg64
(lp130
g24
asbag57
(g78
g59
NtRp131
(dp132
g62
(dp133
g89
g90
ssg71
g123
sg64
(lp134
S':'
asbag57
(g78
g59
NtRp135
(dp136
g62
(dp137
sg71
g123
sg64
(lp138
g57
(g58
g59
NtRp139
(dp140
g62
(dp141
g70
I5
ssg71
g135
sg64
(lp142
g57
(g66
g59
NtRp143
(dp144
g62
(dp145
g70
I4
ssg71
Nsg64
(lp146
sbasbasbasbag57
(g73
g59
NtRp147
(dp148
g62
(dp149
sg71
g67
sg64
(lp150
g57
(g78
g59
NtRp151
(dp152
g62
(dp153
g82
g83
ssg71
g147
sg64
(lp154
S'body'
p155
asbag57
(g78
g59
NtRp156
(dp157
g62
(dp158
g89
g90
ssg71
g147
sg64
(lp159
S':'
asbag57
(g78
g59
NtRp160
(dp161
g62
(dp162
sg71
g147
sg64
(lp163
g57
(g58
g59
NtRp164
(dp165
g62
(dp166
g70
I5
ssg71
g160
sg64
(lp167
S"<open file '<fdopen>', mode 'w+b' at 0x7f0d94274db0>"
p168
asbasbasbag57
(g73
g59
NtRp169
(dp170
g62
(dp171
sg71
g67
sg64
(lp172
g57
(g78
g59
NtRp173
(dp174
g62
(dp175
g82
g83
ssg71
g169
sg64
(lp176
S'client'
p177
asbag57
(g78
g59
NtRp178
(dp179
g62
(dp180
g89
g90
ssg71
g169
sg64
(lp181
S':'
asbag57
(g78
g59
NtRp182
(dp183
g62
(dp184
sg71
g169
sg64
(lp185
g57
(g58
g59
NtRp186
(dp187
g62
(dp188
g70
I5
ssg71
g182
sg64
(lp189
S'127.0.0.1'
p190
asbasbasbag57
(g73
g59
NtRp191
(dp192
g62
(dp193
sg71
g67
sg64
(lp194
g57
(g78
g59
NtRp195
(dp196
g62
(dp197
g82
g83
ssg71
g191
sg64
(lp198
S'controller'
p199
asbag57
(g78
g59
NtRp200
(dp201
g62
(dp202
g89
g90
ssg71
g191
sg64
(lp203
S':'
asbag57
(g78
g59
NtRp204
(dp205
g62
(dp206
sg71
g191
sg64
(lp207
g57
(g58
g59
NtRp208
(dp209
g62
(dp210
g70
I5
ssg71
g204
sg64
(lp211
S'default'
p212
asbasbasbag57
(g73
g59
NtRp213
(dp214
g62
(dp215
sg71
g67
sg64
(lp216
g57
(g78
g59
NtRp217
(dp218
g62
(dp219
g82
g83
ssg71
g213
sg64
(lp220
S'cookies'
p221
asbag57
(g78
g59
NtRp222
(dp223
g62
(dp224
g89
g90
ssg71
g213
sg64
(lp225
S':'
asbag57
(g78
g59
NtRp226
(dp227
g62
(dp228
sg71
g213
sg64
(lp229
g57
(g58
g59
NtRp230
(dp231
g62
(dp232
g70
I5
ssg71
g226
sg64
(lp233
g57
(g66
g59
NtRp234
(dp235
g62
(dp236
g70
I4
ssg71
Nsg64
(lp237
g57
(g73
g59
NtRp238
(dp239
g62
(dp240
sg71
g234
sg64
(lp241
g57
(g78
g59
NtRp242
(dp243
g62
(dp244
g82
g83
ssg71
g238
sg64
(lp245
S'session_id_admin'
p246
asbag57
(g78
g59
NtRp247
(dp248
g62
(dp249
g89
g90
ssg71
g238
sg64
(lp250
S':'
asbag57
(g78
g59
NtRp251
(dp252
g62
(dp253
sg71
g238
sg64
(lp254
g57
(g58
g59
NtRp255
(dp256
g62
(dp257
g70
I4
ssg71
g251
sg64
(lp258
g57
(g66
g59
NtRp259
(dp260
g62
(dp261
g70
I3
ssg71
Nsg64
(lp262
g57
(g73
g59
NtRp263
(dp264
g62
(dp265
sg71
g259
sg64
(lp266
g57
(g78
g59
NtRp267
(dp268
g62
(dp269
g82
g83
ssg71
g263
sg64
(lp270
S'comment'
p271
asbag57
(g78
g59
NtRp272
(dp273
g62
(dp274
g89
g90
ssg71
g263
sg64
(lp275
S':'
asbag57
(g78
g59
NtRp276
(dp277
g62
(dp278
sg71
g263
sg64
(lp279
g57
(g58
g59
NtRp280
(dp281
g62
(dp282
g70
I3
ssg71
g276
sg64
(lp283
S''
asbasbasbag57
(g73
g59
NtRp284
(dp285
g62
(dp286
sg71
g259
sg64
(lp287
g57
(g78
g59
NtRp288
(dp289
g62
(dp290
g82
g83
ssg71
g284
sg64
(lp291
S'domain'
p292
asbag57
(g78
g59
NtRp293
(dp294
g62
(dp295
g89
g90
ssg71
g284
sg64
(lp296
S':'
asbag57
(g78
g59
NtRp297
(dp298
g62
(dp299
sg71
g284
sg64
(lp300
g57
(g58
g59
NtRp301
(dp302
g62
(dp303
g70
I3
ssg71
g297
sg64
(lp304
S''
asbasbasbag57
(g73
g59
NtRp305
(dp306
g62
(dp307
sg71
g259
sg64
(lp308
g57
(g78
g59
NtRp309
(dp310
g62
(dp311
g82
g83
ssg71
g305
sg64
(lp312
S'expires'
p313
asbag57
(g78
g59
NtRp314
(dp315
g62
(dp316
g89
g90
ssg71
g305
sg64
(lp317
S':'
asbag57
(g78
g59
NtRp318
(dp319
g62
(dp320
sg71
g305
sg64
(lp321
g57
(g58
g59
NtRp322
(dp323
g62
(dp324
g70
I3
ssg71
g318
sg64
(lp325
S''
asbasbasbag57
(g73
g59
NtRp326
(dp327
g62
(dp328
sg71
g259
sg64
(lp329
g57
(g78
g59
NtRp330
(dp331
g62
(dp332
g82
g83
ssg71
g326
sg64
(lp333
S'httponly'
p334
asbag57
(g78
g59
NtRp335
(dp336
g62
(dp337
g89
g90
ssg71
g326
sg64
(lp338
S':'
asbag57
(g78
g59
NtRp339
(dp340
g62
(dp341
sg71
g326
sg64
(lp342
g57
(g58
g59
NtRp343
(dp344
g62
(dp345
g70
I3
ssg71
g339
sg64
(lp346
S''
asbasbasbag57
(g73
g59
NtRp347
(dp348
g62
(dp349
sg71
g259
sg64
(lp350
g57
(g78
g59
NtRp351
(dp352
g62
(dp353
g82
g83
ssg71
g347
sg64
(lp354
S'max-age'
p355
asbag57
(g78
g59
NtRp356
(dp357
g62
(dp358
g89
g90
ssg71
g347
sg64
(lp359
S':'
asbag57
(g78
g59
NtRp360
(dp361
g62
(dp362
sg71
g347
sg64
(lp363
g57
(g58
g59
NtRp364
(dp365
g62
(dp366
g70
I3
ssg71
g360
sg64
(lp367
S''
asbasbasbag57
(g73
g59
NtRp368
(dp369
g62
(dp370
sg71
g259
sg64
(lp371
g57
(g78
g59
NtRp372
(dp373
g62
(dp374
g82
g83
ssg71
g368
sg64
(lp375
S'path'
p376
asbag57
(g78
g59
NtRp377
(dp378
g62
(dp379
g89
g90
ssg71
g368
sg64
(lp380
S':'
asbag57
(g78
g59
NtRp381
(dp382
g62
(dp383
sg71
g368
sg64
(lp384
g57
(g58
g59
NtRp385
(dp386
g62
(dp387
g70
I3
ssg71
g381
sg64
(lp388
S''
asbasbasbag57
(g73
g59
NtRp389
(dp390
g62
(dp391
sg71
g259
sg64
(lp392
g57
(g78
g59
NtRp393
(dp394
g62
(dp395
g82
g83
ssg71
g389
sg64
(lp396
S'secure'
p397
asbag57
(g78
g59
NtRp398
(dp399
g62
(dp400
g89
g90
ssg71
g389
sg64
(lp401
S':'
asbag57
(g78
g59
NtRp402
(dp403
g62
(dp404
sg71
g389
sg64
(lp405
g57
(g58
g59
NtRp406
(dp407
g62
(dp408
g70
I3
ssg71
g402
sg64
(lp409
S''
asbasbasbag57
(g73
g59
NtRp410
(dp411
g62
(dp412
sg71
g259
sg64
(lp413
g57
(g78
g59
NtRp414
(dp415
g62
(dp416
g82
g83
ssg71
g410
sg64
(lp417
S'version'
p418
asbag57
(g78
g59
NtRp419
(dp420
g62
(dp421
g89
g90
ssg71
g410
sg64
(lp422
S':'
asbag57
(g78
g59
NtRp423
(dp424
g62
(dp425
sg71
g410
sg64
(lp426
g57
(g58
g59
NtRp427
(dp428
g62
(dp429
g70
I3
ssg71
g423
sg64
(lp430
S''
asbasbasbasbasbasbasbag57
(g73
g59
NtRp431
(dp432
g62
(dp433
sg71
g234
sg64
(lp434
g57
(g78
g59
NtRp435
(dp436
g62
(dp437
g82
g83
ssg71
g431
sg64
(lp438
S'session_id_gordian_knot'
p439
asbag57
(g78
g59
NtRp440
(dp441
g62
(dp442
g89
g90
ssg71
g431
sg64
(lp443
S':'
asbag57
(g78
g59
NtRp444
(dp445
g62
(dp446
sg71
g431
sg64
(lp447
g57
(g58
g59
NtRp448
(dp449
g62
(dp450
g70
I4
ssg71
g444
sg64
(lp451
g57
(g66
g59
NtRp452
(dp453
g62
(dp454
g70
I3
ssg71
Nsg64
(lp455
g57
(g73
g59
NtRp456
(dp457
g62
(dp458
sg71
g452
sg64
(lp459
g57
(g78
g59
NtRp460
(dp461
g62
(dp462
g82
g83
ssg71
g456
sg64
(lp463
g271
asbag57
(g78
g59
NtRp464
(dp465
g62
(dp466
g89
g90
ssg71
g456
sg64
(lp467
S':'
asbag57
(g78
g59
NtRp468
(dp469
g62
(dp470
sg71
g456
sg64
(lp471
g57
(g58
g59
NtRp472
(dp473
g62
(dp474
g70
I3
ssg71
g468
sg64
(lp475
S''
asbasbasbag57
(g73
g59
NtRp476
(dp477
g62
(dp478
sg71
g452
sg64
(lp479
g57
(g78
g59
NtRp480
(dp481
g62
(dp482
g82
g83
ssg71
g476
sg64
(lp483
g292
asbag57
(g78
g59
NtRp484
(dp485
g62
(dp486
g89
g90
ssg71
g476
sg64
(lp487
S':'
asbag57
(g78
g59
NtRp488
(dp489
g62
(dp490
sg71
g476
sg64
(lp491
g57
(g58
g59
NtRp492
(dp493
g62
(dp494
g70
I3
ssg71
g488
sg64
(lp495
S''
asbasbasbag57
(g73
g59
NtRp496
(dp497
g62
(dp498
sg71
g452
sg64
(lp499
g57
(g78
g59
NtRp500
(dp501
g62
(dp502
g82
g83
ssg71
g496
sg64
(lp503
g313
asbag57
(g78
g59
NtRp504
(dp505
g62
(dp506
g89
g90
ssg71
g496
sg64
(lp507
S':'
asbag57
(g78
g59
NtRp508
(dp509
g62
(dp510
sg71
g496
sg64
(lp511
g57
(g58
g59
NtRp512
(dp513
g62
(dp514
g70
I3
ssg71
g508
sg64
(lp515
S''
asbasbasbag57
(g73
g59
NtRp516
(dp517
g62
(dp518
sg71
g452
sg64
(lp519
g57
(g78
g59
NtRp520
(dp521
g62
(dp522
g82
g83
ssg71
g516
sg64
(lp523
g334
asbag57
(g78
g59
NtRp524
(dp525
g62
(dp526
g89
g90
ssg71
g516
sg64
(lp527
S':'
asbag57
(g78
g59
NtRp528
(dp529
g62
(dp530
sg71
g516
sg64
(lp531
g57
(g58
g59
NtRp532
(dp533
g62
(dp534
g70
I3
ssg71
g528
sg64
(lp535
S''
asbasbasbag57
(g73
g59
NtRp536
(dp537
g62
(dp538
sg71
g452
sg64
(lp539
g57
(g78
g59
NtRp540
(dp541
g62
(dp542
g82
g83
ssg71
g536
sg64
(lp543
g355
asbag57
(g78
g59
NtRp544
(dp545
g62
(dp546
g89
g90
ssg71
g536
sg64
(lp547
S':'
asbag57
(g78
g59
NtRp548
(dp549
g62
(dp550
sg71
g536
sg64
(lp551
g57
(g58
g59
NtRp552
(dp553
g62
(dp554
g70
I3
ssg71
g548
sg64
(lp555
S''
asbasbasbag57
(g73
g59
NtRp556
(dp557
g62
(dp558
sg71
g452
sg64
(lp559
g57
(g78
g59
NtRp560
(dp561
g62
(dp562
g82
g83
ssg71
g556
sg64
(lp563
g376
asbag57
(g78
g59
NtRp564
(dp565
g62
(dp566
g89
g90
ssg71
g556
sg64
(lp567
S':'
asbag57
(g78
g59
NtRp568
(dp569
g62
(dp570
sg71
g556
sg64
(lp571
g57
(g58
g59
NtRp572
(dp573
g62
(dp574
g70
I3
ssg71
g568
sg64
(lp575
S''
asbasbasbag57
(g73
g59
NtRp576
(dp577
g62
(dp578
sg71
g452
sg64
(lp579
g57
(g78
g59
NtRp580
(dp581
g62
(dp582
g82
g83
ssg71
g576
sg64
(lp583
g397
asbag57
(g78
g59
NtRp584
(dp585
g62
(dp586
g89
g90
ssg71
g576
sg64
(lp587
S':'
asbag57
(g78
g59
NtRp588
(dp589
g62
(dp590
sg71
g576
sg64
(lp591
g57
(g58
g59
NtRp592
(dp593
g62
(dp594
g70
I3
ssg71
g588
sg64
(lp595
S''
asbasbasbag57
(g73
g59
NtRp596
(dp597
g62
(dp598
sg71
g452
sg64
(lp599
g57
(g78
g59
NtRp600
(dp601
g62
(dp602
g82
g83
ssg71
g596
sg64
(lp603
g418
asbag57
(g78
g59
NtRp604
(dp605
g62
(dp606
g89
g90
ssg71
g596
sg64
(lp607
S':'
asbag57
(g78
g59
NtRp608
(dp609
g62
(dp610
sg71
g596
sg64
(lp611
g57
(g58
g59
NtRp612
(dp613
g62
(dp614
g70
I3
ssg71
g608
sg64
(lp615
S''
asbasbasbasbasbasbasbag57
(g73
g59
NtRp616
(dp617
g62
(dp618
sg71
g234
sg64
(lp619
g57
(g78
g59
NtRp620
(dp621
g62
(dp622
g82
g83
ssg71
g616
sg64
(lp623
S'session_id_welcome'
p624
asbag57
(g78
g59
NtRp625
(dp626
g62
(dp627
g89
g90
ssg71
g616
sg64
(lp628
S':'
asbag57
(g78
g59
NtRp629
(dp630
g62
(dp631
sg71
g616
sg64
(lp632
g57
(g58
g59
NtRp633
(dp634
g62
(dp635
g70
I4
ssg71
g629
sg64
(lp636
g57
(g66
g59
NtRp637
(dp638
g62
(dp639
g70
I3
ssg71
Nsg64
(lp640
g57
(g73
g59
NtRp641
(dp642
g62
(dp643
sg71
g637
sg64
(lp644
g57
(g78
g59
NtRp645
(dp646
g62
(dp647
g82
g83
ssg71
g641
sg64
(lp648
g271
asbag57
(g78
g59
NtRp649
(dp650
g62
(dp651
g89
g90
ssg71
g641
sg64
(lp652
S':'
asbag57
(g78
g59
NtRp653
(dp654
g62
(dp655
sg71
g641
sg64
(lp656
g57
(g58
g59
NtRp657
(dp658
g62
(dp659
g70
I3
ssg71
g653
sg64
(lp660
S''
asbasbasbag57
(g73
g59
NtRp661
(dp662
g62
(dp663
sg71
g637
sg64
(lp664
g57
(g78
g59
NtRp665
(dp666
g62
(dp667
g82
g83
ssg71
g661
sg64
(lp668
g292
asbag57
(g78
g59
NtRp669
(dp670
g62
(dp671
g89
g90
ssg71
g661
sg64
(lp672
S':'
asbag57
(g78
g59
NtRp673
(dp674
g62
(dp675
sg71
g661
sg64
(lp676
g57
(g58
g59
NtRp677
(dp678
g62
(dp679
g70
I3
ssg71
g673
sg64
(lp680
S''
asbasbasbag57
(g73
g59
NtRp681
(dp682
g62
(dp683
sg71
g637
sg64
(lp684
g57
(g78
g59
NtRp685
(dp686
g62
(dp687
g82
g83
ssg71
g681
sg64
(lp688
g313
asbag57
(g78
g59
NtRp689
(dp690
g62
(dp691
g89
g90
ssg71
g681
sg64
(lp692
S':'
asbag57
(g78
g59
NtRp693
(dp694
g62
(dp695
sg71
g681
sg64
(lp696
g57
(g58
g59
NtRp697
(dp698
g62
(dp699
g70
I3
ssg71
g693
sg64
(lp700
S''
asbasbasbag57
(g73
g59
NtRp701
(dp702
g62
(dp703
sg71
g637
sg64
(lp704
g57
(g78
g59
NtRp705
(dp706
g62
(dp707
g82
g83
ssg71
g701
sg64
(lp708
g334
asbag57
(g78
g59
NtRp709
(dp710
g62
(dp711
g89
g90
ssg71
g701
sg64
(lp712
S':'
asbag57
(g78
g59
NtRp713
(dp714
g62
(dp715
sg71
g701
sg64
(lp716
g57
(g58
g59
NtRp717
(dp718
g62
(dp719
g70
I3
ssg71
g713
sg64
(lp720
S''
asbasbasbag57
(g73
g59
NtRp721
(dp722
g62
(dp723
sg71
g637
sg64
(lp724
g57
(g78
g59
NtRp725
(dp726
g62
(dp727
g82
g83
ssg71
g721
sg64
(lp728
g355
asbag57
(g78
g59
NtRp729
(dp730
g62
(dp731
g89
g90
ssg71
g721
sg64
(lp732
S':'
asbag57
(g78
g59
NtRp733
(dp734
g62
(dp735
sg71
g721
sg64
(lp736
g57
(g58
g59
NtRp737
(dp738
g62
(dp739
g70
I3
ssg71
g733
sg64
(lp740
S''
asbasbasbag57
(g73
g59
NtRp741
(dp742
g62
(dp743
sg71
g637
sg64
(lp744
g57
(g78
g59
NtRp745
(dp746
g62
(dp747
g82
g83
ssg71
g741
sg64
(lp748
g376
asbag57
(g78
g59
NtRp749
(dp750
g62
(dp751
g89
g90
ssg71
g741
sg64
(lp752
S':'
asbag57
(g78
g59
NtRp753
(dp754
g62
(dp755
sg71
g741
sg64
(lp756
g57
(g58
g59
NtRp757
(dp758
g62
(dp759
g70
I3
ssg71
g753
sg64
(lp760
S''
asbasbasbag57
(g73
g59
NtRp761
(dp762
g62
(dp763
sg71
g637
sg64
(lp764
g57
(g78
g59
NtRp765
(dp766
g62
(dp767
g82
g83
ssg71
g761
sg64
(lp768
g397
asbag57
(g78
g59
NtRp769
(dp770
g62
(dp771
g89
g90
ssg71
g761
sg64
(lp772
S':'
asbag57
(g78
g59
NtRp773
(dp774
g62
(dp775
sg71
g761
sg64
(lp776
g57
(g58
g59
NtRp777
(dp778
g62
(dp779
g70
I3
ssg71
g773
sg64
(lp780
S''
asbasbasbag57
(g73
g59
NtRp781
(dp782
g62
(dp783
sg71
g637
sg64
(lp784
g57
(g78
g59
NtRp785
(dp786
g62
(dp787
g82
g83
ssg71
g781
sg64
(lp788
g418
asbag57
(g78
g59
NtRp789
(dp790
g62
(dp791
g89
g90
ssg71
g781
sg64
(lp792
S':'
asbag57
(g78
g59
NtRp793
(dp794
g62
(dp795
sg71
g781
sg64
(lp796
g57
(g58
g59
NtRp797
(dp798
g62
(dp799
g70
I3
ssg71
g793
sg64
(lp800
S''
asbasbasbasbasbasbasbasbasbasbasbag57
(g73
g59
NtRp801
(dp802
g62
(dp803
sg71
g67
sg64
(lp804
g57
(g78
g59
NtRp805
(dp806
g62
(dp807
g82
g83
ssg71
g801
sg64
(lp808
S'env'
p809
asbag57
(g78
g59
NtRp810
(dp811
g62
(dp812
g89
g90
ssg71
g801
sg64
(lp813
S':'
asbag57
(g78
g59
NtRp814
(dp815
g62
(dp816
sg71
g801
sg64
(lp817
g57
(g58
g59
NtRp818
(dp819
g62
(dp820
g70
I5
ssg71
g814
sg64
(lp821
g57
(g66
g59
NtRp822
(dp823
g62
(dp824
g70
I4
ssg71
Nsg64
(lp825
g57
(g73
g59
NtRp826
(dp827
g62
(dp828
sg71
g822
sg64
(lp829
g57
(g78
g59
NtRp830
(dp831
g62
(dp832
g82
g83
ssg71
g826
sg64
(lp833
S'app_folders'
p834
asbag57
(g78
g59
NtRp835
(dp836
g62
(dp837
g89
g90
ssg71
g826
sg64
(lp838
S':'
asbag57
(g78
g59
NtRp839
(dp840
g62
(dp841
sg71
g826
sg64
(lp842
g57
(g58
g59
NtRp843
(dp844
g62
(dp845
g70
I4
ssg71
g839
sg64
(lp846
S"set(['/home/ds-iiit/web2py/applications/Gordian_Knot/', '/home/ds-iiit/web2py/applications/welcome/', '/home/ds-iiit/web2py/applications/admin/'])"
p847
asbasbasbag57
(g73
g59
NtRp848
(dp849
g62
(dp850
sg71
g822
sg64
(lp851
g57
(g78
g59
NtRp852
(dp853
g62
(dp854
g82
g83
ssg71
g848
sg64
(lp855
S'applications_parent'
p856
asbag57
(g78
g59
NtRp857
(dp858
g62
(dp859
g89
g90
ssg71
g848
sg64
(lp860
S':'
asbag57
(g78
g59
NtRp861
(dp862
g62
(dp863
sg71
g848
sg64
(lp864
g57
(g58
g59
NtRp865
(dp866
g62
(dp867
g70
I4
ssg71
g861
sg64
(lp868
S'/home/ds-iiit/web2py'
p869
asbasbasbag57
(g73
g59
NtRp870
(dp871
g62
(dp872
sg71
g822
sg64
(lp873
g57
(g78
g59
NtRp874
(dp875
g62
(dp876
g82
g83
ssg71
g870
sg64
(lp877
S'cmd_args'
p878
asbag57
(g78
g59
NtRp879
(dp880
g62
(dp881
g89
g90
ssg71
g870
sg64
(lp882
S':'
asbag57
(g78
g59
NtRp883
(dp884
g62
(dp885
sg71
g870
sg64
(lp886
g57
(g58
g59
NtRp887
(dp888
g62
(dp889
g70
I4
ssg71
g883
sg64
(lp890
g57
(g66
g59
NtRp891
(dp892
g62
(dp893
g70
I3
ssg71
Nsg64
(lp894
sbasbasbasbag57
(g73
g59
NtRp895
(dp896
g62
(dp897
sg71
g822
sg64
(lp898
g57
(g78
g59
NtRp899
(dp900
g62
(dp901
g82
g83
ssg71
g895
sg64
(lp902
S'cmd_options'
p903
asbag57
(g78
g59
NtRp904
(dp905
g62
(dp906
g89
g90
ssg71
g895
sg64
(lp907
S':'
asbag57
(g78
g59
NtRp908
(dp909
g62
(dp910
sg71
g895
sg64
(lp911
g57
(g58
g59
NtRp912
(dp913
g62
(dp914
g70
I4
ssg71
g908
sg64
(lp915
S"<Values at 0x29bbdd0: {'verbose': False, 'ip': '127.0.0.1', 'shutdown_timeout': 5, 'taskbar': False, 'port': 8000, 'maxthreads': None, 'softcron': False, 'server_name': 'DS-IIIT', 'bpython': False, 'nogui': False, 'nocron': False, 'extcron': False, 'debuglevel': 30, 'test': None, 'folder': '/home/ds-iiit/web2py', 'config': '', 'import_models': False, 'winservice': '', 'shell': None, 'run': '', 'log_filename': 'httpserver.log', 'args': [''], 'socket_timeout': 1, 'profiler_filename': None, 'ssl_private_key': '', 'password': '<ask>', 'request_queue_size': 5, 'ssl_certificate': '', 'cronjob': False, 'plain': False, 'quiet': False, 'interfaces': None, 'minthreads': None, 'timeout': 10, 'numthreads': None, 'nobanner': False, 'pid_filename': 'httpserver.pid'}>"
p916
asbasbasbag57
(g73
g59
NtRp917
(dp918
g62
(dp919
sg71
g822
sg64
(lp920
g57
(g78
g59
NtRp921
(dp922
g62
(dp923
g82
g83
ssg71
g917
sg64
(lp924
S'content_length'
p925
asbag57
(g78
g59
NtRp926
(dp927
g62
(dp928
g89
g90
ssg71
g917
sg64
(lp929
S':'
asbag57
(g78
g59
NtRp930
(dp931
g62
(dp932
sg71
g917
sg64
(lp933
g57
(g58
g59
NtRp934
(dp935
g62
(dp936
g70
I4
ssg71
g930
sg64
(lp937
S'12'
p938
asbasbasbag57
(g73
g59
NtRp939
(dp940
g62
(dp941
sg71
g822
sg64
(lp942
g57
(g78
g59
NtRp943
(dp944
g62
(dp945
g82
g83
ssg71
g939
sg64
(lp946
S'content_type'
p947
asbag57
(g78
g59
NtRp948
(dp949
g62
(dp950
g89
g90
ssg71
g939
sg64
(lp951
S':'
asbag57
(g78
g59
NtRp952
(dp953
g62
(dp954
sg71
g939
sg64
(lp955
g57
(g58
g59
NtRp956
(dp957
g62
(dp958
g70
I4
ssg71
g952
sg64
(lp959
S'application/x-www-form-urlencoded'
p960
asbasbasbag57
(g73
g59
NtRp961
(dp962
g62
(dp963
sg71
g822
sg64
(lp964
g57
(g78
g59
NtRp965
(dp966
g62
(dp967
g82
g83
ssg71
g961
sg64
(lp968
S'db_sessions'
p969
asbag57
(g78
g59
NtRp970
(dp971
g62
(dp972
g89
g90
ssg71
g961
sg64
(lp973
S':'
asbag57
(g78
g59
NtRp974
(dp975
g62
(dp976
sg71
g961
sg64
(lp977
g57
(g58
g59
NtRp978
(dp979
g62
(dp980
g70
I4
ssg71
g974
sg64
(lp981
S'set([])'
p982
asbasbasbag57
(g73
g59
NtRp983
(dp984
g62
(dp985
sg71
g822
sg64
(lp986
g57
(g78
g59
NtRp987
(dp988
g62
(dp989
g82
g83
ssg71
g983
sg64
(lp990
S'debugging'
p991
asbag57
(g78
g59
NtRp992
(dp993
g62
(dp994
g89
g90
ssg71
g983
sg64
(lp995
S':'
asbag57
(g78
g59
NtRp996
(dp997
g62
(dp998
sg71
g983
sg64
(lp999
g57
(g58
g59
NtRp1000
(dp1001
g62
(dp1002
g70
I4
ssg71
g996
sg64
(lp1003
g100
asbasbasbag57
(g73
g59
NtRp1004
(dp1005
g62
(dp1006
sg71
g822
sg64
(lp1007
g57
(g78
g59
NtRp1008
(dp1009
g62
(dp1010
g82
g83
ssg71
g1004
sg64
(lp1011
S'gluon_parent'
p1012
asbag57
(g78
g59
NtRp1013
(dp1014
g62
(dp1015
g89
g90
ssg71
g1004
sg64
(lp1016
S':'
asbag57
(g78
g59
NtRp1017
(dp1018
g62
(dp1019
sg71
g1004
sg64
(lp1020
g57
(g58
g59
NtRp1021
(dp1022
g62
(dp1023
g70
I4
ssg71
g1017
sg64
(lp1024
S'/usr/share/web2py'
p1025
asbasbasbag57
(g73
g59
NtRp1026
(dp1027
g62
(dp1028
sg71
g822
sg64
(lp1029
g57
(g78
g59
NtRp1030
(dp1031
g62
(dp1032
g82
g83
ssg71
g1026
sg64
(lp1033
S'http_accept'
p1034
asbag57
(g78
g59
NtRp1035
(dp1036
g62
(dp1037
g89
g90
ssg71
g1026
sg64
(lp1038
S':'
asbag57
(g78
g59
NtRp1039
(dp1040
g62
(dp1041
sg71
g1026
sg64
(lp1042
g57
(g58
g59
NtRp1043
(dp1044
g62
(dp1045
g70
I4
ssg71
g1039
sg64
(lp1046
S'text/html,application/xhtml+xml,application/xml;q=0.9,*/*;q=0.8'
p1047
asbasbasbag57
(g73
g59
NtRp1048
(dp1049
g62
(dp1050
sg71
g822
sg64
(lp1051
g57
(g78
g59
NtRp1052
(dp1053
g62
(dp1054
g82
g83
ssg71
g1048
sg64
(lp1055
S'http_accept_encoding'
p1056
asbag57
(g78
g59
NtRp1057
(dp1058
g62
(dp1059
g89
g90
ssg71
g1048
sg64
(lp1060
S':'
asbag57
(g78
g59
NtRp1061
(dp1062
g62
(dp1063
sg71
g1048
sg64
(lp1064
g57
(g58
g59
NtRp1065
(dp1066
g62
(dp1067
g70
I4
ssg71
g1061
sg64
(lp1068
S'gzip,deflate,sdch'
p1069
asbasbasbag57
(g73
g59
NtRp1070
(dp1071
g62
(dp1072
sg71
g822
sg64
(lp1073
g57
(g78
g59
NtRp1074
(dp1075
g62
(dp1076
g82
g83
ssg71
g1070
sg64
(lp1077
S'http_accept_language'
p1078
asbag57
(g78
g59
NtRp1079
(dp1080
g62
(dp1081
g89
g90
ssg71
g1070
sg64
(lp1082
S':'
asbag57
(g78
g59
NtRp1083
(dp1084
g62
(dp1085
sg71
g1070
sg64
(lp1086
g57
(g58
g59
NtRp1087
(dp1088
g62
(dp1089
g70
I4
ssg71
g1083
sg64
(lp1090
S'en-US,en;q=0.8'
p1091
asbasbasbag57
(g73
g59
NtRp1092
(dp1093
g62
(dp1094
sg71
g822
sg64
(lp1095
g57
(g78
g59
NtRp1096
(dp1097
g62
(dp1098
g82
g83
ssg71
g1092
sg64
(lp1099
S'http_cache_control'
p1100
asbag57
(g78
g59
NtRp1101
(dp1102
g62
(dp1103
g89
g90
ssg71
g1092
sg64
(lp1104
S':'
asbag57
(g78
g59
NtRp1105
(dp1106
g62
(dp1107
sg71
g1092
sg64
(lp1108
g57
(g58
g59
NtRp1109
(dp1110
g62
(dp1111
g70
I4
ssg71
g1105
sg64
(lp1112
S'max-age=0'
p1113
asbasbasbag57
(g73
g59
NtRp1114
(dp1115
g62
(dp1116
sg71
g822
sg64
(lp1117
g57
(g78
g59
NtRp1118
(dp1119
g62
(dp1120
g82
g83
ssg71
g1114
sg64
(lp1121
S'http_connection'
p1122
asbag57
(g78
g59
NtRp1123
(dp1124
g62
(dp1125
g89
g90
ssg71
g1114
sg64
(lp1126
S':'
asbag57
(g78
g59
NtRp1127
(dp1128
g62
(dp1129
sg71
g1114
sg64
(lp1130
g57
(g58
g59
NtRp1131
(dp1132
g62
(dp1133
g70
I4
ssg71
g1127
sg64
(lp1134
S'keep-alive'
p1135
asbasbasbag57
(g73
g59
NtRp1136
(dp1137
g62
(dp1138
sg71
g822
sg64
(lp1139
g57
(g78
g59
NtRp1140
(dp1141
g62
(dp1142
g82
g83
ssg71
g1136
sg64
(lp1143
S'http_content_length'
p1144
asbag57
(g78
g59
NtRp1145
(dp1146
g62
(dp1147
g89
g90
ssg71
g1136
sg64
(lp1148
S':'
asbag57
(g78
g59
NtRp1149
(dp1150
g62
(dp1151
sg71
g1136
sg64
(lp1152
g57
(g58
g59
NtRp1153
(dp1154
g62
(dp1155
g70
I4
ssg71
g1149
sg64
(lp1156
g938
asbasbasbag57
(g73
g59
NtRp1157
(dp1158
g62
(dp1159
sg71
g822
sg64
(lp1160
g57
(g78
g59
NtRp1161
(dp1162
g62
(dp1163
g82
g83
ssg71
g1157
sg64
(lp1164
S'http_content_type'
p1165
asbag57
(g78
g59
NtRp1166
(dp1167
g62
(dp1168
g89
g90
ssg71
g1157
sg64
(lp1169
S':'
asbag57
(g78
g59
NtRp1170
(dp1171
g62
(dp1172
sg71
g1157
sg64
(lp1173
g57
(g58
g59
NtRp1174
(dp1175
g62
(dp1176
g70
I4
ssg71
g1170
sg64
(lp1177
g960
asbasbasbag57
(g73
g59
NtRp1178
(dp1179
g62
(dp1180
sg71
g822
sg64
(lp1181
g57
(g78
g59
NtRp1182
(dp1183
g62
(dp1184
g82
g83
ssg71
g1178
sg64
(lp1185
S'http_cookie'
p1186
asbag57
(g78
g59
NtRp1187
(dp1188
g62
(dp1189
g89
g90
ssg71
g1178
sg64
(lp1190
S':'
asbag57
(g78
g59
NtRp1191
(dp1192
g62
(dp1193
sg71
g1178
sg64
(lp1194
g57
(g58
g59
NtRp1195
(dp1196
g62
(dp1197
g70
I4
ssg71
g1191
sg64
(lp1198
S'session_id_welcome=127.0.0.1-4e28eb00-9390-42b6-b28b-84e33f3f3dc5; session_id_admin=127.0.0.1-99be9dae-8f31-4d84-8ac1-dd5f88d7bf21; session_id_gordian_knot=127.0.0.1-7cbbc713-1cb8-4d74-8c67-ceeed6d4fabf'
p1199
asbasbasbag57
(g73
g59
NtRp1200
(dp1201
g62
(dp1202
sg71
g822
sg64
(lp1203
g57
(g78
g59
NtRp1204
(dp1205
g62
(dp1206
g82
g83
ssg71
g1200
sg64
(lp1207
S'http_host'
p1208
asbag57
(g78
g59
NtRp1209
(dp1210
g62
(dp1211
g89
g90
ssg71
g1200
sg64
(lp1212
S':'
asbag57
(g78
g59
NtRp1213
(dp1214
g62
(dp1215
sg71
g1200
sg64
(lp1216
g57
(g58
g59
NtRp1217
(dp1218
g62
(dp1219
g70
I4
ssg71
g1213
sg64
(lp1220
S'127.0.0.1:8001'
p1221
asbasbasbag57
(g73
g59
NtRp1222
(dp1223
g62
(dp1224
sg71
g822
sg64
(lp1225
g57
(g78
g59
NtRp1226
(dp1227
g62
(dp1228
g82
g83
ssg71
g1222
sg64
(lp1229
S'http_origin'
p1230
asbag57
(g78
g59
NtRp1231
(dp1232
g62
(dp1233
g89
g90
ssg71
g1222
sg64
(lp1234
S':'
asbag57
(g78
g59
NtRp1235
(dp1236
g62
(dp1237
sg71
g1222
sg64
(lp1238
g57
(g58
g59
NtRp1239
(dp1240
g62
(dp1241
g70
I4
ssg71
g1235
sg64
(lp1242
S'http://127.0.0.1:8001'
p1243
asbasbasbag57
(g73
g59
NtRp1244
(dp1245
g62
(dp1246
sg71
g822
sg64
(lp1247
g57
(g78
g59
NtRp1248
(dp1249
g62
(dp1250
g82
g83
ssg71
g1244
sg64
(lp1251
S'http_referer'
p1252
asbag57
(g78
g59
NtRp1253
(dp1254
g62
(dp1255
g89
g90
ssg71
g1244
sg64
(lp1256
S':'
asbag57
(g78
g59
NtRp1257
(dp1258
g62
(dp1259
sg71
g1244
sg64
(lp1260
g57
(g58
g59
NtRp1261
(dp1262
g62
(dp1263
g70
I4
ssg71
g1257
sg64
(lp1264
S'http://127.0.0.1:8001/Gordian_Knot/default/think?qno=6'
p1265
asbasbasbag57
(g73
g59
NtRp1266
(dp1267
g62
(dp1268
sg71
g822
sg64
(lp1269
g57
(g78
g59
NtRp1270
(dp1271
g62
(dp1272
g82
g83
ssg71
g1266
sg64
(lp1273
S'http_user_agent'
p1274
asbag57
(g78
g59
NtRp1275
(dp1276
g62
(dp1277
g89
g90
ssg71
g1266
sg64
(lp1278
S':'
asbag57
(g78
g59
NtRp1279
(dp1280
g62
(dp1281
sg71
g1266
sg64
(lp1282
g57
(g58
g59
NtRp1283
(dp1284
g62
(dp1285
g70
I4
ssg71
g1279
sg64
(lp1286
S'Mozilla/5.0 (X11; Linux x86_64) AppleWebKit/537.36 (KHTML, like Gecko) Chrome/29.0.1547.57 Safari/537.36'
p1287
asbasbasbag57
(g73
g59
NtRp1288
(dp1289
g62
(dp1290
sg71
g822
sg64
(lp1291
g57
(g78
g59
NtRp1292
(dp1293
g62
(dp1294
g82
g83
ssg71
g1288
sg64
(lp1295
S'is_jython'
p1296
asbag57
(g78
g59
NtRp1297
(dp1298
g62
(dp1299
g89
g90
ssg71
g1288
sg64
(lp1300
S':'
asbag57
(g78
g59
NtRp1301
(dp1302
g62
(dp1303
sg71
g1288
sg64
(lp1304
g57
(g58
g59
NtRp1305
(dp1306
g62
(dp1307
g70
I4
ssg71
g1301
sg64
(lp1308
g100
asbasbasbag57
(g73
g59
NtRp1309
(dp1310
g62
(dp1311
sg71
g822
sg64
(lp1312
g57
(g78
g59
NtRp1313
(dp1314
g62
(dp1315
g82
g83
ssg71
g1309
sg64
(lp1316
S'is_pypy'
p1317
asbag57
(g78
g59
NtRp1318
(dp1319
g62
(dp1320
g89
g90
ssg71
g1309
sg64
(lp1321
S':'
asbag57
(g78
g59
NtRp1322
(dp1323
g62
(dp1324
sg71
g1309
sg64
(lp1325
g57
(g58
g59
NtRp1326
(dp1327
g62
(dp1328
g70
I4
ssg71
g1322
sg64
(lp1329
g100
asbasbasbag57
(g73
g59
NtRp1330
(dp1331
g62
(dp1332
sg71
g822
sg64
(lp1333
g57
(g78
g59
NtRp1334
(dp1335
g62
(dp1336
g82
g83
ssg71
g1330
sg64
(lp1337
S'path_info'
p1338
asbag57
(g78
g59
NtRp1339
(dp1340
g62
(dp1341
g89
g90
ssg71
g1330
sg64
(lp1342
S':'
asbag57
(g78
g59
NtRp1343
(dp1344
g62
(dp1345
sg71
g1330
sg64
(lp1346
g57
(g58
g59
NtRp1347
(dp1348
g62
(dp1349
g70
I4
ssg71
g1343
sg64
(lp1350
S'/Gordian_Knot/default/checkans'
p1351
asbasbasbag57
(g73
g59
NtRp1352
(dp1353
g62
(dp1354
sg71
g822
sg64
(lp1355
g57
(g78
g59
NtRp1356
(dp1357
g62
(dp1358
g82
g83
ssg71
g1352
sg64
(lp1359
S'query_string'
p1360
asbag57
(g78
g59
NtRp1361
(dp1362
g62
(dp1363
g89
g90
ssg71
g1352
sg64
(lp1364
S':'
asbag57
(g78
g59
NtRp1365
(dp1366
g62
(dp1367
sg71
g1352
sg64
(lp1368
g57
(g58
g59
NtRp1369
(dp1370
g62
(dp1371
g70
I4
ssg71
g1365
sg64
(lp1372
S''
asbasbasbag57
(g73
g59
NtRp1373
(dp1374
g62
(dp1375
sg71
g822
sg64
(lp1376
g57
(g78
g59
NtRp1377
(dp1378
g62
(dp1379
g82
g83
ssg71
g1373
sg64
(lp1380
S'remote_addr'
p1381
asbag57
(g78
g59
NtRp1382
(dp1383
g62
(dp1384
g89
g90
ssg71
g1373
sg64
(lp1385
S':'
asbag57
(g78
g59
NtRp1386
(dp1387
g62
(dp1388
sg71
g1373
sg64
(lp1389
g57
(g58
g59
NtRp1390
(dp1391
g62
(dp1392
g70
I4
ssg71
g1386
sg64
(lp1393
g190
asbasbasbag57
(g73
g59
NtRp1394
(dp1395
g62
(dp1396
sg71
g822
sg64
(lp1397
g57
(g78
g59
NtRp1398
(dp1399
g62
(dp1400
g82
g83
ssg71
g1394
sg64
(lp1401
S'remote_port'
p1402
asbag57
(g78
g59
NtRp1403
(dp1404
g62
(dp1405
g89
g90
ssg71
g1394
sg64
(lp1406
S':'
asbag57
(g78
g59
NtRp1407
(dp1408
g62
(dp1409
sg71
g1394
sg64
(lp1410
g57
(g58
g59
NtRp1411
(dp1412
g62
(dp1413
g70
I4
ssg71
g1407
sg64
(lp1414
S'40229'
p1415
asbasbasbag57
(g73
g59
NtRp1416
(dp1417
g62
(dp1418
sg71
g822
sg64
(lp1419
g57
(g78
g59
NtRp1420
(dp1421
g62
(dp1422
g82
g83
ssg71
g1416
sg64
(lp1423
S'request_method'
p1424
asbag57
(g78
g59
NtRp1425
(dp1426
g62
(dp1427
g89
g90
ssg71
g1416
sg64
(lp1428
S':'
asbag57
(g78
g59
NtRp1429
(dp1430
g62
(dp1431
sg71
g1416
sg64
(lp1432
g57
(g58
g59
NtRp1433
(dp1434
g62
(dp1435
g70
I4
ssg71
g1429
sg64
(lp1436
S'POST'
p1437
asbasbasbag57
(g73
g59
NtRp1438
(dp1439
g62
(dp1440
sg71
g822
sg64
(lp1441
g57
(g78
g59
NtRp1442
(dp1443
g62
(dp1444
g82
g83
ssg71
g1438
sg64
(lp1445
S'script_name'
p1446
asbag57
(g78
g59
NtRp1447
(dp1448
g62
(dp1449
g89
g90
ssg71
g1438
sg64
(lp1450
S':'
asbag57
(g78
g59
NtRp1451
(dp1452
g62
(dp1453
sg71
g1438
sg64
(lp1454
g57
(g58
g59
NtRp1455
(dp1456
g62
(dp1457
g70
I4
ssg71
g1451
sg64
(lp1458
S''
asbasbasbag57
(g73
g59
NtRp1459
(dp1460
g62
(dp1461
sg71
g822
sg64
(lp1462
g57
(g78
g59
NtRp1463
(dp1464
g62
(dp1465
g82
g83
ssg71
g1459
sg64
(lp1466
S'server_name'
p1467
asbag57
(g78
g59
NtRp1468
(dp1469
g62
(dp1470
g89
g90
ssg71
g1459
sg64
(lp1471
S':'
asbag57
(g78
g59
NtRp1472
(dp1473
g62
(dp1474
sg71
g1459
sg64
(lp1475
g57
(g58
g59
NtRp1476
(dp1477
g62
(dp1478
g70
I4
ssg71
g1472
sg64
(lp1479
S'DS-IIIT'
p1480
asbasbasbag57
(g73
g59
NtRp1481
(dp1482
g62
(dp1483
sg71
g822
sg64
(lp1484
g57
(g78
g59
NtRp1485
(dp1486
g62
(dp1487
g82
g83
ssg71
g1481
sg64
(lp1488
S'server_port'
p1489
asbag57
(g78
g59
NtRp1490
(dp1491
g62
(dp1492
g89
g90
ssg71
g1481
sg64
(lp1493
S':'
asbag57
(g78
g59
NtRp1494
(dp1495
g62
(dp1496
sg71
g1481
sg64
(lp1497
g57
(g58
g59
NtRp1498
(dp1499
g62
(dp1500
g70
I4
ssg71
g1494
sg64
(lp1501
S'8001'
p1502
asbasbasbag57
(g73
g59
NtRp1503
(dp1504
g62
(dp1505
sg71
g822
sg64
(lp1506
g57
(g78
g59
NtRp1507
(dp1508
g62
(dp1509
g82
g83
ssg71
g1503
sg64
(lp1510
S'server_protocol'
p1511
asbag57
(g78
g59
NtRp1512
(dp1513
g62
(dp1514
g89
g90
ssg71
g1503
sg64
(lp1515
S':'
asbag57
(g78
g59
NtRp1516
(dp1517
g62
(dp1518
sg71
g1503
sg64
(lp1519
g57
(g58
g59
NtRp1520
(dp1521
g62
(dp1522
g70
I4
ssg71
g1516
sg64
(lp1523
S'HTTP/1.1'
p1524
asbasbasbag57
(g73
g59
NtRp1525
(dp1526
g62
(dp1527
sg71
g822
sg64
(lp1528
g57
(g78
g59
NtRp1529
(dp1530
g62
(dp1531
g82
g83
ssg71
g1525
sg64
(lp1532
S'server_software'
p1533
asbag57
(g78
g59
NtRp1534
(dp1535
g62
(dp1536
g89
g90
ssg71
g1525
sg64
(lp1537
S':'
asbag57
(g78
g59
NtRp1538
(dp1539
g62
(dp1540
sg71
g1525
sg64
(lp1541
g57
(g58
g59
NtRp1542
(dp1543
g62
(dp1544
g70
I4
ssg71
g1538
sg64
(lp1545
S'Rocket 1.2.4'
p1546
asbasbasbag57
(g73
g59
NtRp1547
(dp1548
g62
(dp1549
sg71
g822
sg64
(lp1550
g57
(g78
g59
NtRp1551
(dp1552
g62
(dp1553
g82
g83
ssg71
g1547
sg64
(lp1554
S'web2py_crontype'
p1555
asbag57
(g78
g59
NtRp1556
(dp1557
g62
(dp1558
g89
g90
ssg71
g1547
sg64
(lp1559
S':'
asbag57
(g78
g59
NtRp1560
(dp1561
g62
(dp1562
sg71
g1547
sg64
(lp1563
g57
(g58
g59
NtRp1564
(dp1565
g62
(dp1566
g70
I4
ssg71
g1560
sg64
(lp1567
S'hard'
p1568
asbasbasbag57
(g73
g59
NtRp1569
(dp1570
g62
(dp1571
sg71
g822
sg64
(lp1572
g57
(g78
g59
NtRp1573
(dp1574
g62
(dp1575
g82
g83
ssg71
g1569
sg64
(lp1576
S'web2py_path'
p1577
asbag57
(g78
g59
NtRp1578
(dp1579
g62
(dp1580
g89
g90
ssg71
g1569
sg64
(lp1581
S':'
asbag57
(g78
g59
NtRp1582
(dp1583
g62
(dp1584
sg71
g1569
sg64
(lp1585
g57
(g58
g59
NtRp1586
(dp1587
g62
(dp1588
g70
I4
ssg71
g1582
sg64
(lp1589
g869
asbasbasbag57
(g73
g59
NtRp1590
(dp1591
g62
(dp1592
sg71
g822
sg64
(lp1593
g57
(g78
g59
NtRp1594
(dp1595
g62
(dp1596
g82
g83
ssg71
g1590
sg64
(lp1597
S'web2py_version'
p1598
asbag57
(g78
g59
NtRp1599
(dp1600
g62
(dp1601
g89
g90
ssg71
g1590
sg64
(lp1602
S':'
asbag57
(g78
g59
NtRp1603
(dp1604
g62
(dp1605
sg71
g1590
sg64
(lp1606
g57
(g58
g59
NtRp1607
(dp1608
g62
(dp1609
g70
I4
ssg71
g1603
sg64
(lp1610
g57
(g66
g59
NtRp1611
(dp1612
g62
(dp1613
g70
I3
ssg71
Nsg64
(lp1614
g57
(g73
g59
NtRp1615
(dp1616
g62
(dp1617
sg71
g1611
sg64
(lp1618
g57
(g78
g59
NtRp1619
(dp1620
g62
(dp1621
sg71
g1615
sg64
(lp1622
g57
(g58
g59
NtRp1623
(dp1624
g62
(dp1625
g70
I3
ssg71
g1619
sg64
(lp1626
S'1'
asbasbasbag57
(g73
g59
NtRp1627
(dp1628
g62
(dp1629
sg71
g1611
sg64
(lp1630
g57
(g78
g59
NtRp1631
(dp1632
g62
(dp1633
sg71
g1627
sg64
(lp1634
g57
(g58
g59
NtRp1635
(dp1636
g62
(dp1637
g70
I3
ssg71
g1631
sg64
(lp1638
S'99'
p1639
asbasbasbag57
(g73
g59
NtRp1640
(dp1641
g62
(dp1642
sg71
g1611
sg64
(lp1643
g57
(g78
g59
NtRp1644
(dp1645
g62
(dp1646
sg71
g1640
sg64
(lp1647
g57
(g58
g59
NtRp1648
(dp1649
g62
(dp1650
g70
I3
ssg71
g1644
sg64
(lp1651
S'4'
asbasbasbag57
(g73
g59
NtRp1652
(dp1653
g62
(dp1654
sg71
g1611
sg64
(lp1655
g57
(g78
g59
NtRp1656
(dp1657
g62
(dp1658
sg71
g1652
sg64
(lp1659
g57
(g58
g59
NtRp1660
(dp1661
g62
(dp1662
g70
I3
ssg71
g1656
sg64
(lp1663
S'datetime.datetime(2011, 12, 14, 14, 46, 14)'
p1664
asbasbasbag57
(g73
g59
NtRp1665
(dp1666
g62
(dp1667
sg71
g1611
sg64
(lp1668
g57
(g78
g59
NtRp1669
(dp1670
g62
(dp1671
sg71
g1665
sg64
(lp1672
g57
(g58
g59
NtRp1673
(dp1674
g62
(dp1675
g70
I3
ssg71
g1669
sg64
(lp1676
S'stable'
p1677
asbasbasbasbasbasbasbag57
(g73
g59
NtRp1678
(dp1679
g62
(dp1680
sg71
g822
sg64
(lp1681
g57
(g78
g59
NtRp1682
(dp1683
g62
(dp1684
g82
g83
ssg71
g1678
sg64
(lp1685
S'wsgi_errors'
p1686
asbag57
(g78
g59
NtRp1687
(dp1688
g62
(dp1689
g89
g90
ssg71
g1678
sg64
(lp1690
S':'
asbag57
(g78
g59
NtRp1691
(dp1692
g62
(dp1693
sg71
g1678
sg64
(lp1694
g57
(g58
g59
NtRp1695
(dp1696
g62
(dp1697
g70
I4
ssg71
g1691
sg64
(lp1698
S"<open file '<stderr>', mode 'w' at 0x7f0ddee12270>"
p1699
asbasbasbag57
(g73
g59
NtRp1700
(dp1701
g62
(dp1702
sg71
g822
sg64
(lp1703
g57
(g78
g59
NtRp1704
(dp1705
g62
(dp1706
g82
g83
ssg71
g1700
sg64
(lp1707
S'wsgi_file_wrapper'
p1708
asbag57
(g78
g59
NtRp1709
(dp1710
g62
(dp1711
g89
g90
ssg71
g1700
sg64
(lp1712
S':'
asbag57
(g78
g59
NtRp1713
(dp1714
g62
(dp1715
sg71
g1700
sg64
(lp1716
g57
(g58
g59
NtRp1717
(dp1718
g62
(dp1719
g70
I4
ssg71
g1713
sg64
(lp1720
S'<class wsgiref.util.FileWrapper at 0x29e8390>'
p1721
asbasbasbag57
(g73
g59
NtRp1722
(dp1723
g62
(dp1724
sg71
g822
sg64
(lp1725
g57
(g78
g59
NtRp1726
(dp1727
g62
(dp1728
g82
g83
ssg71
g1722
sg64
(lp1729
S'wsgi_input'
p1730
asbag57
(g78
g59
NtRp1731
(dp1732
g62
(dp1733
g89
g90
ssg71
g1722
sg64
(lp1734
S':'
asbag57
(g78
g59
NtRp1735
(dp1736
g62
(dp1737
sg71
g1722
sg64
(lp1738
g57
(g58
g59
NtRp1739
(dp1740
g62
(dp1741
g70
I4
ssg71
g1735
sg64
(lp1742
S'<socket._fileobject object at 0x7f0d94249cd0>'
p1743
asbasbasbag57
(g73
g59
NtRp1744
(dp1745
g62
(dp1746
sg71
g822
sg64
(lp1747
g57
(g78
g59
NtRp1748
(dp1749
g62
(dp1750
g82
g83
ssg71
g1744
sg64
(lp1751
S'wsgi_multiprocess'
p1752
asbag57
(g78
g59
NtRp1753
(dp1754
g62
(dp1755
g89
g90
ssg71
g1744
sg64
(lp1756
S':'
asbag57
(g78
g59
NtRp1757
(dp1758
g62
(dp1759
sg71
g1744
sg64
(lp1760
g57
(g58
g59
NtRp1761
(dp1762
g62
(dp1763
g70
I4
ssg71
g1757
sg64
(lp1764
g100
asbasbasbag57
(g73
g59
NtRp1765
(dp1766
g62
(dp1767
sg71
g822
sg64
(lp1768
g57
(g78
g59
NtRp1769
(dp1770
g62
(dp1771
g82
g83
ssg71
g1765
sg64
(lp1772
S'wsgi_multithread'
p1773
asbag57
(g78
g59
NtRp1774
(dp1775
g62
(dp1776
g89
g90
ssg71
g1765
sg64
(lp1777
S':'
asbag57
(g78
g59
NtRp1778
(dp1779
g62
(dp1780
sg71
g1765
sg64
(lp1781
g57
(g58
g59
NtRp1782
(dp1783
g62
(dp1784
g70
I4
ssg71
g1778
sg64
(lp1785
S'True'
p1786
asbasbasbag57
(g73
g59
NtRp1787
(dp1788
g62
(dp1789
sg71
g822
sg64
(lp1790
g57
(g78
g59
NtRp1791
(dp1792
g62
(dp1793
g82
g83
ssg71
g1787
sg64
(lp1794
S'wsgi_run_once'
p1795
asbag57
(g78
g59
NtRp1796
(dp1797
g62
(dp1798
g89
g90
ssg71
g1787
sg64
(lp1799
S':'
asbag57
(g78
g59
NtRp1800
(dp1801
g62
(dp1802
sg71
g1787
sg64
(lp1803
g57
(g58
g59
NtRp1804
(dp1805
g62
(dp1806
g70
I4
ssg71
g1800
sg64
(lp1807
g100
asbasbasbag57
(g73
g59
NtRp1808
(dp1809
g62
(dp1810
sg71
g822
sg64
(lp1811
g57
(g78
g59
NtRp1812
(dp1813
g62
(dp1814
g82
g83
ssg71
g1808
sg64
(lp1815
S'wsgi_url_scheme'
p1816
asbag57
(g78
g59
NtRp1817
(dp1818
g62
(dp1819
g89
g90
ssg71
g1808
sg64
(lp1820
S':'
asbag57
(g78
g59
NtRp1821
(dp1822
g62
(dp1823
sg71
g1808
sg64
(lp1824
g57
(g58
g59
NtRp1825
(dp1826
g62
(dp1827
g70
I4
ssg71
g1821
sg64
(lp1828
S'http'
p1829
asbasbasbag57
(g73
g59
NtRp1830
(dp1831
g62
(dp1832
sg71
g822
sg64
(lp1833
g57
(g78
g59
NtRp1834
(dp1835
g62
(dp1836
g82
g83
ssg71
g1830
sg64
(lp1837
S'wsgi_version'
p1838
asbag57
(g78
g59
NtRp1839
(dp1840
g62
(dp1841
g89
g90
ssg71
g1830
sg64
(lp1842
S':'
asbag57
(g78
g59
NtRp1843
(dp1844
g62
(dp1845
sg71
g1830
sg64
(lp1846
g57
(g58
g59
NtRp1847
(dp1848
g62
(dp1849
g70
I4
ssg71
g1843
sg64
(lp1850
g57
(g66
g59
NtRp1851
(dp1852
g62
(dp1853
g70
I3
ssg71
Nsg64
(lp1854
g57
(g73
g59
NtRp1855
(dp1856
g62
(dp1857
sg71
g1851
sg64
(lp1858
g57
(g78
g59
NtRp1859
(dp1860
g62
(dp1861
sg71
g1855
sg64
(lp1862
g57
(g58
g59
NtRp1863
(dp1864
g62
(dp1865
g70
I3
ssg71
g1859
sg64
(lp1866
S'1'
asbasbasbag57
(g73
g59
NtRp1867
(dp1868
g62
(dp1869
sg71
g1851
sg64
(lp1870
g57
(g78
g59
NtRp1871
(dp1872
g62
(dp1873
sg71
g1867
sg64
(lp1874
g57
(g58
g59
NtRp1875
(dp1876
g62
(dp1877
g70
I3
ssg71
g1871
sg64
(lp1878
S'0'
asbasbasbasbasbasbasbasbasbasbasbag57
(g73
g59
NtRp1879
(dp1880
g62
(dp1881
sg71
g67
sg64
(lp1882
g57
(g78
g59
NtRp1883
(dp1884
g62
(dp1885
g82
g83
ssg71
g1879
sg64
(lp1886
S'extension'
p1887
asbag57
(g78
g59
NtRp1888
(dp1889
g62
(dp1890
g89
g90
ssg71
g1879
sg64
(lp1891
S':'
asbag57
(g78
g59
NtRp1892
(dp1893
g62
(dp1894
sg71
g1879
sg64
(lp1895
g57
(g58
g59
NtRp1896
(dp1897
g62
(dp1898
g70
I5
ssg71
g1892
sg64
(lp1899
S'html'
p1900
asbasbasbag57
(g73
g59
NtRp1901
(dp1902
g62
(dp1903
sg71
g67
sg64
(lp1904
g57
(g78
g59
NtRp1905
(dp1906
g62
(dp1907
g82
g83
ssg71
g1901
sg64
(lp1908
S'folder'
p1909
asbag57
(g78
g59
NtRp1910
(dp1911
g62
(dp1912
g89
g90
ssg71
g1901
sg64
(lp1913
S':'
asbag57
(g78
g59
NtRp1914
(dp1915
g62
(dp1916
sg71
g1901
sg64
(lp1917
g57
(g58
g59
NtRp1918
(dp1919
g62
(dp1920
g70
I5
ssg71
g1914
sg64
(lp1921
S'/home/ds-iiit/web2py/applications/Gordian_Knot/'
p1922
asbasbasbag57
(g73
g59
NtRp1923
(dp1924
g62
(dp1925
sg71
g67
sg64
(lp1926
g57
(g78
g59
NtRp1927
(dp1928
g62
(dp1929
g82
g83
ssg71
g1923
sg64
(lp1930
S'function'
p1931
asbag57
(g78
g59
NtRp1932
(dp1933
g62
(dp1934
g89
g90
ssg71
g1923
sg64
(lp1935
S':'
asbag57
(g78
g59
NtRp1936
(dp1937
g62
(dp1938
sg71
g1923
sg64
(lp1939
g57
(g58
g59
NtRp1940
(dp1941
g62
(dp1942
g70
I5
ssg71
g1936
sg64
(lp1943
S'checkans'
p1944
asbasbasbag57
(g73
g59
NtRp1945
(dp1946
g62
(dp1947
sg71
g67
sg64
(lp1948
g57
(g78
g59
NtRp1949
(dp1950
g62
(dp1951
g82
g83
ssg71
g1945
sg64
(lp1952
S'get_vars'
p1953
asbag57
(g78
g59
NtRp1954
(dp1955
g62
(dp1956
g89
g90
ssg71
g1945
sg64
(lp1957
S':'
asbag57
(g78
g59
NtRp1958
(dp1959
g62
(dp1960
sg71
g1945
sg64
(lp1961
g57
(g58
g59
NtRp1962
(dp1963
g62
(dp1964
g70
I5
ssg71
g1958
sg64
(lp1965
g57
(g66
g59
NtRp1966
(dp1967
g62
(dp1968
g70
I4
ssg71
Nsg64
(lp1969
sbasbasbasbag57
(g73
g59
NtRp1970
(dp1971
g62
(dp1972
sg71
g67
sg64
(lp1973
g57
(g78
g59
NtRp1974
(dp1975
g62
(dp1976
g82
g83
ssg71
g1970
sg64
(lp1977
S'global_settings'
p1978
asbag57
(g78
g59
NtRp1979
(dp1980
g62
(dp1981
g89
g90
ssg71
g1970
sg64
(lp1982
S':'
asbag57
(g78
g59
NtRp1983
(dp1984
g62
(dp1985
sg71
g1970
sg64
(lp1986
g57
(g58
g59
NtRp1987
(dp1988
g62
(dp1989
g70
I5
ssg71
g1983
sg64
(lp1990
g57
(g66
g59
NtRp1991
(dp1992
g62
(dp1993
g70
I4
ssg71
Nsg64
(lp1994
g57
(g73
g59
NtRp1995
(dp1996
g62
(dp1997
sg71
g1991
sg64
(lp1998
g57
(g78
g59
NtRp1999
(dp2000
g62
(dp2001
g82
g83
ssg71
g1995
sg64
(lp2002
g834
asbag57
(g78
g59
NtRp2003
(dp2004
g62
(dp2005
g89
g90
ssg71
g1995
sg64
(lp2006
S':'
asbag57
(g78
g59
NtRp2007
(dp2008
g62
(dp2009
sg71
g1995
sg64
(lp2010
g57
(g58
g59
NtRp2011
(dp2012
g62
(dp2013
g70
I4
ssg71
g2007
sg64
(lp2014
S"set(['/home/ds-iiit/web2py/applications/Gordian_Knot/', '/home/ds-iiit/web2py/applications/welcome/', '/home/ds-iiit/web2py/applications/admin/'])"
p2015
asbasbasbag57
(g73
g59
NtRp2016
(dp2017
g62
(dp2018
sg71
g1991
sg64
(lp2019
g57
(g78
g59
NtRp2020
(dp2021
g62
(dp2022
g82
g83
ssg71
g2016
sg64
(lp2023
g856
asbag57
(g78
g59
NtRp2024
(dp2025
g62
(dp2026
g89
g90
ssg71
g2016
sg64
(lp2027
S':'
asbag57
(g78
g59
NtRp2028
(dp2029
g62
(dp2030
sg71
g2016
sg64
(lp2031
g57
(g58
g59
NtRp2032
(dp2033
g62
(dp2034
g70
I4
ssg71
g2028
sg64
(lp2035
g869
asbasbasbag57
(g73
g59
NtRp2036
(dp2037
g62
(dp2038
sg71
g1991
sg64
(lp2039
g57
(g78
g59
NtRp2040
(dp2041
g62
(dp2042
g82
g83
ssg71
g2036
sg64
(lp2043
g878
asbag57
(g78
g59
NtRp2044
(dp2045
g62
(dp2046
g89
g90
ssg71
g2036
sg64
(lp2047
S':'
asbag57
(g78
g59
NtRp2048
(dp2049
g62
(dp2050
sg71
g2036
sg64
(lp2051
g57
(g58
g59
NtRp2052
(dp2053
g62
(dp2054
g70
I4
ssg71
g2048
sg64
(lp2055
g57
(g66
g59
NtRp2056
(dp2057
g62
(dp2058
g70
I3
ssg71
Nsg64
(lp2059
sbasbasbasbag57
(g73
g59
NtRp2060
(dp2061
g62
(dp2062
sg71
g1991
sg64
(lp2063
g57
(g78
g59
NtRp2064
(dp2065
g62
(dp2066
g82
g83
ssg71
g2060
sg64
(lp2067
g903
asbag57
(g78
g59
NtRp2068
(dp2069
g62
(dp2070
g89
g90
ssg71
g2060
sg64
(lp2071
S':'
asbag57
(g78
g59
NtRp2072
(dp2073
g62
(dp2074
sg71
g2060
sg64
(lp2075
g57
(g58
g59
NtRp2076
(dp2077
g62
(dp2078
g70
I4
ssg71
g2072
sg64
(lp2079
S"<Values at 0x29bbdd0: {'verbose': False, 'ip': '127.0.0.1', 'shutdown_timeout': 5, 'taskbar': False, 'port': 8000, 'maxthreads': None, 'softcron': False, 'server_name': 'DS-IIIT', 'bpython': False, 'nogui': False, 'nocron': False, 'extcron': False, 'debuglevel': 30, 'test': None, 'folder': '/home/ds-iiit/web2py', 'config': '', 'import_models': False, 'winservice': '', 'shell': None, 'run': '', 'log_filename': 'httpserver.log', 'args': [''], 'socket_timeout': 1, 'profiler_filename': None, 'ssl_private_key': '', 'password': '<ask>', 'request_queue_size': 5, 'ssl_certificate': '', 'cronjob': False, 'plain': False, 'quiet': False, 'interfaces': None, 'minthreads': None, 'timeout': 10, 'numthreads': None, 'nobanner': False, 'pid_filename': 'httpserver.pid'}>"
p2080
asbasbasbag57
(g73
g59
NtRp2081
(dp2082
g62
(dp2083
sg71
g1991
sg64
(lp2084
g57
(g78
g59
NtRp2085
(dp2086
g62
(dp2087
g82
g83
ssg71
g2081
sg64
(lp2088
g969
asbag57
(g78
g59
NtRp2089
(dp2090
g62
(dp2091
g89
g90
ssg71
g2081
sg64
(lp2092
S':'
asbag57
(g78
g59
NtRp2093
(dp2094
g62
(dp2095
sg71
g2081
sg64
(lp2096
g57
(g58
g59
NtRp2097
(dp2098
g62
(dp2099
g70
I4
ssg71
g2093
sg64
(lp2100
S'set([])'
p2101
asbasbasbag57
(g73
g59
NtRp2102
(dp2103
g62
(dp2104
sg71
g1991
sg64
(lp2105
g57
(g78
g59
NtRp2106
(dp2107
g62
(dp2108
g82
g83
ssg71
g2102
sg64
(lp2109
g991
asbag57
(g78
g59
NtRp2110
(dp2111
g62
(dp2112
g89
g90
ssg71
g2102
sg64
(lp2113
S':'
asbag57
(g78
g59
NtRp2114
(dp2115
g62
(dp2116
sg71
g2102
sg64
(lp2117
g57
(g58
g59
NtRp2118
(dp2119
g62
(dp2120
g70
I4
ssg71
g2114
sg64
(lp2121
g100
asbasbasbag57
(g73
g59
NtRp2122
(dp2123
g62
(dp2124
sg71
g1991
sg64
(lp2125
g57
(g78
g59
NtRp2126
(dp2127
g62
(dp2128
g82
g83
ssg71
g2122
sg64
(lp2129
g1012
asbag57
(g78
g59
NtRp2130
(dp2131
g62
(dp2132
g89
g90
ssg71
g2122
sg64
(lp2133
S':'
asbag57
(g78
g59
NtRp2134
(dp2135
g62
(dp2136
sg71
g2122
sg64
(lp2137
g57
(g58
g59
NtRp2138
(dp2139
g62
(dp2140
g70
I4
ssg71
g2134
sg64
(lp2141
g1025
asbasbasbag57
(g73
g59
NtRp2142
(dp2143
g62
(dp2144
sg71
g1991
sg64
(lp2145
g57
(g78
g59
NtRp2146
(dp2147
g62
(dp2148
g82
g83
ssg71
g2142
sg64
(lp2149
g1296
asbag57
(g78
g59
NtRp2150
(dp2151
g62
(dp2152
g89
g90
ssg71
g2142
sg64
(lp2153
S':'
asbag57
(g78
g59
NtRp2154
(dp2155
g62
(dp2156
sg71
g2142
sg64
(lp2157
g57
(g58
g59
NtRp2158
(dp2159
g62
(dp2160
g70
I4
ssg71
g2154
sg64
(lp2161
g100
asbasbasbag57
(g73
g59
NtRp2162
(dp2163
g62
(dp2164
sg71
g1991
sg64
(lp2165
g57
(g78
g59
NtRp2166
(dp2167
g62
(dp2168
g82
g83
ssg71
g2162
sg64
(lp2169
g1317
asbag57
(g78
g59
NtRp2170
(dp2171
g62
(dp2172
g89
g90
ssg71
g2162
sg64
(lp2173
S':'
asbag57
(g78
g59
NtRp2174
(dp2175
g62
(dp2176
sg71
g2162
sg64
(lp2177
g57
(g58
g59
NtRp2178
(dp2179
g62
(dp2180
g70
I4
ssg71
g2174
sg64
(lp2181
g100
asbasbasbag57
(g73
g59
NtRp2182
(dp2183
g62
(dp2184
sg71
g1991
sg64
(lp2185
g57
(g78
g59
NtRp2186
(dp2187
g62
(dp2188
g82
g83
ssg71
g2182
sg64
(lp2189
g1555
asbag57
(g78
g59
NtRp2190
(dp2191
g62
(dp2192
g89
g90
ssg71
g2182
sg64
(lp2193
S':'
asbag57
(g78
g59
NtRp2194
(dp2195
g62
(dp2196
sg71
g2182
sg64
(lp2197
g57
(g58
g59
NtRp2198
(dp2199
g62
(dp2200
g70
I4
ssg71
g2194
sg64
(lp2201
g1568
asbasbasbag57
(g73
g59
NtRp2202
(dp2203
g62
(dp2204
sg71
g1991
sg64
(lp2205
g57
(g78
g59
NtRp2206
(dp2207
g62
(dp2208
g82
g83
ssg71
g2202
sg64
(lp2209
g1598
asbag57
(g78
g59
NtRp2210
(dp2211
g62
(dp2212
g89
g90
ssg71
g2202
sg64
(lp2213
S':'
asbag57
(g78
g59
NtRp2214
(dp2215
g62
(dp2216
sg71
g2202
sg64
(lp2217
g57
(g58
g59
NtRp2218
(dp2219
g62
(dp2220
g70
I4
ssg71
g2214
sg64
(lp2221
g57
(g66
g59
NtRp2222
(dp2223
g62
(dp2224
g70
I3
ssg71
Nsg64
(lp2225
g57
(g73
g59
NtRp2226
(dp2227
g62
(dp2228
sg71
g2222
sg64
(lp2229
g57
(g78
g59
NtRp2230
(dp2231
g62
(dp2232
sg71
g2226
sg64
(lp2233
g57
(g58
g59
NtRp2234
(dp2235
g62
(dp2236
g70
I3
ssg71
g2230
sg64
(lp2237
S'1'
asbasbasbag57
(g73
g59
NtRp2238
(dp2239
g62
(dp2240
sg71
g2222
sg64
(lp2241
g57
(g78
g59
NtRp2242
(dp2243
g62
(dp2244
sg71
g2238
sg64
(lp2245
g57
(g58
g59
NtRp2246
(dp2247
g62
(dp2248
g70
I3
ssg71
g2242
sg64
(lp2249
S'99'
p2250
asbasbasbag57
(g73
g59
NtRp2251
(dp2252
g62
(dp2253
sg71
g2222
sg64
(lp2254
g57
(g78
g59
NtRp2255
(dp2256
g62
(dp2257
sg71
g2251
sg64
(lp2258
g57
(g58
g59
NtRp2259
(dp2260
g62
(dp2261
g70
I3
ssg71
g2255
sg64
(lp2262
S'4'
asbasbasbag57
(g73
g59
NtRp2263
(dp2264
g62
(dp2265
sg71
g2222
sg64
(lp2266
g57
(g78
g59
NtRp2267
(dp2268
g62
(dp2269
sg71
g2263
sg64
(lp2270
g57
(g58
g59
NtRp2271
(dp2272
g62
(dp2273
g70
I3
ssg71
g2267
sg64
(lp2274
S'datetime.datetime(2011, 12, 14, 14, 46, 14)'
p2275
asbasbasbag57
(g73
g59
NtRp2276
(dp2277
g62
(dp2278
sg71
g2222
sg64
(lp2279
g57
(g78
g59
NtRp2280
(dp2281
g62
(dp2282
sg71
g2276
sg64
(lp2283
g57
(g58
g59
NtRp2284
(dp2285
g62
(dp2286
g70
I3
ssg71
g2280
sg64
(lp2287
g1677
asbasbasbasbasbasbasbasbasbasbasbag57
(g73
g59
NtRp2288
(dp2289
g62
(dp2290
sg71
g67
sg64
(lp2291
g57
(g78
g59
NtRp2292
(dp2293
g62
(dp2294
g82
g83
ssg71
g2288
sg64
(lp2295
S'is_https'
p2296
asbag57
(g78
g59
NtRp2297
(dp2298
g62
(dp2299
g89
g90
ssg71
g2288
sg64
(lp2300
S':'
asbag57
(g78
g59
NtRp2301
(dp2302
g62
(dp2303
sg71
g2288
sg64
(lp2304
g57
(g58
g59
NtRp2305
(dp2306
g62
(dp2307
g70
I5
ssg71
g2301
sg64
(lp2308
g100
asbasbasbag57
(g73
g59
NtRp2309
(dp2310
g62
(dp2311
sg71
g67
sg64
(lp2312
g57
(g78
g59
NtRp2313
(dp2314
g62
(dp2315
g82
g83
ssg71
g2309
sg64
(lp2316
S'is_local'
p2317
asbag57
(g78
g59
NtRp2318
(dp2319
g62
(dp2320
g89
g90
ssg71
g2309
sg64
(lp2321
S':'
asbag57
(g78
g59
NtRp2322
(dp2323
g62
(dp2324
sg71
g2309
sg64
(lp2325
g57
(g58
g59
NtRp2326
(dp2327
g62
(dp2328
g70
I5
ssg71
g2322
sg64
(lp2329
g1786
asbasbasbag57
(g73
g59
NtRp2330
(dp2331
g62
(dp2332
sg71
g67
sg64
(lp2333
g57
(g78
g59
NtRp2334
(dp2335
g62
(dp2336
g82
g83
ssg71
g2330
sg64
(lp2337
S'is_restful'
p2338
asbag57
(g78
g59
NtRp2339
(dp2340
g62
(dp2341
g89
g90
ssg71
g2330
sg64
(lp2342
S':'
asbag57
(g78
g59
NtRp2343
(dp2344
g62
(dp2345
sg71
g2330
sg64
(lp2346
g57
(g58
g59
NtRp2347
(dp2348
g62
(dp2349
g70
I5
ssg71
g2343
sg64
(lp2350
g100
asbasbasbag57
(g73
g59
NtRp2351
(dp2352
g62
(dp2353
sg71
g67
sg64
(lp2354
g57
(g78
g59
NtRp2355
(dp2356
g62
(dp2357
g82
g83
ssg71
g2351
sg64
(lp2358
S'now'
p2359
asbag57
(g78
g59
NtRp2360
(dp2361
g62
(dp2362
g89
g90
ssg71
g2351
sg64
(lp2363
S':'
asbag57
(g78
g59
NtRp2364
(dp2365
g62
(dp2366
sg71
g2351
sg64
(lp2367
g57
(g58
g59
NtRp2368
(dp2369
g62
(dp2370
g70
I5
ssg71
g2364
sg64
(lp2371
S'datetime.datetime(2013, 9, 22, 9, 29, 8, 463790)'
p2372
asbasbasbag57
(g73
g59
NtRp2373
(dp2374
g62
(dp2375
sg71
g67
sg64
(lp2376
g57
(g78
g59
NtRp2377
(dp2378
g62
(dp2379
g82
g83
ssg71
g2373
sg64
(lp2380
S'post_vars'
p2381
asbag57
(g78
g59
NtRp2382
(dp2383
g62
(dp2384
g89
g90
ssg71
g2373
sg64
(lp2385
S':'
asbag57
(g78
g59
NtRp2386
(dp2387
g62
(dp2388
sg71
g2373
sg64
(lp2389
g57
(g58
g59
NtRp2390
(dp2391
g62
(dp2392
g70
I5
ssg71
g2386
sg64
(lp2393
g57
(g66
g59
NtRp2394
(dp2395
g62
(dp2396
g70
I4
ssg71
Nsg64
(lp2397
g57
(g73
g59
NtRp2398
(dp2399
g62
(dp2400
sg71
g2394
sg64
(lp2401
g57
(g78
g59
NtRp2402
(dp2403
g62
(dp2404
g82
g83
ssg71
g2398
sg64
(lp2405
S'Qno'
p2406
asbag57
(g78
g59
NtRp2407
(dp2408
g62
(dp2409
g89
g90
ssg71
g2398
sg64
(lp2410
S':'
asbag57
(g78
g59
NtRp2411
(dp2412
g62
(dp2413
sg71
g2398
sg64
(lp2414
g57
(g58
g59
NtRp2415
(dp2416
g62
(dp2417
g70
I4
ssg71
g2411
sg64
(lp2418
S'6'
asbasbasbag57
(g73
g59
NtRp2419
(dp2420
g62
(dp2421
sg71
g2394
sg64
(lp2422
g57
(g78
g59
NtRp2423
(dp2424
g62
(dp2425
g82
g83
ssg71
g2419
sg64
(lp2426
S'ans'
p2427
asbag57
(g78
g59
NtRp2428
(dp2429
g62
(dp2430
g89
g90
ssg71
g2419
sg64
(lp2431
S':'
asbag57
(g78
g59
NtRp2432
(dp2433
g62
(dp2434
sg71
g2419
sg64
(lp2435
g57
(g58
g59
NtRp2436
(dp2437
g62
(dp2438
g70
I4
ssg71
g2432
sg64
(lp2439
S'ab'
p2440
asbasbasbasbasbasbasbag57
(g73
g59
NtRp2441
(dp2442
g62
(dp2443
sg71
g67
sg64
(lp2444
g57
(g78
g59
NtRp2445
(dp2446
g62
(dp2447
g82
g83
ssg71
g2441
sg64
(lp2448
S'url'
p2449
asbag57
(g78
g59
NtRp2450
(dp2451
g62
(dp2452
g89
g90
ssg71
g2441
sg64
(lp2453
S':'
asbag57
(g78
g59
NtRp2454
(dp2455
g62
(dp2456
sg71
g2441
sg64
(lp2457
g57
(g58
g59
NtRp2458
(dp2459
g62
(dp2460
g70
I5
ssg71
g2454
sg64
(lp2461
S'/Gordian_Knot/default/checkans'
p2462
asbasbasbag57
(g73
g59
NtRp2463
(dp2464
g62
(dp2465
sg71
g67
sg64
(lp2466
g57
(g78
g59
NtRp2467
(dp2468
g62
(dp2469
g82
g83
ssg71
g2463
sg64
(lp2470
S'utcnow'
p2471
asbag57
(g78
g59
NtRp2472
(dp2473
g62
(dp2474
g89
g90
ssg71
g2463
sg64
(lp2475
S':'
asbag57
(g78
g59
NtRp2476
(dp2477
g62
(dp2478
sg71
g2463
sg64
(lp2479
g57
(g58
g59
NtRp2480
(dp2481
g62
(dp2482
g70
I5
ssg71
g2476
sg64
(lp2483
S'datetime.datetime(2013, 9, 22, 3, 59, 8, 463830)'
p2484
asbasbasbag57
(g73
g59
NtRp2485
(dp2486
g62
(dp2487
sg71
g67
sg64
(lp2488
g57
(g78
g59
NtRp2489
(dp2490
g62
(dp2491
g82
g83
ssg71
g2485
sg64
(lp2492
S'uuid'
p2493
asbag57
(g78
g59
NtRp2494
(dp2495
g62
(dp2496
g89
g90
ssg71
g2485
sg64
(lp2497
S':'
asbag57
(g78
g59
NtRp2498
(dp2499
g62
(dp2500
sg71
g2485
sg64
(lp2501
g57
(g58
g59
NtRp2502
(dp2503
g62
(dp2504
g70
I5
ssg71
g2498
sg64
(lp2505
S'Gordian_Knot/127.0.0.1.2013-09-22.09-29-08.3cc80882-5be9-44d9-a25d-1d287f5877b8'
p2506
asbasbasbag57
(g73
g59
NtRp2507
(dp2508
g62
(dp2509
sg71
g67
sg64
(lp2510
g57
(g78
g59
NtRp2511
(dp2512
g62
(dp2513
g82
g83
ssg71
g2507
sg64
(lp2514
S'vars'
p2515
asbag57
(g78
g59
NtRp2516
(dp2517
g62
(dp2518
g89
g90
ssg71
g2507
sg64
(lp2519
S':'
asbag57
(g78
g59
NtRp2520
(dp2521
g62
(dp2522
sg71
g2507
sg64
(lp2523
g57
(g58
g59
NtRp2524
(dp2525
g62
(dp2526
g70
I5
ssg71
g2520
sg64
(lp2527
g57
(g66
g59
NtRp2528
(dp2529
g62
(dp2530
g70
I4
ssg71
Nsg64
(lp2531
g57
(g73
g59
NtRp2532
(dp2533
g62
(dp2534
sg71
g2528
sg64
(lp2535
g57
(g78
g59
NtRp2536
(dp2537
g62
(dp2538
g82
g83
ssg71
g2532
sg64
(lp2539
g2406
asbag57
(g78
g59
NtRp2540
(dp2541
g62
(dp2542
g89
g90
ssg71
g2532
sg64
(lp2543
S':'
asbag57
(g78
g59
NtRp2544
(dp2545
g62
(dp2546
sg71
g2532
sg64
(lp2547
g57
(g58
g59
NtRp2548
(dp2549
g62
(dp2550
g70
I4
ssg71
g2544
sg64
(lp2551
S'6'
asbasbasbag57
(g73
g59
NtRp2552
(dp2553
g62
(dp2554
sg71
g2528
sg64
(lp2555
g57
(g78
g59
NtRp2556
(dp2557
g62
(dp2558
g82
g83
ssg71
g2552
sg64
(lp2559
g2427
asbag57
(g78
g59
NtRp2560
(dp2561
g62
(dp2562
g89
g90
ssg71
g2552
sg64
(lp2563
S':'
asbag57
(g78
g59
NtRp2564
(dp2565
g62
(dp2566
sg71
g2552
sg64
(lp2567
g57
(g58
g59
NtRp2568
(dp2569
g62
(dp2570
g70
I4
ssg71
g2564
sg64
(lp2571
g2440
asbasbasbasbasbasbasbag57
(g73
g59
NtRp2572
(dp2573
g62
(dp2574
sg71
g67
sg64
(lp2575
g57
(g78
g59
NtRp2576
(dp2577
g62
(dp2578
g82
g83
ssg71
g2572
sg64
(lp2579
S'wsgi'
p2580
asbag57
(g78
g59
NtRp2581
(dp2582
g62
(dp2583
g89
g90
ssg71
g2572
sg64
(lp2584
S':'
asbag57
(g78
g59
NtRp2585
(dp2586
g62
(dp2587
sg71
g2572
sg64
(lp2588
g57
(g58
g59
NtRp2589
(dp2590
g62
(dp2591
g70
I5
ssg71
g2585
sg64
(lp2592
g57
(g66
g59
NtRp2593
(dp2594
g62
(dp2595
g70
I4
ssg71
Nsg64
(lp2596
g57
(g73
g59
NtRp2597
(dp2598
g62
(dp2599
sg71
g2593
sg64
(lp2600
g57
(g78
g59
NtRp2601
(dp2602
g62
(dp2603
g82
g83
ssg71
g2597
sg64
(lp2604
S'environ'
p2605
asbag57
(g78
g59
NtRp2606
(dp2607
g62
(dp2608
g89
g90
ssg71
g2597
sg64
(lp2609
S':'
asbag57
(g78
g59
NtRp2610
(dp2611
g62
(dp2612
sg71
g2597
sg64
(lp2613
g57
(g58
g59
NtRp2614
(dp2615
g62
(dp2616
g70
I4
ssg71
g2610
sg64
(lp2617
g57
(g66
g59
NtRp2618
(dp2619
g62
(dp2620
g70
I3
ssg71
Nsg64
(lp2621
g57
(g73
g59
NtRp2622
(dp2623
g62
(dp2624
sg71
g2618
sg64
(lp2625
g57
(g78
g59
NtRp2626
(dp2627
g62
(dp2628
g82
g83
ssg71
g2622
sg64
(lp2629
S'CONTENT_LENGTH'
p2630
asbag57
(g78
g59
NtRp2631
(dp2632
g62
(dp2633
g89
g90
ssg71
g2622
sg64
(lp2634
S':'
asbag57
(g78
g59
NtRp2635
(dp2636
g62
(dp2637
sg71
g2622
sg64
(lp2638
g57
(g58
g59
NtRp2639
(dp2640
g62
(dp2641
g70
I3
ssg71
g2635
sg64
(lp2642
g938
asbasbasbag57
(g73
g59
NtRp2643
(dp2644
g62
(dp2645
sg71
g2618
sg64
(lp2646
g57
(g78
g59
NtRp2647
(dp2648
g62
(dp2649
g82
g83
ssg71
g2643
sg64
(lp2650
S'CONTENT_TYPE'
p2651
asbag57
(g78
g59
NtRp2652
(dp2653
g62
(dp2654
g89
g90
ssg71
g2643
sg64
(lp2655
S':'
asbag57
(g78
g59
NtRp2656
(dp2657
g62
(dp2658
sg71
g2643
sg64
(lp2659
g57
(g58
g59
NtRp2660
(dp2661
g62
(dp2662
g70
I3
ssg71
g2656
sg64
(lp2663
g960
asbasbasbag57
(g73
g59
NtRp2664
(dp2665
g62
(dp2666
sg71
g2618
sg64
(lp2667
g57
(g78
g59
NtRp2668
(dp2669
g62
(dp2670
g82
g83
ssg71
g2664
sg64
(lp2671
S'HTTP_ACCEPT'
p2672
asbag57
(g78
g59
NtRp2673
(dp2674
g62
(dp2675
g89
g90
ssg71
g2664
sg64
(lp2676
S':'
asbag57
(g78
g59
NtRp2677
(dp2678
g62
(dp2679
sg71
g2664
sg64
(lp2680
g57
(g58
g59
NtRp2681
(dp2682
g62
(dp2683
g70
I3
ssg71
g2677
sg64
(lp2684
g1047
asbasbasbag57
(g73
g59
NtRp2685
(dp2686
g62
(dp2687
sg71
g2618
sg64
(lp2688
g57
(g78
g59
NtRp2689
(dp2690
g62
(dp2691
g82
g83
ssg71
g2685
sg64
(lp2692
S'HTTP_ACCEPT_ENCODING'
p2693
asbag57
(g78
g59
NtRp2694
(dp2695
g62
(dp2696
g89
g90
ssg71
g2685
sg64
(lp2697
S':'
asbag57
(g78
g59
NtRp2698
(dp2699
g62
(dp2700
sg71
g2685
sg64
(lp2701
g57
(g58
g59
NtRp2702
(dp2703
g62
(dp2704
g70
I3
ssg71
g2698
sg64
(lp2705
g1069
asbasbasbag57
(g73
g59
NtRp2706
(dp2707
g62
(dp2708
sg71
g2618
sg64
(lp2709
g57
(g78
g59
NtRp2710
(dp2711
g62
(dp2712
g82
g83
ssg71
g2706
sg64
(lp2713
S'HTTP_ACCEPT_LANGUAGE'
p2714
asbag57
(g78
g59
NtRp2715
(dp2716
g62
(dp2717
g89
g90
ssg71
g2706
sg64
(lp2718
S':'
asbag57
(g78
g59
NtRp2719
(dp2720
g62
(dp2721
sg71
g2706
sg64
(lp2722
g57
(g58
g59
NtRp2723
(dp2724
g62
(dp2725
g70
I3
ssg71
g2719
sg64
(lp2726
g1091
asbasbasbag57
(g73
g59
NtRp2727
(dp2728
g62
(dp2729
sg71
g2618
sg64
(lp2730
g57
(g78
g59
NtRp2731
(dp2732
g62
(dp2733
g82
g83
ssg71
g2727
sg64
(lp2734
S'HTTP_CACHE_CONTROL'
p2735
asbag57
(g78
g59
NtRp2736
(dp2737
g62
(dp2738
g89
g90
ssg71
g2727
sg64
(lp2739
S':'
asbag57
(g78
g59
NtRp2740
(dp2741
g62
(dp2742
sg71
g2727
sg64
(lp2743
g57
(g58
g59
NtRp2744
(dp2745
g62
(dp2746
g70
I3
ssg71
g2740
sg64
(lp2747
g1113
asbasbasbag57
(g73
g59
NtRp2748
(dp2749
g62
(dp2750
sg71
g2618
sg64
(lp2751
g57
(g78
g59
NtRp2752
(dp2753
g62
(dp2754
g82
g83
ssg71
g2748
sg64
(lp2755
S'HTTP_CONNECTION'
p2756
asbag57
(g78
g59
NtRp2757
(dp2758
g62
(dp2759
g89
g90
ssg71
g2748
sg64
(lp2760
S':'
asbag57
(g78
g59
NtRp2761
(dp2762
g62
(dp2763
sg71
g2748
sg64
(lp2764
g57
(g58
g59
NtRp2765
(dp2766
g62
(dp2767
g70
I3
ssg71
g2761
sg64
(lp2768
g1135
asbasbasbag57
(g73
g59
NtRp2769
(dp2770
g62
(dp2771
sg71
g2618
sg64
(lp2772
g57
(g78
g59
NtRp2773
(dp2774
g62
(dp2775
g82
g83
ssg71
g2769
sg64
(lp2776
S'HTTP_CONTENT_LENGTH'
p2777
asbag57
(g78
g59
NtRp2778
(dp2779
g62
(dp2780
g89
g90
ssg71
g2769
sg64
(lp2781
S':'
asbag57
(g78
g59
NtRp2782
(dp2783
g62
(dp2784
sg71
g2769
sg64
(lp2785
g57
(g58
g59
NtRp2786
(dp2787
g62
(dp2788
g70
I3
ssg71
g2782
sg64
(lp2789
g938
asbasbasbag57
(g73
g59
NtRp2790
(dp2791
g62
(dp2792
sg71
g2618
sg64
(lp2793
g57
(g78
g59
NtRp2794
(dp2795
g62
(dp2796
g82
g83
ssg71
g2790
sg64
(lp2797
S'HTTP_CONTENT_TYPE'
p2798
asbag57
(g78
g59
NtRp2799
(dp2800
g62
(dp2801
g89
g90
ssg71
g2790
sg64
(lp2802
S':'
asbag57
(g78
g59
NtRp2803
(dp2804
g62
(dp2805
sg71
g2790
sg64
(lp2806
g57
(g58
g59
NtRp2807
(dp2808
g62
(dp2809
g70
I3
ssg71
g2803
sg64
(lp2810
g960
asbasbasbag57
(g73
g59
NtRp2811
(dp2812
g62
(dp2813
sg71
g2618
sg64
(lp2814
g57
(g78
g59
NtRp2815
(dp2816
g62
(dp2817
g82
g83
ssg71
g2811
sg64
(lp2818
S'HTTP_COOKIE'
p2819
asbag57
(g78
g59
NtRp2820
(dp2821
g62
(dp2822
g89
g90
ssg71
g2811
sg64
(lp2823
S':'
asbag57
(g78
g59
NtRp2824
(dp2825
g62
(dp2826
sg71
g2811
sg64
(lp2827
g57
(g58
g59
NtRp2828
(dp2829
g62
(dp2830
g70
I3
ssg71
g2824
sg64
(lp2831
g1199
asbasbasbag57
(g73
g59
NtRp2832
(dp2833
g62
(dp2834
sg71
g2618
sg64
(lp2835
g57
(g78
g59
NtRp2836
(dp2837
g62
(dp2838
g82
g83
ssg71
g2832
sg64
(lp2839
S'HTTP_HOST'
p2840
asbag57
(g78
g59
NtRp2841
(dp2842
g62
(dp2843
g89
g90
ssg71
g2832
sg64
(lp2844
S':'
asbag57
(g78
g59
NtRp2845
(dp2846
g62
(dp2847
sg71
g2832
sg64
(lp2848
g57
(g58
g59
NtRp2849
(dp2850
g62
(dp2851
g70
I3
ssg71
g2845
sg64
(lp2852
g1221
asbasbasbag57
(g73
g59
NtRp2853
(dp2854
g62
(dp2855
sg71
g2618
sg64
(lp2856
g57
(g78
g59
NtRp2857
(dp2858
g62
(dp2859
g82
g83
ssg71
g2853
sg64
(lp2860
S'HTTP_ORIGIN'
p2861
asbag57
(g78
g59
NtRp2862
(dp2863
g62
(dp2864
g89
g90
ssg71
g2853
sg64
(lp2865
S':'
asbag57
(g78
g59
NtRp2866
(dp2867
g62
(dp2868
sg71
g2853
sg64
(lp2869
g57
(g58
g59
NtRp2870
(dp2871
g62
(dp2872
g70
I3
ssg71
g2866
sg64
(lp2873
g1243
asbasbasbag57
(g73
g59
NtRp2874
(dp2875
g62
(dp2876
sg71
g2618
sg64
(lp2877
g57
(g78
g59
NtRp2878
(dp2879
g62
(dp2880
g82
g83
ssg71
g2874
sg64
(lp2881
S'HTTP_REFERER'
p2882
asbag57
(g78
g59
NtRp2883
(dp2884
g62
(dp2885
g89
g90
ssg71
g2874
sg64
(lp2886
S':'
asbag57
(g78
g59
NtRp2887
(dp2888
g62
(dp2889
sg71
g2874
sg64
(lp2890
g57
(g58
g59
NtRp2891
(dp2892
g62
(dp2893
g70
I3
ssg71
g2887
sg64
(lp2894
g1265
asbasbasbag57
(g73
g59
NtRp2895
(dp2896
g62
(dp2897
sg71
g2618
sg64
(lp2898
g57
(g78
g59
NtRp2899
(dp2900
g62
(dp2901
g82
g83
ssg71
g2895
sg64
(lp2902
S'HTTP_USER_AGENT'
p2903
asbag57
(g78
g59
NtRp2904
(dp2905
g62
(dp2906
g89
g90
ssg71
g2895
sg64
(lp2907
S':'
asbag57
(g78
g59
NtRp2908
(dp2909
g62
(dp2910
sg71
g2895
sg64
(lp2911
g57
(g58
g59
NtRp2912
(dp2913
g62
(dp2914
g70
I3
ssg71
g2908
sg64
(lp2915
g1287
asbasbasbag57
(g73
g59
NtRp2916
(dp2917
g62
(dp2918
sg71
g2618
sg64
(lp2919
g57
(g78
g59
NtRp2920
(dp2921
g62
(dp2922
g82
g83
ssg71
g2916
sg64
(lp2923
S'PATH_INFO'
p2924
asbag57
(g78
g59
NtRp2925
(dp2926
g62
(dp2927
g89
g90
ssg71
g2916
sg64
(lp2928
S':'
asbag57
(g78
g59
NtRp2929
(dp2930
g62
(dp2931
sg71
g2916
sg64
(lp2932
g57
(g58
g59
NtRp2933
(dp2934
g62
(dp2935
g70
I3
ssg71
g2929
sg64
(lp2936
g1351
asbasbasbag57
(g73
g59
NtRp2937
(dp2938
g62
(dp2939
sg71
g2618
sg64
(lp2940
g57
(g78
g59
NtRp2941
(dp2942
g62
(dp2943
g82
g83
ssg71
g2937
sg64
(lp2944
S'QUERY_STRING'
p2945
asbag57
(g78
g59
NtRp2946
(dp2947
g62
(dp2948
g89
g90
ssg71
g2937
sg64
(lp2949
S':'
asbag57
(g78
g59
NtRp2950
(dp2951
g62
(dp2952
sg71
g2937
sg64
(lp2953
g57
(g58
g59
NtRp2954
(dp2955
g62
(dp2956
g70
I3
ssg71
g2950
sg64
(lp2957
S''
asbasbasbag57
(g73
g59
NtRp2958
(dp2959
g62
(dp2960
sg71
g2618
sg64
(lp2961
g57
(g78
g59
NtRp2962
(dp2963
g62
(dp2964
g82
g83
ssg71
g2958
sg64
(lp2965
S'REMOTE_ADDR'
p2966
asbag57
(g78
g59
NtRp2967
(dp2968
g62
(dp2969
g89
g90
ssg71
g2958
sg64
(lp2970
S':'
asbag57
(g78
g59
NtRp2971
(dp2972
g62
(dp2973
sg71
g2958
sg64
(lp2974
g57
(g58
g59
NtRp2975
(dp2976
g62
(dp2977
g70
I3
ssg71
g2971
sg64
(lp2978
g190
asbasbasbag57
(g73
g59
NtRp2979
(dp2980
g62
(dp2981
sg71
g2618
sg64
(lp2982
g57
(g78
g59
NtRp2983
(dp2984
g62
(dp2985
g82
g83
ssg71
g2979
sg64
(lp2986
S'REMOTE_PORT'
p2987
asbag57
(g78
g59
NtRp2988
(dp2989
g62
(dp2990
g89
g90
ssg71
g2979
sg64
(lp2991
S':'
asbag57
(g78
g59
NtRp2992
(dp2993
g62
(dp2994
sg71
g2979
sg64
(lp2995
g57
(g58
g59
NtRp2996
(dp2997
g62
(dp2998
g70
I3
ssg71
g2992
sg64
(lp2999
g1415
asbasbasbag57
(g73
g59
NtRp3000
(dp3001
g62
(dp3002
sg71
g2618
sg64
(lp3003
g57
(g78
g59
NtRp3004
(dp3005
g62
(dp3006
g82
g83
ssg71
g3000
sg64
(lp3007
S'REQUEST_METHOD'
p3008
asbag57
(g78
g59
NtRp3009
(dp3010
g62
(dp3011
g89
g90
ssg71
g3000
sg64
(lp3012
S':'
asbag57
(g78
g59
NtRp3013
(dp3014
g62
(dp3015
sg71
g3000
sg64
(lp3016
g57
(g58
g59
NtRp3017
(dp3018
g62
(dp3019
g70
I3
ssg71
g3013
sg64
(lp3020
g1437
asbasbasbag57
(g73
g59
NtRp3021
(dp3022
g62
(dp3023
sg71
g2618
sg64
(lp3024
g57
(g78
g59
NtRp3025
(dp3026
g62
(dp3027
g82
g83
ssg71
g3021
sg64
(lp3028
S'SCRIPT_NAME'
p3029
asbag57
(g78
g59
NtRp3030
(dp3031
g62
(dp3032
g89
g90
ssg71
g3021
sg64
(lp3033
S':'
asbag57
(g78
g59
NtRp3034
(dp3035
g62
(dp3036
sg71
g3021
sg64
(lp3037
g57
(g58
g59
NtRp3038
(dp3039
g62
(dp3040
g70
I3
ssg71
g3034
sg64
(lp3041
S''
asbasbasbag57
(g73
g59
NtRp3042
(dp3043
g62
(dp3044
sg71
g2618
sg64
(lp3045
g57
(g78
g59
NtRp3046
(dp3047
g62
(dp3048
g82
g83
ssg71
g3042
sg64
(lp3049
S'SERVER_NAME'
p3050
asbag57
(g78
g59
NtRp3051
(dp3052
g62
(dp3053
g89
g90
ssg71
g3042
sg64
(lp3054
S':'
asbag57
(g78
g59
NtRp3055
(dp3056
g62
(dp3057
sg71
g3042
sg64
(lp3058
g57
(g58
g59
NtRp3059
(dp3060
g62
(dp3061
g70
I3
ssg71
g3055
sg64
(lp3062
g1480
asbasbasbag57
(g73
g59
NtRp3063
(dp3064
g62
(dp3065
sg71
g2618
sg64
(lp3066
g57
(g78
g59
NtRp3067
(dp3068
g62
(dp3069
g82
g83
ssg71
g3063
sg64
(lp3070
S'SERVER_PORT'
p3071
asbag57
(g78
g59
NtRp3072
(dp3073
g62
(dp3074
g89
g90
ssg71
g3063
sg64
(lp3075
S':'
asbag57
(g78
g59
NtRp3076
(dp3077
g62
(dp3078
sg71
g3063
sg64
(lp3079
g57
(g58
g59
NtRp3080
(dp3081
g62
(dp3082
g70
I3
ssg71
g3076
sg64
(lp3083
g1502
asbasbasbag57
(g73
g59
NtRp3084
(dp3085
g62
(dp3086
sg71
g2618
sg64
(lp3087
g57
(g78
g59
NtRp3088
(dp3089
g62
(dp3090
g82
g83
ssg71
g3084
sg64
(lp3091
S'SERVER_PROTOCOL'
p3092
asbag57
(g78
g59
NtRp3093
(dp3094
g62
(dp3095
g89
g90
ssg71
g3084
sg64
(lp3096
S':'
asbag57
(g78
g59
NtRp3097
(dp3098
g62
(dp3099
sg71
g3084
sg64
(lp3100
g57
(g58
g59
NtRp3101
(dp3102
g62
(dp3103
g70
I3
ssg71
g3097
sg64
(lp3104
g1524
asbasbasbag57
(g73
g59
NtRp3105
(dp3106
g62
(dp3107
sg71
g2618
sg64
(lp3108
g57
(g78
g59
NtRp3109
(dp3110
g62
(dp3111
g82
g83
ssg71
g3105
sg64
(lp3112
S'SERVER_SOFTWARE'
p3113
asbag57
(g78
g59
NtRp3114
(dp3115
g62
(dp3116
g89
g90
ssg71
g3105
sg64
(lp3117
S':'
asbag57
(g78
g59
NtRp3118
(dp3119
g62
(dp3120
sg71
g3105
sg64
(lp3121
g57
(g58
g59
NtRp3122
(dp3123
g62
(dp3124
g70
I3
ssg71
g3118
sg64
(lp3125
g1546
asbasbasbag57
(g73
g59
NtRp3126
(dp3127
g62
(dp3128
sg71
g2618
sg64
(lp3129
g57
(g78
g59
NtRp3130
(dp3131
g62
(dp3132
g82
g83
ssg71
g3126
sg64
(lp3133
S'wsgi.errors'
p3134
asbag57
(g78
g59
NtRp3135
(dp3136
g62
(dp3137
g89
g90
ssg71
g3126
sg64
(lp3138
S':'
asbag57
(g78
g59
NtRp3139
(dp3140
g62
(dp3141
sg71
g3126
sg64
(lp3142
g57
(g58
g59
NtRp3143
(dp3144
g62
(dp3145
g70
I3
ssg71
g3139
sg64
(lp3146
S"<open file '<stderr>', mode 'w' at 0x7f0ddee12270>"
p3147
asbasbasbag57
(g73
g59
NtRp3148
(dp3149
g62
(dp3150
sg71
g2618
sg64
(lp3151
g57
(g78
g59
NtRp3152
(dp3153
g62
(dp3154
g82
g83
ssg71
g3148
sg64
(lp3155
S'wsgi.file_wrapper'
p3156
asbag57
(g78
g59
NtRp3157
(dp3158
g62
(dp3159
g89
g90
ssg71
g3148
sg64
(lp3160
S':'
asbag57
(g78
g59
NtRp3161
(dp3162
g62
(dp3163
sg71
g3148
sg64
(lp3164
g57
(g58
g59
NtRp3165
(dp3166
g62
(dp3167
g70
I3
ssg71
g3161
sg64
(lp3168
S'<class wsgiref.util.FileWrapper at 0x29e8390>'
p3169
asbasbasbag57
(g73
g59
NtRp3170
(dp3171
g62
(dp3172
sg71
g2618
sg64
(lp3173
g57
(g78
g59
NtRp3174
(dp3175
g62
(dp3176
g82
g83
ssg71
g3170
sg64
(lp3177
S'wsgi.input'
p3178
asbag57
(g78
g59
NtRp3179
(dp3180
g62
(dp3181
g89
g90
ssg71
g3170
sg64
(lp3182
S':'
asbag57
(g78
g59
NtRp3183
(dp3184
g62
(dp3185
sg71
g3170
sg64
(lp3186
g57
(g58
g59
NtRp3187
(dp3188
g62
(dp3189
g70
I3
ssg71
g3183
sg64
(lp3190
S"<open file '<fdopen>', mode 'w+b' at 0x7f0d94274db0>"
p3191
asbasbasbag57
(g73
g59
NtRp3192
(dp3193
g62
(dp3194
sg71
g2618
sg64
(lp3195
g57
(g78
g59
NtRp3196
(dp3197
g62
(dp3198
g82
g83
ssg71
g3192
sg64
(lp3199
S'wsgi.multiprocess'
p3200
asbag57
(g78
g59
NtRp3201
(dp3202
g62
(dp3203
g89
g90
ssg71
g3192
sg64
(lp3204
S':'
asbag57
(g78
g59
NtRp3205
(dp3206
g62
(dp3207
sg71
g3192
sg64
(lp3208
g57
(g58
g59
NtRp3209
(dp3210
g62
(dp3211
g70
I3
ssg71
g3205
sg64
(lp3212
g100
asbasbasbag57
(g73
g59
NtRp3213
(dp3214
g62
(dp3215
sg71
g2618
sg64
(lp3216
g57
(g78
g59
NtRp3217
(dp3218
g62
(dp3219
g82
g83
ssg71
g3213
sg64
(lp3220
S'wsgi.multithread'
p3221
asbag57
(g78
g59
NtRp3222
(dp3223
g62
(dp3224
g89
g90
ssg71
g3213
sg64
(lp3225
S':'
asbag57
(g78
g59
NtRp3226
(dp3227
g62
(dp3228
sg71
g3213
sg64
(lp3229
g57
(g58
g59
NtRp3230
(dp3231
g62
(dp3232
g70
I3
ssg71
g3226
sg64
(lp3233
g1786
asbasbasbag57
(g73
g59
NtRp3234
(dp3235
g62
(dp3236
sg71
g2618
sg64
(lp3237
g57
(g78
g59
NtRp3238
(dp3239
g62
(dp3240
g82
g83
ssg71
g3234
sg64
(lp3241
S'wsgi.run_once'
p3242
asbag57
(g78
g59
NtRp3243
(dp3244
g62
(dp3245
g89
g90
ssg71
g3234
sg64
(lp3246
S':'
asbag57
(g78
g59
NtRp3247
(dp3248
g62
(dp3249
sg71
g3234
sg64
(lp3250
g57
(g58
g59
NtRp3251
(dp3252
g62
(dp3253
g70
I3
ssg71
g3247
sg64
(lp3254
g100
asbasbasbag57
(g73
g59
NtRp3255
(dp3256
g62
(dp3257
sg71
g2618
sg64
(lp3258
g57
(g78
g59
NtRp3259
(dp3260
g62
(dp3261
g82
g83
ssg71
g3255
sg64
(lp3262
S'wsgi.url_scheme'
p3263
asbag57
(g78
g59
NtRp3264
(dp3265
g62
(dp3266
g89
g90
ssg71
g3255
sg64
(lp3267
S':'
asbag57
(g78
g59
NtRp3268
(dp3269
g62
(dp3270
sg71
g3255
sg64
(lp3271
g57
(g58
g59
NtRp3272
(dp3273
g62
(dp3274
g70
I3
ssg71
g3268
sg64
(lp3275
g1829
asbasbasbag57
(g73
g59
NtRp3276
(dp3277
g62
(dp3278
sg71
g2618
sg64
(lp3279
g57
(g78
g59
NtRp3280
(dp3281
g62
(dp3282
g82
g83
ssg71
g3276
sg64
(lp3283
S'wsgi.version'
p3284
asbag57
(g78
g59
NtRp3285
(dp3286
g62
(dp3287
g89
g90
ssg71
g3276
sg64
(lp3288
S':'
asbag57
(g78
g59
NtRp3289
(dp3290
g62
(dp3291
sg71
g3276
sg64
(lp3292
g57
(g58
g59
NtRp3293
(dp3294
g62
(dp3295
g70
I3
ssg71
g3289
sg64
(lp3296
S'1'
asbasbasbasbasbasbasbasbasbasbasbasbasbsS'frames'
p3297
(lp3298
(dp3299
S'file'
p3300
S'/usr/lib/pymodules/python2.7/gluon/restricted.py'
p3301
sS'dump'
p3302
(dp3303
S'environment'
p3304
S"{'A': <class 'gluon.html.A'>, 'Auth': <class 'gluon.tools.Auth'>, 'B': <class 'gluon.html.B'>, 'BEAUTIFY': <class 'gluon.html.BEAUTIFY'>, 'BODY': <class 'gluon.html.BODY'>, 'BR': <class 'gluon.html.BR'>, 'BUTTON': <class 'gluon.html.BUTTON'>, 'CAT': <class 'gluon.html.CAT'>, 'CENTER': <class 'gluon.html.CENTER'>, 'CLEANUP': <class 'gluon.validators.CLEANUP'>, ...}"
p3305
sS'ccode'
p3306
S'<code object <module> at 0x7f0d90112930, file "/...ns/Gordian_Knot/controllers/default.py", line 11>'
p3307
ssS'lnum'
p3308
I204
sS'lines'
p3309
(dp3310
I199
S'    try:'
p3311
sI200
S'        if type(code) == types.CodeType:'
p3312
sI201
S'            ccode = code'
p3313
sI202
S'        else:'
p3314
sI203
S'            ccode = compile2(code,layer)'
p3315
sI204
S'        exec ccode in environment'
p3316
sI205
S'    except HTTP:'
p3317
sI206
S'        raise'
p3318
sI207
S'    except RestrictedError:'
p3319
sI208
S'        # do not encapsulate (obfuscate) the original RestrictedError'
p3320
ssS'call'
p3321
S"(code='# -*- coding: utf-8 -*-\\n# this file is released ...d())\\n\\n\\nresponse._vars=response._caller(checkans)\\n', environment={'A': <class 'gluon.html.A'>, 'Auth': <class 'gluon.tools.Auth'>, 'B': <class 'gluon.html.B'>, 'BEAUTIFY': <class 'gluon.html.BEAUTIFY'>, 'BODY': <class 'gluon.html.BODY'>, 'BR': <class 'gluon.html.BR'>, 'BUTTON': <class 'gluon.html.BUTTON'>, 'CAT': <class 'gluon.html.CAT'>, 'CENTER': <class 'gluon.html.CENTER'>, 'CLEANUP': <class 'gluon.validators.CLEANUP'>, ...}, layer='/home/ds-iiit/web2py/applications/Gordian_Knot/controllers/default.py')"
p3322
sS'func'
p3323
S'restricted'
p3324
sa(dp3325
g3300
S'/home/ds-iiit/web2py/applications/Gordian_Knot/controllers/default.py'
p3326
sg3302
(dp3327
sg3308
I163
sg3309
(dp3328
I160
S'    return dict(form=crud())'
p3329
sI161
S''
sI152
S'    http://..../[app]/default/data/delete/[table]/[id]'
p3330
sI153
S'    http://..../[app]/default/data/select/[table]'
p3331
sI154
S'    http://..../[app]/default/data/search/[table]'
p3332
sI155
S'    but URLs must be signed, i.e. linked with'
p3333
sI156
S"      A('table',_href=URL('data/tables',user_signature=True))"
p3334
sI157
S'    or with the signed load operator'
p3335
sI158
S"      LOAD('default','data.load',args='tables',ajax=True,user_signature=True)"
p3336
sI159
S'    """'
p3337
ssg3321
S'()'
p3338
sg3323
S'<module>'
p3339
sa(dp3340
g3300
S'/usr/lib/pymodules/python2.7/gluon/globals.py'
p3341
sg3302
(dp3342
S'self'
p3343
S'undefined'
p3344
sS'f'
S'<function checkans>'
p3345
ssg3308
I172
sg3309
(dp3346
I167
S'        self.meta = Storage()      # used by web2py_ajax.html'
p3347
sI168
S'        self.menu = []             # used by the default view layout'
p3348
sI169
S'        self.files = []            # used by web2py_ajax.html'
p3349
sI170
S'        self.generic_patterns = [] # patterns to allow generic views'
p3350
sI171
S'        self._vars = None'
p3351
sI172
S'        self._caller = lambda f: f()'
p3352
sI173
S'        self._view_environment = None'
p3353
sI174
S'        self._custom_commit = None'
p3354
sI175
S'        self._custom_rollback = None'
p3355
sI176
S''
ssg3321
S'(f=<function checkans>)'
p3356
sg3323
S'<lambda>'
p3357
sa(dp3358
g3300
S'/usr/lib/pymodules/python2.7/gluon/tools.py'
p3359
sg3302
(dp3360
S'action'
p3361
S'<function checkans>'
p3362
sS'a'
S'()'
p3363
sS'b'
g45
ssg3308
I2533
sg3309
(dp3364
I2528
S'                # otherwise case 3 would be ok.'
p3365
sI2529
S'                if not (callable(condition) and condition() == True) and not condition == True:'
p3366
sI2530
S'                    current.session.flash = self.messages.access_denied'
p3367
sI2531
S'                    return call_or_redirect('
p3368
sI2532
S'                        self.settings.on_failed_authorization)'
p3369
sI2533
S'                return action(*a, **b)'
p3370
sI2534
S'            f.__doc__ = action.__doc__'
p3371
sI2535
S'            f.__name__ = action.__name__'
p3372
sI2536
S'            f.__dict__.update(action.__dict__)'
p3373
sI2537
S'            return f'
p3374
ssg3321
S'(*a=(), **b={})'
p3375
sg3323
S'f'
sa(dp3376
g3300
S'/home/ds-iiit/web2py/applications/Gordian_Knot/controllers/default.py'
p3377
sg3302
(dp3378
S'global URL'
p3379
S'<function URL>'
p3380
sS'args'
p3381
g3344
sS'global redirect'
p3382
S'<function redirect>'
p3383
sS'qno'
p3384
g3344
ssg3308
I78
sg3309
(dp3385
I73
S'\ttry:'
p3386
sI74
S'\t\tans = int(request.vars.ans)'
p3387
sI75
S'\t\tqno = int(request.vars.Qno)'
p3388
sI76
S'\texcept:'
p3389
sI77
S"\t\tsession.flash = 'Invalid answer. Please enter a positive integer'"
p3390
sI78
S"\t\tredirect(URL('think',args=qno))"
p3391
sI79
S'\tx = db((db.Trivia.id == qno) & (db.Trivia.Answer == ans)).select()'
p3392
sI80
S'\tif  len(x) == 0:'
p3393
sI81
S'\t\tz = db(db.Level.User == auth.user_id).select(distinct=True)'
p3394
sI82
S'\t\tresponse.flash = "I think you can do it!"'
p3395
ssg3321
S'()'
p3396
sg3323
S'checkans'
p3397
sasS'pyver'
p3398
S'Python 2.7.3: /usr/bin/python'
p3399
sS'session'
p3400
g57
(g58
g59
NtRp3401
(dp3402
g62
(dp3403
sg64
(lp3404
g57
(g66
g59
NtRp3405
(dp3406
g62
(dp3407
g70
I5
ssg71
Nsg64
(lp3408
g57
(g73
g59
NtRp3409
(dp3410
g62
(dp3411
sg71
g3405
sg64
(lp3412
g57
(g78
g59
NtRp3413
(dp3414
g62
(dp3415
g82
g83
ssg71
g3409
sg64
(lp3416
S'auth'
p3417
asbag57
(g78
g59
NtRp3418
(dp3419
g62
(dp3420
g89
g90
ssg71
g3409
sg64
(lp3421
S':'
asbag57
(g78
g59
NtRp3422
(dp3423
g62
(dp3424
sg71
g3409
sg64
(lp3425
g57
(g58
g59
NtRp3426
(dp3427
g62
(dp3428
g70
I5
ssg71
g3422
sg64
(lp3429
g57
(g66
g59
NtRp3430
(dp3431
g62
(dp3432
g70
I4
ssg71
Nsg64
(lp3433
g57
(g73
g59
NtRp3434
(dp3435
g62
(dp3436
sg71
g3430
sg64
(lp3437
g57
(g78
g59
NtRp3438
(dp3439
g62
(dp3440
g82
g83
ssg71
g3434
sg64
(lp3441
S'expiration'
p3442
asbag57
(g78
g59
NtRp3443
(dp3444
g62
(dp3445
g89
g90
ssg71
g3434
sg64
(lp3446
S':'
asbag57
(g78
g59
NtRp3447
(dp3448
g62
(dp3449
sg71
g3434
sg64
(lp3450
g57
(g58
g59
NtRp3451
(dp3452
g62
(dp3453
g70
I4
ssg71
g3447
sg64
(lp3454
S'2592000'
p3455
asbasbasbag57
(g73
g59
NtRp3456
(dp3457
g62
(dp3458
sg71
g3430
sg64
(lp3459
g57
(g78
g59
NtRp3460
(dp3461
g62
(dp3462
g82
g83
ssg71
g3456
sg64
(lp3463
S'hmac_key'
p3464
asbag57
(g78
g59
NtRp3465
(dp3466
g62
(dp3467
g89
g90
ssg71
g3456
sg64
(lp3468
S':'
asbag57
(g78
g59
NtRp3469
(dp3470
g62
(dp3471
sg71
g3456
sg64
(lp3472
g57
(g58
g59
NtRp3473
(dp3474
g62
(dp3475
g70
I4
ssg71
g3469
sg64
(lp3476
S'e1e5d73f-bb90-4477-8cca-9d5266dfa972'
p3477
asbasbasbag57
(g73
g59
NtRp3478
(dp3479
g62
(dp3480
sg71
g3430
sg64
(lp3481
g57
(g78
g59
NtRp3482
(dp3483
g62
(dp3484
g82
g83
ssg71
g3478
sg64
(lp3485
S'last_visit'
p3486
asbag57
(g78
g59
NtRp3487
(dp3488
g62
(dp3489
g89
g90
ssg71
g3478
sg64
(lp3490
S':'
asbag57
(g78
g59
NtRp3491
(dp3492
g62
(dp3493
sg71
g3478
sg64
(lp3494
g57
(g58
g59
NtRp3495
(dp3496
g62
(dp3497
g70
I4
ssg71
g3491
sg64
(lp3498
S'datetime.datetime(2013, 9, 22, 8, 1, 19, 967382)'
p3499
asbasbasbag57
(g73
g59
NtRp3500
(dp3501
g62
(dp3502
sg71
g3430
sg64
(lp3503
g57
(g78
g59
NtRp3504
(dp3505
g62
(dp3506
g82
g83
ssg71
g3500
sg64
(lp3507
S'remember'
p3508
asbag57
(g78
g59
NtRp3509
(dp3510
g62
(dp3511
g89
g90
ssg71
g3500
sg64
(lp3512
S':'
asbag57
(g78
g59
NtRp3513
(dp3514
g62
(dp3515
sg71
g3500
sg64
(lp3516
g57
(g58
g59
NtRp3517
(dp3518
g62
(dp3519
g70
I4
ssg71
g3513
sg64
(lp3520
g100
asbasbasbag57
(g73
g59
NtRp3521
(dp3522
g62
(dp3523
sg71
g3430
sg64
(lp3524
g57
(g78
g59
NtRp3525
(dp3526
g62
(dp3527
g82
g83
ssg71
g3521
sg64
(lp3528
S'user'
p3529
asbag57
(g78
g59
NtRp3530
(dp3531
g62
(dp3532
g89
g90
ssg71
g3521
sg64
(lp3533
S':'
asbag57
(g78
g59
NtRp3534
(dp3535
g62
(dp3536
sg71
g3521
sg64
(lp3537
g57
(g58
g59
NtRp3538
(dp3539
g62
(dp3540
g70
I4
ssg71
g3534
sg64
(lp3541
g57
(g66
g59
NtRp3542
(dp3543
g62
(dp3544
g70
I3
ssg71
Nsg64
(lp3545
g57
(g73
g59
NtRp3546
(dp3547
g62
(dp3548
sg71
g3542
sg64
(lp3549
g57
(g78
g59
NtRp3550
(dp3551
g62
(dp3552
g82
g83
ssg71
g3546
sg64
(lp3553
S'Points'
p3554
asbag57
(g78
g59
NtRp3555
(dp3556
g62
(dp3557
g89
g90
ssg71
g3546
sg64
(lp3558
S':'
asbag57
(g78
g59
NtRp3559
(dp3560
g62
(dp3561
sg71
g3546
sg64
(lp3562
g57
(g58
g59
NtRp3563
(dp3564
g62
(dp3565
g70
I3
ssg71
g3559
sg64
(lp3566
S'100'
p3567
asbasbasbag57
(g73
g59
NtRp3568
(dp3569
g62
(dp3570
sg71
g3542
sg64
(lp3571
g57
(g78
g59
NtRp3572
(dp3573
g62
(dp3574
g82
g83
ssg71
g3568
sg64
(lp3575
S'RollNo'
p3576
asbag57
(g78
g59
NtRp3577
(dp3578
g62
(dp3579
g89
g90
ssg71
g3568
sg64
(lp3580
S':'
asbag57
(g78
g59
NtRp3581
(dp3582
g62
(dp3583
sg71
g3568
sg64
(lp3584
g57
(g58
g59
NtRp3585
(dp3586
g62
(dp3587
g70
I3
ssg71
g3581
sg64
(lp3588
S'201256053'
p3589
asbasbasbag57
(g73
g59
NtRp3590
(dp3591
g62
(dp3592
sg71
g3542
sg64
(lp3593
g57
(g78
g59
NtRp3594
(dp3595
g62
(dp3596
g82
g83
ssg71
g3590
sg64
(lp3597
S'email'
p3598
asbag57
(g78
g59
NtRp3599
(dp3600
g62
(dp3601
g89
g90
ssg71
g3590
sg64
(lp3602
S':'
asbag57
(g78
g59
NtRp3603
(dp3604
g62
(dp3605
sg71
g3590
sg64
(lp3606
g57
(g58
g59
NtRp3607
(dp3608
g62
(dp3609
g70
I3
ssg71
g3603
sg64
(lp3610
S'devansh.shah@students.iiit.ac.in'
p3611
asbasbasbag57
(g73
g59
NtRp3612
(dp3613
g62
(dp3614
sg71
g3542
sg64
(lp3615
g57
(g78
g59
NtRp3616
(dp3617
g62
(dp3618
g82
g83
ssg71
g3612
sg64
(lp3619
S'first_name'
p3620
asbag57
(g78
g59
NtRp3621
(dp3622
g62
(dp3623
g89
g90
ssg71
g3612
sg64
(lp3624
S':'
asbag57
(g78
g59
NtRp3625
(dp3626
g62
(dp3627
sg71
g3612
sg64
(lp3628
g57
(g58
g59
NtRp3629
(dp3630
g62
(dp3631
g70
I3
ssg71
g3625
sg64
(lp3632
S'Devansh'
p3633
asbasbasbag57
(g73
g59
NtRp3634
(dp3635
g62
(dp3636
sg71
g3542
sg64
(lp3637
g57
(g78
g59
NtRp3638
(dp3639
g62
(dp3640
g82
g83
ssg71
g3634
sg64
(lp3641
S'id'
p3642
asbag57
(g78
g59
NtRp3643
(dp3644
g62
(dp3645
g89
g90
ssg71
g3634
sg64
(lp3646
S':'
asbag57
(g78
g59
NtRp3647
(dp3648
g62
(dp3649
sg71
g3634
sg64
(lp3650
g57
(g58
g59
NtRp3651
(dp3652
g62
(dp3653
g70
I3
ssg71
g3647
sg64
(lp3654
S'1'
asbasbasbag57
(g73
g59
NtRp3655
(dp3656
g62
(dp3657
sg71
g3542
sg64
(lp3658
g57
(g78
g59
NtRp3659
(dp3660
g62
(dp3661
g82
g83
ssg71
g3655
sg64
(lp3662
S'last_name'
p3663
asbag57
(g78
g59
NtRp3664
(dp3665
g62
(dp3666
g89
g90
ssg71
g3655
sg64
(lp3667
S':'
asbag57
(g78
g59
NtRp3668
(dp3669
g62
(dp3670
sg71
g3655
sg64
(lp3671
g57
(g58
g59
NtRp3672
(dp3673
g62
(dp3674
g70
I3
ssg71
g3668
sg64
(lp3675
S'Shah'
p3676
asbasbasbag57
(g73
g59
NtRp3677
(dp3678
g62
(dp3679
sg71
g3542
sg64
(lp3680
g57
(g78
g59
NtRp3681
(dp3682
g62
(dp3683
g82
g83
ssg71
g3677
sg64
(lp3684
S'password'
p3685
asbag57
(g78
g59
NtRp3686
(dp3687
g62
(dp3688
g89
g90
ssg71
g3677
sg64
(lp3689
S':'
asbag57
(g78
g59
NtRp3690
(dp3691
g62
(dp3692
sg71
g3677
sg64
(lp3693
g57
(g58
g59
NtRp3694
(dp3695
g62
(dp3696
g70
I3
ssg71
g3690
sg64
(lp3697
S'4fa78620b77f92c7faf768350dccbc8d'
p3698
asbasbasbag57
(g73
g59
NtRp3699
(dp3700
g62
(dp3701
sg71
g3542
sg64
(lp3702
g57
(g78
g59
NtRp3703
(dp3704
g62
(dp3705
g82
g83
ssg71
g3699
sg64
(lp3706
S'registration_id'
p3707
asbag57
(g78
g59
NtRp3708
(dp3709
g62
(dp3710
g89
g90
ssg71
g3699
sg64
(lp3711
S':'
asbag57
(g78
g59
NtRp3712
(dp3713
g62
(dp3714
sg71
g3699
sg64
(lp3715
g57
(g58
g59
NtRp3716
(dp3717
g62
(dp3718
g70
I3
ssg71
g3712
sg64
(lp3719
S''
asbasbasbag57
(g73
g59
NtRp3720
(dp3721
g62
(dp3722
sg71
g3542
sg64
(lp3723
g57
(g78
g59
NtRp3724
(dp3725
g62
(dp3726
g82
g83
ssg71
g3720
sg64
(lp3727
S'registration_key'
p3728
asbag57
(g78
g59
NtRp3729
(dp3730
g62
(dp3731
g89
g90
ssg71
g3720
sg64
(lp3732
S':'
asbag57
(g78
g59
NtRp3733
(dp3734
g62
(dp3735
sg71
g3720
sg64
(lp3736
g57
(g58
g59
NtRp3737
(dp3738
g62
(dp3739
g70
I3
ssg71
g3733
sg64
(lp3740
S''
asbasbasbag57
(g73
g59
NtRp3741
(dp3742
g62
(dp3743
sg71
g3542
sg64
(lp3744
g57
(g78
g59
NtRp3745
(dp3746
g62
(dp3747
g82
g83
ssg71
g3741
sg64
(lp3748
S'reset_password_key'
p3749
asbag57
(g78
g59
NtRp3750
(dp3751
g62
(dp3752
g89
g90
ssg71
g3741
sg64
(lp3753
S':'
asbag57
(g78
g59
NtRp3754
(dp3755
g62
(dp3756
sg71
g3741
sg64
(lp3757
g57
(g58
g59
NtRp3758
(dp3759
g62
(dp3760
g70
I3
ssg71
g3754
sg64
(lp3761
S''
asbasbasbasbasbasbasbasbasbasbasbag57
(g73
g59
NtRp3762
(dp3763
g62
(dp3764
sg71
g3405
sg64
(lp3765
g57
(g78
g59
NtRp3766
(dp3767
g62
(dp3768
g82
g83
ssg71
g3762
sg64
(lp3769
S'flash'
p3770
asbag57
(g78
g59
NtRp3771
(dp3772
g62
(dp3773
g89
g90
ssg71
g3762
sg64
(lp3774
S':'
asbag57
(g78
g59
NtRp3775
(dp3776
g62
(dp3777
sg71
g3762
sg64
(lp3778
g57
(g58
g59
NtRp3779
(dp3780
g62
(dp3781
g70
I5
ssg71
g3775
sg64
(lp3782
S'Invalid answer. Please enter a positive integer'
p3783
asbasbasbag57
(g73
g59
NtRp3784
(dp3785
g62
(dp3786
sg71
g3405
sg64
(lp3787
g57
(g78
g59
NtRp3788
(dp3789
g62
(dp3790
g82
g83
ssg71
g3784
sg64
(lp3791
S'last_query'
p3792
asbag57
(g78
g59
NtRp3793
(dp3794
g62
(dp3795
g89
g90
ssg71
g3784
sg64
(lp3796
S':'
asbag57
(g78
g59
NtRp3797
(dp3798
g62
(dp3799
sg71
g3784
sg64
(lp3800
g57
(g58
g59
NtRp3801
(dp3802
g62
(dp3803
g70
I5
ssg71
g3797
sg64
(lp3804
S'db.Done.id>0'
p3805
asbasbasbasbasbsS'etype'
p3806
S"<type 'exceptions.UnboundLocalError'>"
p3807
sS'date'
p3808
S'Sun Sep 22 09:29:08 2013'
p3809
sS'response'
p3810
g57
(g58
g59
NtRp3811
(dp3812
g62
(dp3813
sg64
(lp3814
g57
(g66
g59
NtRp3815
(dp3816
g62
(dp3817
g70
I5
ssg71
Nsg64
(lp3818
g57
(g73
g59
NtRp3819
(dp3820
g62
(dp3821
sg71
g3815
sg64
(lp3822
g57
(g78
g59
NtRp3823
(dp3824
g62
(dp3825
g82
g83
ssg71
g3819
sg64
(lp3826
g155
asbag57
(g78
g59
NtRp3827
(dp3828
g62
(dp3829
g89
g90
ssg71
g3819
sg64
(lp3830
S':'
asbag57
(g78
g59
NtRp3831
(dp3832
g62
(dp3833
sg71
g3819
sg64
(lp3834
g57
(g58
g59
NtRp3835
(dp3836
g62
(dp3837
g70
I5
ssg71
g3831
sg64
(lp3838
S'<cStringIO.StringO object at 0x7f0d9c5701b8>'
p3839
asbasbasbag57
(g73
g59
NtRp3840
(dp3841
g62
(dp3842
sg71
g3815
sg64
(lp3843
g57
(g78
g59
NtRp3844
(dp3845
g62
(dp3846
g82
g83
ssg71
g3840
sg64
(lp3847
g221
asbag57
(g78
g59
NtRp3848
(dp3849
g62
(dp3850
g89
g90
ssg71
g3840
sg64
(lp3851
S':'
asbag57
(g78
g59
NtRp3852
(dp3853
g62
(dp3854
sg71
g3840
sg64
(lp3855
g57
(g58
g59
NtRp3856
(dp3857
g62
(dp3858
g70
I5
ssg71
g3852
sg64
(lp3859
g57
(g66
g59
NtRp3860
(dp3861
g62
(dp3862
g70
I4
ssg71
Nsg64
(lp3863
g57
(g73
g59
NtRp3864
(dp3865
g62
(dp3866
sg71
g3860
sg64
(lp3867
g57
(g78
g59
NtRp3868
(dp3869
g62
(dp3870
g82
g83
ssg71
g3864
sg64
(lp3871
S'session_id_gordian_knot'
p3872
asbag57
(g78
g59
NtRp3873
(dp3874
g62
(dp3875
g89
g90
ssg71
g3864
sg64
(lp3876
S':'
asbag57
(g78
g59
NtRp3877
(dp3878
g62
(dp3879
sg71
g3864
sg64
(lp3880
g57
(g58
g59
NtRp3881
(dp3882
g62
(dp3883
g70
I4
ssg71
g3877
sg64
(lp3884
g57
(g66
g59
NtRp3885
(dp3886
g62
(dp3887
g70
I3
ssg71
Nsg64
(lp3888
g57
(g73
g59
NtRp3889
(dp3890
g62
(dp3891
sg71
g3885
sg64
(lp3892
g57
(g78
g59
NtRp3893
(dp3894
g62
(dp3895
g82
g83
ssg71
g3889
sg64
(lp3896
g271
asbag57
(g78
g59
NtRp3897
(dp3898
g62
(dp3899
g89
g90
ssg71
g3889
sg64
(lp3900
S':'
asbag57
(g78
g59
NtRp3901
(dp3902
g62
(dp3903
sg71
g3889
sg64
(lp3904
g57
(g58
g59
NtRp3905
(dp3906
g62
(dp3907
g70
I3
ssg71
g3901
sg64
(lp3908
S''
asbasbasbag57
(g73
g59
NtRp3909
(dp3910
g62
(dp3911
sg71
g3885
sg64
(lp3912
g57
(g78
g59
NtRp3913
(dp3914
g62
(dp3915
g82
g83
ssg71
g3909
sg64
(lp3916
g292
asbag57
(g78
g59
NtRp3917
(dp3918
g62
(dp3919
g89
g90
ssg71
g3909
sg64
(lp3920
S':'
asbag57
(g78
g59
NtRp3921
(dp3922
g62
(dp3923
sg71
g3909
sg64
(lp3924
g57
(g58
g59
NtRp3925
(dp3926
g62
(dp3927
g70
I3
ssg71
g3921
sg64
(lp3928
S''
asbasbasbag57
(g73
g59
NtRp3929
(dp3930
g62
(dp3931
sg71
g3885
sg64
(lp3932
g57
(g78
g59
NtRp3933
(dp3934
g62
(dp3935
g82
g83
ssg71
g3929
sg64
(lp3936
g313
asbag57
(g78
g59
NtRp3937
(dp3938
g62
(dp3939
g89
g90
ssg71
g3929
sg64
(lp3940
S':'
asbag57
(g78
g59
NtRp3941
(dp3942
g62
(dp3943
sg71
g3929
sg64
(lp3944
g57
(g58
g59
NtRp3945
(dp3946
g62
(dp3947
g70
I3
ssg71
g3941
sg64
(lp3948
S''
asbasbasbag57
(g73
g59
NtRp3949
(dp3950
g62
(dp3951
sg71
g3885
sg64
(lp3952
g57
(g78
g59
NtRp3953
(dp3954
g62
(dp3955
g82
g83
ssg71
g3949
sg64
(lp3956
g334
asbag57
(g78
g59
NtRp3957
(dp3958
g62
(dp3959
g89
g90
ssg71
g3949
sg64
(lp3960
S':'
asbag57
(g78
g59
NtRp3961
(dp3962
g62
(dp3963
sg71
g3949
sg64
(lp3964
g57
(g58
g59
NtRp3965
(dp3966
g62
(dp3967
g70
I3
ssg71
g3961
sg64
(lp3968
S''
asbasbasbag57
(g73
g59
NtRp3969
(dp3970
g62
(dp3971
sg71
g3885
sg64
(lp3972
g57
(g78
g59
NtRp3973
(dp3974
g62
(dp3975
g82
g83
ssg71
g3969
sg64
(lp3976
g355
asbag57
(g78
g59
NtRp3977
(dp3978
g62
(dp3979
g89
g90
ssg71
g3969
sg64
(lp3980
S':'
asbag57
(g78
g59
NtRp3981
(dp3982
g62
(dp3983
sg71
g3969
sg64
(lp3984
g57
(g58
g59
NtRp3985
(dp3986
g62
(dp3987
g70
I3
ssg71
g3981
sg64
(lp3988
S''
asbasbasbag57
(g73
g59
NtRp3989
(dp3990
g62
(dp3991
sg71
g3885
sg64
(lp3992
g57
(g78
g59
NtRp3993
(dp3994
g62
(dp3995
g82
g83
ssg71
g3989
sg64
(lp3996
g376
asbag57
(g78
g59
NtRp3997
(dp3998
g62
(dp3999
g89
g90
ssg71
g3989
sg64
(lp4000
S':'
asbag57
(g78
g59
NtRp4001
(dp4002
g62
(dp4003
sg71
g3989
sg64
(lp4004
g57
(g58
g59
NtRp4005
(dp4006
g62
(dp4007
g70
I3
ssg71
g4001
sg64
(lp4008
S'/'
asbasbasbag57
(g73
g59
NtRp4009
(dp4010
g62
(dp4011
sg71
g3885
sg64
(lp4012
g57
(g78
g59
NtRp4013
(dp4014
g62
(dp4015
g82
g83
ssg71
g4009
sg64
(lp4016
g397
asbag57
(g78
g59
NtRp4017
(dp4018
g62
(dp4019
g89
g90
ssg71
g4009
sg64
(lp4020
S':'
asbag57
(g78
g59
NtRp4021
(dp4022
g62
(dp4023
sg71
g4009
sg64
(lp4024
g57
(g58
g59
NtRp4025
(dp4026
g62
(dp4027
g70
I3
ssg71
g4021
sg64
(lp4028
S''
asbasbasbag57
(g73
g59
NtRp4029
(dp4030
g62
(dp4031
sg71
g3885
sg64
(lp4032
g57
(g78
g59
NtRp4033
(dp4034
g62
(dp4035
g82
g83
ssg71
g4029
sg64
(lp4036
g418
asbag57
(g78
g59
NtRp4037
(dp4038
g62
(dp4039
g89
g90
ssg71
g4029
sg64
(lp4040
S':'
asbag57
(g78
g59
NtRp4041
(dp4042
g62
(dp4043
sg71
g4029
sg64
(lp4044
g57
(g58
g59
NtRp4045
(dp4046
g62
(dp4047
g70
I3
ssg71
g4041
sg64
(lp4048
S''
asbasbasbasbasbasbasbasbasbasbasbag57
(g73
g59
NtRp4049
(dp4050
g62
(dp4051
sg71
g3815
sg64
(lp4052
g57
(g78
g59
NtRp4053
(dp4054
g62
(dp4055
g82
g83
ssg71
g4049
sg64
(lp4056
S'files'
p4057
asbag57
(g78
g59
NtRp4058
(dp4059
g62
(dp4060
g89
g90
ssg71
g4049
sg64
(lp4061
S':'
asbag57
(g78
g59
NtRp4062
(dp4063
g62
(dp4064
sg71
g4049
sg64
(lp4065
g57
(g58
g59
NtRp4066
(dp4067
g62
(dp4068
g70
I5
ssg71
g4062
sg64
(lp4069
g57
(g66
g59
NtRp4070
(dp4071
g62
(dp4072
g70
I4
ssg71
Nsg64
(lp4073
sbasbasbasbag57
(g73
g59
NtRp4074
(dp4075
g62
(dp4076
sg71
g3815
sg64
(lp4077
g57
(g78
g59
NtRp4078
(dp4079
g62
(dp4080
g82
g83
ssg71
g4074
sg64
(lp4081
g3770
asbag57
(g78
g59
NtRp4082
(dp4083
g62
(dp4084
g89
g90
ssg71
g4074
sg64
(lp4085
S':'
asbag57
(g78
g59
NtRp4086
(dp4087
g62
(dp4088
sg71
g4074
sg64
(lp4089
g57
(g58
g59
NtRp4090
(dp4091
g62
(dp4092
g70
I5
ssg71
g4086
sg64
(lp4093
S''
asbasbasbag57
(g73
g59
NtRp4094
(dp4095
g62
(dp4096
sg71
g3815
sg64
(lp4097
g57
(g78
g59
NtRp4098
(dp4099
g62
(dp4100
g82
g83
ssg71
g4094
sg64
(lp4101
S'generic_patterns'
p4102
asbag57
(g78
g59
NtRp4103
(dp4104
g62
(dp4105
g89
g90
ssg71
g4094
sg64
(lp4106
S':'
asbag57
(g78
g59
NtRp4107
(dp4108
g62
(dp4109
sg71
g4094
sg64
(lp4110
g57
(g58
g59
NtRp4111
(dp4112
g62
(dp4113
g70
I5
ssg71
g4107
sg64
(lp4114
g57
(g66
g59
NtRp4115
(dp4116
g62
(dp4117
g70
I4
ssg71
Nsg64
(lp4118
g57
(g73
g59
NtRp4119
(dp4120
g62
(dp4121
sg71
g4115
sg64
(lp4122
g57
(g78
g59
NtRp4123
(dp4124
g62
(dp4125
sg71
g4119
sg64
(lp4126
g57
(g58
g59
NtRp4127
(dp4128
g62
(dp4129
g70
I4
ssg71
g4123
sg64
(lp4130
S'*'
asbasbasbasbasbasbasbag57
(g73
g59
NtRp4131
(dp4132
g62
(dp4133
sg71
g3815
sg64
(lp4134
g57
(g78
g59
NtRp4135
(dp4136
g62
(dp4137
g82
g83
ssg71
g4131
sg64
(lp4138
S'headers'
p4139
asbag57
(g78
g59
NtRp4140
(dp4141
g62
(dp4142
g89
g90
ssg71
g4131
sg64
(lp4143
S':'
asbag57
(g78
g59
NtRp4144
(dp4145
g62
(dp4146
sg71
g4131
sg64
(lp4147
g57
(g58
g59
NtRp4148
(dp4149
g62
(dp4150
g70
I5
ssg71
g4144
sg64
(lp4151
g57
(g66
g59
NtRp4152
(dp4153
g62
(dp4154
g70
I4
ssg71
Nsg64
(lp4155
g57
(g73
g59
NtRp4156
(dp4157
g62
(dp4158
sg71
g4152
sg64
(lp4159
g57
(g78
g59
NtRp4160
(dp4161
g62
(dp4162
g82
g83
ssg71
g4156
sg64
(lp4163
S'Cache-Control'
p4164
asbag57
(g78
g59
NtRp4165
(dp4166
g62
(dp4167
g89
g90
ssg71
g4156
sg64
(lp4168
S':'
asbag57
(g78
g59
NtRp4169
(dp4170
g62
(dp4171
sg71
g4156
sg64
(lp4172
g57
(g58
g59
NtRp4173
(dp4174
g62
(dp4175
g70
I4
ssg71
g4169
sg64
(lp4176
S'no-store, no-cache, must-revalidate, post-check=0, pre-check=0'
p4177
asbasbasbag57
(g73
g59
NtRp4178
(dp4179
g62
(dp4180
sg71
g4152
sg64
(lp4181
g57
(g78
g59
NtRp4182
(dp4183
g62
(dp4184
g82
g83
ssg71
g4178
sg64
(lp4185
S'Content-Type'
p4186
asbag57
(g78
g59
NtRp4187
(dp4188
g62
(dp4189
g89
g90
ssg71
g4178
sg64
(lp4190
S':'
asbag57
(g78
g59
NtRp4191
(dp4192
g62
(dp4193
sg71
g4178
sg64
(lp4194
g57
(g58
g59
NtRp4195
(dp4196
g62
(dp4197
g70
I4
ssg71
g4191
sg64
(lp4198
S'text/html; charset=utf-8'
p4199
asbasbasbag57
(g73
g59
NtRp4200
(dp4201
g62
(dp4202
sg71
g4152
sg64
(lp4203
g57
(g78
g59
NtRp4204
(dp4205
g62
(dp4206
g82
g83
ssg71
g4200
sg64
(lp4207
S'Expires'
p4208
asbag57
(g78
g59
NtRp4209
(dp4210
g62
(dp4211
g89
g90
ssg71
g4200
sg64
(lp4212
S':'
asbag57
(g78
g59
NtRp4213
(dp4214
g62
(dp4215
sg71
g4200
sg64
(lp4216
g57
(g58
g59
NtRp4217
(dp4218
g62
(dp4219
g70
I4
ssg71
g4213
sg64
(lp4220
S'Sun, 22 Sep 2013 03:59:08 GMT'
p4221
asbasbasbag57
(g73
g59
NtRp4222
(dp4223
g62
(dp4224
sg71
g4152
sg64
(lp4225
g57
(g78
g59
NtRp4226
(dp4227
g62
(dp4228
g82
g83
ssg71
g4222
sg64
(lp4229
S'Pragma'
p4230
asbag57
(g78
g59
NtRp4231
(dp4232
g62
(dp4233
g89
g90
ssg71
g4222
sg64
(lp4234
S':'
asbag57
(g78
g59
NtRp4235
(dp4236
g62
(dp4237
sg71
g4222
sg64
(lp4238
g57
(g58
g59
NtRp4239
(dp4240
g62
(dp4241
g70
I4
ssg71
g4235
sg64
(lp4242
S'no-cache'
p4243
asbasbasbag57
(g73
g59
NtRp4244
(dp4245
g62
(dp4246
sg71
g4152
sg64
(lp4247
g57
(g78
g59
NtRp4248
(dp4249
g62
(dp4250
g82
g83
ssg71
g4244
sg64
(lp4251
S'X-Powered-By'
p4252
asbag57
(g78
g59
NtRp4253
(dp4254
g62
(dp4255
g89
g90
ssg71
g4244
sg64
(lp4256
S':'
asbag57
(g78
g59
NtRp4257
(dp4258
g62
(dp4259
sg71
g4244
sg64
(lp4260
g57
(g58
g59
NtRp4261
(dp4262
g62
(dp4263
g70
I4
ssg71
g4257
sg64
(lp4264
S'web2py'
p4265
asbasbasbasbasbasbasbag57
(g73
g59
NtRp4266
(dp4267
g62
(dp4268
sg71
g3815
sg64
(lp4269
g57
(g78
g59
NtRp4270
(dp4271
g62
(dp4272
g82
g83
ssg71
g4266
sg64
(lp4273
S'menu'
p4274
asbag57
(g78
g59
NtRp4275
(dp4276
g62
(dp4277
g89
g90
ssg71
g4266
sg64
(lp4278
S':'
asbag57
(g78
g59
NtRp4279
(dp4280
g62
(dp4281
sg71
g4266
sg64
(lp4282
g57
(g58
g59
NtRp4283
(dp4284
g62
(dp4285
g70
I5
ssg71
g4279
sg64
(lp4286
g57
(g66
g59
NtRp4287
(dp4288
g62
(dp4289
g70
I4
ssg71
Nsg64
(lp4290
g57
(g73
g59
NtRp4291
(dp4292
g62
(dp4293
sg71
g4287
sg64
(lp4294
g57
(g78
g59
NtRp4295
(dp4296
g62
(dp4297
sg71
g4291
sg64
(lp4298
g57
(g58
g59
NtRp4299
(dp4300
g62
(dp4301
g70
I4
ssg71
g4295
sg64
(lp4302
g57
(g66
g59
NtRp4303
(dp4304
g62
(dp4305
g70
I3
ssg71
Nsg64
(lp4306
g57
(g73
g59
NtRp4307
(dp4308
g62
(dp4309
sg71
g4303
sg64
(lp4310
g57
(g78
g59
NtRp4311
(dp4312
g62
(dp4313
sg71
g4307
sg64
(lp4314
g57
(g58
g59
NtRp4315
(dp4316
g62
(dp4317
g70
I3
ssg71
g4311
sg64
(lp4318
cgluon.languages
lazyT_unpickle
p4319
(S't\x04\x00\x00\x00Home'
tRp4320
asbasbasbag57
(g73
g59
NtRp4321
(dp4322
g62
(dp4323
sg71
g4303
sg64
(lp4324
g57
(g78
g59
NtRp4325
(dp4326
g62
(dp4327
sg71
g4321
sg64
(lp4328
g57
(g58
g59
NtRp4329
(dp4330
g62
(dp4331
g70
I3
ssg71
g4325
sg64
(lp4332
g100
asbasbasbag57
(g73
g59
NtRp4333
(dp4334
g62
(dp4335
sg71
g4303
sg64
(lp4336
g57
(g78
g59
NtRp4337
(dp4338
g62
(dp4339
sg71
g4333
sg64
(lp4340
g57
(g58
g59
NtRp4341
(dp4342
g62
(dp4343
g70
I3
ssg71
g4337
sg64
(lp4344
S'/Gordian_Knot/default/index'
p4345
asbasbasbag57
(g73
g59
NtRp4346
(dp4347
g62
(dp4348
sg71
g4303
sg64
(lp4349
g57
(g78
g59
NtRp4350
(dp4351
g62
(dp4352
sg71
g4346
sg64
(lp4353
g57
(g58
g59
NtRp4354
(dp4355
g62
(dp4356
g70
I3
ssg71
g4350
sg64
(lp4357
g57
(g66
g59
NtRp4358
(dp4359
g62
(dp4360
g70
I2
ssg71
Nsg64
(lp4361
sbasbasbasbasbasbasbasbag57
(g73
g59
NtRp4362
(dp4363
g62
(dp4364
sg71
g4287
sg64
(lp4365
g57
(g78
g59
NtRp4366
(dp4367
g62
(dp4368
sg71
g4362
sg64
(lp4369
g57
(g58
g59
NtRp4370
(dp4371
g62
(dp4372
g70
I4
ssg71
g4366
sg64
(lp4373
g57
(g66
g59
NtRp4374
(dp4375
g62
(dp4376
g70
I3
ssg71
Nsg64
(lp4377
g57
(g73
g59
NtRp4378
(dp4379
g62
(dp4380
sg71
g4374
sg64
(lp4381
g57
(g78
g59
NtRp4382
(dp4383
g62
(dp4384
sg71
g4378
sg64
(lp4385
g57
(g58
g59
NtRp4386
(dp4387
g62
(dp4388
g70
I3
ssg71
g4382
sg64
(lp4389
g57
(cgluon.html
SPAN
p4390
g59
NtRp4391
(dp4392
g62
(dp4393
g82
S'color:yellow'
p4394
ssg71
Nsg64
(lp4395
g4265
asbasbasbasbag57
(g73
g59
NtRp4396
(dp4397
g62
(dp4398
sg71
g4374
sg64
(lp4399
g57
(g78
g59
NtRp4400
(dp4401
g62
(dp4402
sg71
g4396
sg64
(lp4403
g57
(g58
g59
NtRp4404
(dp4405
g62
(dp4406
g70
I3
ssg71
g4400
sg64
(lp4407
g100
asbasbasbag57
(g73
g59
NtRp4408
(dp4409
g62
(dp4410
sg71
g4374
sg64
(lp4411
g57
(g78
g59
NtRp4412
(dp4413
g62
(dp4414
sg71
g4408
sg64
(lp4415
g57
(g58
g59
NtRp4416
(dp4417
g62
(dp4418
g70
I3
ssg71
g4412
sg64
(lp4419
S'None'
p4420
asbasbasbag57
(g73
g59
NtRp4421
(dp4422
g62
(dp4423
sg71
g4374
sg64
(lp4424
g57
(g78
g59
NtRp4425
(dp4426
g62
(dp4427
sg71
g4421
sg64
(lp4428
g57
(g58
g59
NtRp4429
(dp4430
g62
(dp4431
g70
I3
ssg71
g4425
sg64
(lp4432
g57
(g66
g59
NtRp4433
(dp4434
g62
(dp4435
g70
I2
ssg71
Nsg64
(lp4436
g57
(g73
g59
NtRp4437
(dp4438
g62
(dp4439
sg71
g4433
sg64
(lp4440
g57
(g78
g59
NtRp4441
(dp4442
g62
(dp4443
sg71
g4437
sg64
(lp4444
g57
(g58
g59
NtRp4445
(dp4446
g62
(dp4447
g70
I2
ssg71
g4441
sg64
(lp4448
g57
(g66
g59
NtRp4449
(dp4450
g62
(dp4451
g70
I1
ssg71
Nsg64
(lp4452
g57
(g73
g59
NtRp4453
(dp4454
g62
(dp4455
sg71
g4449
sg64
(lp4456
g57
(g78
g59
NtRp4457
(dp4458
g62
(dp4459
sg71
g4453
sg64
(lp4460
g57
(g58
g59
NtRp4461
(dp4462
g62
(dp4463
g70
I1
ssg71
g4457
sg64
(lp4464
g4319
(S's\x08\x00\x00\x00My Sites'
tRp4465
asbasbasbag57
(g73
g59
NtRp4466
(dp4467
g62
(dp4468
sg71
g4449
sg64
(lp4469
g57
(g78
g59
NtRp4470
(dp4471
g62
(dp4472
sg71
g4466
sg64
(lp4473
g57
(g58
g59
NtRp4474
(dp4475
g62
(dp4476
g70
I1
ssg71
g4470
sg64
(lp4477
I00
asbasbasbag57
(g73
g59
NtRp4478
(dp4479
g62
(dp4480
sg71
g4449
sg64
(lp4481
g57
(g78
g59
NtRp4482
(dp4483
g62
(dp4484
sg71
g4478
sg64
(lp4485
g57
(g58
g59
NtRp4486
(dp4487
g62
(dp4488
g70
I1
ssg71
g4482
sg64
(lp4489
S'/admin/default/site'
p4490
asbasbasbasbasbasbasbag57
(g73
g59
NtRp4491
(dp4492
g62
(dp4493
sg71
g4433
sg64
(lp4494
g57
(g78
g59
NtRp4495
(dp4496
g62
(dp4497
sg71
g4491
sg64
(lp4498
g57
(g58
g59
NtRp4499
(dp4500
g62
(dp4501
g70
I2
ssg71
g4495
sg64
(lp4502
g57
(g66
g59
NtRp4503
(dp4504
g62
(dp4505
g70
I1
ssg71
Nsg64
(lp4506
g57
(g73
g59
NtRp4507
(dp4508
g62
(dp4509
sg71
g4503
sg64
(lp4510
g57
(g78
g59
NtRp4511
(dp4512
g62
(dp4513
sg71
g4507
sg64
(lp4514
g57
(g58
g59
NtRp4515
(dp4516
g62
(dp4517
g70
I1
ssg71
g4511
sg64
(lp4518
g4319
(S's\x08\x00\x00\x00This App'
tRp4519
asbasbasbag57
(g73
g59
NtRp4520
(dp4521
g62
(dp4522
sg71
g4503
sg64
(lp4523
g57
(g78
g59
NtRp4524
(dp4525
g62
(dp4526
sg71
g4520
sg64
(lp4527
g57
(g58
g59
NtRp4528
(dp4529
g62
(dp4530
g70
I1
ssg71
g4524
sg64
(lp4531
I00
asbasbasbag57
(g73
g59
NtRp4532
(dp4533
g62
(dp4534
sg71
g4503
sg64
(lp4535
g57
(g78
g59
NtRp4536
(dp4537
g62
(dp4538
sg71
g4532
sg64
(lp4539
g57
(g58
g59
NtRp4540
(dp4541
g62
(dp4542
g70
I1
ssg71
g4536
sg64
(lp4543
S'/admin/default/design/Gordian_Knot'
p4544
asbasbasbag57
(g73
g59
NtRp4545
(dp4546
g62
(dp4547
sg71
g4503
sg64
(lp4548
g57
(g78
g59
NtRp4549
(dp4550
g62
(dp4551
sg71
g4545
sg64
(lp4552
g57
(g58
g59
NtRp4553
(dp4554
g62
(dp4555
g70
I1
ssg71
g4549
sg64
(lp4556
(lp4557
(g4319
(S't\n\x00\x00\x00Controller'
tRp4558
I00
S'/admin/default/edit/Gordian_Knot/controllers/default.py'
tp4559
a(g4319
(S't\x04\x00\x00\x00View'
tRp4560
I00
S'/admin/default/edit/Gordian_Knot/views/default/checkans.html'
tp4561
a(g4319
(S't\x06\x00\x00\x00Layout'
tRp4562
I00
S'/admin/default/edit/Gordian_Knot/views/layout.html'
tp4563
a(g4319
(S't\n\x00\x00\x00Stylesheet'
tRp4564
I00
S'/admin/default/edit/Gordian_Knot/static/css/web2py.css'
tp4565
a(g4319
(S's\x08\x00\x00\x00DB Model'
tRp4566
I00
S'/admin/default/edit/Gordian_Knot/models/db.py'
tp4567
a(g4319
(S's\n\x00\x00\x00Menu Model'
tRp4568
I00
S'/admin/default/edit/Gordian_Knot/models/menu.py'
tp4569
a(g4319
(S't\x08\x00\x00\x00Database'
tRp4570
I00
S'/Gordian_Knot/appadmin/index'
tp4571
a(g4319
(S't\x06\x00\x00\x00Errors'
tRp4572
I00
S'/admin/default/errors/Gordian_Knot'
tp4573
a(g4319
(S't\x05\x00\x00\x00About'
tRp4574
I00
S'/admin/default/about/Gordian_Knot'
tp4575
aasbasbasbasbasbasbasbag57
(g73
g59
NtRp4576
(dp4577
g62
(dp4578
sg71
g4433
sg64
(lp4579
g57
(g78
g59
NtRp4580
(dp4581
g62
(dp4582
sg71
g4576
sg64
(lp4583
g57
(g58
g59
NtRp4584
(dp4585
g62
(dp4586
g70
I2
ssg71
g4580
sg64
(lp4587
g57
(g66
g59
NtRp4588
(dp4589
g62
(dp4590
g70
I1
ssg71
Nsg64
(lp4591
g57
(g73
g59
NtRp4592
(dp4593
g62
(dp4594
sg71
g4588
sg64
(lp4595
g57
(g78
g59
NtRp4596
(dp4597
g62
(dp4598
sg71
g4592
sg64
(lp4599
g57
(g58
g59
NtRp4600
(dp4601
g62
(dp4602
g70
I1
ssg71
g4596
sg64
(lp4603
S'web2py.com'
p4604
asbasbasbag57
(g73
g59
NtRp4605
(dp4606
g62
(dp4607
sg71
g4588
sg64
(lp4608
g57
(g78
g59
NtRp4609
(dp4610
g62
(dp4611
sg71
g4605
sg64
(lp4612
g57
(g58
g59
NtRp4613
(dp4614
g62
(dp4615
g70
I1
ssg71
g4609
sg64
(lp4616
I00
asbasbasbag57
(g73
g59
NtRp4617
(dp4618
g62
(dp4619
sg71
g4588
sg64
(lp4620
g57
(g78
g59
NtRp4621
(dp4622
g62
(dp4623
sg71
g4617
sg64
(lp4624
g57
(g58
g59
NtRp4625
(dp4626
g62
(dp4627
g70
I1
ssg71
g4621
sg64
(lp4628
S'http://www.web2py.com'
p4629
asbasbasbag57
(g73
g59
NtRp4630
(dp4631
g62
(dp4632
sg71
g4588
sg64
(lp4633
g57
(g78
g59
NtRp4634
(dp4635
g62
(dp4636
sg71
g4630
sg64
(lp4637
g57
(g58
g59
NtRp4638
(dp4639
g62
(dp4640
g70
I1
ssg71
g4634
sg64
(lp4641
(lp4642
(g4319
(S't\x08\x00\x00\x00Download'
tRp4643
I00
S'http://www.web2py.com/examples/default/download'
p4644
tp4645
a(g4319
(S't\x07\x00\x00\x00Support'
tRp4646
I00
S'http://www.web2py.com/examples/default/support'
p4647
tp4648
a(g4319
(S't\x04\x00\x00\x00Demo'
tRp4649
I00
S'http://web2py.com/demo_admin'
p4650
tp4651
a(g4319
(S's\x0e\x00\x00\x00Quick Examples'
tRp4652
I00
S'http://web2py.com/examples/default/examples'
p4653
tp4654
a(g4319
(S't\x03\x00\x00\x00FAQ'
tRp4655
I00
S'http://web2py.com/AlterEgo'
p4656
tp4657
a(g4319
(S't\x06\x00\x00\x00Videos'
tRp4658
I00
S'http://www.web2py.com/examples/default/videos/'
p4659
tp4660
a(g4319
(S's\x11\x00\x00\x00Free Applications'
tRp4661
I00
S'http://web2py.com/appliances'
p4662
tp4663
a(g4319
(S't\x07\x00\x00\x00Plugins'
tRp4664
I00
S'http://web2py.com/plugins'
p4665
tp4666
a(g4319
(S't\x07\x00\x00\x00Layouts'
tRp4667
I00
S'http://web2py.com/layouts'
p4668
tp4669
a(g4319
(S't\x07\x00\x00\x00Recipes'
tRp4670
I00
S'http://web2pyslices.com/'
p4671
tp4672
a(g4319
(S't\x08\x00\x00\x00Semantic'
tRp4673
I00
S'http://web2py.com/semantic'
p4674
tp4675
aasbasbasbasbasbasbasbag57
(g73
g59
NtRp4676
(dp4677
g62
(dp4678
sg71
g4433
sg64
(lp4679
g57
(g78
g59
NtRp4680
(dp4681
g62
(dp4682
sg71
g4676
sg64
(lp4683
g57
(g58
g59
NtRp4684
(dp4685
g62
(dp4686
g70
I2
ssg71
g4680
sg64
(lp4687
g57
(g66
g59
NtRp4688
(dp4689
g62
(dp4690
g70
I1
ssg71
Nsg64
(lp4691
g57
(g73
g59
NtRp4692
(dp4693
g62
(dp4694
sg71
g4688
sg64
(lp4695
g57
(g78
g59
NtRp4696
(dp4697
g62
(dp4698
sg71
g4692
sg64
(lp4699
g57
(g58
g59
NtRp4700
(dp4701
g62
(dp4702
g70
I1
ssg71
g4696
sg64
(lp4703
g4319
(S't\r\x00\x00\x00Documentation'
tRp4704
asbasbasbag57
(g73
g59
NtRp4705
(dp4706
g62
(dp4707
sg71
g4688
sg64
(lp4708
g57
(g78
g59
NtRp4709
(dp4710
g62
(dp4711
sg71
g4705
sg64
(lp4712
g57
(g58
g59
NtRp4713
(dp4714
g62
(dp4715
g70
I1
ssg71
g4709
sg64
(lp4716
I00
asbasbasbag57
(g73
g59
NtRp4717
(dp4718
g62
(dp4719
sg71
g4688
sg64
(lp4720
g57
(g78
g59
NtRp4721
(dp4722
g62
(dp4723
sg71
g4717
sg64
(lp4724
g57
(g58
g59
NtRp4725
(dp4726
g62
(dp4727
g70
I1
ssg71
g4721
sg64
(lp4728
S'http://www.web2py.com/book'
p4729
asbasbasbag57
(g73
g59
NtRp4730
(dp4731
g62
(dp4732
sg71
g4688
sg64
(lp4733
g57
(g78
g59
NtRp4734
(dp4735
g62
(dp4736
sg71
g4730
sg64
(lp4737
g57
(g58
g59
NtRp4738
(dp4739
g62
(dp4740
g70
I1
ssg71
g4734
sg64
(lp4741
(lp4742
(g4319
(S't\x07\x00\x00\x00Preface'
tRp4743
I00
S'http://www.web2py.com/book/default/chapter/00'
p4744
tp4745
a(g4319
(S't\x0c\x00\x00\x00Introduction'
tRp4746
I00
S'http://www.web2py.com/book/default/chapter/01'
p4747
tp4748
a(g4319
(S't\x06\x00\x00\x00Python'
tRp4749
I00
S'http://www.web2py.com/book/default/chapter/02'
p4750
tp4751
a(g4319
(S't\x08\x00\x00\x00Overview'
tRp4752
I00
S'http://www.web2py.com/book/default/chapter/03'
p4753
tp4754
a(g4319
(S's\x08\x00\x00\x00The Core'
tRp4755
I00
S'http://www.web2py.com/book/default/chapter/04'
p4756
tp4757
a(g4319
(S's\t\x00\x00\x00The Views'
tRp4758
I00
S'http://www.web2py.com/book/default/chapter/05'
p4759
tp4760
a(g4319
(S't\x08\x00\x00\x00Database'
tRp4761
I00
S'http://www.web2py.com/book/default/chapter/06'
p4762
tp4763
a(g4319
(S's\x14\x00\x00\x00Forms and Validators'
tRp4764
I00
S'http://www.web2py.com/book/default/chapter/07'
p4765
tp4766
a(g4319
(S's\r\x00\x00\x00Email and SMS'
tRp4767
I00
S'http://www.web2py.com/book/default/chapter/08'
p4768
tp4769
a(g4319
(S's\x0e\x00\x00\x00Access Control'
tRp4770
I00
S'http://www.web2py.com/book/default/chapter/09'
p4771
tp4772
a(g4319
(S't\x08\x00\x00\x00Services'
tRp4773
I00
S'http://www.web2py.com/book/default/chapter/10'
p4774
tp4775
a(g4319
(S's\x0c\x00\x00\x00Ajax Recipes'
tRp4776
I00
S'http://www.web2py.com/book/default/chapter/11'
p4777
tp4778
a(g4319
(S's\x16\x00\x00\x00Components and Plugins'
tRp4779
I00
S'http://www.web2py.com/book/default/chapter/12'
p4780
tp4781
a(g4319
(S's\x12\x00\x00\x00Deployment Recipes'
tRp4782
I00
S'http://www.web2py.com/book/default/chapter/13'
p4783
tp4784
a(g4319
(S's\r\x00\x00\x00Other Recipes'
tRp4785
I00
S'http://www.web2py.com/book/default/chapter/14'
p4786
tp4787
a(g4319
(S's\r\x00\x00\x00Buy this book'
tRp4788
I00
S'http://stores.lulu.com/web2py'
p4789
tp4790
aasbasbasbasbasbasbasbag57
(g73
g59
NtRp4791
(dp4792
g62
(dp4793
sg71
g4433
sg64
(lp4794
g57
(g78
g59
NtRp4795
(dp4796
g62
(dp4797
sg71
g4791
sg64
(lp4798
g57
(g58
g59
NtRp4799
(dp4800
g62
(dp4801
g70
I2
ssg71
g4795
sg64
(lp4802
g57
(g66
g59
NtRp4803
(dp4804
g62
(dp4805
g70
I1
ssg71
Nsg64
(lp4806
g57
(g73
g59
NtRp4807
(dp4808
g62
(dp4809
sg71
g4803
sg64
(lp4810
g57
(g78
g59
NtRp4811
(dp4812
g62
(dp4813
sg71
g4807
sg64
(lp4814
g57
(g58
g59
NtRp4815
(dp4816
g62
(dp4817
g70
I1
ssg71
g4811
sg64
(lp4818
g4319
(S't\t\x00\x00\x00Community'
tRp4819
asbasbasbag57
(g73
g59
NtRp4820
(dp4821
g62
(dp4822
sg71
g4803
sg64
(lp4823
g57
(g78
g59
NtRp4824
(dp4825
g62
(dp4826
sg71
g4820
sg64
(lp4827
g57
(g58
g59
NtRp4828
(dp4829
g62
(dp4830
g70
I1
ssg71
g4824
sg64
(lp4831
I00
asbasbasbag57
(g73
g59
NtRp4832
(dp4833
g62
(dp4834
sg71
g4803
sg64
(lp4835
g57
(g78
g59
NtRp4836
(dp4837
g62
(dp4838
sg71
g4832
sg64
(lp4839
g57
(g58
g59
NtRp4840
(dp4841
g62
(dp4842
g70
I1
ssg71
g4836
sg64
(lp4843
Nasbasbasbag57
(g73
g59
NtRp4844
(dp4845
g62
(dp4846
sg71
g4803
sg64
(lp4847
g57
(g78
g59
NtRp4848
(dp4849
g62
(dp4850
sg71
g4844
sg64
(lp4851
g57
(g58
g59
NtRp4852
(dp4853
g62
(dp4854
g70
I1
ssg71
g4848
sg64
(lp4855
(lp4856
(g4319
(S't\x06\x00\x00\x00Groups'
tRp4857
I00
S'http://www.web2py.com/examples/default/usergroups'
p4858
tp4859
a(g4319
(S't\x07\x00\x00\x00Twitter'
tRp4860
I00
S'http://twitter.com/web2py'
p4861
tp4862
a(g4319
(S's\t\x00\x00\x00Live Chat'
tRp4863
I00
S'http://webchat.freenode.net/?channels=web2py'
p4864
tp4865
aasbasbasbasbasbasbasbag57
(g73
g59
NtRp4866
(dp4867
g62
(dp4868
sg71
g4433
sg64
(lp4869
g57
(g78
g59
NtRp4870
(dp4871
g62
(dp4872
sg71
g4866
sg64
(lp4873
g57
(g58
g59
NtRp4874
(dp4875
g62
(dp4876
g70
I2
ssg71
g4870
sg64
(lp4877
g57
(g66
g59
NtRp4878
(dp4879
g62
(dp4880
g70
I1
ssg71
Nsg64
(lp4881
g57
(g73
g59
NtRp4882
(dp4883
g62
(dp4884
sg71
g4878
sg64
(lp4885
g57
(g78
g59
NtRp4886
(dp4887
g62
(dp4888
sg71
g4882
sg64
(lp4889
g57
(g58
g59
NtRp4890
(dp4891
g62
(dp4892
g70
I1
ssg71
g4886
sg64
(lp4893
g4319
(S't\x07\x00\x00\x00Plugins'
tRp4894
asbasbasbag57
(g73
g59
NtRp4895
(dp4896
g62
(dp4897
sg71
g4878
sg64
(lp4898
g57
(g78
g59
NtRp4899
(dp4900
g62
(dp4901
sg71
g4895
sg64
(lp4902
g57
(g58
g59
NtRp4903
(dp4904
g62
(dp4905
g70
I1
ssg71
g4899
sg64
(lp4906
I00
asbasbasbag57
(g73
g59
NtRp4907
(dp4908
g62
(dp4909
sg71
g4878
sg64
(lp4910
g57
(g78
g59
NtRp4911
(dp4912
g62
(dp4913
sg71
g4907
sg64
(lp4914
g57
(g58
g59
NtRp4915
(dp4916
g62
(dp4917
g70
I1
ssg71
g4911
sg64
(lp4918
Nasbasbasbag57
(g73
g59
NtRp4919
(dp4920
g62
(dp4921
sg71
g4878
sg64
(lp4922
g57
(g78
g59
NtRp4923
(dp4924
g62
(dp4925
sg71
g4919
sg64
(lp4926
g57
(g58
g59
NtRp4927
(dp4928
g62
(dp4929
g70
I1
ssg71
g4923
sg64
(lp4930
(lp4931
(S'plugin_wiki'
p4932
I00
S'http://web2py.com/examples/default/download'
p4933
tp4934
a(g4319
(S's\r\x00\x00\x00Other Plugins'
tRp4935
I00
g4665
tp4936
a(g4319
(S's\x0e\x00\x00\x00Layout Plugins'
tRp4937
I00
g4668
tp4938
aasbasbasbasbasbasbasbasbasbasbasbasbasbasbasbasbasbasbasbag57
(g73
g59
NtRp4939
(dp4940
g62
(dp4941
sg71
g3815
sg64
(lp4942
g57
(g78
g59
NtRp4943
(dp4944
g62
(dp4945
g82
g83
ssg71
g4939
sg64
(lp4946
S'meta'
p4947
asbag57
(g78
g59
NtRp4948
(dp4949
g62
(dp4950
g89
g90
ssg71
g4939
sg64
(lp4951
S':'
asbag57
(g78
g59
NtRp4952
(dp4953
g62
(dp4954
sg71
g4939
sg64
(lp4955
g57
(g58
g59
NtRp4956
(dp4957
g62
(dp4958
g70
I5
ssg71
g4952
sg64
(lp4959
g57
(g66
g59
NtRp4960
(dp4961
g62
(dp4962
g70
I4
ssg71
Nsg64
(lp4963
g57
(g73
g59
NtRp4964
(dp4965
g62
(dp4966
sg71
g4960
sg64
(lp4967
g57
(g78
g59
NtRp4968
(dp4969
g62
(dp4970
g82
g83
ssg71
g4964
sg64
(lp4971
S'author'
p4972
asbag57
(g78
g59
NtRp4973
(dp4974
g62
(dp4975
g89
g90
ssg71
g4964
sg64
(lp4976
S':'
asbag57
(g78
g59
NtRp4977
(dp4978
g62
(dp4979
sg71
g4964
sg64
(lp4980
g57
(g58
g59
NtRp4981
(dp4982
g62
(dp4983
g70
I4
ssg71
g4977
sg64
(lp4984
S'Your Name <you@example.com>'
p4985
asbasbasbag57
(g73
g59
NtRp4986
(dp4987
g62
(dp4988
sg71
g4960
sg64
(lp4989
g57
(g78
g59
NtRp4990
(dp4991
g62
(dp4992
g82
g83
ssg71
g4986
sg64
(lp4993
S'copyright'
p4994
asbag57
(g78
g59
NtRp4995
(dp4996
g62
(dp4997
g89
g90
ssg71
g4986
sg64
(lp4998
S':'
asbag57
(g78
g59
NtRp4999
(dp5000
g62
(dp5001
sg71
g4986
sg64
(lp5002
g57
(g58
g59
NtRp5003
(dp5004
g62
(dp5005
g70
I4
ssg71
g4999
sg64
(lp5006
S'Copyright 2011'
p5007
asbasbasbag57
(g73
g59
NtRp5008
(dp5009
g62
(dp5010
sg71
g4960
sg64
(lp5011
g57
(g78
g59
NtRp5012
(dp5013
g62
(dp5014
g82
g83
ssg71
g5008
sg64
(lp5015
S'description'
p5016
asbag57
(g78
g59
NtRp5017
(dp5018
g62
(dp5019
g89
g90
ssg71
g5008
sg64
(lp5020
S':'
asbag57
(g78
g59
NtRp5021
(dp5022
g62
(dp5023
sg71
g5008
sg64
(lp5024
g57
(g58
g59
NtRp5025
(dp5026
g62
(dp5027
g70
I4
ssg71
g5021
sg64
(lp5028
S'a cool new app'
p5029
asbasbasbag57
(g73
g59
NtRp5030
(dp5031
g62
(dp5032
sg71
g4960
sg64
(lp5033
g57
(g78
g59
NtRp5034
(dp5035
g62
(dp5036
g82
g83
ssg71
g5030
sg64
(lp5037
S'generator'
p5038
asbag57
(g78
g59
NtRp5039
(dp5040
g62
(dp5041
g89
g90
ssg71
g5030
sg64
(lp5042
S':'
asbag57
(g78
g59
NtRp5043
(dp5044
g62
(dp5045
sg71
g5030
sg64
(lp5046
g57
(g58
g59
NtRp5047
(dp5048
g62
(dp5049
g70
I4
ssg71
g5043
sg64
(lp5050
S'Web2py Web Framework'
p5051
asbasbasbag57
(g73
g59
NtRp5052
(dp5053
g62
(dp5054
sg71
g4960
sg64
(lp5055
g57
(g78
g59
NtRp5056
(dp5057
g62
(dp5058
g82
g83
ssg71
g5052
sg64
(lp5059
S'keywords'
p5060
asbag57
(g78
g59
NtRp5061
(dp5062
g62
(dp5063
g89
g90
ssg71
g5052
sg64
(lp5064
S':'
asbag57
(g78
g59
NtRp5065
(dp5066
g62
(dp5067
sg71
g5052
sg64
(lp5068
g57
(g58
g59
NtRp5069
(dp5070
g62
(dp5071
g70
I4
ssg71
g5065
sg64
(lp5072
S'web2py, python, framework'
p5073
asbasbasbasbasbasbasbag57
(g73
g59
NtRp5074
(dp5075
g62
(dp5076
sg71
g3815
sg64
(lp5077
g57
(g78
g59
NtRp5078
(dp5079
g62
(dp5080
g82
g83
ssg71
g5074
sg64
(lp5081
S'postprocessing'
p5082
asbag57
(g78
g59
NtRp5083
(dp5084
g62
(dp5085
g89
g90
ssg71
g5074
sg64
(lp5086
S':'
asbag57
(g78
g59
NtRp5087
(dp5088
g62
(dp5089
sg71
g5074
sg64
(lp5090
g57
(g58
g59
NtRp5091
(dp5092
g62
(dp5093
g70
I5
ssg71
g5087
sg64
(lp5094
g57
(g66
g59
NtRp5095
(dp5096
g62
(dp5097
g70
I4
ssg71
Nsg64
(lp5098
sbasbasbasbag57
(g73
g59
NtRp5099
(dp5100
g62
(dp5101
sg71
g3815
sg64
(lp5102
g57
(g78
g59
NtRp5103
(dp5104
g62
(dp5105
g82
g83
ssg71
g5099
sg64
(lp5106
S'session_file'
p5107
asbag57
(g78
g59
NtRp5108
(dp5109
g62
(dp5110
g89
g90
ssg71
g5099
sg64
(lp5111
S':'
asbag57
(g78
g59
NtRp5112
(dp5113
g62
(dp5114
sg71
g5099
sg64
(lp5115
g57
(g58
g59
NtRp5116
(dp5117
g62
(dp5118
g70
I5
ssg71
g5112
sg64
(lp5119
S"<open file '/home/ds-iiit/web2py/applications/Gordian_Knot/sessions/127.0.0.1-7cbbc713-1cb8-4d74-8c67-ceeed6d4fabf', mode 'rb+' at 0x7f0d94274e40>"
p5120
asbasbasbag57
(g73
g59
NtRp5121
(dp5122
g62
(dp5123
sg71
g3815
sg64
(lp5124
g57
(g78
g59
NtRp5125
(dp5126
g62
(dp5127
g82
g83
ssg71
g5121
sg64
(lp5128
S'session_filename'
p5129
asbag57
(g78
g59
NtRp5130
(dp5131
g62
(dp5132
g89
g90
ssg71
g5121
sg64
(lp5133
S':'
asbag57
(g78
g59
NtRp5134
(dp5135
g62
(dp5136
sg71
g5121
sg64
(lp5137
g57
(g58
g59
NtRp5138
(dp5139
g62
(dp5140
g70
I5
ssg71
g5134
sg64
(lp5141
S'/home/ds-iiit/web2py/applications/Gordian_Knot/sessions/127.0.0.1-7cbbc713-1cb8-4d74-8c67-ceeed6d4fabf'
p5142
asbasbasbag57
(g73
g59
NtRp5143
(dp5144
g62
(dp5145
sg71
g3815
sg64
(lp5146
g57
(g78
g59
NtRp5147
(dp5148
g62
(dp5149
g82
g83
ssg71
g5143
sg64
(lp5150
S'session_id'
p5151
asbag57
(g78
g59
NtRp5152
(dp5153
g62
(dp5154
g89
g90
ssg71
g5143
sg64
(lp5155
S':'
asbag57
(g78
g59
NtRp5156
(dp5157
g62
(dp5158
sg71
g5143
sg64
(lp5159
g57
(g58
g59
NtRp5160
(dp5161
g62
(dp5162
g70
I5
ssg71
g5156
sg64
(lp5163
S'127.0.0.1-7cbbc713-1cb8-4d74-8c67-ceeed6d4fabf'
p5164
asbasbasbag57
(g73
g59
NtRp5165
(dp5166
g62
(dp5167
sg71
g3815
sg64
(lp5168
g57
(g78
g59
NtRp5169
(dp5170
g62
(dp5171
g82
g83
ssg71
g5165
sg64
(lp5172
S'session_id_name'
p5173
asbag57
(g78
g59
NtRp5174
(dp5175
g62
(dp5176
g89
g90
ssg71
g5165
sg64
(lp5177
S':'
asbag57
(g78
g59
NtRp5178
(dp5179
g62
(dp5180
sg71
g5165
sg64
(lp5181
g57
(g58
g59
NtRp5182
(dp5183
g62
(dp5184
g70
I5
ssg71
g5178
sg64
(lp5185
g3872
asbasbasbag57
(g73
g59
NtRp5186
(dp5187
g62
(dp5188
sg71
g3815
sg64
(lp5189
g57
(g78
g59
NtRp5190
(dp5191
g62
(dp5192
g82
g83
ssg71
g5186
sg64
(lp5193
S'session_locked'
p5194
asbag57
(g78
g59
NtRp5195
(dp5196
g62
(dp5197
g89
g90
ssg71
g5186
sg64
(lp5198
S':'
asbag57
(g78
g59
NtRp5199
(dp5200
g62
(dp5201
sg71
g5186
sg64
(lp5202
g57
(g58
g59
NtRp5203
(dp5204
g62
(dp5205
g70
I5
ssg71
g5199
sg64
(lp5206
g1786
asbasbasbag57
(g73
g59
NtRp5207
(dp5208
g62
(dp5209
sg71
g3815
sg64
(lp5210
g57
(g78
g59
NtRp5211
(dp5212
g62
(dp5213
g82
g83
ssg71
g5207
sg64
(lp5214
S'session_new'
p5215
asbag57
(g78
g59
NtRp5216
(dp5217
g62
(dp5218
g89
g90
ssg71
g5207
sg64
(lp5219
S':'
asbag57
(g78
g59
NtRp5220
(dp5221
g62
(dp5222
sg71
g5207
sg64
(lp5223
g57
(g58
g59
NtRp5224
(dp5225
g62
(dp5226
g70
I5
ssg71
g5220
sg64
(lp5227
g100
asbasbasbag57
(g73
g59
NtRp5228
(dp5229
g62
(dp5230
sg71
g3815
sg64
(lp5231
g57
(g78
g59
NtRp5232
(dp5233
g62
(dp5234
g82
g83
ssg71
g5228
sg64
(lp5235
S'status'
p5236
asbag57
(g78
g59
NtRp5237
(dp5238
g62
(dp5239
g89
g90
ssg71
g5228
sg64
(lp5240
S':'
asbag57
(g78
g59
NtRp5241
(dp5242
g62
(dp5243
sg71
g5228
sg64
(lp5244
g57
(g58
g59
NtRp5245
(dp5246
g62
(dp5247
g70
I5
ssg71
g5241
sg64
(lp5248
S'200'
p5249
asbasbasbag57
(g73
g59
NtRp5250
(dp5251
g62
(dp5252
sg71
g3815
sg64
(lp5253
g57
(g78
g59
NtRp5254
(dp5255
g62
(dp5256
g82
g83
ssg71
g5250
sg64
(lp5257
S'subtitle'
p5258
asbag57
(g78
g59
NtRp5259
(dp5260
g62
(dp5261
g89
g90
ssg71
g5250
sg64
(lp5262
S':'
asbag57
(g78
g59
NtRp5263
(dp5264
g62
(dp5265
sg71
g5250
sg64
(lp5266
g57
(g58
g59
NtRp5267
(dp5268
g62
(dp5269
g70
I5
ssg71
g5263
sg64
(lp5270
g4319
(S's\r\x00\x00\x00customize me!'
tRp5271
asbasbasbag57
(g73
g59
NtRp5272
(dp5273
g62
(dp5274
sg71
g3815
sg64
(lp5275
g57
(g78
g59
NtRp5276
(dp5277
g62
(dp5278
g82
g83
ssg71
g5272
sg64
(lp5279
S'title'
p5280
asbag57
(g78
g59
NtRp5281
(dp5282
g62
(dp5283
g89
g90
ssg71
g5272
sg64
(lp5284
S':'
asbag57
(g78
g59
NtRp5285
(dp5286
g62
(dp5287
sg71
g5272
sg64
(lp5288
g57
(g58
g59
NtRp5289
(dp5290
g62
(dp5291
g70
I5
ssg71
g5285
sg64
(lp5292
S'Gordian Knot'
p5293
asbasbasbag57
(g73
g59
NtRp5294
(dp5295
g62
(dp5296
sg71
g3815
sg64
(lp5297
g57
(g78
g59
NtRp5298
(dp5299
g62
(dp5300
g82
g83
ssg71
g5294
sg64
(lp5301
g2493
asbag57
(g78
g59
NtRp5302
(dp5303
g62
(dp5304
g89
g90
ssg71
g5294
sg64
(lp5305
S':'
asbag57
(g78
g59
NtRp5306
(dp5307
g62
(dp5308
sg71
g5294
sg64
(lp5309
g57
(g58
g59
NtRp5310
(dp5311
g62
(dp5312
g70
I5
ssg71
g5306
sg64
(lp5313
g2506
asbasbasbag57
(g73
g59
NtRp5314
(dp5315
g62
(dp5316
sg71
g3815
sg64
(lp5317
g57
(g78
g59
NtRp5318
(dp5319
g62
(dp5320
g82
g83
ssg71
g5314
sg64
(lp5321
S'view'
p5322
asbag57
(g78
g59
NtRp5323
(dp5324
g62
(dp5325
g89
g90
ssg71
g5314
sg64
(lp5326
S':'
asbag57
(g78
g59
NtRp5327
(dp5328
g62
(dp5329
sg71
g5314
sg64
(lp5330
g57
(g58
g59
NtRp5331
(dp5332
g62
(dp5333
g70
I5
ssg71
g5327
sg64
(lp5334
S'default/checkans.html'
p5335
asbasbasbasbasbsS'locals'
p5336
(dp5337
ssS'traceback'
p5338
S'Traceback (most recent call last):\n  File "/usr/lib/pymodules/python2.7/gluon/restricted.py", line 204, in restricted\n    exec ccode in environment\n  File "/home/ds-iiit/web2py/applications/Gordian_Knot/controllers/default.py", line 163, in <module>\n  File "/usr/lib/pymodules/python2.7/gluon/globals.py", line 172, in <lambda>\n    self._caller = lambda f: f()\n  File "/usr/lib/pymodules/python2.7/gluon/tools.py", line 2533, in f\n    return action(*a, **b)\n  File "/home/ds-iiit/web2py/applications/Gordian_Knot/controllers/default.py", line 78, in checkans\n    redirect(URL(\'think\',args=qno))\nUnboundLocalError: local variable \'qno\' referenced before assignment\n'
p5339
s.