(dp1
S'output'
p2
S'missing "pass" in view'
p3
sS'layer'
p4
S'ParserContainer'
p5
sS'code'
p6
S'response.write(\'<!DOCTYPE html>\\n<!-- paulirish.com/2008/conditional-stylesheets-vs-css-hacks-answer-neither/ -->\\n<!--[if lt IE 7]><html class="ie ie6 ie-lte9 ie-lte8 ie-lte7 no-js" lang="\', escape=False)\nresponse.write(T.accepted_language or \'en\')\nresponse.write(\'"> <![endif]-->\\n<!--[if IE 7]><html class="ie ie7 ie-lte9 ie-lte8 ie-lte7 no-js" lang="\', escape=False)\nresponse.write(T.accepted_language or \'en\')\nresponse.write(\'"> <![endif]-->\\n<!--[if IE 8]><html class="ie ie8 ie-lte9 ie-lte8 no-js" lang="\', escape=False)\nresponse.write(T.accepted_language or \'en\')\nresponse.write(\'"> <![endif]-->\\n<!--[if IE 9]><html class="ie9 ie-lte9 no-js" lang="\', escape=False)\nresponse.write(T.accepted_language or \'en\')\nresponse.write(\'"> <![endif]-->\\n<!--[if (gt IE 9)|!(IE)]><!--> <html class="no-js" lang="\', escape=False)\nresponse.write(T.accepted_language or \'en\')\nresponse.write(\'"> <!--<![endif]-->\\n<head>\\n<meta charset="utf-8" />\\n\\n<title> Gordian Knot. </title>\\n    <style>\\n            #content {\\n\\t\\t\\t            width: 200px;\\n\\t\\t\\t\\t                height: 200px;\\n\\t\\t\\t\\t\\t\\t\\t\\t\\t\\t\\t\\t\\t            }\\n\\t\\t\\t\\t\\t\\t\\t\\t\\t\\t\\t\\t\\t\\t        </style>\\n<!-- http://dev.w3.org/html5/markup/meta.name.html -->\\n<meta name="application-name" content="\', escape=False)\nresponse.write(request.application)\nresponse.write(\'" />\\n\\n<!-- Speaking of Google, don\\\'t forget to set your site up:\\nhttp://google.com/webmasters -->\\n<meta name="google-site-verification" content="" />\\n\\n<!--  Mobile Viewport Fix\\nj.mp/mobileviewport & davidbcalhoun.com/2010/viewport-metatag\\ndevice-width: Occupy full width of the screen in its current orientation\\ninitial-scale = 1.0 retains dimensions instead of zooming out if page height > device height\\nuser-scalable = yes allows the user to zoom in -->\\n<meta name="viewport" content="width=device-width, initial-scale=1.0, user-scalable=yes">\\n\\n<!-- Place favicon.ico and apple-touch-icon.png in the root of your domain and delete these references -->\\n<link rel="shortcut icon" href="\', escape=False)\nresponse.write(URL(\'static\',\'favicon.ico\'))\nresponse.write(\'" type="image/x-icon">\\n<link rel="apple-touch-icon" href="\', escape=False)\nresponse.write(URL(\'static\',\'favicon.ico\'))\nresponse.write(\'">\\n\\n<!-- All JavaScript at the bottom, except for Modernizr which enables \\nHTML5 elements & feature detects -->\\n<script src="\', escape=False)\nresponse.write(URL(\'static\',\'js/modernizr.custom.js\'))\nresponse.write(\'"></script>  \\n\\n<!-- include stylesheets -->\\n\', escape=False)\nresponse.files.append(URL(\'static\',\'css/skeleton.css\'))\nresponse.files.append(URL(\'static\',\'css/web2py.css\'))\nresponse.files.append(URL(\'static\',\'css/superfish.css\'))\nresponse.files.append(URL(\'static\',\'js/superfish.js\'))\nresponse.write(\'\\n\\n\', escape=False)\nresponse.write(\'<script type="text/javascript"><!--\\n    // These variables are used by the web2py_ajax_init function in web2py_ajax.js (which is loaded below).\\n    var w2p_ajax_confirm_message = "\', escape=False)\nresponse.write(T(\'Are you sure you want to delete this object?\'))\nresponse.write(\'";\\n    var w2p_ajax_date_format = "\', escape=False)\nresponse.write(T(\'%Y-%m-%d\'))\nresponse.write(\'";\\n    var w2p_ajax_datetime_format = "\', escape=False)\nresponse.write(T(\'%Y-%m-%d %H:%M:%S\'))\nresponse.write(\'";\\n    //--></script>\\n\', escape=False)\nresponse.files.insert(0,URL(\'static\',\'js/jquery.js\'))\nresponse.files.insert(1,URL(\'static\',\'css/calendar.css\'))\nresponse.files.insert(2,URL(\'static\',\'js/calendar.js\'))\nresponse.files.insert(3,URL(\'static\',\'js/web2py.js\'))\nresponse.include_meta()\nresponse.include_files()\nresponse.write(\'\\n\', escape=False)\nresponse.write(\'\\n\\n<script type="text/javascript">\\njQuery(function(){ jQuery(\\\'ul.sf-menu\\\').supersubs({minWidth:12,maxWidth:30,extraWidth:3}).superfish(); });\\n</script>\\n\\n\', escape=False)\n# using sidebars need to know what sidebar you want to use\nleft_sidebar_enabled = globals().get(\'left_sidebar_enabled\',False)\nright_sidebar_enabled = globals().get(\'right_sidebar_enabled\',False)\nmiddle_columns = {0:\'sixteen\',1:\'twelve\',2:\'eight\'}[\n(left_sidebar_enabled and 1 or 0)+(right_sidebar_enabled and 1 or 0)]\nresponse.write(\'\\n\\n<link rel="stylesheet" href="http://ajax.googleapis.com/ajax/libs/jqueryui/1.8.16/themes/base/jquery-ui.css" type="text/css" media="all" />\\n<link rel="stylesheet" href="\', escape=False)\nresponse.write(URL(\'static/css\',\'default.css\'))\nresponse.write(\'" type="text/css" media="all" />\\n<link rel="stylesheet" href="\', escape=False)\nresponse.write(URL(\'static/css\',\'fonts.css\'))\nresponse.write(\'" type="text/css" media="all" />\\n<link rel="stylesheet" href="http://ajax.googleapis.com/ajax/libs/jqueryui/1.8.16/themes/base/jquery-ui.css" type="text/css" media="all" />\\n<script src="http://ajax.googleapis.com/ajax/libs/jqueryui/1.8.16/jquery-ui.min.js" type="text/javascript"></script>\\n</head>\\n<body>\\n<div class="wrapper"><!-- for sticky footer -->\\n\\n<!--    <div class="topbar">\\n<div class="container">    \\n<div class="sixteen columns">\\n<div id="navbar">\', escape=False)\nresponse.write(\'auth\' in globals() and auth.navbar(separators=(\' \',\' | \',\'\')))\nresponse.write(\'</div>\\n\', escape=False)\nis_mobile=request.user_agent().is_mobile\nresponse.write(\'\\n<div id="menu">\', escape=False)\nresponse.write(MENU(response.menu, _class=\'mobile-menu\' if is_mobile else \'sf-menu\',mobile=is_mobile))\nresponse.write(\'\\n</div>\\n</div>\\n</div>\\n</div>--><!-- topbar -->\\n<div id="header-wrapper">\\n\\n<div id="menu" class="container">\\n\\n<ul>\\n\\n<li class="current_page_item"><a href="#">Homepage</a></li>\\n\\n<li><a href="\', escape=False)\nresponse.write(URL(\'about.html\'))\nresponse.write(\'">Rules</a></li>\\n\\n<li><a href="#">Portfolio</a></li>\\n\\n<li><a href="#">Contact</a></li>\\n\\n</ul>\\n\\n</div>\\n\\n<!-- end #menu -->\\n\\n<div id="header" class="container">\\n\\n<div id="logo">\\n<br/>\\n<h1><a href="\', escape=False)\nresponse.write(URL(\'landing\'))\nresponse.write(\'"> Gordian Knot </a></h1>\\n\\n</div>\\n\\n<div style="float:right; padding-top: .25em;" class="a2a_kit a2a_default_style">\\n<a class="a2a_dd" href="http://www.addtoany.com/share_save">Share this</a></div>\\n<div class="flash">\', escape=False)\nresponse.write(response.flash or \'\')\nresponse.write(\'</div>\\n<!-- AddToAny BEGIN -->\\n<script type="text/javascript" src="http://static.addtoany.com/menu/page.js"></script>\\n<br/>\\t  \', escape=False)\ntry:\n    response.write(auth.navbar(action=URL(\'default\',\'user\')))\nexcept:pass\nresponse.write(\'\\t\\t          \\n<!-- AddToAny END -->\\n</div>\\n</div>\\n\\n<div class="main">\\n <div class="\', escape=False)\nresponse.write(middle_columns)\nresponse.write(\' columns center">\\n\', escape=False)\nresponse.write(\'\\n\', escape=False)\nresponse.write(\'\\n\', escape=False)\nfor i in x:\n    response.write(\'\\n\', escape=False)\n    response.write(i)\n    response.write(\'\\n\', escape=False)\n    response.write(\'\\n\', escape=False)\n    response.write(\'\\n</div>\\n<!--    \\n\', escape=False)\n    if right_sidebar_enabled:\n        response.write(\'\\n<div class="four columns">\\n\', escape=False)\n        response.write(\'\\n<h3>Right Sidebar</h3>\\n<p></p>\\n\', escape=False)\n        response.write(\'\\n</div>    \\n\', escape=False)\n        pass\n    response.write(\'\\n-->    \\n</div><!-- container -->\\n</div><!-- main -->\\n\\n<br>\\n<br>\\n<div id="copyright" class="container">\\n\\t<p>Copyright (c) 2013 Devansh T Shah.<br/>| Licensed under Creative Commons 3.0 | Powered by web2py</p>\\n\\t\\t<ul class="contact">\\n\\t\\t\\t<li><a href="https://twitter.com/search?q=%23gordianknot&src=hash" class="icon icon-twitter"><span>Twitter</span></a></li>\\n\\t\\t\\t<li><a href="https://www.facebook.com/theboyinatux" class="icon icon-facebook"><span>Facebook</span></a></li>\\n\\t\\t\\t<li><a href="https://plus.google.com/106242931186840401577/posts" class="icon icon-tumblr"><span>Google+</span></a></li>\\n\\t\\t\\t<li><a href="http://theboyinatux.wordpress.com/2013/03/11/how-and-economy-grows-and-why-it-dosent/" class="icon icon-rss"><span>Random</span></a></li>\\n\\t\\t</ul>\\n</div>\\n</body>\\n</html>\\n<div class="push"></div>\\n</div><!-- wrapper -->\\n<!--[if lt IE 7 ]>\\n<script src="\', escape=False)\n    response.write(URL(\'static\',\'js/dd_belatedpng.js\'))\n    response.write(\'"></script>\\n<script> DD_belatedPNG.fix(\\\'img, .png_bg\\\'); //fix any <img> or .png_bg background-images </script>\\n<![endif]-->\\n\', escape=False)\n    if response.google_analytics_id:\n        response.write(\'<script type="text/javascript"> var _gaq = _gaq || []; _gaq.push([\\\'_setAccount\\\', \\\'\', escape=False)\n        response.write(response.google_analytics_id)\n        response.write("\']); _gaq.push([\'_trackPageview\']); (function() { var ga = document.createElement(\'script\'); ga.type = \'text/javascript\'; ga.async = true; ga.src = (\'https:\' == document.location.protocol ? \'https://ssl\' : \'http://www\') + \'.google-analytics.com/ga.js\'; var s = document.getElementsByTagName(\'script\')[0]; s.parentNode.insertBefore(ga, s); })(); </script> ", escape=False)\n        pass\n    response.write(\'\\n</body>\\n</html>\\n\', escape=False)'
p7
sS'snapshot'
p8
(dp9
S'exception'
p10
(dp11
S'__module__'
p12
S"'gluon.rocket'"
p13
sS'__getslice__'
p14
S"<method-wrapper '__getslice__' of SocketClosed object>"
p15
sS'__str__'
p16
S"<method-wrapper '__str__' of SocketClosed object>"
p17
sS'__reduce__'
p18
S'<built-in method __reduce__ of SocketClosed object>'
p19
sS'__dict__'
p20
S'{}'
p21
sS'__sizeof__'
p22
S'<built-in method __sizeof__ of SocketClosed object>'
p23
sS'__weakref__'
p24
S'None'
p25
sS'__init__'
p26
S"<method-wrapper '__init__' of SocketClosed object>"
p27
sS'__setattr__'
p28
S"<method-wrapper '__setattr__' of SocketClosed object>"
p29
sS'__reduce_ex__'
p30
S'<built-in method __reduce_ex__ of SocketClosed object>'
p31
sS'__new__'
p32
S'<built-in method __new__ of type object>'
p33
sS'__format__'
p34
S'<built-in method __format__ of SocketClosed object>'
p35
sS'__class__'
p36
S"<class 'gluon.rocket.SocketClosed'>"
p37
sS'__doc__'
p38
S"'Exception for when a socket is closed by the client.'"
p39
sS'__getitem__'
p40
S"<method-wrapper '__getitem__' of SocketClosed object>"
p41
sS'__setstate__'
p42
S'<built-in method __setstate__ of SocketClosed object>'
p43
sS'__getattribute__'
p44
S"<method-wrapper '__getattribute__' of SocketClosed object>"
p45
sS'args'
p46
S"('Client closed socket.',)"
p47
sS'__subclasshook__'
p48
S'<built-in method __subclasshook__ of type object>'
p49
sS'__unicode__'
p50
S'<built-in method __unicode__ of SocketClosed object>'
p51
sS'__delattr__'
p52
S"<method-wrapper '__delattr__' of SocketClosed object>"
p53
sS'__repr__'
p54
S"<method-wrapper '__repr__' of SocketClosed object>"
p55
sS'__hash__'
p56
S"<method-wrapper '__hash__' of SocketClosed object>"
p57
ssS'evalue'
p58
S'Client closed socket.'
p59
sS'frames'
p60
(lp61
(dp62
S'file'
p63
S'/usr/lib/pymodules/python2.7/gluon/rocket.py'
p64
sS'dump'
p65
(dp66
S'self'
p67
S'<WSGIWorker(Thread-13, started daemon 140058791233280)>'
p68
sS'conn'
p69
S'<gluon.rocket.Connection object>'
p70
sS'self.run_app'
p71
S'<bound method WSGIWorker.run_app of <WSGIWorker(Thread-13, started daemon 140058791233280)>>'
p72
ssS'lnum'
p73
I1302
sS'lines'
p74
(dp75
I1297
S'            # Enter connection serve loop'
p76
sI1298
S'            while True:'
p77
sI1299
S'                if __debug__:'
p78
sI1300
S"                    self.err_log.debug('Serving a request')"
p79
sI1301
S'                try:'
p80
sI1302
S'                    self.run_app(conn)'
p81
sI1303
S'                    log_info = dict(client_ip = conn.client_addr,'
p82
sI1304
S"                                    time = datetime.now().strftime('%c'),"
p83
sI1305
S"                                    status = self.status.split(' ')[0],"
p84
sI1306
S'                                    size = self.size,'
p85
ssS'call'
p86
S'(self=<WSGIWorker(Thread-13, started daemon 140058791233280)>)'
p87
sS'func'
p88
S'run'
p89
sa(dp90
g63
S'/usr/lib/pymodules/python2.7/gluon/rocket.py'
p91
sg65
(dp92
S'self'
p93
S'<WSGIWorker(Thread-13, started daemon 140058791233280)>'
p94
sS'self.environ'
p95
S"{'HTTP_ACCEPT': 'text/html,application/xhtml+xml,application/xml;q=0.9,*/*;q=0.8', 'HTTP_ACCEPT_ENCODING': 'gzip,deflate,sdch', 'HTTP_ACCEPT_LANGUAGE': 'en-US,en;q=0.8', 'HTTP_CACHE_CONTROL': 'max-age=0', 'HTTP_CONNECTION': 'keep-alive', 'HTTP_COOKIE': 'session_id_welcome=127.0.0.1-5f55f5e2-e8df-4e51-...ot=127.0.0.1-a9733ab7-5e43-4323-b962-9c2b175f5f60', 'HTTP_HOST': '127.0.0.1:8001', 'HTTP_USER_AGENT': 'Mozilla/5.0 (X11; Linux x86_64) AppleWebKit/537....ML, like Gecko) Chrome/29.0.1547.57 Safari/537.36', 'PATH_INFO': '/Gordian_Knot/default/ranklist', 'QUERY_STRING': '', ...}"
p96
sS'sock_file'
p97
S'<socket._fileobject object>'
p98
sS'environ'
p99
S'undefined'
p100
sS'self.build_environ'
p101
S'<bound method WSGIWorker.build_environ of <WSGIWorker(Thread-13, started daemon 140058791233280)>>'
p102
sS'conn'
p103
S'<gluon.rocket.Connection object>'
p104
ssg73
I1986
sg74
(dp105
I1984
S'        try:'
p106
sI1985
S'            # Read the headers and build our WSGI environment'
p107
sI1986
S'            self.environ = environ = self.build_environ(sock_file, conn)'
p108
sI1987
S''
sI1988
S'            # Handle 100 Continue'
p109
sI1989
S"            if environ.get('HTTP_EXPECT', '') == '100-continue':"
p110
sI1990
S"                res = environ['SERVER_PROTOCOL'] + ' 100 Continue\\r\\n\\r\\n'"
p111
sI1981
S'        else:'
p112
sI1982
S'            sock_file = conn.makefile(BUF_SIZE)'
p113
sI1983
S''
ssg86
S'(self=<WSGIWorker(Thread-13, started daemon 140058791233280)>, conn=<gluon.rocket.Connection object>)'
p114
sg88
S'run_app'
p115
sa(dp116
g63
S'/usr/lib/pymodules/python2.7/gluon/rocket.py'
p117
sg65
(dp118
S'sock_file'
p119
S'<socket._fileobject object>'
p120
sS'self.read_request_line'
p121
S'<bound method WSGIWorker.read_request_line of <W...rker(Thread-13, started daemon 140058791233280)>>'
p122
sS'self'
p123
S'<WSGIWorker(Thread-13, started daemon 140058791233280)>'
p124
sS'request'
p125
g100
ssg73
I1807
sg74
(dp126
I1802
S'                                      "wsgiorg.futures": executor.futures})'
p127
sI1803
S''
sI1804
S'    def build_environ(self, sock_file, conn):'
p128
sI1805
S'        """ Build the execution environment. """'
p129
sI1806
S'        # Grab the request line'
p130
sI1807
S'        request = self.read_request_line(sock_file)'
p131
sI1808
S''
sI1809
S'        # Copy the Base Environment'
p132
sI1810
S'        environ = self.base_environ.copy()'
p133
sI1811
S''
ssg86
S'(self=<WSGIWorker(Thread-13, started daemon 140058791233280)>, sock_file=<socket._fileobject object>, conn=<gluon.rocket.Connection object>)'
p134
sg88
S'build_environ'
p135
sa(dp136
g63
S'/usr/lib/pymodules/python2.7/gluon/rocket.py'
p137
sg65
(dp138
S'global SocketClosed'
p139
S"<class 'gluon.rocket.SocketClosed'>"
p140
ssg73
I1383
sg74
(dp141
I1378
S'        d = d.strip()'
p142
sI1379
S''
sI1380
S'        if not d:'
p143
sI1381
S'            if __debug__:'
p144
sI1382
S"                self.err_log.debug('Client did not send a recognizable request.')"
p145
sI1383
S"            raise SocketClosed('Client closed socket.')"
p146
sI1384
S''
sI1385
S'        self.request_line = d'
p147
sI1386
S''
sI1387
S"        # NOTE: I've replaced the traditional method of procedurally breaking"
p148
ssg86
S'(self=<WSGIWorker(Thread-13, started daemon 140058791233280)>, sock_file=<socket._fileobject object>)'
p149
sg88
S'read_request_line'
p150
sasS'pyver'
p151
S'Python 2.7.3: /usr/bin/python'
p152
sS'etype'
p153
S"<class 'gluon.rocket.SocketClosed'>"
p154
sS'date'
p155
S'Thu Sep 26 04:33:26 2013'
p156
sS'locals'
p157
(dp158
S'sock_file'
p159
S'<socket._fileobject object>'
p160
sS'self'
p161
S'<WSGIWorker(Thread-13, started daemon 140058791233280)>'
p162
sS'd'
S"''"
p163
sssS'traceback'
p164
S'Traceback (most recent call last):\n  File "/usr/lib/pymodules/python2.7/gluon/rocket.py", line 1302, in run\n    self.run_app(conn)\n  File "/usr/lib/pymodules/python2.7/gluon/rocket.py", line 1986, in run_app\n    self.environ = environ = self.build_environ(sock_file, conn)\n  File "/usr/lib/pymodules/python2.7/gluon/rocket.py", line 1807, in build_environ\n    request = self.read_request_line(sock_file)\n  File "/usr/lib/pymodules/python2.7/gluon/rocket.py", line 1383, in read_request_line\n    raise SocketClosed(\'Client closed socket.\')\nSocketClosed: Client closed socket.\n'
p165
s.