(dp1
S'output'
p2
S"<type 'exceptions.TypeError'> 'list' object is not callable"
p3
sS'layer'
p4
S'/home/ds-iiit/web2py/applications/Gordian_Knot/views/default/landing.html'
p5
sS'code'
p6
S'response.write(\'<!DOCTYPE html>\\n<!-- paulirish.com/2008/conditional-stylesheets-vs-css-hacks-answer-neither/ -->\\n<!--[if lt IE 7]><html class="ie ie6 ie-lte9 ie-lte8 ie-lte7 no-js" lang="\', escape=False)\nresponse.write(T.accepted_language or \'en\')\nresponse.write(\'"> <![endif]-->\\n<!--[if IE 7]><html class="ie ie7 ie-lte9 ie-lte8 ie-lte7 no-js" lang="\', escape=False)\nresponse.write(T.accepted_language or \'en\')\nresponse.write(\'"> <![endif]-->\\n<!--[if IE 8]><html class="ie ie8 ie-lte9 ie-lte8 no-js" lang="\', escape=False)\nresponse.write(T.accepted_language or \'en\')\nresponse.write(\'"> <![endif]-->\\n<!--[if IE 9]><html class="ie9 ie-lte9 no-js" lang="\', escape=False)\nresponse.write(T.accepted_language or \'en\')\nresponse.write(\'"> <![endif]-->\\n<!--[if (gt IE 9)|!(IE)]><!--> <html class="no-js" lang="\', escape=False)\nresponse.write(T.accepted_language or \'en\')\nresponse.write(\'"> <!--<![endif]-->\\n<head>\\n<meta charset="utf-8" />\\n\\n<title> Gordian Knot. </title>\\n\\n<!-- http://dev.w3.org/html5/markup/meta.name.html -->\\n<meta name="application-name" content="\', escape=False)\nresponse.write(request.application)\nresponse.write(\'" />\\n\\n<!-- Speaking of Google, don\\\'t forget to set your site up:\\nhttp://google.com/webmasters -->\\n<meta name="google-site-verification" content="" />\\n\\n<!--  Mobile Viewport Fix\\nj.mp/mobileviewport & davidbcalhoun.com/2010/viewport-metatag\\ndevice-width: Occupy full width of the screen in its current orientation\\ninitial-scale = 1.0 retains dimensions instead of zooming out if page height > device height\\nuser-scalable = yes allows the user to zoom in -->\\n<meta name="viewport" content="width=device-width, initial-scale=1.0, user-scalable=yes">\\n\\n<!-- Place favicon.ico and apple-touch-icon.png in the root of your domain and delete these references -->\\n<link rel="shortcut icon" href="\', escape=False)\nresponse.write(URL(\'static\',\'favicon.ico\'))\nresponse.write(\'" type="image/x-icon">\\n<link rel="apple-touch-icon" href="\', escape=False)\nresponse.write(URL(\'static\',\'favicon.ico\'))\nresponse.write(\'">\\n\\n<!-- All JavaScript at the bottom, except for Modernizr which enables \\nHTML5 elements & feature detects -->\\n<script src="\', escape=False)\nresponse.write(URL(\'static\',\'js/modernizr.custom.js\'))\nresponse.write(\'"></script>  \\n\\n<!-- include stylesheets -->\\n\', escape=False)\nresponse.files.append(URL(\'static\',\'css/skeleton.css\'))\nresponse.files.append(URL(\'static\',\'css/web2py.css\'))\nresponse.files.append(URL(\'static\',\'css/superfish.css\'))\nresponse.files.append(URL(\'static\',\'js/superfish.js\'))\nresponse.write(\'\\n\\n\', escape=False)\nresponse.write(\'<script type="text/javascript"><!--\\n    // These variables are used by the web2py_ajax_init function in web2py_ajax.js (which is loaded below).\\n    var w2p_ajax_confirm_message = "\', escape=False)\nresponse.write(T(\'Are you sure you want to delete this object?\'))\nresponse.write(\'";\\n    var w2p_ajax_date_format = "\', escape=False)\nresponse.write(T(\'%Y-%m-%d\'))\nresponse.write(\'";\\n    var w2p_ajax_datetime_format = "\', escape=False)\nresponse.write(T(\'%Y-%m-%d %H:%M:%S\'))\nresponse.write(\'";\\n    //--></script>\\n\', escape=False)\nresponse.files.insert(0,URL(\'static\',\'js/jquery.js\'))\nresponse.files.insert(1,URL(\'static\',\'css/calendar.css\'))\nresponse.files.insert(2,URL(\'static\',\'js/calendar.js\'))\nresponse.files.insert(3,URL(\'static\',\'js/web2py.js\'))\nresponse.include_meta()\nresponse.include_files()\nresponse.write(\'\\n\', escape=False)\nresponse.write(\'\\n\\n<script type="text/javascript">\\njQuery(function(){ jQuery(\\\'ul.sf-menu\\\').supersubs({minWidth:12,maxWidth:30,extraWidth:3}).superfish(); });\\n</script>\\n\\n\', escape=False)\n# using sidebars need to know what sidebar you want to use\nleft_sidebar_enabled = globals().get(\'left_sidebar_enabled\',False)\nright_sidebar_enabled = globals().get(\'right_sidebar_enabled\',False)\nmiddle_columns = {0:\'sixteen\',1:\'twelve\',2:\'eight\'}[\n(left_sidebar_enabled and 1 or 0)+(right_sidebar_enabled and 1 or 0)]\nresponse.write(\'\\n\\n<link rel="stylesheet" href="http://ajax.googleapis.com/ajax/libs/jqueryui/1.8.16/themes/base/jquery-ui.css" type="text/css" media="all" />\\n<link rel="stylesheet" href="\', escape=False)\nresponse.write(URL(\'static/css\',\'default.css\'))\nresponse.write(\'" type="text/css" media="all" />\\n<link rel="stylesheet" href="\', escape=False)\nresponse.write(URL(\'static/css\',\'fonts.css\'))\nresponse.write(\'" type="text/css" media="all" />\\n<link rel="stylesheet" href="http://ajax.googleapis.com/ajax/libs/jqueryui/1.8.16/themes/base/jquery-ui.css" type="text/css" media="all" />\\n<script src="http://ajax.googleapis.com/ajax/libs/jqueryui/1.8.16/jquery-ui.min.js" type="text/javascript"></script>\\n</head>\\n<body>\\n<div class="wrapper"><!-- for sticky footer -->\\n\\n<!--    <div class="topbar">\\n<div class="container">    \\n<div class="sixteen columns">\\n<div id="navbar">\', escape=False)\nresponse.write(\'auth\' in globals() and auth.navbar(separators=(\' \',\' | \',\'\')))\nresponse.write(\'</div>\\n\', escape=False)\nis_mobile=request.user_agent().is_mobile\nresponse.write(\'\\n<div id="menu">\', escape=False)\nresponse.write(MENU(response.menu, _class=\'mobile-menu\' if is_mobile else \'sf-menu\',mobile=is_mobile))\nresponse.write(\'\\n</div>\\n</div>\\n</div>\\n</div>--><!-- topbar -->\\n<div id="header-wrapper">\\n\\n<div id="menu" class="container">\\n\\n<ul>\\n\\n<li class="current_page_item"><a href="#">Homepage</a></li>\\n\\n<li><a href="\', escape=False)\nresponse.write(URL(\'about.html\'))\nresponse.write(\'">Rules</a></li>\\n\\n<li><a href="#">Portfolio</a></li>\\n\\n<li><a href="#">Contact</a></li>\\n\\n</ul>\\n\\n</div>\\n\\n<!-- end #menu -->\\n\\n<div id="header" class="container">\\n\\n<div id="logo">\\n<br/>\\n<h1><a href="\', escape=False)\nresponse.write(URL(\'landing\'))\nresponse.write(\'"> Gordian Knot </a></h1>\\n\\n</div>\\n\\n<div style="float:right; padding-top: .25em;" class="a2a_kit a2a_default_style">\\n<a class="a2a_dd" href="http://www.addtoany.com/share_save">Share this</a></div>\\n\', escape=False)\nresponse.write(response.menu())\nresponse.write(\'\\n<div class="flash">\', escape=False)\nresponse.write(response.flash or \'\')\nresponse.write(\'</div>\\n<!-- AddToAny BEGIN -->\\n<script type="text/javascript" src="http://static.addtoany.com/menu/page.js"></script>\\n<!-- AddToAny END -->\\n</div>\\n</div>\\n\\n<div class="main">\\n<div class="container">                 \\n\', escape=False)\nif left_sidebar_enabled:\n    response.write(\'\\n<div class="four columns left-sidebar">\\n\', escape=False)\n    response.write(\'\\n<h3>Left Sidebar</h3>\\n<p></p>\\n\', escape=False)\n    response.write(\'\\n</div>\\n\', escape=False)\n    pass\nresponse.write(\'\\n<div class="\', escape=False)\nresponse.write(middle_columns)\nresponse.write(\' columns center">\\n\', escape=False)\nresponse.write(\'\\n\', escape=False)\nresponse.write(\'\\n<a href=\', escape=False)\nresponse.write(URL(\'question/0\'))\nresponse.write(\'> Level 0 </a>\\n<ol>\\n\', escape=False)\nfor i in y:\n    response.write(\'\\n<li>\\n<a href="\', escape=False)\n    response.write(URL(\'question\'))\n    response.write(\'/\', escape=False)\n    response.write(i[\'Level\'])\n    response.write(\'">\\nLevel \\n\', escape=False)\n    response.write(i[\'Level\'])\n    response.write(\' </a></li>\\n\', escape=False)\n    pass\nresponse.write(\'\\n</ol>\\n\', escape=False)\nresponse.write(\'\\n\', escape=False)\nresponse.write(\'\\n</div>\\n<!--    \\n\', escape=False)\nif right_sidebar_enabled:\n    response.write(\'\\n<div class="four columns">\\n\', escape=False)\n    response.write(\'\\n<h3>Right Sidebar</h3>\\n<p></p>\\n\', escape=False)\n    response.write(\'\\n</div>    \\n\', escape=False)\n    pass\nresponse.write(\'\\n-->    \\n</div><!-- container -->\\n</div><!-- main -->\\n\\n<div id="copyright" class="container">\\n\\t<p>Copyright (c) 2013 Devansh T Shah.<br/>| Licensed under Creative Commons 3.0 | Powered by web2py</p>\\n\\t\\t<ul class="contact">\\n\\t\\t\\t<li><a href="https://twitter.com/search?q=%23gordianknot&src=hash" class="icon icon-twitter"><span>Twitter</span></a></li>\\n\\t\\t\\t<li><a href="https://www.facebook.com/theboyinatux" class="icon icon-facebook"><span>Facebook</span></a></li>\\n\\t\\t\\t<li><a href="https://plus.google.com/106242931186840401577/posts" class="icon icon-tumblr"><span>Google+</span></a></li>\\n\\t\\t\\t<li><a href="http://theboyinatux.wordpress.com/2013/03/11/how-and-economy-grows-and-why-it-dosent/" class="icon icon-rss"><span>Random</span></a></li>\\n\\t\\t</ul>\\n</div>\\n</body>\\n</html>\\n<div class="push"></div>\\n</div><!-- wrapper -->\\n\\n\\n<!--[if lt IE 7 ]>\\n<script src="\', escape=False)\nresponse.write(URL(\'static\',\'js/dd_belatedpng.js\'))\nresponse.write(\'"></script>\\n<script> DD_belatedPNG.fix(\\\'img, .png_bg\\\'); //fix any <img> or .png_bg background-images </script>\\n<![endif]-->\\n\', escape=False)\nif response.google_analytics_id:\n    response.write(\'<script type="text/javascript"> var _gaq = _gaq || []; _gaq.push([\\\'_setAccount\\\', \\\'\', escape=False)\n    response.write(response.google_analytics_id)\n    response.write("\']); _gaq.push([\'_trackPageview\']); (function() { var ga = document.createElement(\'script\'); ga.type = \'text/javascript\'; ga.async = true; ga.src = (\'https:\' == document.location.protocol ? \'https://ssl\' : \'http://www\') + \'.google-analytics.com/ga.js\'; var s = document.getElementsByTagName(\'script\')[0]; s.parentNode.insertBefore(ga, s); })(); </script> ", escape=False)\n    pass\nresponse.write(\'\\n</body>\\n</html>\\n\', escape=False)'
p7
sS'snapshot'
p8
(dp9
S'exception'
p10
(dp11
S'__hash__'
p12
S"<method-wrapper '__hash__' of exceptions.TypeError object>"
p13
sS'__setattr__'
p14
S"<method-wrapper '__setattr__' of exceptions.TypeError object>"
p15
sS'__reduce_ex__'
p16
S'<built-in method __reduce_ex__ of exceptions.TypeError object>'
p17
sS'__getslice__'
p18
S"<method-wrapper '__getslice__' of exceptions.TypeError object>"
p19
sS'__getitem__'
p20
S"<method-wrapper '__getitem__' of exceptions.TypeError object>"
p21
sS'__setstate__'
p22
S'<built-in method __setstate__ of exceptions.TypeError object>'
p23
sS'args'
p24
S'("\'list\' object is not callable",)'
p25
sS'__reduce__'
p26
S'<built-in method __reduce__ of exceptions.TypeError object>'
p27
sS'__str__'
p28
S"<method-wrapper '__str__' of exceptions.TypeError object>"
p29
sS'__format__'
p30
S'<built-in method __format__ of exceptions.TypeError object>'
p31
sS'__getattribute__'
p32
S"<method-wrapper '__getattribute__' of exceptions.TypeError object>"
p33
sS'__class__'
p34
S"<type 'exceptions.TypeError'>"
p35
sS'__unicode__'
p36
S'<built-in method __unicode__ of exceptions.TypeError object>'
p37
sS'__delattr__'
p38
S"<method-wrapper '__delattr__' of exceptions.TypeError object>"
p39
sS'__subclasshook__'
p40
S'<built-in method __subclasshook__ of type object>'
p41
sS'__repr__'
p42
S"<method-wrapper '__repr__' of exceptions.TypeError object>"
p43
sS'__dict__'
p44
S'{}'
p45
sS'__sizeof__'
p46
S'<built-in method __sizeof__ of exceptions.TypeError object>'
p47
sS'__doc__'
p48
S"'Inappropriate argument type.'"
p49
sS'__init__'
p50
S"<method-wrapper '__init__' of exceptions.TypeError object>"
p51
sS'__new__'
p52
S'<built-in method __new__ of type object>'
p53
ssS'evalue'
p54
S"'list' object is not callable"
p55
sS'request'
p56
ccopy_reg
_reconstructor
p57
(cgluon.html
BEAUTIFY
p58
c__builtin__
object
p59
NtRp60
(dp61
S'attributes'
p62
(dp63
sS'components'
p64
(lp65
g57
(cgluon.html
TABLE
p66
g59
NtRp67
(dp68
g62
(dp69
S'level'
p70
I5
ssS'parent'
p71
Nsg64
(lp72
g57
(cgluon.html
TR
p73
g59
NtRp74
(dp75
g62
(dp76
sg71
g67
sg64
(lp77
g57
(cgluon.html
TD
p78
g59
NtRp79
(dp80
g62
(dp81
S'_style'
p82
S'font-weight:bold;vertical-align:top'
p83
ssg71
g74
sg64
(lp84
S'ajax'
p85
asbag57
(g78
g59
NtRp86
(dp87
g62
(dp88
S'_valign'
p89
S'top'
p90
ssg71
g74
sg64
(lp91
S':'
asbag57
(g78
g59
NtRp92
(dp93
g62
(dp94
sg71
g74
sg64
(lp95
g57
(g58
g59
NtRp96
(dp97
g62
(dp98
g70
I5
ssg71
g92
sg64
(lp99
S'False'
p100
asbasbasbag57
(g73
g59
NtRp101
(dp102
g62
(dp103
sg71
g67
sg64
(lp104
g57
(g78
g59
NtRp105
(dp106
g62
(dp107
g82
g83
ssg71
g101
sg64
(lp108
S'application'
p109
asbag57
(g78
g59
NtRp110
(dp111
g62
(dp112
g89
g90
ssg71
g101
sg64
(lp113
S':'
asbag57
(g78
g59
NtRp114
(dp115
g62
(dp116
sg71
g101
sg64
(lp117
g57
(g58
g59
NtRp118
(dp119
g62
(dp120
g70
I5
ssg71
g114
sg64
(lp121
S'Gordian_Knot'
p122
asbasbasbag57
(g73
g59
NtRp123
(dp124
g62
(dp125
sg71
g67
sg64
(lp126
g57
(g78
g59
NtRp127
(dp128
g62
(dp129
g82
g83
ssg71
g123
sg64
(lp130
g24
asbag57
(g78
g59
NtRp131
(dp132
g62
(dp133
g89
g90
ssg71
g123
sg64
(lp134
S':'
asbag57
(g78
g59
NtRp135
(dp136
g62
(dp137
sg71
g123
sg64
(lp138
g57
(g58
g59
NtRp139
(dp140
g62
(dp141
g70
I5
ssg71
g135
sg64
(lp142
g57
(g66
g59
NtRp143
(dp144
g62
(dp145
g70
I4
ssg71
Nsg64
(lp146
sbasbasbasbag57
(g73
g59
NtRp147
(dp148
g62
(dp149
sg71
g67
sg64
(lp150
g57
(g78
g59
NtRp151
(dp152
g62
(dp153
g82
g83
ssg71
g147
sg64
(lp154
S'body'
p155
asbag57
(g78
g59
NtRp156
(dp157
g62
(dp158
g89
g90
ssg71
g147
sg64
(lp159
S':'
asbag57
(g78
g59
NtRp160
(dp161
g62
(dp162
sg71
g147
sg64
(lp163
g57
(g58
g59
NtRp164
(dp165
g62
(dp166
g70
I5
ssg71
g160
sg64
(lp167
S'<cStringIO.StringO object at 0x7f61f03414c8>'
p168
asbasbasbag57
(g73
g59
NtRp169
(dp170
g62
(dp171
sg71
g67
sg64
(lp172
g57
(g78
g59
NtRp173
(dp174
g62
(dp175
g82
g83
ssg71
g169
sg64
(lp176
S'client'
p177
asbag57
(g78
g59
NtRp178
(dp179
g62
(dp180
g89
g90
ssg71
g169
sg64
(lp181
S':'
asbag57
(g78
g59
NtRp182
(dp183
g62
(dp184
sg71
g169
sg64
(lp185
g57
(g58
g59
NtRp186
(dp187
g62
(dp188
g70
I5
ssg71
g182
sg64
(lp189
S'127.0.0.1'
p190
asbasbasbag57
(g73
g59
NtRp191
(dp192
g62
(dp193
sg71
g67
sg64
(lp194
g57
(g78
g59
NtRp195
(dp196
g62
(dp197
g82
g83
ssg71
g191
sg64
(lp198
S'controller'
p199
asbag57
(g78
g59
NtRp200
(dp201
g62
(dp202
g89
g90
ssg71
g191
sg64
(lp203
S':'
asbag57
(g78
g59
NtRp204
(dp205
g62
(dp206
sg71
g191
sg64
(lp207
g57
(g58
g59
NtRp208
(dp209
g62
(dp210
g70
I5
ssg71
g204
sg64
(lp211
S'default'
p212
asbasbasbag57
(g73
g59
NtRp213
(dp214
g62
(dp215
sg71
g67
sg64
(lp216
g57
(g78
g59
NtRp217
(dp218
g62
(dp219
g82
g83
ssg71
g213
sg64
(lp220
S'cookies'
p221
asbag57
(g78
g59
NtRp222
(dp223
g62
(dp224
g89
g90
ssg71
g213
sg64
(lp225
S':'
asbag57
(g78
g59
NtRp226
(dp227
g62
(dp228
sg71
g213
sg64
(lp229
g57
(g58
g59
NtRp230
(dp231
g62
(dp232
g70
I5
ssg71
g226
sg64
(lp233
g57
(g66
g59
NtRp234
(dp235
g62
(dp236
g70
I4
ssg71
Nsg64
(lp237
g57
(g73
g59
NtRp238
(dp239
g62
(dp240
sg71
g234
sg64
(lp241
g57
(g78
g59
NtRp242
(dp243
g62
(dp244
g82
g83
ssg71
g238
sg64
(lp245
S'session_id_admin'
p246
asbag57
(g78
g59
NtRp247
(dp248
g62
(dp249
g89
g90
ssg71
g238
sg64
(lp250
S':'
asbag57
(g78
g59
NtRp251
(dp252
g62
(dp253
sg71
g238
sg64
(lp254
g57
(g58
g59
NtRp255
(dp256
g62
(dp257
g70
I4
ssg71
g251
sg64
(lp258
g57
(g66
g59
NtRp259
(dp260
g62
(dp261
g70
I3
ssg71
Nsg64
(lp262
g57
(g73
g59
NtRp263
(dp264
g62
(dp265
sg71
g259
sg64
(lp266
g57
(g78
g59
NtRp267
(dp268
g62
(dp269
g82
g83
ssg71
g263
sg64
(lp270
S'comment'
p271
asbag57
(g78
g59
NtRp272
(dp273
g62
(dp274
g89
g90
ssg71
g263
sg64
(lp275
S':'
asbag57
(g78
g59
NtRp276
(dp277
g62
(dp278
sg71
g263
sg64
(lp279
g57
(g58
g59
NtRp280
(dp281
g62
(dp282
g70
I3
ssg71
g276
sg64
(lp283
S''
asbasbasbag57
(g73
g59
NtRp284
(dp285
g62
(dp286
sg71
g259
sg64
(lp287
g57
(g78
g59
NtRp288
(dp289
g62
(dp290
g82
g83
ssg71
g284
sg64
(lp291
S'domain'
p292
asbag57
(g78
g59
NtRp293
(dp294
g62
(dp295
g89
g90
ssg71
g284
sg64
(lp296
S':'
asbag57
(g78
g59
NtRp297
(dp298
g62
(dp299
sg71
g284
sg64
(lp300
g57
(g58
g59
NtRp301
(dp302
g62
(dp303
g70
I3
ssg71
g297
sg64
(lp304
S''
asbasbasbag57
(g73
g59
NtRp305
(dp306
g62
(dp307
sg71
g259
sg64
(lp308
g57
(g78
g59
NtRp309
(dp310
g62
(dp311
g82
g83
ssg71
g305
sg64
(lp312
S'expires'
p313
asbag57
(g78
g59
NtRp314
(dp315
g62
(dp316
g89
g90
ssg71
g305
sg64
(lp317
S':'
asbag57
(g78
g59
NtRp318
(dp319
g62
(dp320
sg71
g305
sg64
(lp321
g57
(g58
g59
NtRp322
(dp323
g62
(dp324
g70
I3
ssg71
g318
sg64
(lp325
S''
asbasbasbag57
(g73
g59
NtRp326
(dp327
g62
(dp328
sg71
g259
sg64
(lp329
g57
(g78
g59
NtRp330
(dp331
g62
(dp332
g82
g83
ssg71
g326
sg64
(lp333
S'httponly'
p334
asbag57
(g78
g59
NtRp335
(dp336
g62
(dp337
g89
g90
ssg71
g326
sg64
(lp338
S':'
asbag57
(g78
g59
NtRp339
(dp340
g62
(dp341
sg71
g326
sg64
(lp342
g57
(g58
g59
NtRp343
(dp344
g62
(dp345
g70
I3
ssg71
g339
sg64
(lp346
S''
asbasbasbag57
(g73
g59
NtRp347
(dp348
g62
(dp349
sg71
g259
sg64
(lp350
g57
(g78
g59
NtRp351
(dp352
g62
(dp353
g82
g83
ssg71
g347
sg64
(lp354
S'max-age'
p355
asbag57
(g78
g59
NtRp356
(dp357
g62
(dp358
g89
g90
ssg71
g347
sg64
(lp359
S':'
asbag57
(g78
g59
NtRp360
(dp361
g62
(dp362
sg71
g347
sg64
(lp363
g57
(g58
g59
NtRp364
(dp365
g62
(dp366
g70
I3
ssg71
g360
sg64
(lp367
S''
asbasbasbag57
(g73
g59
NtRp368
(dp369
g62
(dp370
sg71
g259
sg64
(lp371
g57
(g78
g59
NtRp372
(dp373
g62
(dp374
g82
g83
ssg71
g368
sg64
(lp375
S'path'
p376
asbag57
(g78
g59
NtRp377
(dp378
g62
(dp379
g89
g90
ssg71
g368
sg64
(lp380
S':'
asbag57
(g78
g59
NtRp381
(dp382
g62
(dp383
sg71
g368
sg64
(lp384
g57
(g58
g59
NtRp385
(dp386
g62
(dp387
g70
I3
ssg71
g381
sg64
(lp388
S''
asbasbasbag57
(g73
g59
NtRp389
(dp390
g62
(dp391
sg71
g259
sg64
(lp392
g57
(g78
g59
NtRp393
(dp394
g62
(dp395
g82
g83
ssg71
g389
sg64
(lp396
S'secure'
p397
asbag57
(g78
g59
NtRp398
(dp399
g62
(dp400
g89
g90
ssg71
g389
sg64
(lp401
S':'
asbag57
(g78
g59
NtRp402
(dp403
g62
(dp404
sg71
g389
sg64
(lp405
g57
(g58
g59
NtRp406
(dp407
g62
(dp408
g70
I3
ssg71
g402
sg64
(lp409
S''
asbasbasbag57
(g73
g59
NtRp410
(dp411
g62
(dp412
sg71
g259
sg64
(lp413
g57
(g78
g59
NtRp414
(dp415
g62
(dp416
g82
g83
ssg71
g410
sg64
(lp417
S'version'
p418
asbag57
(g78
g59
NtRp419
(dp420
g62
(dp421
g89
g90
ssg71
g410
sg64
(lp422
S':'
asbag57
(g78
g59
NtRp423
(dp424
g62
(dp425
sg71
g410
sg64
(lp426
g57
(g58
g59
NtRp427
(dp428
g62
(dp429
g70
I3
ssg71
g423
sg64
(lp430
S''
asbasbasbasbasbasbasbag57
(g73
g59
NtRp431
(dp432
g62
(dp433
sg71
g234
sg64
(lp434
g57
(g78
g59
NtRp435
(dp436
g62
(dp437
g82
g83
ssg71
g431
sg64
(lp438
S'session_id_gordian_knot'
p439
asbag57
(g78
g59
NtRp440
(dp441
g62
(dp442
g89
g90
ssg71
g431
sg64
(lp443
S':'
asbag57
(g78
g59
NtRp444
(dp445
g62
(dp446
sg71
g431
sg64
(lp447
g57
(g58
g59
NtRp448
(dp449
g62
(dp450
g70
I4
ssg71
g444
sg64
(lp451
g57
(g66
g59
NtRp452
(dp453
g62
(dp454
g70
I3
ssg71
Nsg64
(lp455
g57
(g73
g59
NtRp456
(dp457
g62
(dp458
sg71
g452
sg64
(lp459
g57
(g78
g59
NtRp460
(dp461
g62
(dp462
g82
g83
ssg71
g456
sg64
(lp463
g271
asbag57
(g78
g59
NtRp464
(dp465
g62
(dp466
g89
g90
ssg71
g456
sg64
(lp467
S':'
asbag57
(g78
g59
NtRp468
(dp469
g62
(dp470
sg71
g456
sg64
(lp471
g57
(g58
g59
NtRp472
(dp473
g62
(dp474
g70
I3
ssg71
g468
sg64
(lp475
S''
asbasbasbag57
(g73
g59
NtRp476
(dp477
g62
(dp478
sg71
g452
sg64
(lp479
g57
(g78
g59
NtRp480
(dp481
g62
(dp482
g82
g83
ssg71
g476
sg64
(lp483
g292
asbag57
(g78
g59
NtRp484
(dp485
g62
(dp486
g89
g90
ssg71
g476
sg64
(lp487
S':'
asbag57
(g78
g59
NtRp488
(dp489
g62
(dp490
sg71
g476
sg64
(lp491
g57
(g58
g59
NtRp492
(dp493
g62
(dp494
g70
I3
ssg71
g488
sg64
(lp495
S''
asbasbasbag57
(g73
g59
NtRp496
(dp497
g62
(dp498
sg71
g452
sg64
(lp499
g57
(g78
g59
NtRp500
(dp501
g62
(dp502
g82
g83
ssg71
g496
sg64
(lp503
g313
asbag57
(g78
g59
NtRp504
(dp505
g62
(dp506
g89
g90
ssg71
g496
sg64
(lp507
S':'
asbag57
(g78
g59
NtRp508
(dp509
g62
(dp510
sg71
g496
sg64
(lp511
g57
(g58
g59
NtRp512
(dp513
g62
(dp514
g70
I3
ssg71
g508
sg64
(lp515
S''
asbasbasbag57
(g73
g59
NtRp516
(dp517
g62
(dp518
sg71
g452
sg64
(lp519
g57
(g78
g59
NtRp520
(dp521
g62
(dp522
g82
g83
ssg71
g516
sg64
(lp523
g334
asbag57
(g78
g59
NtRp524
(dp525
g62
(dp526
g89
g90
ssg71
g516
sg64
(lp527
S':'
asbag57
(g78
g59
NtRp528
(dp529
g62
(dp530
sg71
g516
sg64
(lp531
g57
(g58
g59
NtRp532
(dp533
g62
(dp534
g70
I3
ssg71
g528
sg64
(lp535
S''
asbasbasbag57
(g73
g59
NtRp536
(dp537
g62
(dp538
sg71
g452
sg64
(lp539
g57
(g78
g59
NtRp540
(dp541
g62
(dp542
g82
g83
ssg71
g536
sg64
(lp543
g355
asbag57
(g78
g59
NtRp544
(dp545
g62
(dp546
g89
g90
ssg71
g536
sg64
(lp547
S':'
asbag57
(g78
g59
NtRp548
(dp549
g62
(dp550
sg71
g536
sg64
(lp551
g57
(g58
g59
NtRp552
(dp553
g62
(dp554
g70
I3
ssg71
g548
sg64
(lp555
S''
asbasbasbag57
(g73
g59
NtRp556
(dp557
g62
(dp558
sg71
g452
sg64
(lp559
g57
(g78
g59
NtRp560
(dp561
g62
(dp562
g82
g83
ssg71
g556
sg64
(lp563
g376
asbag57
(g78
g59
NtRp564
(dp565
g62
(dp566
g89
g90
ssg71
g556
sg64
(lp567
S':'
asbag57
(g78
g59
NtRp568
(dp569
g62
(dp570
sg71
g556
sg64
(lp571
g57
(g58
g59
NtRp572
(dp573
g62
(dp574
g70
I3
ssg71
g568
sg64
(lp575
S''
asbasbasbag57
(g73
g59
NtRp576
(dp577
g62
(dp578
sg71
g452
sg64
(lp579
g57
(g78
g59
NtRp580
(dp581
g62
(dp582
g82
g83
ssg71
g576
sg64
(lp583
g397
asbag57
(g78
g59
NtRp584
(dp585
g62
(dp586
g89
g90
ssg71
g576
sg64
(lp587
S':'
asbag57
(g78
g59
NtRp588
(dp589
g62
(dp590
sg71
g576
sg64
(lp591
g57
(g58
g59
NtRp592
(dp593
g62
(dp594
g70
I3
ssg71
g588
sg64
(lp595
S''
asbasbasbag57
(g73
g59
NtRp596
(dp597
g62
(dp598
sg71
g452
sg64
(lp599
g57
(g78
g59
NtRp600
(dp601
g62
(dp602
g82
g83
ssg71
g596
sg64
(lp603
g418
asbag57
(g78
g59
NtRp604
(dp605
g62
(dp606
g89
g90
ssg71
g596
sg64
(lp607
S':'
asbag57
(g78
g59
NtRp608
(dp609
g62
(dp610
sg71
g596
sg64
(lp611
g57
(g58
g59
NtRp612
(dp613
g62
(dp614
g70
I3
ssg71
g608
sg64
(lp615
S''
asbasbasbasbasbasbasbag57
(g73
g59
NtRp616
(dp617
g62
(dp618
sg71
g234
sg64
(lp619
g57
(g78
g59
NtRp620
(dp621
g62
(dp622
g82
g83
ssg71
g616
sg64
(lp623
S'session_id_welcome'
p624
asbag57
(g78
g59
NtRp625
(dp626
g62
(dp627
g89
g90
ssg71
g616
sg64
(lp628
S':'
asbag57
(g78
g59
NtRp629
(dp630
g62
(dp631
sg71
g616
sg64
(lp632
g57
(g58
g59
NtRp633
(dp634
g62
(dp635
g70
I4
ssg71
g629
sg64
(lp636
g57
(g66
g59
NtRp637
(dp638
g62
(dp639
g70
I3
ssg71
Nsg64
(lp640
g57
(g73
g59
NtRp641
(dp642
g62
(dp643
sg71
g637
sg64
(lp644
g57
(g78
g59
NtRp645
(dp646
g62
(dp647
g82
g83
ssg71
g641
sg64
(lp648
g271
asbag57
(g78
g59
NtRp649
(dp650
g62
(dp651
g89
g90
ssg71
g641
sg64
(lp652
S':'
asbag57
(g78
g59
NtRp653
(dp654
g62
(dp655
sg71
g641
sg64
(lp656
g57
(g58
g59
NtRp657
(dp658
g62
(dp659
g70
I3
ssg71
g653
sg64
(lp660
S''
asbasbasbag57
(g73
g59
NtRp661
(dp662
g62
(dp663
sg71
g637
sg64
(lp664
g57
(g78
g59
NtRp665
(dp666
g62
(dp667
g82
g83
ssg71
g661
sg64
(lp668
g292
asbag57
(g78
g59
NtRp669
(dp670
g62
(dp671
g89
g90
ssg71
g661
sg64
(lp672
S':'
asbag57
(g78
g59
NtRp673
(dp674
g62
(dp675
sg71
g661
sg64
(lp676
g57
(g58
g59
NtRp677
(dp678
g62
(dp679
g70
I3
ssg71
g673
sg64
(lp680
S''
asbasbasbag57
(g73
g59
NtRp681
(dp682
g62
(dp683
sg71
g637
sg64
(lp684
g57
(g78
g59
NtRp685
(dp686
g62
(dp687
g82
g83
ssg71
g681
sg64
(lp688
g313
asbag57
(g78
g59
NtRp689
(dp690
g62
(dp691
g89
g90
ssg71
g681
sg64
(lp692
S':'
asbag57
(g78
g59
NtRp693
(dp694
g62
(dp695
sg71
g681
sg64
(lp696
g57
(g58
g59
NtRp697
(dp698
g62
(dp699
g70
I3
ssg71
g693
sg64
(lp700
S''
asbasbasbag57
(g73
g59
NtRp701
(dp702
g62
(dp703
sg71
g637
sg64
(lp704
g57
(g78
g59
NtRp705
(dp706
g62
(dp707
g82
g83
ssg71
g701
sg64
(lp708
g334
asbag57
(g78
g59
NtRp709
(dp710
g62
(dp711
g89
g90
ssg71
g701
sg64
(lp712
S':'
asbag57
(g78
g59
NtRp713
(dp714
g62
(dp715
sg71
g701
sg64
(lp716
g57
(g58
g59
NtRp717
(dp718
g62
(dp719
g70
I3
ssg71
g713
sg64
(lp720
S''
asbasbasbag57
(g73
g59
NtRp721
(dp722
g62
(dp723
sg71
g637
sg64
(lp724
g57
(g78
g59
NtRp725
(dp726
g62
(dp727
g82
g83
ssg71
g721
sg64
(lp728
g355
asbag57
(g78
g59
NtRp729
(dp730
g62
(dp731
g89
g90
ssg71
g721
sg64
(lp732
S':'
asbag57
(g78
g59
NtRp733
(dp734
g62
(dp735
sg71
g721
sg64
(lp736
g57
(g58
g59
NtRp737
(dp738
g62
(dp739
g70
I3
ssg71
g733
sg64
(lp740
S''
asbasbasbag57
(g73
g59
NtRp741
(dp742
g62
(dp743
sg71
g637
sg64
(lp744
g57
(g78
g59
NtRp745
(dp746
g62
(dp747
g82
g83
ssg71
g741
sg64
(lp748
g376
asbag57
(g78
g59
NtRp749
(dp750
g62
(dp751
g89
g90
ssg71
g741
sg64
(lp752
S':'
asbag57
(g78
g59
NtRp753
(dp754
g62
(dp755
sg71
g741
sg64
(lp756
g57
(g58
g59
NtRp757
(dp758
g62
(dp759
g70
I3
ssg71
g753
sg64
(lp760
S''
asbasbasbag57
(g73
g59
NtRp761
(dp762
g62
(dp763
sg71
g637
sg64
(lp764
g57
(g78
g59
NtRp765
(dp766
g62
(dp767
g82
g83
ssg71
g761
sg64
(lp768
g397
asbag57
(g78
g59
NtRp769
(dp770
g62
(dp771
g89
g90
ssg71
g761
sg64
(lp772
S':'
asbag57
(g78
g59
NtRp773
(dp774
g62
(dp775
sg71
g761
sg64
(lp776
g57
(g58
g59
NtRp777
(dp778
g62
(dp779
g70
I3
ssg71
g773
sg64
(lp780
S''
asbasbasbag57
(g73
g59
NtRp781
(dp782
g62
(dp783
sg71
g637
sg64
(lp784
g57
(g78
g59
NtRp785
(dp786
g62
(dp787
g82
g83
ssg71
g781
sg64
(lp788
g418
asbag57
(g78
g59
NtRp789
(dp790
g62
(dp791
g89
g90
ssg71
g781
sg64
(lp792
S':'
asbag57
(g78
g59
NtRp793
(dp794
g62
(dp795
sg71
g781
sg64
(lp796
g57
(g58
g59
NtRp797
(dp798
g62
(dp799
g70
I3
ssg71
g793
sg64
(lp800
S''
asbasbasbasbasbasbasbasbasbasbasbag57
(g73
g59
NtRp801
(dp802
g62
(dp803
sg71
g67
sg64
(lp804
g57
(g78
g59
NtRp805
(dp806
g62
(dp807
g82
g83
ssg71
g801
sg64
(lp808
S'env'
p809
asbag57
(g78
g59
NtRp810
(dp811
g62
(dp812
g89
g90
ssg71
g801
sg64
(lp813
S':'
asbag57
(g78
g59
NtRp814
(dp815
g62
(dp816
sg71
g801
sg64
(lp817
g57
(g58
g59
NtRp818
(dp819
g62
(dp820
g70
I5
ssg71
g814
sg64
(lp821
g57
(g66
g59
NtRp822
(dp823
g62
(dp824
g70
I4
ssg71
Nsg64
(lp825
g57
(g73
g59
NtRp826
(dp827
g62
(dp828
sg71
g822
sg64
(lp829
g57
(g78
g59
NtRp830
(dp831
g62
(dp832
g82
g83
ssg71
g826
sg64
(lp833
S'app_folders'
p834
asbag57
(g78
g59
NtRp835
(dp836
g62
(dp837
g89
g90
ssg71
g826
sg64
(lp838
S':'
asbag57
(g78
g59
NtRp839
(dp840
g62
(dp841
sg71
g826
sg64
(lp842
g57
(g58
g59
NtRp843
(dp844
g62
(dp845
g70
I4
ssg71
g839
sg64
(lp846
S"set(['/home/ds-iiit/web2py/applications/Gordian_Knot/', '/home/ds-iiit/web2py/applications/welcome/', '/home/ds-iiit/web2py/applications/admin/'])"
p847
asbasbasbag57
(g73
g59
NtRp848
(dp849
g62
(dp850
sg71
g822
sg64
(lp851
g57
(g78
g59
NtRp852
(dp853
g62
(dp854
g82
g83
ssg71
g848
sg64
(lp855
S'applications_parent'
p856
asbag57
(g78
g59
NtRp857
(dp858
g62
(dp859
g89
g90
ssg71
g848
sg64
(lp860
S':'
asbag57
(g78
g59
NtRp861
(dp862
g62
(dp863
sg71
g848
sg64
(lp864
g57
(g58
g59
NtRp865
(dp866
g62
(dp867
g70
I4
ssg71
g861
sg64
(lp868
S'/home/ds-iiit/web2py'
p869
asbasbasbag57
(g73
g59
NtRp870
(dp871
g62
(dp872
sg71
g822
sg64
(lp873
g57
(g78
g59
NtRp874
(dp875
g62
(dp876
g82
g83
ssg71
g870
sg64
(lp877
S'cmd_args'
p878
asbag57
(g78
g59
NtRp879
(dp880
g62
(dp881
g89
g90
ssg71
g870
sg64
(lp882
S':'
asbag57
(g78
g59
NtRp883
(dp884
g62
(dp885
sg71
g870
sg64
(lp886
g57
(g58
g59
NtRp887
(dp888
g62
(dp889
g70
I4
ssg71
g883
sg64
(lp890
g57
(g66
g59
NtRp891
(dp892
g62
(dp893
g70
I3
ssg71
Nsg64
(lp894
sbasbasbasbag57
(g73
g59
NtRp895
(dp896
g62
(dp897
sg71
g822
sg64
(lp898
g57
(g78
g59
NtRp899
(dp900
g62
(dp901
g82
g83
ssg71
g895
sg64
(lp902
S'cmd_options'
p903
asbag57
(g78
g59
NtRp904
(dp905
g62
(dp906
g89
g90
ssg71
g895
sg64
(lp907
S':'
asbag57
(g78
g59
NtRp908
(dp909
g62
(dp910
sg71
g895
sg64
(lp911
g57
(g58
g59
NtRp912
(dp913
g62
(dp914
g70
I4
ssg71
g908
sg64
(lp915
S"<Values at 0x2139e60: {'verbose': False, 'ip': '127.0.0.1', 'shutdown_timeout': 5, 'taskbar': False, 'port': 8000, 'maxthreads': None, 'softcron': False, 'server_name': 'DS-IIIT', 'bpython': False, 'nogui': False, 'nocron': False, 'extcron': False, 'debuglevel': 30, 'test': None, 'folder': '/home/ds-iiit/web2py', 'config': '', 'import_models': False, 'winservice': '', 'shell': None, 'run': '', 'log_filename': 'httpserver.log', 'args': [''], 'socket_timeout': 1, 'profiler_filename': None, 'ssl_private_key': '', 'password': '<ask>', 'request_queue_size': 5, 'ssl_certificate': '', 'cronjob': False, 'plain': False, 'quiet': False, 'interfaces': None, 'minthreads': None, 'timeout': 10, 'numthreads': None, 'nobanner': False, 'pid_filename': 'httpserver.pid'}>"
p916
asbasbasbag57
(g73
g59
NtRp917
(dp918
g62
(dp919
sg71
g822
sg64
(lp920
g57
(g78
g59
NtRp921
(dp922
g62
(dp923
g82
g83
ssg71
g917
sg64
(lp924
S'db_sessions'
p925
asbag57
(g78
g59
NtRp926
(dp927
g62
(dp928
g89
g90
ssg71
g917
sg64
(lp929
S':'
asbag57
(g78
g59
NtRp930
(dp931
g62
(dp932
sg71
g917
sg64
(lp933
g57
(g58
g59
NtRp934
(dp935
g62
(dp936
g70
I4
ssg71
g930
sg64
(lp937
S'set([])'
p938
asbasbasbag57
(g73
g59
NtRp939
(dp940
g62
(dp941
sg71
g822
sg64
(lp942
g57
(g78
g59
NtRp943
(dp944
g62
(dp945
g82
g83
ssg71
g939
sg64
(lp946
S'debugging'
p947
asbag57
(g78
g59
NtRp948
(dp949
g62
(dp950
g89
g90
ssg71
g939
sg64
(lp951
S':'
asbag57
(g78
g59
NtRp952
(dp953
g62
(dp954
sg71
g939
sg64
(lp955
g57
(g58
g59
NtRp956
(dp957
g62
(dp958
g70
I4
ssg71
g952
sg64
(lp959
g100
asbasbasbag57
(g73
g59
NtRp960
(dp961
g62
(dp962
sg71
g822
sg64
(lp963
g57
(g78
g59
NtRp964
(dp965
g62
(dp966
g82
g83
ssg71
g960
sg64
(lp967
S'gluon_parent'
p968
asbag57
(g78
g59
NtRp969
(dp970
g62
(dp971
g89
g90
ssg71
g960
sg64
(lp972
S':'
asbag57
(g78
g59
NtRp973
(dp974
g62
(dp975
sg71
g960
sg64
(lp976
g57
(g58
g59
NtRp977
(dp978
g62
(dp979
g70
I4
ssg71
g973
sg64
(lp980
S'/usr/share/web2py'
p981
asbasbasbag57
(g73
g59
NtRp982
(dp983
g62
(dp984
sg71
g822
sg64
(lp985
g57
(g78
g59
NtRp986
(dp987
g62
(dp988
g82
g83
ssg71
g982
sg64
(lp989
S'http_accept'
p990
asbag57
(g78
g59
NtRp991
(dp992
g62
(dp993
g89
g90
ssg71
g982
sg64
(lp994
S':'
asbag57
(g78
g59
NtRp995
(dp996
g62
(dp997
sg71
g982
sg64
(lp998
g57
(g58
g59
NtRp999
(dp1000
g62
(dp1001
g70
I4
ssg71
g995
sg64
(lp1002
S'text/html,application/xhtml+xml,application/xml;q=0.9,*/*;q=0.8'
p1003
asbasbasbag57
(g73
g59
NtRp1004
(dp1005
g62
(dp1006
sg71
g822
sg64
(lp1007
g57
(g78
g59
NtRp1008
(dp1009
g62
(dp1010
g82
g83
ssg71
g1004
sg64
(lp1011
S'http_accept_encoding'
p1012
asbag57
(g78
g59
NtRp1013
(dp1014
g62
(dp1015
g89
g90
ssg71
g1004
sg64
(lp1016
S':'
asbag57
(g78
g59
NtRp1017
(dp1018
g62
(dp1019
sg71
g1004
sg64
(lp1020
g57
(g58
g59
NtRp1021
(dp1022
g62
(dp1023
g70
I4
ssg71
g1017
sg64
(lp1024
S'gzip,deflate,sdch'
p1025
asbasbasbag57
(g73
g59
NtRp1026
(dp1027
g62
(dp1028
sg71
g822
sg64
(lp1029
g57
(g78
g59
NtRp1030
(dp1031
g62
(dp1032
g82
g83
ssg71
g1026
sg64
(lp1033
S'http_accept_language'
p1034
asbag57
(g78
g59
NtRp1035
(dp1036
g62
(dp1037
g89
g90
ssg71
g1026
sg64
(lp1038
S':'
asbag57
(g78
g59
NtRp1039
(dp1040
g62
(dp1041
sg71
g1026
sg64
(lp1042
g57
(g58
g59
NtRp1043
(dp1044
g62
(dp1045
g70
I4
ssg71
g1039
sg64
(lp1046
S'en-US,en;q=0.8'
p1047
asbasbasbag57
(g73
g59
NtRp1048
(dp1049
g62
(dp1050
sg71
g822
sg64
(lp1051
g57
(g78
g59
NtRp1052
(dp1053
g62
(dp1054
g82
g83
ssg71
g1048
sg64
(lp1055
S'http_cache_control'
p1056
asbag57
(g78
g59
NtRp1057
(dp1058
g62
(dp1059
g89
g90
ssg71
g1048
sg64
(lp1060
S':'
asbag57
(g78
g59
NtRp1061
(dp1062
g62
(dp1063
sg71
g1048
sg64
(lp1064
g57
(g58
g59
NtRp1065
(dp1066
g62
(dp1067
g70
I4
ssg71
g1061
sg64
(lp1068
S'max-age=0'
p1069
asbasbasbag57
(g73
g59
NtRp1070
(dp1071
g62
(dp1072
sg71
g822
sg64
(lp1073
g57
(g78
g59
NtRp1074
(dp1075
g62
(dp1076
g82
g83
ssg71
g1070
sg64
(lp1077
S'http_connection'
p1078
asbag57
(g78
g59
NtRp1079
(dp1080
g62
(dp1081
g89
g90
ssg71
g1070
sg64
(lp1082
S':'
asbag57
(g78
g59
NtRp1083
(dp1084
g62
(dp1085
sg71
g1070
sg64
(lp1086
g57
(g58
g59
NtRp1087
(dp1088
g62
(dp1089
g70
I4
ssg71
g1083
sg64
(lp1090
S'keep-alive'
p1091
asbasbasbag57
(g73
g59
NtRp1092
(dp1093
g62
(dp1094
sg71
g822
sg64
(lp1095
g57
(g78
g59
NtRp1096
(dp1097
g62
(dp1098
g82
g83
ssg71
g1092
sg64
(lp1099
S'http_cookie'
p1100
asbag57
(g78
g59
NtRp1101
(dp1102
g62
(dp1103
g89
g90
ssg71
g1092
sg64
(lp1104
S':'
asbag57
(g78
g59
NtRp1105
(dp1106
g62
(dp1107
sg71
g1092
sg64
(lp1108
g57
(g58
g59
NtRp1109
(dp1110
g62
(dp1111
g70
I4
ssg71
g1105
sg64
(lp1112
S'session_id_welcome=127.0.0.1-5f55f5e2-e8df-4e51-8e50-af4db37687a4; session_id_admin=127.0.0.1-eec440ea-bfb0-454e-8342-e1b716d65698; session_id_gordian_knot=127.0.0.1-a9733ab7-5e43-4323-b962-9c2b175f5f60'
p1113
asbasbasbag57
(g73
g59
NtRp1114
(dp1115
g62
(dp1116
sg71
g822
sg64
(lp1117
g57
(g78
g59
NtRp1118
(dp1119
g62
(dp1120
g82
g83
ssg71
g1114
sg64
(lp1121
S'http_host'
p1122
asbag57
(g78
g59
NtRp1123
(dp1124
g62
(dp1125
g89
g90
ssg71
g1114
sg64
(lp1126
S':'
asbag57
(g78
g59
NtRp1127
(dp1128
g62
(dp1129
sg71
g1114
sg64
(lp1130
g57
(g58
g59
NtRp1131
(dp1132
g62
(dp1133
g70
I4
ssg71
g1127
sg64
(lp1134
S'127.0.0.1:8001'
p1135
asbasbasbag57
(g73
g59
NtRp1136
(dp1137
g62
(dp1138
sg71
g822
sg64
(lp1139
g57
(g78
g59
NtRp1140
(dp1141
g62
(dp1142
g82
g83
ssg71
g1136
sg64
(lp1143
S'http_user_agent'
p1144
asbag57
(g78
g59
NtRp1145
(dp1146
g62
(dp1147
g89
g90
ssg71
g1136
sg64
(lp1148
S':'
asbag57
(g78
g59
NtRp1149
(dp1150
g62
(dp1151
sg71
g1136
sg64
(lp1152
g57
(g58
g59
NtRp1153
(dp1154
g62
(dp1155
g70
I4
ssg71
g1149
sg64
(lp1156
S'Mozilla/5.0 (X11; Linux x86_64) AppleWebKit/537.36 (KHTML, like Gecko) Chrome/29.0.1547.57 Safari/537.36'
p1157
asbasbasbag57
(g73
g59
NtRp1158
(dp1159
g62
(dp1160
sg71
g822
sg64
(lp1161
g57
(g78
g59
NtRp1162
(dp1163
g62
(dp1164
g82
g83
ssg71
g1158
sg64
(lp1165
S'is_jython'
p1166
asbag57
(g78
g59
NtRp1167
(dp1168
g62
(dp1169
g89
g90
ssg71
g1158
sg64
(lp1170
S':'
asbag57
(g78
g59
NtRp1171
(dp1172
g62
(dp1173
sg71
g1158
sg64
(lp1174
g57
(g58
g59
NtRp1175
(dp1176
g62
(dp1177
g70
I4
ssg71
g1171
sg64
(lp1178
g100
asbasbasbag57
(g73
g59
NtRp1179
(dp1180
g62
(dp1181
sg71
g822
sg64
(lp1182
g57
(g78
g59
NtRp1183
(dp1184
g62
(dp1185
g82
g83
ssg71
g1179
sg64
(lp1186
S'is_pypy'
p1187
asbag57
(g78
g59
NtRp1188
(dp1189
g62
(dp1190
g89
g90
ssg71
g1179
sg64
(lp1191
S':'
asbag57
(g78
g59
NtRp1192
(dp1193
g62
(dp1194
sg71
g1179
sg64
(lp1195
g57
(g58
g59
NtRp1196
(dp1197
g62
(dp1198
g70
I4
ssg71
g1192
sg64
(lp1199
g100
asbasbasbag57
(g73
g59
NtRp1200
(dp1201
g62
(dp1202
sg71
g822
sg64
(lp1203
g57
(g78
g59
NtRp1204
(dp1205
g62
(dp1206
g82
g83
ssg71
g1200
sg64
(lp1207
S'path_info'
p1208
asbag57
(g78
g59
NtRp1209
(dp1210
g62
(dp1211
g89
g90
ssg71
g1200
sg64
(lp1212
S':'
asbag57
(g78
g59
NtRp1213
(dp1214
g62
(dp1215
sg71
g1200
sg64
(lp1216
g57
(g58
g59
NtRp1217
(dp1218
g62
(dp1219
g70
I4
ssg71
g1213
sg64
(lp1220
S'/Gordian_Knot/default/landing'
p1221
asbasbasbag57
(g73
g59
NtRp1222
(dp1223
g62
(dp1224
sg71
g822
sg64
(lp1225
g57
(g78
g59
NtRp1226
(dp1227
g62
(dp1228
g82
g83
ssg71
g1222
sg64
(lp1229
S'query_string'
p1230
asbag57
(g78
g59
NtRp1231
(dp1232
g62
(dp1233
g89
g90
ssg71
g1222
sg64
(lp1234
S':'
asbag57
(g78
g59
NtRp1235
(dp1236
g62
(dp1237
sg71
g1222
sg64
(lp1238
g57
(g58
g59
NtRp1239
(dp1240
g62
(dp1241
g70
I4
ssg71
g1235
sg64
(lp1242
S''
asbasbasbag57
(g73
g59
NtRp1243
(dp1244
g62
(dp1245
sg71
g822
sg64
(lp1246
g57
(g78
g59
NtRp1247
(dp1248
g62
(dp1249
g82
g83
ssg71
g1243
sg64
(lp1250
S'remote_addr'
p1251
asbag57
(g78
g59
NtRp1252
(dp1253
g62
(dp1254
g89
g90
ssg71
g1243
sg64
(lp1255
S':'
asbag57
(g78
g59
NtRp1256
(dp1257
g62
(dp1258
sg71
g1243
sg64
(lp1259
g57
(g58
g59
NtRp1260
(dp1261
g62
(dp1262
g70
I4
ssg71
g1256
sg64
(lp1263
g190
asbasbasbag57
(g73
g59
NtRp1264
(dp1265
g62
(dp1266
sg71
g822
sg64
(lp1267
g57
(g78
g59
NtRp1268
(dp1269
g62
(dp1270
g82
g83
ssg71
g1264
sg64
(lp1271
S'remote_port'
p1272
asbag57
(g78
g59
NtRp1273
(dp1274
g62
(dp1275
g89
g90
ssg71
g1264
sg64
(lp1276
S':'
asbag57
(g78
g59
NtRp1277
(dp1278
g62
(dp1279
sg71
g1264
sg64
(lp1280
g57
(g58
g59
NtRp1281
(dp1282
g62
(dp1283
g70
I4
ssg71
g1277
sg64
(lp1284
S'45111'
p1285
asbasbasbag57
(g73
g59
NtRp1286
(dp1287
g62
(dp1288
sg71
g822
sg64
(lp1289
g57
(g78
g59
NtRp1290
(dp1291
g62
(dp1292
g82
g83
ssg71
g1286
sg64
(lp1293
S'request_method'
p1294
asbag57
(g78
g59
NtRp1295
(dp1296
g62
(dp1297
g89
g90
ssg71
g1286
sg64
(lp1298
S':'
asbag57
(g78
g59
NtRp1299
(dp1300
g62
(dp1301
sg71
g1286
sg64
(lp1302
g57
(g58
g59
NtRp1303
(dp1304
g62
(dp1305
g70
I4
ssg71
g1299
sg64
(lp1306
S'GET'
p1307
asbasbasbag57
(g73
g59
NtRp1308
(dp1309
g62
(dp1310
sg71
g822
sg64
(lp1311
g57
(g78
g59
NtRp1312
(dp1313
g62
(dp1314
g82
g83
ssg71
g1308
sg64
(lp1315
S'script_name'
p1316
asbag57
(g78
g59
NtRp1317
(dp1318
g62
(dp1319
g89
g90
ssg71
g1308
sg64
(lp1320
S':'
asbag57
(g78
g59
NtRp1321
(dp1322
g62
(dp1323
sg71
g1308
sg64
(lp1324
g57
(g58
g59
NtRp1325
(dp1326
g62
(dp1327
g70
I4
ssg71
g1321
sg64
(lp1328
S''
asbasbasbag57
(g73
g59
NtRp1329
(dp1330
g62
(dp1331
sg71
g822
sg64
(lp1332
g57
(g78
g59
NtRp1333
(dp1334
g62
(dp1335
g82
g83
ssg71
g1329
sg64
(lp1336
S'server_name'
p1337
asbag57
(g78
g59
NtRp1338
(dp1339
g62
(dp1340
g89
g90
ssg71
g1329
sg64
(lp1341
S':'
asbag57
(g78
g59
NtRp1342
(dp1343
g62
(dp1344
sg71
g1329
sg64
(lp1345
g57
(g58
g59
NtRp1346
(dp1347
g62
(dp1348
g70
I4
ssg71
g1342
sg64
(lp1349
S'DS-IIIT'
p1350
asbasbasbag57
(g73
g59
NtRp1351
(dp1352
g62
(dp1353
sg71
g822
sg64
(lp1354
g57
(g78
g59
NtRp1355
(dp1356
g62
(dp1357
g82
g83
ssg71
g1351
sg64
(lp1358
S'server_port'
p1359
asbag57
(g78
g59
NtRp1360
(dp1361
g62
(dp1362
g89
g90
ssg71
g1351
sg64
(lp1363
S':'
asbag57
(g78
g59
NtRp1364
(dp1365
g62
(dp1366
sg71
g1351
sg64
(lp1367
g57
(g58
g59
NtRp1368
(dp1369
g62
(dp1370
g70
I4
ssg71
g1364
sg64
(lp1371
S'8001'
p1372
asbasbasbag57
(g73
g59
NtRp1373
(dp1374
g62
(dp1375
sg71
g822
sg64
(lp1376
g57
(g78
g59
NtRp1377
(dp1378
g62
(dp1379
g82
g83
ssg71
g1373
sg64
(lp1380
S'server_protocol'
p1381
asbag57
(g78
g59
NtRp1382
(dp1383
g62
(dp1384
g89
g90
ssg71
g1373
sg64
(lp1385
S':'
asbag57
(g78
g59
NtRp1386
(dp1387
g62
(dp1388
sg71
g1373
sg64
(lp1389
g57
(g58
g59
NtRp1390
(dp1391
g62
(dp1392
g70
I4
ssg71
g1386
sg64
(lp1393
S'HTTP/1.1'
p1394
asbasbasbag57
(g73
g59
NtRp1395
(dp1396
g62
(dp1397
sg71
g822
sg64
(lp1398
g57
(g78
g59
NtRp1399
(dp1400
g62
(dp1401
g82
g83
ssg71
g1395
sg64
(lp1402
S'server_software'
p1403
asbag57
(g78
g59
NtRp1404
(dp1405
g62
(dp1406
g89
g90
ssg71
g1395
sg64
(lp1407
S':'
asbag57
(g78
g59
NtRp1408
(dp1409
g62
(dp1410
sg71
g1395
sg64
(lp1411
g57
(g58
g59
NtRp1412
(dp1413
g62
(dp1414
g70
I4
ssg71
g1408
sg64
(lp1415
S'Rocket 1.2.4'
p1416
asbasbasbag57
(g73
g59
NtRp1417
(dp1418
g62
(dp1419
sg71
g822
sg64
(lp1420
g57
(g78
g59
NtRp1421
(dp1422
g62
(dp1423
g82
g83
ssg71
g1417
sg64
(lp1424
S'web2py_crontype'
p1425
asbag57
(g78
g59
NtRp1426
(dp1427
g62
(dp1428
g89
g90
ssg71
g1417
sg64
(lp1429
S':'
asbag57
(g78
g59
NtRp1430
(dp1431
g62
(dp1432
sg71
g1417
sg64
(lp1433
g57
(g58
g59
NtRp1434
(dp1435
g62
(dp1436
g70
I4
ssg71
g1430
sg64
(lp1437
S'hard'
p1438
asbasbasbag57
(g73
g59
NtRp1439
(dp1440
g62
(dp1441
sg71
g822
sg64
(lp1442
g57
(g78
g59
NtRp1443
(dp1444
g62
(dp1445
g82
g83
ssg71
g1439
sg64
(lp1446
S'web2py_path'
p1447
asbag57
(g78
g59
NtRp1448
(dp1449
g62
(dp1450
g89
g90
ssg71
g1439
sg64
(lp1451
S':'
asbag57
(g78
g59
NtRp1452
(dp1453
g62
(dp1454
sg71
g1439
sg64
(lp1455
g57
(g58
g59
NtRp1456
(dp1457
g62
(dp1458
g70
I4
ssg71
g1452
sg64
(lp1459
g869
asbasbasbag57
(g73
g59
NtRp1460
(dp1461
g62
(dp1462
sg71
g822
sg64
(lp1463
g57
(g78
g59
NtRp1464
(dp1465
g62
(dp1466
g82
g83
ssg71
g1460
sg64
(lp1467
S'web2py_version'
p1468
asbag57
(g78
g59
NtRp1469
(dp1470
g62
(dp1471
g89
g90
ssg71
g1460
sg64
(lp1472
S':'
asbag57
(g78
g59
NtRp1473
(dp1474
g62
(dp1475
sg71
g1460
sg64
(lp1476
g57
(g58
g59
NtRp1477
(dp1478
g62
(dp1479
g70
I4
ssg71
g1473
sg64
(lp1480
g57
(g66
g59
NtRp1481
(dp1482
g62
(dp1483
g70
I3
ssg71
Nsg64
(lp1484
g57
(g73
g59
NtRp1485
(dp1486
g62
(dp1487
sg71
g1481
sg64
(lp1488
g57
(g78
g59
NtRp1489
(dp1490
g62
(dp1491
sg71
g1485
sg64
(lp1492
g57
(g58
g59
NtRp1493
(dp1494
g62
(dp1495
g70
I3
ssg71
g1489
sg64
(lp1496
S'1'
asbasbasbag57
(g73
g59
NtRp1497
(dp1498
g62
(dp1499
sg71
g1481
sg64
(lp1500
g57
(g78
g59
NtRp1501
(dp1502
g62
(dp1503
sg71
g1497
sg64
(lp1504
g57
(g58
g59
NtRp1505
(dp1506
g62
(dp1507
g70
I3
ssg71
g1501
sg64
(lp1508
S'99'
p1509
asbasbasbag57
(g73
g59
NtRp1510
(dp1511
g62
(dp1512
sg71
g1481
sg64
(lp1513
g57
(g78
g59
NtRp1514
(dp1515
g62
(dp1516
sg71
g1510
sg64
(lp1517
g57
(g58
g59
NtRp1518
(dp1519
g62
(dp1520
g70
I3
ssg71
g1514
sg64
(lp1521
S'4'
asbasbasbag57
(g73
g59
NtRp1522
(dp1523
g62
(dp1524
sg71
g1481
sg64
(lp1525
g57
(g78
g59
NtRp1526
(dp1527
g62
(dp1528
sg71
g1522
sg64
(lp1529
g57
(g58
g59
NtRp1530
(dp1531
g62
(dp1532
g70
I3
ssg71
g1526
sg64
(lp1533
S'datetime.datetime(2011, 12, 14, 14, 46, 14)'
p1534
asbasbasbag57
(g73
g59
NtRp1535
(dp1536
g62
(dp1537
sg71
g1481
sg64
(lp1538
g57
(g78
g59
NtRp1539
(dp1540
g62
(dp1541
sg71
g1535
sg64
(lp1542
g57
(g58
g59
NtRp1543
(dp1544
g62
(dp1545
g70
I3
ssg71
g1539
sg64
(lp1546
S'stable'
p1547
asbasbasbasbasbasbasbag57
(g73
g59
NtRp1548
(dp1549
g62
(dp1550
sg71
g822
sg64
(lp1551
g57
(g78
g59
NtRp1552
(dp1553
g62
(dp1554
g82
g83
ssg71
g1548
sg64
(lp1555
S'wsgi_errors'
p1556
asbag57
(g78
g59
NtRp1557
(dp1558
g62
(dp1559
g89
g90
ssg71
g1548
sg64
(lp1560
S':'
asbag57
(g78
g59
NtRp1561
(dp1562
g62
(dp1563
sg71
g1548
sg64
(lp1564
g57
(g58
g59
NtRp1565
(dp1566
g62
(dp1567
g70
I4
ssg71
g1561
sg64
(lp1568
S"<open file '<stderr>', mode 'w' at 0x7f622d3a1270>"
p1569
asbasbasbag57
(g73
g59
NtRp1570
(dp1571
g62
(dp1572
sg71
g822
sg64
(lp1573
g57
(g78
g59
NtRp1574
(dp1575
g62
(dp1576
g82
g83
ssg71
g1570
sg64
(lp1577
S'wsgi_file_wrapper'
p1578
asbag57
(g78
g59
NtRp1579
(dp1580
g62
(dp1581
g89
g90
ssg71
g1570
sg64
(lp1582
S':'
asbag57
(g78
g59
NtRp1583
(dp1584
g62
(dp1585
sg71
g1570
sg64
(lp1586
g57
(g58
g59
NtRp1587
(dp1588
g62
(dp1589
g70
I4
ssg71
g1583
sg64
(lp1590
S'<class wsgiref.util.FileWrapper at 0x2164390>'
p1591
asbasbasbag57
(g73
g59
NtRp1592
(dp1593
g62
(dp1594
sg71
g822
sg64
(lp1595
g57
(g78
g59
NtRp1596
(dp1597
g62
(dp1598
g82
g83
ssg71
g1592
sg64
(lp1599
S'wsgi_input'
p1600
asbag57
(g78
g59
NtRp1601
(dp1602
g62
(dp1603
g89
g90
ssg71
g1592
sg64
(lp1604
S':'
asbag57
(g78
g59
NtRp1605
(dp1606
g62
(dp1607
sg71
g1592
sg64
(lp1608
g57
(g58
g59
NtRp1609
(dp1610
g62
(dp1611
g70
I4
ssg71
g1605
sg64
(lp1612
S'<socket._fileobject object at 0x7f61f027e050>'
p1613
asbasbasbag57
(g73
g59
NtRp1614
(dp1615
g62
(dp1616
sg71
g822
sg64
(lp1617
g57
(g78
g59
NtRp1618
(dp1619
g62
(dp1620
g82
g83
ssg71
g1614
sg64
(lp1621
S'wsgi_multiprocess'
p1622
asbag57
(g78
g59
NtRp1623
(dp1624
g62
(dp1625
g89
g90
ssg71
g1614
sg64
(lp1626
S':'
asbag57
(g78
g59
NtRp1627
(dp1628
g62
(dp1629
sg71
g1614
sg64
(lp1630
g57
(g58
g59
NtRp1631
(dp1632
g62
(dp1633
g70
I4
ssg71
g1627
sg64
(lp1634
g100
asbasbasbag57
(g73
g59
NtRp1635
(dp1636
g62
(dp1637
sg71
g822
sg64
(lp1638
g57
(g78
g59
NtRp1639
(dp1640
g62
(dp1641
g82
g83
ssg71
g1635
sg64
(lp1642
S'wsgi_multithread'
p1643
asbag57
(g78
g59
NtRp1644
(dp1645
g62
(dp1646
g89
g90
ssg71
g1635
sg64
(lp1647
S':'
asbag57
(g78
g59
NtRp1648
(dp1649
g62
(dp1650
sg71
g1635
sg64
(lp1651
g57
(g58
g59
NtRp1652
(dp1653
g62
(dp1654
g70
I4
ssg71
g1648
sg64
(lp1655
S'True'
p1656
asbasbasbag57
(g73
g59
NtRp1657
(dp1658
g62
(dp1659
sg71
g822
sg64
(lp1660
g57
(g78
g59
NtRp1661
(dp1662
g62
(dp1663
g82
g83
ssg71
g1657
sg64
(lp1664
S'wsgi_run_once'
p1665
asbag57
(g78
g59
NtRp1666
(dp1667
g62
(dp1668
g89
g90
ssg71
g1657
sg64
(lp1669
S':'
asbag57
(g78
g59
NtRp1670
(dp1671
g62
(dp1672
sg71
g1657
sg64
(lp1673
g57
(g58
g59
NtRp1674
(dp1675
g62
(dp1676
g70
I4
ssg71
g1670
sg64
(lp1677
g100
asbasbasbag57
(g73
g59
NtRp1678
(dp1679
g62
(dp1680
sg71
g822
sg64
(lp1681
g57
(g78
g59
NtRp1682
(dp1683
g62
(dp1684
g82
g83
ssg71
g1678
sg64
(lp1685
S'wsgi_url_scheme'
p1686
asbag57
(g78
g59
NtRp1687
(dp1688
g62
(dp1689
g89
g90
ssg71
g1678
sg64
(lp1690
S':'
asbag57
(g78
g59
NtRp1691
(dp1692
g62
(dp1693
sg71
g1678
sg64
(lp1694
g57
(g58
g59
NtRp1695
(dp1696
g62
(dp1697
g70
I4
ssg71
g1691
sg64
(lp1698
S'http'
p1699
asbasbasbag57
(g73
g59
NtRp1700
(dp1701
g62
(dp1702
sg71
g822
sg64
(lp1703
g57
(g78
g59
NtRp1704
(dp1705
g62
(dp1706
g82
g83
ssg71
g1700
sg64
(lp1707
S'wsgi_version'
p1708
asbag57
(g78
g59
NtRp1709
(dp1710
g62
(dp1711
g89
g90
ssg71
g1700
sg64
(lp1712
S':'
asbag57
(g78
g59
NtRp1713
(dp1714
g62
(dp1715
sg71
g1700
sg64
(lp1716
g57
(g58
g59
NtRp1717
(dp1718
g62
(dp1719
g70
I4
ssg71
g1713
sg64
(lp1720
g57
(g66
g59
NtRp1721
(dp1722
g62
(dp1723
g70
I3
ssg71
Nsg64
(lp1724
g57
(g73
g59
NtRp1725
(dp1726
g62
(dp1727
sg71
g1721
sg64
(lp1728
g57
(g78
g59
NtRp1729
(dp1730
g62
(dp1731
sg71
g1725
sg64
(lp1732
g57
(g58
g59
NtRp1733
(dp1734
g62
(dp1735
g70
I3
ssg71
g1729
sg64
(lp1736
S'1'
asbasbasbag57
(g73
g59
NtRp1737
(dp1738
g62
(dp1739
sg71
g1721
sg64
(lp1740
g57
(g78
g59
NtRp1741
(dp1742
g62
(dp1743
sg71
g1737
sg64
(lp1744
g57
(g58
g59
NtRp1745
(dp1746
g62
(dp1747
g70
I3
ssg71
g1741
sg64
(lp1748
S'0'
asbasbasbasbasbasbasbasbasbasbasbag57
(g73
g59
NtRp1749
(dp1750
g62
(dp1751
sg71
g67
sg64
(lp1752
g57
(g78
g59
NtRp1753
(dp1754
g62
(dp1755
g82
g83
ssg71
g1749
sg64
(lp1756
S'extension'
p1757
asbag57
(g78
g59
NtRp1758
(dp1759
g62
(dp1760
g89
g90
ssg71
g1749
sg64
(lp1761
S':'
asbag57
(g78
g59
NtRp1762
(dp1763
g62
(dp1764
sg71
g1749
sg64
(lp1765
g57
(g58
g59
NtRp1766
(dp1767
g62
(dp1768
g70
I5
ssg71
g1762
sg64
(lp1769
S'html'
p1770
asbasbasbag57
(g73
g59
NtRp1771
(dp1772
g62
(dp1773
sg71
g67
sg64
(lp1774
g57
(g78
g59
NtRp1775
(dp1776
g62
(dp1777
g82
g83
ssg71
g1771
sg64
(lp1778
S'folder'
p1779
asbag57
(g78
g59
NtRp1780
(dp1781
g62
(dp1782
g89
g90
ssg71
g1771
sg64
(lp1783
S':'
asbag57
(g78
g59
NtRp1784
(dp1785
g62
(dp1786
sg71
g1771
sg64
(lp1787
g57
(g58
g59
NtRp1788
(dp1789
g62
(dp1790
g70
I5
ssg71
g1784
sg64
(lp1791
S'/home/ds-iiit/web2py/applications/Gordian_Knot/'
p1792
asbasbasbag57
(g73
g59
NtRp1793
(dp1794
g62
(dp1795
sg71
g67
sg64
(lp1796
g57
(g78
g59
NtRp1797
(dp1798
g62
(dp1799
g82
g83
ssg71
g1793
sg64
(lp1800
S'function'
p1801
asbag57
(g78
g59
NtRp1802
(dp1803
g62
(dp1804
g89
g90
ssg71
g1793
sg64
(lp1805
S':'
asbag57
(g78
g59
NtRp1806
(dp1807
g62
(dp1808
sg71
g1793
sg64
(lp1809
g57
(g58
g59
NtRp1810
(dp1811
g62
(dp1812
g70
I5
ssg71
g1806
sg64
(lp1813
S'landing'
p1814
asbasbasbag57
(g73
g59
NtRp1815
(dp1816
g62
(dp1817
sg71
g67
sg64
(lp1818
g57
(g78
g59
NtRp1819
(dp1820
g62
(dp1821
g82
g83
ssg71
g1815
sg64
(lp1822
S'get_vars'
p1823
asbag57
(g78
g59
NtRp1824
(dp1825
g62
(dp1826
g89
g90
ssg71
g1815
sg64
(lp1827
S':'
asbag57
(g78
g59
NtRp1828
(dp1829
g62
(dp1830
sg71
g1815
sg64
(lp1831
g57
(g58
g59
NtRp1832
(dp1833
g62
(dp1834
g70
I5
ssg71
g1828
sg64
(lp1835
g57
(g66
g59
NtRp1836
(dp1837
g62
(dp1838
g70
I4
ssg71
Nsg64
(lp1839
sbasbasbasbag57
(g73
g59
NtRp1840
(dp1841
g62
(dp1842
sg71
g67
sg64
(lp1843
g57
(g78
g59
NtRp1844
(dp1845
g62
(dp1846
g82
g83
ssg71
g1840
sg64
(lp1847
S'global_settings'
p1848
asbag57
(g78
g59
NtRp1849
(dp1850
g62
(dp1851
g89
g90
ssg71
g1840
sg64
(lp1852
S':'
asbag57
(g78
g59
NtRp1853
(dp1854
g62
(dp1855
sg71
g1840
sg64
(lp1856
g57
(g58
g59
NtRp1857
(dp1858
g62
(dp1859
g70
I5
ssg71
g1853
sg64
(lp1860
g57
(g66
g59
NtRp1861
(dp1862
g62
(dp1863
g70
I4
ssg71
Nsg64
(lp1864
g57
(g73
g59
NtRp1865
(dp1866
g62
(dp1867
sg71
g1861
sg64
(lp1868
g57
(g78
g59
NtRp1869
(dp1870
g62
(dp1871
g82
g83
ssg71
g1865
sg64
(lp1872
g834
asbag57
(g78
g59
NtRp1873
(dp1874
g62
(dp1875
g89
g90
ssg71
g1865
sg64
(lp1876
S':'
asbag57
(g78
g59
NtRp1877
(dp1878
g62
(dp1879
sg71
g1865
sg64
(lp1880
g57
(g58
g59
NtRp1881
(dp1882
g62
(dp1883
g70
I4
ssg71
g1877
sg64
(lp1884
S"set(['/home/ds-iiit/web2py/applications/Gordian_Knot/', '/home/ds-iiit/web2py/applications/welcome/', '/home/ds-iiit/web2py/applications/admin/'])"
p1885
asbasbasbag57
(g73
g59
NtRp1886
(dp1887
g62
(dp1888
sg71
g1861
sg64
(lp1889
g57
(g78
g59
NtRp1890
(dp1891
g62
(dp1892
g82
g83
ssg71
g1886
sg64
(lp1893
g856
asbag57
(g78
g59
NtRp1894
(dp1895
g62
(dp1896
g89
g90
ssg71
g1886
sg64
(lp1897
S':'
asbag57
(g78
g59
NtRp1898
(dp1899
g62
(dp1900
sg71
g1886
sg64
(lp1901
g57
(g58
g59
NtRp1902
(dp1903
g62
(dp1904
g70
I4
ssg71
g1898
sg64
(lp1905
g869
asbasbasbag57
(g73
g59
NtRp1906
(dp1907
g62
(dp1908
sg71
g1861
sg64
(lp1909
g57
(g78
g59
NtRp1910
(dp1911
g62
(dp1912
g82
g83
ssg71
g1906
sg64
(lp1913
g878
asbag57
(g78
g59
NtRp1914
(dp1915
g62
(dp1916
g89
g90
ssg71
g1906
sg64
(lp1917
S':'
asbag57
(g78
g59
NtRp1918
(dp1919
g62
(dp1920
sg71
g1906
sg64
(lp1921
g57
(g58
g59
NtRp1922
(dp1923
g62
(dp1924
g70
I4
ssg71
g1918
sg64
(lp1925
g57
(g66
g59
NtRp1926
(dp1927
g62
(dp1928
g70
I3
ssg71
Nsg64
(lp1929
sbasbasbasbag57
(g73
g59
NtRp1930
(dp1931
g62
(dp1932
sg71
g1861
sg64
(lp1933
g57
(g78
g59
NtRp1934
(dp1935
g62
(dp1936
g82
g83
ssg71
g1930
sg64
(lp1937
g903
asbag57
(g78
g59
NtRp1938
(dp1939
g62
(dp1940
g89
g90
ssg71
g1930
sg64
(lp1941
S':'
asbag57
(g78
g59
NtRp1942
(dp1943
g62
(dp1944
sg71
g1930
sg64
(lp1945
g57
(g58
g59
NtRp1946
(dp1947
g62
(dp1948
g70
I4
ssg71
g1942
sg64
(lp1949
S"<Values at 0x2139e60: {'verbose': False, 'ip': '127.0.0.1', 'shutdown_timeout': 5, 'taskbar': False, 'port': 8000, 'maxthreads': None, 'softcron': False, 'server_name': 'DS-IIIT', 'bpython': False, 'nogui': False, 'nocron': False, 'extcron': False, 'debuglevel': 30, 'test': None, 'folder': '/home/ds-iiit/web2py', 'config': '', 'import_models': False, 'winservice': '', 'shell': None, 'run': '', 'log_filename': 'httpserver.log', 'args': [''], 'socket_timeout': 1, 'profiler_filename': None, 'ssl_private_key': '', 'password': '<ask>', 'request_queue_size': 5, 'ssl_certificate': '', 'cronjob': False, 'plain': False, 'quiet': False, 'interfaces': None, 'minthreads': None, 'timeout': 10, 'numthreads': None, 'nobanner': False, 'pid_filename': 'httpserver.pid'}>"
p1950
asbasbasbag57
(g73
g59
NtRp1951
(dp1952
g62
(dp1953
sg71
g1861
sg64
(lp1954
g57
(g78
g59
NtRp1955
(dp1956
g62
(dp1957
g82
g83
ssg71
g1951
sg64
(lp1958
g925
asbag57
(g78
g59
NtRp1959
(dp1960
g62
(dp1961
g89
g90
ssg71
g1951
sg64
(lp1962
S':'
asbag57
(g78
g59
NtRp1963
(dp1964
g62
(dp1965
sg71
g1951
sg64
(lp1966
g57
(g58
g59
NtRp1967
(dp1968
g62
(dp1969
g70
I4
ssg71
g1963
sg64
(lp1970
S'set([])'
p1971
asbasbasbag57
(g73
g59
NtRp1972
(dp1973
g62
(dp1974
sg71
g1861
sg64
(lp1975
g57
(g78
g59
NtRp1976
(dp1977
g62
(dp1978
g82
g83
ssg71
g1972
sg64
(lp1979
g947
asbag57
(g78
g59
NtRp1980
(dp1981
g62
(dp1982
g89
g90
ssg71
g1972
sg64
(lp1983
S':'
asbag57
(g78
g59
NtRp1984
(dp1985
g62
(dp1986
sg71
g1972
sg64
(lp1987
g57
(g58
g59
NtRp1988
(dp1989
g62
(dp1990
g70
I4
ssg71
g1984
sg64
(lp1991
g100
asbasbasbag57
(g73
g59
NtRp1992
(dp1993
g62
(dp1994
sg71
g1861
sg64
(lp1995
g57
(g78
g59
NtRp1996
(dp1997
g62
(dp1998
g82
g83
ssg71
g1992
sg64
(lp1999
g968
asbag57
(g78
g59
NtRp2000
(dp2001
g62
(dp2002
g89
g90
ssg71
g1992
sg64
(lp2003
S':'
asbag57
(g78
g59
NtRp2004
(dp2005
g62
(dp2006
sg71
g1992
sg64
(lp2007
g57
(g58
g59
NtRp2008
(dp2009
g62
(dp2010
g70
I4
ssg71
g2004
sg64
(lp2011
g981
asbasbasbag57
(g73
g59
NtRp2012
(dp2013
g62
(dp2014
sg71
g1861
sg64
(lp2015
g57
(g78
g59
NtRp2016
(dp2017
g62
(dp2018
g82
g83
ssg71
g2012
sg64
(lp2019
g1166
asbag57
(g78
g59
NtRp2020
(dp2021
g62
(dp2022
g89
g90
ssg71
g2012
sg64
(lp2023
S':'
asbag57
(g78
g59
NtRp2024
(dp2025
g62
(dp2026
sg71
g2012
sg64
(lp2027
g57
(g58
g59
NtRp2028
(dp2029
g62
(dp2030
g70
I4
ssg71
g2024
sg64
(lp2031
g100
asbasbasbag57
(g73
g59
NtRp2032
(dp2033
g62
(dp2034
sg71
g1861
sg64
(lp2035
g57
(g78
g59
NtRp2036
(dp2037
g62
(dp2038
g82
g83
ssg71
g2032
sg64
(lp2039
g1187
asbag57
(g78
g59
NtRp2040
(dp2041
g62
(dp2042
g89
g90
ssg71
g2032
sg64
(lp2043
S':'
asbag57
(g78
g59
NtRp2044
(dp2045
g62
(dp2046
sg71
g2032
sg64
(lp2047
g57
(g58
g59
NtRp2048
(dp2049
g62
(dp2050
g70
I4
ssg71
g2044
sg64
(lp2051
g100
asbasbasbag57
(g73
g59
NtRp2052
(dp2053
g62
(dp2054
sg71
g1861
sg64
(lp2055
g57
(g78
g59
NtRp2056
(dp2057
g62
(dp2058
g82
g83
ssg71
g2052
sg64
(lp2059
g1425
asbag57
(g78
g59
NtRp2060
(dp2061
g62
(dp2062
g89
g90
ssg71
g2052
sg64
(lp2063
S':'
asbag57
(g78
g59
NtRp2064
(dp2065
g62
(dp2066
sg71
g2052
sg64
(lp2067
g57
(g58
g59
NtRp2068
(dp2069
g62
(dp2070
g70
I4
ssg71
g2064
sg64
(lp2071
g1438
asbasbasbag57
(g73
g59
NtRp2072
(dp2073
g62
(dp2074
sg71
g1861
sg64
(lp2075
g57
(g78
g59
NtRp2076
(dp2077
g62
(dp2078
g82
g83
ssg71
g2072
sg64
(lp2079
g1468
asbag57
(g78
g59
NtRp2080
(dp2081
g62
(dp2082
g89
g90
ssg71
g2072
sg64
(lp2083
S':'
asbag57
(g78
g59
NtRp2084
(dp2085
g62
(dp2086
sg71
g2072
sg64
(lp2087
g57
(g58
g59
NtRp2088
(dp2089
g62
(dp2090
g70
I4
ssg71
g2084
sg64
(lp2091
g57
(g66
g59
NtRp2092
(dp2093
g62
(dp2094
g70
I3
ssg71
Nsg64
(lp2095
g57
(g73
g59
NtRp2096
(dp2097
g62
(dp2098
sg71
g2092
sg64
(lp2099
g57
(g78
g59
NtRp2100
(dp2101
g62
(dp2102
sg71
g2096
sg64
(lp2103
g57
(g58
g59
NtRp2104
(dp2105
g62
(dp2106
g70
I3
ssg71
g2100
sg64
(lp2107
S'1'
asbasbasbag57
(g73
g59
NtRp2108
(dp2109
g62
(dp2110
sg71
g2092
sg64
(lp2111
g57
(g78
g59
NtRp2112
(dp2113
g62
(dp2114
sg71
g2108
sg64
(lp2115
g57
(g58
g59
NtRp2116
(dp2117
g62
(dp2118
g70
I3
ssg71
g2112
sg64
(lp2119
S'99'
p2120
asbasbasbag57
(g73
g59
NtRp2121
(dp2122
g62
(dp2123
sg71
g2092
sg64
(lp2124
g57
(g78
g59
NtRp2125
(dp2126
g62
(dp2127
sg71
g2121
sg64
(lp2128
g57
(g58
g59
NtRp2129
(dp2130
g62
(dp2131
g70
I3
ssg71
g2125
sg64
(lp2132
S'4'
asbasbasbag57
(g73
g59
NtRp2133
(dp2134
g62
(dp2135
sg71
g2092
sg64
(lp2136
g57
(g78
g59
NtRp2137
(dp2138
g62
(dp2139
sg71
g2133
sg64
(lp2140
g57
(g58
g59
NtRp2141
(dp2142
g62
(dp2143
g70
I3
ssg71
g2137
sg64
(lp2144
S'datetime.datetime(2011, 12, 14, 14, 46, 14)'
p2145
asbasbasbag57
(g73
g59
NtRp2146
(dp2147
g62
(dp2148
sg71
g2092
sg64
(lp2149
g57
(g78
g59
NtRp2150
(dp2151
g62
(dp2152
sg71
g2146
sg64
(lp2153
g57
(g58
g59
NtRp2154
(dp2155
g62
(dp2156
g70
I3
ssg71
g2150
sg64
(lp2157
g1547
asbasbasbasbasbasbasbasbasbasbasbag57
(g73
g59
NtRp2158
(dp2159
g62
(dp2160
sg71
g67
sg64
(lp2161
g57
(g78
g59
NtRp2162
(dp2163
g62
(dp2164
g82
g83
ssg71
g2158
sg64
(lp2165
S'is_https'
p2166
asbag57
(g78
g59
NtRp2167
(dp2168
g62
(dp2169
g89
g90
ssg71
g2158
sg64
(lp2170
S':'
asbag57
(g78
g59
NtRp2171
(dp2172
g62
(dp2173
sg71
g2158
sg64
(lp2174
g57
(g58
g59
NtRp2175
(dp2176
g62
(dp2177
g70
I5
ssg71
g2171
sg64
(lp2178
g100
asbasbasbag57
(g73
g59
NtRp2179
(dp2180
g62
(dp2181
sg71
g67
sg64
(lp2182
g57
(g78
g59
NtRp2183
(dp2184
g62
(dp2185
g82
g83
ssg71
g2179
sg64
(lp2186
S'is_local'
p2187
asbag57
(g78
g59
NtRp2188
(dp2189
g62
(dp2190
g89
g90
ssg71
g2179
sg64
(lp2191
S':'
asbag57
(g78
g59
NtRp2192
(dp2193
g62
(dp2194
sg71
g2179
sg64
(lp2195
g57
(g58
g59
NtRp2196
(dp2197
g62
(dp2198
g70
I5
ssg71
g2192
sg64
(lp2199
g1656
asbasbasbag57
(g73
g59
NtRp2200
(dp2201
g62
(dp2202
sg71
g67
sg64
(lp2203
g57
(g78
g59
NtRp2204
(dp2205
g62
(dp2206
g82
g83
ssg71
g2200
sg64
(lp2207
S'is_restful'
p2208
asbag57
(g78
g59
NtRp2209
(dp2210
g62
(dp2211
g89
g90
ssg71
g2200
sg64
(lp2212
S':'
asbag57
(g78
g59
NtRp2213
(dp2214
g62
(dp2215
sg71
g2200
sg64
(lp2216
g57
(g58
g59
NtRp2217
(dp2218
g62
(dp2219
g70
I5
ssg71
g2213
sg64
(lp2220
g100
asbasbasbag57
(g73
g59
NtRp2221
(dp2222
g62
(dp2223
sg71
g67
sg64
(lp2224
g57
(g78
g59
NtRp2225
(dp2226
g62
(dp2227
g82
g83
ssg71
g2221
sg64
(lp2228
S'now'
p2229
asbag57
(g78
g59
NtRp2230
(dp2231
g62
(dp2232
g89
g90
ssg71
g2221
sg64
(lp2233
S':'
asbag57
(g78
g59
NtRp2234
(dp2235
g62
(dp2236
sg71
g2221
sg64
(lp2237
g57
(g58
g59
NtRp2238
(dp2239
g62
(dp2240
g70
I5
ssg71
g2234
sg64
(lp2241
S'datetime.datetime(2013, 9, 26, 2, 9, 19, 829313)'
p2242
asbasbasbag57
(g73
g59
NtRp2243
(dp2244
g62
(dp2245
sg71
g67
sg64
(lp2246
g57
(g78
g59
NtRp2247
(dp2248
g62
(dp2249
g82
g83
ssg71
g2243
sg64
(lp2250
S'post_vars'
p2251
asbag57
(g78
g59
NtRp2252
(dp2253
g62
(dp2254
g89
g90
ssg71
g2243
sg64
(lp2255
S':'
asbag57
(g78
g59
NtRp2256
(dp2257
g62
(dp2258
sg71
g2243
sg64
(lp2259
g57
(g58
g59
NtRp2260
(dp2261
g62
(dp2262
g70
I5
ssg71
g2256
sg64
(lp2263
g57
(g66
g59
NtRp2264
(dp2265
g62
(dp2266
g70
I4
ssg71
Nsg64
(lp2267
sbasbasbasbag57
(g73
g59
NtRp2268
(dp2269
g62
(dp2270
sg71
g67
sg64
(lp2271
g57
(g78
g59
NtRp2272
(dp2273
g62
(dp2274
g82
g83
ssg71
g2268
sg64
(lp2275
S'url'
p2276
asbag57
(g78
g59
NtRp2277
(dp2278
g62
(dp2279
g89
g90
ssg71
g2268
sg64
(lp2280
S':'
asbag57
(g78
g59
NtRp2281
(dp2282
g62
(dp2283
sg71
g2268
sg64
(lp2284
g57
(g58
g59
NtRp2285
(dp2286
g62
(dp2287
g70
I5
ssg71
g2281
sg64
(lp2288
S'/Gordian_Knot/default/landing'
p2289
asbasbasbag57
(g73
g59
NtRp2290
(dp2291
g62
(dp2292
sg71
g67
sg64
(lp2293
g57
(g78
g59
NtRp2294
(dp2295
g62
(dp2296
g82
g83
ssg71
g2290
sg64
(lp2297
S'utcnow'
p2298
asbag57
(g78
g59
NtRp2299
(dp2300
g62
(dp2301
g89
g90
ssg71
g2290
sg64
(lp2302
S':'
asbag57
(g78
g59
NtRp2303
(dp2304
g62
(dp2305
sg71
g2290
sg64
(lp2306
g57
(g58
g59
NtRp2307
(dp2308
g62
(dp2309
g70
I5
ssg71
g2303
sg64
(lp2310
S'datetime.datetime(2013, 9, 25, 20, 39, 19, 829337)'
p2311
asbasbasbag57
(g73
g59
NtRp2312
(dp2313
g62
(dp2314
sg71
g67
sg64
(lp2315
g57
(g78
g59
NtRp2316
(dp2317
g62
(dp2318
g82
g83
ssg71
g2312
sg64
(lp2319
S'uuid'
p2320
asbag57
(g78
g59
NtRp2321
(dp2322
g62
(dp2323
g89
g90
ssg71
g2312
sg64
(lp2324
S':'
asbag57
(g78
g59
NtRp2325
(dp2326
g62
(dp2327
sg71
g2312
sg64
(lp2328
g57
(g58
g59
NtRp2329
(dp2330
g62
(dp2331
g70
I5
ssg71
g2325
sg64
(lp2332
S'Gordian_Knot/127.0.0.1.2013-09-26.02-09-19.9ddb1901-4fb9-4198-ad49-d0d559e7d1bf'
p2333
asbasbasbag57
(g73
g59
NtRp2334
(dp2335
g62
(dp2336
sg71
g67
sg64
(lp2337
g57
(g78
g59
NtRp2338
(dp2339
g62
(dp2340
g82
g83
ssg71
g2334
sg64
(lp2341
S'vars'
p2342
asbag57
(g78
g59
NtRp2343
(dp2344
g62
(dp2345
g89
g90
ssg71
g2334
sg64
(lp2346
S':'
asbag57
(g78
g59
NtRp2347
(dp2348
g62
(dp2349
sg71
g2334
sg64
(lp2350
g57
(g58
g59
NtRp2351
(dp2352
g62
(dp2353
g70
I5
ssg71
g2347
sg64
(lp2354
g57
(g66
g59
NtRp2355
(dp2356
g62
(dp2357
g70
I4
ssg71
Nsg64
(lp2358
sbasbasbasbag57
(g73
g59
NtRp2359
(dp2360
g62
(dp2361
sg71
g67
sg64
(lp2362
g57
(g78
g59
NtRp2363
(dp2364
g62
(dp2365
g82
g83
ssg71
g2359
sg64
(lp2366
S'wsgi'
p2367
asbag57
(g78
g59
NtRp2368
(dp2369
g62
(dp2370
g89
g90
ssg71
g2359
sg64
(lp2371
S':'
asbag57
(g78
g59
NtRp2372
(dp2373
g62
(dp2374
sg71
g2359
sg64
(lp2375
g57
(g58
g59
NtRp2376
(dp2377
g62
(dp2378
g70
I5
ssg71
g2372
sg64
(lp2379
g57
(g66
g59
NtRp2380
(dp2381
g62
(dp2382
g70
I4
ssg71
Nsg64
(lp2383
g57
(g73
g59
NtRp2384
(dp2385
g62
(dp2386
sg71
g2380
sg64
(lp2387
g57
(g78
g59
NtRp2388
(dp2389
g62
(dp2390
g82
g83
ssg71
g2384
sg64
(lp2391
S'environ'
p2392
asbag57
(g78
g59
NtRp2393
(dp2394
g62
(dp2395
g89
g90
ssg71
g2384
sg64
(lp2396
S':'
asbag57
(g78
g59
NtRp2397
(dp2398
g62
(dp2399
sg71
g2384
sg64
(lp2400
g57
(g58
g59
NtRp2401
(dp2402
g62
(dp2403
g70
I4
ssg71
g2397
sg64
(lp2404
g57
(g66
g59
NtRp2405
(dp2406
g62
(dp2407
g70
I3
ssg71
Nsg64
(lp2408
g57
(g73
g59
NtRp2409
(dp2410
g62
(dp2411
sg71
g2405
sg64
(lp2412
g57
(g78
g59
NtRp2413
(dp2414
g62
(dp2415
g82
g83
ssg71
g2409
sg64
(lp2416
S'HTTP_ACCEPT'
p2417
asbag57
(g78
g59
NtRp2418
(dp2419
g62
(dp2420
g89
g90
ssg71
g2409
sg64
(lp2421
S':'
asbag57
(g78
g59
NtRp2422
(dp2423
g62
(dp2424
sg71
g2409
sg64
(lp2425
g57
(g58
g59
NtRp2426
(dp2427
g62
(dp2428
g70
I3
ssg71
g2422
sg64
(lp2429
g1003
asbasbasbag57
(g73
g59
NtRp2430
(dp2431
g62
(dp2432
sg71
g2405
sg64
(lp2433
g57
(g78
g59
NtRp2434
(dp2435
g62
(dp2436
g82
g83
ssg71
g2430
sg64
(lp2437
S'HTTP_ACCEPT_ENCODING'
p2438
asbag57
(g78
g59
NtRp2439
(dp2440
g62
(dp2441
g89
g90
ssg71
g2430
sg64
(lp2442
S':'
asbag57
(g78
g59
NtRp2443
(dp2444
g62
(dp2445
sg71
g2430
sg64
(lp2446
g57
(g58
g59
NtRp2447
(dp2448
g62
(dp2449
g70
I3
ssg71
g2443
sg64
(lp2450
g1025
asbasbasbag57
(g73
g59
NtRp2451
(dp2452
g62
(dp2453
sg71
g2405
sg64
(lp2454
g57
(g78
g59
NtRp2455
(dp2456
g62
(dp2457
g82
g83
ssg71
g2451
sg64
(lp2458
S'HTTP_ACCEPT_LANGUAGE'
p2459
asbag57
(g78
g59
NtRp2460
(dp2461
g62
(dp2462
g89
g90
ssg71
g2451
sg64
(lp2463
S':'
asbag57
(g78
g59
NtRp2464
(dp2465
g62
(dp2466
sg71
g2451
sg64
(lp2467
g57
(g58
g59
NtRp2468
(dp2469
g62
(dp2470
g70
I3
ssg71
g2464
sg64
(lp2471
g1047
asbasbasbag57
(g73
g59
NtRp2472
(dp2473
g62
(dp2474
sg71
g2405
sg64
(lp2475
g57
(g78
g59
NtRp2476
(dp2477
g62
(dp2478
g82
g83
ssg71
g2472
sg64
(lp2479
S'HTTP_CACHE_CONTROL'
p2480
asbag57
(g78
g59
NtRp2481
(dp2482
g62
(dp2483
g89
g90
ssg71
g2472
sg64
(lp2484
S':'
asbag57
(g78
g59
NtRp2485
(dp2486
g62
(dp2487
sg71
g2472
sg64
(lp2488
g57
(g58
g59
NtRp2489
(dp2490
g62
(dp2491
g70
I3
ssg71
g2485
sg64
(lp2492
g1069
asbasbasbag57
(g73
g59
NtRp2493
(dp2494
g62
(dp2495
sg71
g2405
sg64
(lp2496
g57
(g78
g59
NtRp2497
(dp2498
g62
(dp2499
g82
g83
ssg71
g2493
sg64
(lp2500
S'HTTP_CONNECTION'
p2501
asbag57
(g78
g59
NtRp2502
(dp2503
g62
(dp2504
g89
g90
ssg71
g2493
sg64
(lp2505
S':'
asbag57
(g78
g59
NtRp2506
(dp2507
g62
(dp2508
sg71
g2493
sg64
(lp2509
g57
(g58
g59
NtRp2510
(dp2511
g62
(dp2512
g70
I3
ssg71
g2506
sg64
(lp2513
g1091
asbasbasbag57
(g73
g59
NtRp2514
(dp2515
g62
(dp2516
sg71
g2405
sg64
(lp2517
g57
(g78
g59
NtRp2518
(dp2519
g62
(dp2520
g82
g83
ssg71
g2514
sg64
(lp2521
S'HTTP_COOKIE'
p2522
asbag57
(g78
g59
NtRp2523
(dp2524
g62
(dp2525
g89
g90
ssg71
g2514
sg64
(lp2526
S':'
asbag57
(g78
g59
NtRp2527
(dp2528
g62
(dp2529
sg71
g2514
sg64
(lp2530
g57
(g58
g59
NtRp2531
(dp2532
g62
(dp2533
g70
I3
ssg71
g2527
sg64
(lp2534
g1113
asbasbasbag57
(g73
g59
NtRp2535
(dp2536
g62
(dp2537
sg71
g2405
sg64
(lp2538
g57
(g78
g59
NtRp2539
(dp2540
g62
(dp2541
g82
g83
ssg71
g2535
sg64
(lp2542
S'HTTP_HOST'
p2543
asbag57
(g78
g59
NtRp2544
(dp2545
g62
(dp2546
g89
g90
ssg71
g2535
sg64
(lp2547
S':'
asbag57
(g78
g59
NtRp2548
(dp2549
g62
(dp2550
sg71
g2535
sg64
(lp2551
g57
(g58
g59
NtRp2552
(dp2553
g62
(dp2554
g70
I3
ssg71
g2548
sg64
(lp2555
g1135
asbasbasbag57
(g73
g59
NtRp2556
(dp2557
g62
(dp2558
sg71
g2405
sg64
(lp2559
g57
(g78
g59
NtRp2560
(dp2561
g62
(dp2562
g82
g83
ssg71
g2556
sg64
(lp2563
S'HTTP_USER_AGENT'
p2564
asbag57
(g78
g59
NtRp2565
(dp2566
g62
(dp2567
g89
g90
ssg71
g2556
sg64
(lp2568
S':'
asbag57
(g78
g59
NtRp2569
(dp2570
g62
(dp2571
sg71
g2556
sg64
(lp2572
g57
(g58
g59
NtRp2573
(dp2574
g62
(dp2575
g70
I3
ssg71
g2569
sg64
(lp2576
g1157
asbasbasbag57
(g73
g59
NtRp2577
(dp2578
g62
(dp2579
sg71
g2405
sg64
(lp2580
g57
(g78
g59
NtRp2581
(dp2582
g62
(dp2583
g82
g83
ssg71
g2577
sg64
(lp2584
S'PATH_INFO'
p2585
asbag57
(g78
g59
NtRp2586
(dp2587
g62
(dp2588
g89
g90
ssg71
g2577
sg64
(lp2589
S':'
asbag57
(g78
g59
NtRp2590
(dp2591
g62
(dp2592
sg71
g2577
sg64
(lp2593
g57
(g58
g59
NtRp2594
(dp2595
g62
(dp2596
g70
I3
ssg71
g2590
sg64
(lp2597
g1221
asbasbasbag57
(g73
g59
NtRp2598
(dp2599
g62
(dp2600
sg71
g2405
sg64
(lp2601
g57
(g78
g59
NtRp2602
(dp2603
g62
(dp2604
g82
g83
ssg71
g2598
sg64
(lp2605
S'QUERY_STRING'
p2606
asbag57
(g78
g59
NtRp2607
(dp2608
g62
(dp2609
g89
g90
ssg71
g2598
sg64
(lp2610
S':'
asbag57
(g78
g59
NtRp2611
(dp2612
g62
(dp2613
sg71
g2598
sg64
(lp2614
g57
(g58
g59
NtRp2615
(dp2616
g62
(dp2617
g70
I3
ssg71
g2611
sg64
(lp2618
S''
asbasbasbag57
(g73
g59
NtRp2619
(dp2620
g62
(dp2621
sg71
g2405
sg64
(lp2622
g57
(g78
g59
NtRp2623
(dp2624
g62
(dp2625
g82
g83
ssg71
g2619
sg64
(lp2626
S'REMOTE_ADDR'
p2627
asbag57
(g78
g59
NtRp2628
(dp2629
g62
(dp2630
g89
g90
ssg71
g2619
sg64
(lp2631
S':'
asbag57
(g78
g59
NtRp2632
(dp2633
g62
(dp2634
sg71
g2619
sg64
(lp2635
g57
(g58
g59
NtRp2636
(dp2637
g62
(dp2638
g70
I3
ssg71
g2632
sg64
(lp2639
g190
asbasbasbag57
(g73
g59
NtRp2640
(dp2641
g62
(dp2642
sg71
g2405
sg64
(lp2643
g57
(g78
g59
NtRp2644
(dp2645
g62
(dp2646
g82
g83
ssg71
g2640
sg64
(lp2647
S'REMOTE_PORT'
p2648
asbag57
(g78
g59
NtRp2649
(dp2650
g62
(dp2651
g89
g90
ssg71
g2640
sg64
(lp2652
S':'
asbag57
(g78
g59
NtRp2653
(dp2654
g62
(dp2655
sg71
g2640
sg64
(lp2656
g57
(g58
g59
NtRp2657
(dp2658
g62
(dp2659
g70
I3
ssg71
g2653
sg64
(lp2660
g1285
asbasbasbag57
(g73
g59
NtRp2661
(dp2662
g62
(dp2663
sg71
g2405
sg64
(lp2664
g57
(g78
g59
NtRp2665
(dp2666
g62
(dp2667
g82
g83
ssg71
g2661
sg64
(lp2668
S'REQUEST_METHOD'
p2669
asbag57
(g78
g59
NtRp2670
(dp2671
g62
(dp2672
g89
g90
ssg71
g2661
sg64
(lp2673
S':'
asbag57
(g78
g59
NtRp2674
(dp2675
g62
(dp2676
sg71
g2661
sg64
(lp2677
g57
(g58
g59
NtRp2678
(dp2679
g62
(dp2680
g70
I3
ssg71
g2674
sg64
(lp2681
g1307
asbasbasbag57
(g73
g59
NtRp2682
(dp2683
g62
(dp2684
sg71
g2405
sg64
(lp2685
g57
(g78
g59
NtRp2686
(dp2687
g62
(dp2688
g82
g83
ssg71
g2682
sg64
(lp2689
S'SCRIPT_NAME'
p2690
asbag57
(g78
g59
NtRp2691
(dp2692
g62
(dp2693
g89
g90
ssg71
g2682
sg64
(lp2694
S':'
asbag57
(g78
g59
NtRp2695
(dp2696
g62
(dp2697
sg71
g2682
sg64
(lp2698
g57
(g58
g59
NtRp2699
(dp2700
g62
(dp2701
g70
I3
ssg71
g2695
sg64
(lp2702
S''
asbasbasbag57
(g73
g59
NtRp2703
(dp2704
g62
(dp2705
sg71
g2405
sg64
(lp2706
g57
(g78
g59
NtRp2707
(dp2708
g62
(dp2709
g82
g83
ssg71
g2703
sg64
(lp2710
S'SERVER_NAME'
p2711
asbag57
(g78
g59
NtRp2712
(dp2713
g62
(dp2714
g89
g90
ssg71
g2703
sg64
(lp2715
S':'
asbag57
(g78
g59
NtRp2716
(dp2717
g62
(dp2718
sg71
g2703
sg64
(lp2719
g57
(g58
g59
NtRp2720
(dp2721
g62
(dp2722
g70
I3
ssg71
g2716
sg64
(lp2723
g1350
asbasbasbag57
(g73
g59
NtRp2724
(dp2725
g62
(dp2726
sg71
g2405
sg64
(lp2727
g57
(g78
g59
NtRp2728
(dp2729
g62
(dp2730
g82
g83
ssg71
g2724
sg64
(lp2731
S'SERVER_PORT'
p2732
asbag57
(g78
g59
NtRp2733
(dp2734
g62
(dp2735
g89
g90
ssg71
g2724
sg64
(lp2736
S':'
asbag57
(g78
g59
NtRp2737
(dp2738
g62
(dp2739
sg71
g2724
sg64
(lp2740
g57
(g58
g59
NtRp2741
(dp2742
g62
(dp2743
g70
I3
ssg71
g2737
sg64
(lp2744
g1372
asbasbasbag57
(g73
g59
NtRp2745
(dp2746
g62
(dp2747
sg71
g2405
sg64
(lp2748
g57
(g78
g59
NtRp2749
(dp2750
g62
(dp2751
g82
g83
ssg71
g2745
sg64
(lp2752
S'SERVER_PROTOCOL'
p2753
asbag57
(g78
g59
NtRp2754
(dp2755
g62
(dp2756
g89
g90
ssg71
g2745
sg64
(lp2757
S':'
asbag57
(g78
g59
NtRp2758
(dp2759
g62
(dp2760
sg71
g2745
sg64
(lp2761
g57
(g58
g59
NtRp2762
(dp2763
g62
(dp2764
g70
I3
ssg71
g2758
sg64
(lp2765
g1394
asbasbasbag57
(g73
g59
NtRp2766
(dp2767
g62
(dp2768
sg71
g2405
sg64
(lp2769
g57
(g78
g59
NtRp2770
(dp2771
g62
(dp2772
g82
g83
ssg71
g2766
sg64
(lp2773
S'SERVER_SOFTWARE'
p2774
asbag57
(g78
g59
NtRp2775
(dp2776
g62
(dp2777
g89
g90
ssg71
g2766
sg64
(lp2778
S':'
asbag57
(g78
g59
NtRp2779
(dp2780
g62
(dp2781
sg71
g2766
sg64
(lp2782
g57
(g58
g59
NtRp2783
(dp2784
g62
(dp2785
g70
I3
ssg71
g2779
sg64
(lp2786
g1416
asbasbasbag57
(g73
g59
NtRp2787
(dp2788
g62
(dp2789
sg71
g2405
sg64
(lp2790
g57
(g78
g59
NtRp2791
(dp2792
g62
(dp2793
g82
g83
ssg71
g2787
sg64
(lp2794
S'wsgi.errors'
p2795
asbag57
(g78
g59
NtRp2796
(dp2797
g62
(dp2798
g89
g90
ssg71
g2787
sg64
(lp2799
S':'
asbag57
(g78
g59
NtRp2800
(dp2801
g62
(dp2802
sg71
g2787
sg64
(lp2803
g57
(g58
g59
NtRp2804
(dp2805
g62
(dp2806
g70
I3
ssg71
g2800
sg64
(lp2807
S"<open file '<stderr>', mode 'w' at 0x7f622d3a1270>"
p2808
asbasbasbag57
(g73
g59
NtRp2809
(dp2810
g62
(dp2811
sg71
g2405
sg64
(lp2812
g57
(g78
g59
NtRp2813
(dp2814
g62
(dp2815
g82
g83
ssg71
g2809
sg64
(lp2816
S'wsgi.file_wrapper'
p2817
asbag57
(g78
g59
NtRp2818
(dp2819
g62
(dp2820
g89
g90
ssg71
g2809
sg64
(lp2821
S':'
asbag57
(g78
g59
NtRp2822
(dp2823
g62
(dp2824
sg71
g2809
sg64
(lp2825
g57
(g58
g59
NtRp2826
(dp2827
g62
(dp2828
g70
I3
ssg71
g2822
sg64
(lp2829
S'<class wsgiref.util.FileWrapper at 0x2164390>'
p2830
asbasbasbag57
(g73
g59
NtRp2831
(dp2832
g62
(dp2833
sg71
g2405
sg64
(lp2834
g57
(g78
g59
NtRp2835
(dp2836
g62
(dp2837
g82
g83
ssg71
g2831
sg64
(lp2838
S'wsgi.input'
p2839
asbag57
(g78
g59
NtRp2840
(dp2841
g62
(dp2842
g89
g90
ssg71
g2831
sg64
(lp2843
S':'
asbag57
(g78
g59
NtRp2844
(dp2845
g62
(dp2846
sg71
g2831
sg64
(lp2847
g57
(g58
g59
NtRp2848
(dp2849
g62
(dp2850
g70
I3
ssg71
g2844
sg64
(lp2851
S'<cStringIO.StringO object at 0x7f61f03414c8>'
p2852
asbasbasbag57
(g73
g59
NtRp2853
(dp2854
g62
(dp2855
sg71
g2405
sg64
(lp2856
g57
(g78
g59
NtRp2857
(dp2858
g62
(dp2859
g82
g83
ssg71
g2853
sg64
(lp2860
S'wsgi.multiprocess'
p2861
asbag57
(g78
g59
NtRp2862
(dp2863
g62
(dp2864
g89
g90
ssg71
g2853
sg64
(lp2865
S':'
asbag57
(g78
g59
NtRp2866
(dp2867
g62
(dp2868
sg71
g2853
sg64
(lp2869
g57
(g58
g59
NtRp2870
(dp2871
g62
(dp2872
g70
I3
ssg71
g2866
sg64
(lp2873
g100
asbasbasbag57
(g73
g59
NtRp2874
(dp2875
g62
(dp2876
sg71
g2405
sg64
(lp2877
g57
(g78
g59
NtRp2878
(dp2879
g62
(dp2880
g82
g83
ssg71
g2874
sg64
(lp2881
S'wsgi.multithread'
p2882
asbag57
(g78
g59
NtRp2883
(dp2884
g62
(dp2885
g89
g90
ssg71
g2874
sg64
(lp2886
S':'
asbag57
(g78
g59
NtRp2887
(dp2888
g62
(dp2889
sg71
g2874
sg64
(lp2890
g57
(g58
g59
NtRp2891
(dp2892
g62
(dp2893
g70
I3
ssg71
g2887
sg64
(lp2894
g1656
asbasbasbag57
(g73
g59
NtRp2895
(dp2896
g62
(dp2897
sg71
g2405
sg64
(lp2898
g57
(g78
g59
NtRp2899
(dp2900
g62
(dp2901
g82
g83
ssg71
g2895
sg64
(lp2902
S'wsgi.run_once'
p2903
asbag57
(g78
g59
NtRp2904
(dp2905
g62
(dp2906
g89
g90
ssg71
g2895
sg64
(lp2907
S':'
asbag57
(g78
g59
NtRp2908
(dp2909
g62
(dp2910
sg71
g2895
sg64
(lp2911
g57
(g58
g59
NtRp2912
(dp2913
g62
(dp2914
g70
I3
ssg71
g2908
sg64
(lp2915
g100
asbasbasbag57
(g73
g59
NtRp2916
(dp2917
g62
(dp2918
sg71
g2405
sg64
(lp2919
g57
(g78
g59
NtRp2920
(dp2921
g62
(dp2922
g82
g83
ssg71
g2916
sg64
(lp2923
S'wsgi.url_scheme'
p2924
asbag57
(g78
g59
NtRp2925
(dp2926
g62
(dp2927
g89
g90
ssg71
g2916
sg64
(lp2928
S':'
asbag57
(g78
g59
NtRp2929
(dp2930
g62
(dp2931
sg71
g2916
sg64
(lp2932
g57
(g58
g59
NtRp2933
(dp2934
g62
(dp2935
g70
I3
ssg71
g2929
sg64
(lp2936
g1699
asbasbasbag57
(g73
g59
NtRp2937
(dp2938
g62
(dp2939
sg71
g2405
sg64
(lp2940
g57
(g78
g59
NtRp2941
(dp2942
g62
(dp2943
g82
g83
ssg71
g2937
sg64
(lp2944
S'wsgi.version'
p2945
asbag57
(g78
g59
NtRp2946
(dp2947
g62
(dp2948
g89
g90
ssg71
g2937
sg64
(lp2949
S':'
asbag57
(g78
g59
NtRp2950
(dp2951
g62
(dp2952
sg71
g2937
sg64
(lp2953
g57
(g58
g59
NtRp2954
(dp2955
g62
(dp2956
g70
I3
ssg71
g2950
sg64
(lp2957
S'1'
asbasbasbasbasbasbasbasbasbasbasbasbasbsS'frames'
p2958
(lp2959
(dp2960
S'file'
p2961
S'/usr/lib/pymodules/python2.7/gluon/restricted.py'
p2962
sS'dump'
p2963
(dp2964
S'environment'
p2965
S"{'A': <class 'gluon.html.A'>, 'Auth': <class 'gluon.tools.Auth'>, 'B': <class 'gluon.html.B'>, 'BEAUTIFY': <class 'gluon.html.BEAUTIFY'>, 'BODY': <class 'gluon.html.BODY'>, 'BR': <class 'gluon.html.BR'>, 'BUTTON': <class 'gluon.html.BUTTON'>, 'CAT': <class 'gluon.html.CAT'>, 'CENTER': <class 'gluon.html.CENTER'>, 'CLEANUP': <class 'gluon.validators.CLEANUP'>, ...}"
p2966
sS'ccode'
p2967
S'<code object <module> at 0x7f61f4687730, file "/...Gordian_Knot/views/default/landing.html", line 1>'
p2968
ssS'lnum'
p2969
I204
sS'lines'
p2970
(dp2971
I199
S'    try:'
p2972
sI200
S'        if type(code) == types.CodeType:'
p2973
sI201
S'            ccode = code'
p2974
sI202
S'        else:'
p2975
sI203
S'            ccode = compile2(code,layer)'
p2976
sI204
S'        exec ccode in environment'
p2977
sI205
S'    except HTTP:'
p2978
sI206
S'        raise'
p2979
sI207
S'    except RestrictedError:'
p2980
sI208
S'        # do not encapsulate (obfuscate) the original RestrictedError'
p2981
ssS'call'
p2982
S'(code=r"response.write(\'<!DOCTYPE html>\\n<!-- paulirish....ponse.write(\'\\n</body>\\n</html>\\n\', escape=False)", environment={\'A\': <class \'gluon.html.A\'>, \'Auth\': <class \'gluon.tools.Auth\'>, \'B\': <class \'gluon.html.B\'>, \'BEAUTIFY\': <class \'gluon.html.BEAUTIFY\'>, \'BODY\': <class \'gluon.html.BODY\'>, \'BR\': <class \'gluon.html.BR\'>, \'BUTTON\': <class \'gluon.html.BUTTON\'>, \'CAT\': <class \'gluon.html.CAT\'>, \'CENTER\': <class \'gluon.html.CENTER\'>, \'CLEANUP\': <class \'gluon.validators.CLEANUP\'>, ...}, layer=\'/home/ds-iiit/web2py/applications/Gordian_Knot/views/default/landing.html\')'
p2983
sS'func'
p2984
S'restricted'
p2985
sa(dp2986
g2961
S'/home/ds-iiit/web2py/applications/Gordian_Knot/views/default/landing.html'
p2987
sg2963
(dp2988
sg2969
I60
sg2970
(dp2989
I64
S'if left_sidebar_enabled:'
p2990
sI65
S'    response.write(\'\\n<div class="four columns left-sidebar">\\n\', escape=False)'
p2991
sI66
S"    response.write('\\n<h3>Left Sidebar</h3>\\n<p></p>\\n', escape=False)"
p2992
sI67
S"    response.write('\\n</div>\\n', escape=False)"
p2993
sI68
S'    pass'
p2994
sI69
S'response.write(\'\\n<div class="\', escape=False)'
p2995
sI70
S'response.write(middle_columns)'
p2996
sI51
S"response.write('</div>\\n', escape=False)"
p2997
sI52
S'is_mobile=request.user_agent().is_mobile'
p2998
sI53
S'response.write(\'\\n<div id="menu">\', escape=False)'
p2999
sI54
S"response.write(MENU(response.menu, _class='mobile-menu' if is_mobile else 'sf-menu',mobile=is_mobile))"
p3000
sI55
S'response.write(\'\\n</div>\\n</div>\\n</div>\\n</div>--><!-- topbar -->\\n<div id="header-wrapper">\\n\\n<div id="menu" class="container">\\n\\n<ul>\\n\\n<li class="current_page_item"><a href="#">Homepage</a></li>\\n\\n<li><a href="\', escape=False)'
p3001
sI56
S"response.write(URL('about.html'))"
p3002
sI57
S'response.write(\'">Rules</a></li>\\n\\n<li><a href="#">Portfolio</a></li>\\n\\n<li><a href="#">Contact</a></li>\\n\\n</ul>\\n\\n</div>\\n\\n<!-- end #menu -->\\n\\n<div id="header" class="container">\\n\\n<div id="logo">\\n<br/>\\n<h1><a href="\', escape=False)'
p3003
sI58
S"response.write(URL('landing'))"
p3004
sI59
S'response.write(\'"> Gordian Knot </a></h1>\\n\\n</div>\\n\\n<div style="float:right; padding-top: .25em;" class="a2a_kit a2a_default_style">\\n<a class="a2a_dd" href="http://www.addtoany.com/share_save">Share this</a></div>\\n\', escape=False)'
p3005
sI60
S'response.write(response.menu())'
p3006
sI61
S'response.write(\'\\n<div class="flash">\', escape=False)'
p3007
sI62
S"response.write(response.flash or '')"
p3008
sI63
S'response.write(\'</div>\\n<!-- AddToAny BEGIN -->\\n<script type="text/javascript" src="http://static.addtoany.com/menu/page.js"></script>\\n<!-- AddToAny END -->\\n</div>\\n</div>\\n\\n<div class="main">\\n<div class="container">                 \\n\', escape=False)'
p3009
ssg2982
S'()'
p3010
sg2984
S'<module>'
p3011
sasS'pyver'
p3012
S'Python 2.7.3: /usr/bin/python'
p3013
sS'session'
p3014
g57
(g58
g59
NtRp3015
(dp3016
g62
(dp3017
sg64
(lp3018
g57
(g66
g59
NtRp3019
(dp3020
g62
(dp3021
g70
I5
ssg71
Nsg64
(lp3022
g57
(g73
g59
NtRp3023
(dp3024
g62
(dp3025
sg71
g3019
sg64
(lp3026
g57
(g78
g59
NtRp3027
(dp3028
g62
(dp3029
g82
g83
ssg71
g3023
sg64
(lp3030
S'auth'
p3031
asbag57
(g78
g59
NtRp3032
(dp3033
g62
(dp3034
g89
g90
ssg71
g3023
sg64
(lp3035
S':'
asbag57
(g78
g59
NtRp3036
(dp3037
g62
(dp3038
sg71
g3023
sg64
(lp3039
g57
(g58
g59
NtRp3040
(dp3041
g62
(dp3042
g70
I5
ssg71
g3036
sg64
(lp3043
g57
(g66
g59
NtRp3044
(dp3045
g62
(dp3046
g70
I4
ssg71
Nsg64
(lp3047
g57
(g73
g59
NtRp3048
(dp3049
g62
(dp3050
sg71
g3044
sg64
(lp3051
g57
(g78
g59
NtRp3052
(dp3053
g62
(dp3054
g82
g83
ssg71
g3048
sg64
(lp3055
S'expiration'
p3056
asbag57
(g78
g59
NtRp3057
(dp3058
g62
(dp3059
g89
g90
ssg71
g3048
sg64
(lp3060
S':'
asbag57
(g78
g59
NtRp3061
(dp3062
g62
(dp3063
sg71
g3048
sg64
(lp3064
g57
(g58
g59
NtRp3065
(dp3066
g62
(dp3067
g70
I4
ssg71
g3061
sg64
(lp3068
S'2592000'
p3069
asbasbasbag57
(g73
g59
NtRp3070
(dp3071
g62
(dp3072
sg71
g3044
sg64
(lp3073
g57
(g78
g59
NtRp3074
(dp3075
g62
(dp3076
g82
g83
ssg71
g3070
sg64
(lp3077
S'hmac_key'
p3078
asbag57
(g78
g59
NtRp3079
(dp3080
g62
(dp3081
g89
g90
ssg71
g3070
sg64
(lp3082
S':'
asbag57
(g78
g59
NtRp3083
(dp3084
g62
(dp3085
sg71
g3070
sg64
(lp3086
g57
(g58
g59
NtRp3087
(dp3088
g62
(dp3089
g70
I4
ssg71
g3083
sg64
(lp3090
S'367f2c8b-32d0-42f4-b167-822914b6acc6'
p3091
asbasbasbag57
(g73
g59
NtRp3092
(dp3093
g62
(dp3094
sg71
g3044
sg64
(lp3095
g57
(g78
g59
NtRp3096
(dp3097
g62
(dp3098
g82
g83
ssg71
g3092
sg64
(lp3099
S'last_visit'
p3100
asbag57
(g78
g59
NtRp3101
(dp3102
g62
(dp3103
g89
g90
ssg71
g3092
sg64
(lp3104
S':'
asbag57
(g78
g59
NtRp3105
(dp3106
g62
(dp3107
sg71
g3092
sg64
(lp3108
g57
(g58
g59
NtRp3109
(dp3110
g62
(dp3111
g70
I4
ssg71
g3105
sg64
(lp3112
S'datetime.datetime(2013, 9, 26, 1, 58, 31, 22013)'
p3113
asbasbasbag57
(g73
g59
NtRp3114
(dp3115
g62
(dp3116
sg71
g3044
sg64
(lp3117
g57
(g78
g59
NtRp3118
(dp3119
g62
(dp3120
g82
g83
ssg71
g3114
sg64
(lp3121
S'remember'
p3122
asbag57
(g78
g59
NtRp3123
(dp3124
g62
(dp3125
g89
g90
ssg71
g3114
sg64
(lp3126
S':'
asbag57
(g78
g59
NtRp3127
(dp3128
g62
(dp3129
sg71
g3114
sg64
(lp3130
g57
(g58
g59
NtRp3131
(dp3132
g62
(dp3133
g70
I4
ssg71
g3127
sg64
(lp3134
g100
asbasbasbag57
(g73
g59
NtRp3135
(dp3136
g62
(dp3137
sg71
g3044
sg64
(lp3138
g57
(g78
g59
NtRp3139
(dp3140
g62
(dp3141
g82
g83
ssg71
g3135
sg64
(lp3142
S'user'
p3143
asbag57
(g78
g59
NtRp3144
(dp3145
g62
(dp3146
g89
g90
ssg71
g3135
sg64
(lp3147
S':'
asbag57
(g78
g59
NtRp3148
(dp3149
g62
(dp3150
sg71
g3135
sg64
(lp3151
g57
(g58
g59
NtRp3152
(dp3153
g62
(dp3154
g70
I4
ssg71
g3148
sg64
(lp3155
g57
(g66
g59
NtRp3156
(dp3157
g62
(dp3158
g70
I3
ssg71
Nsg64
(lp3159
g57
(g73
g59
NtRp3160
(dp3161
g62
(dp3162
sg71
g3156
sg64
(lp3163
g57
(g78
g59
NtRp3164
(dp3165
g62
(dp3166
g82
g83
ssg71
g3160
sg64
(lp3167
S'Points'
p3168
asbag57
(g78
g59
NtRp3169
(dp3170
g62
(dp3171
g89
g90
ssg71
g3160
sg64
(lp3172
S':'
asbag57
(g78
g59
NtRp3173
(dp3174
g62
(dp3175
sg71
g3160
sg64
(lp3176
g57
(g58
g59
NtRp3177
(dp3178
g62
(dp3179
g70
I3
ssg71
g3173
sg64
(lp3180
S'100'
p3181
asbasbasbag57
(g73
g59
NtRp3182
(dp3183
g62
(dp3184
sg71
g3156
sg64
(lp3185
g57
(g78
g59
NtRp3186
(dp3187
g62
(dp3188
g82
g83
ssg71
g3182
sg64
(lp3189
S'RollNo'
p3190
asbag57
(g78
g59
NtRp3191
(dp3192
g62
(dp3193
g89
g90
ssg71
g3182
sg64
(lp3194
S':'
asbag57
(g78
g59
NtRp3195
(dp3196
g62
(dp3197
sg71
g3182
sg64
(lp3198
g57
(g58
g59
NtRp3199
(dp3200
g62
(dp3201
g70
I3
ssg71
g3195
sg64
(lp3202
S'201256053'
p3203
asbasbasbag57
(g73
g59
NtRp3204
(dp3205
g62
(dp3206
sg71
g3156
sg64
(lp3207
g57
(g78
g59
NtRp3208
(dp3209
g62
(dp3210
g82
g83
ssg71
g3204
sg64
(lp3211
S'email'
p3212
asbag57
(g78
g59
NtRp3213
(dp3214
g62
(dp3215
g89
g90
ssg71
g3204
sg64
(lp3216
S':'
asbag57
(g78
g59
NtRp3217
(dp3218
g62
(dp3219
sg71
g3204
sg64
(lp3220
g57
(g58
g59
NtRp3221
(dp3222
g62
(dp3223
g70
I3
ssg71
g3217
sg64
(lp3224
S'devansh.shah@students.iiit.ac.in'
p3225
asbasbasbag57
(g73
g59
NtRp3226
(dp3227
g62
(dp3228
sg71
g3156
sg64
(lp3229
g57
(g78
g59
NtRp3230
(dp3231
g62
(dp3232
g82
g83
ssg71
g3226
sg64
(lp3233
S'first_name'
p3234
asbag57
(g78
g59
NtRp3235
(dp3236
g62
(dp3237
g89
g90
ssg71
g3226
sg64
(lp3238
S':'
asbag57
(g78
g59
NtRp3239
(dp3240
g62
(dp3241
sg71
g3226
sg64
(lp3242
g57
(g58
g59
NtRp3243
(dp3244
g62
(dp3245
g70
I3
ssg71
g3239
sg64
(lp3246
S'Devansh'
p3247
asbasbasbag57
(g73
g59
NtRp3248
(dp3249
g62
(dp3250
sg71
g3156
sg64
(lp3251
g57
(g78
g59
NtRp3252
(dp3253
g62
(dp3254
g82
g83
ssg71
g3248
sg64
(lp3255
S'id'
p3256
asbag57
(g78
g59
NtRp3257
(dp3258
g62
(dp3259
g89
g90
ssg71
g3248
sg64
(lp3260
S':'
asbag57
(g78
g59
NtRp3261
(dp3262
g62
(dp3263
sg71
g3248
sg64
(lp3264
g57
(g58
g59
NtRp3265
(dp3266
g62
(dp3267
g70
I3
ssg71
g3261
sg64
(lp3268
S'1'
asbasbasbag57
(g73
g59
NtRp3269
(dp3270
g62
(dp3271
sg71
g3156
sg64
(lp3272
g57
(g78
g59
NtRp3273
(dp3274
g62
(dp3275
g82
g83
ssg71
g3269
sg64
(lp3276
S'last_name'
p3277
asbag57
(g78
g59
NtRp3278
(dp3279
g62
(dp3280
g89
g90
ssg71
g3269
sg64
(lp3281
S':'
asbag57
(g78
g59
NtRp3282
(dp3283
g62
(dp3284
sg71
g3269
sg64
(lp3285
g57
(g58
g59
NtRp3286
(dp3287
g62
(dp3288
g70
I3
ssg71
g3282
sg64
(lp3289
S'Shah'
p3290
asbasbasbag57
(g73
g59
NtRp3291
(dp3292
g62
(dp3293
sg71
g3156
sg64
(lp3294
g57
(g78
g59
NtRp3295
(dp3296
g62
(dp3297
g82
g83
ssg71
g3291
sg64
(lp3298
S'password'
p3299
asbag57
(g78
g59
NtRp3300
(dp3301
g62
(dp3302
g89
g90
ssg71
g3291
sg64
(lp3303
S':'
asbag57
(g78
g59
NtRp3304
(dp3305
g62
(dp3306
sg71
g3291
sg64
(lp3307
g57
(g58
g59
NtRp3308
(dp3309
g62
(dp3310
g70
I3
ssg71
g3304
sg64
(lp3311
S'4fa78620b77f92c7faf768350dccbc8d'
p3312
asbasbasbag57
(g73
g59
NtRp3313
(dp3314
g62
(dp3315
sg71
g3156
sg64
(lp3316
g57
(g78
g59
NtRp3317
(dp3318
g62
(dp3319
g82
g83
ssg71
g3313
sg64
(lp3320
S'registration_id'
p3321
asbag57
(g78
g59
NtRp3322
(dp3323
g62
(dp3324
g89
g90
ssg71
g3313
sg64
(lp3325
S':'
asbag57
(g78
g59
NtRp3326
(dp3327
g62
(dp3328
sg71
g3313
sg64
(lp3329
g57
(g58
g59
NtRp3330
(dp3331
g62
(dp3332
g70
I3
ssg71
g3326
sg64
(lp3333
S''
asbasbasbag57
(g73
g59
NtRp3334
(dp3335
g62
(dp3336
sg71
g3156
sg64
(lp3337
g57
(g78
g59
NtRp3338
(dp3339
g62
(dp3340
g82
g83
ssg71
g3334
sg64
(lp3341
S'registration_key'
p3342
asbag57
(g78
g59
NtRp3343
(dp3344
g62
(dp3345
g89
g90
ssg71
g3334
sg64
(lp3346
S':'
asbag57
(g78
g59
NtRp3347
(dp3348
g62
(dp3349
sg71
g3334
sg64
(lp3350
g57
(g58
g59
NtRp3351
(dp3352
g62
(dp3353
g70
I3
ssg71
g3347
sg64
(lp3354
S''
asbasbasbag57
(g73
g59
NtRp3355
(dp3356
g62
(dp3357
sg71
g3156
sg64
(lp3358
g57
(g78
g59
NtRp3359
(dp3360
g62
(dp3361
g82
g83
ssg71
g3355
sg64
(lp3362
S'reset_password_key'
p3363
asbag57
(g78
g59
NtRp3364
(dp3365
g62
(dp3366
g89
g90
ssg71
g3355
sg64
(lp3367
S':'
asbag57
(g78
g59
NtRp3368
(dp3369
g62
(dp3370
sg71
g3355
sg64
(lp3371
g57
(g58
g59
NtRp3372
(dp3373
g62
(dp3374
g70
I3
ssg71
g3368
sg64
(lp3375
S''
asbasbasbasbasbasbasbasbasbasbasbasbasbsS'etype'
p3376
S"<type 'exceptions.TypeError'>"
p3377
sS'date'
p3378
S'Thu Sep 26 02:09:19 2013'
p3379
sS'response'
p3380
g57
(g58
g59
NtRp3381
(dp3382
g62
(dp3383
sg64
(lp3384
g57
(g66
g59
NtRp3385
(dp3386
g62
(dp3387
g70
I5
ssg71
Nsg64
(lp3388
g57
(g73
g59
NtRp3389
(dp3390
g62
(dp3391
sg71
g3385
sg64
(lp3392
g57
(g78
g59
NtRp3393
(dp3394
g62
(dp3395
g82
g83
ssg71
g3389
sg64
(lp3396
g155
asbag57
(g78
g59
NtRp3397
(dp3398
g62
(dp3399
g89
g90
ssg71
g3389
sg64
(lp3400
S':'
asbag57
(g78
g59
NtRp3401
(dp3402
g62
(dp3403
sg71
g3389
sg64
(lp3404
g57
(g58
g59
NtRp3405
(dp3406
g62
(dp3407
g70
I5
ssg71
g3401
sg64
(lp3408
S'<cStringIO.StringO object at 0x7f61f0341570>'
p3409
asbasbasbag57
(g73
g59
NtRp3410
(dp3411
g62
(dp3412
sg71
g3385
sg64
(lp3413
g57
(g78
g59
NtRp3414
(dp3415
g62
(dp3416
g82
g83
ssg71
g3410
sg64
(lp3417
g221
asbag57
(g78
g59
NtRp3418
(dp3419
g62
(dp3420
g89
g90
ssg71
g3410
sg64
(lp3421
S':'
asbag57
(g78
g59
NtRp3422
(dp3423
g62
(dp3424
sg71
g3410
sg64
(lp3425
g57
(g58
g59
NtRp3426
(dp3427
g62
(dp3428
g70
I5
ssg71
g3422
sg64
(lp3429
g57
(g66
g59
NtRp3430
(dp3431
g62
(dp3432
g70
I4
ssg71
Nsg64
(lp3433
g57
(g73
g59
NtRp3434
(dp3435
g62
(dp3436
sg71
g3430
sg64
(lp3437
g57
(g78
g59
NtRp3438
(dp3439
g62
(dp3440
g82
g83
ssg71
g3434
sg64
(lp3441
S'session_id_gordian_knot'
p3442
asbag57
(g78
g59
NtRp3443
(dp3444
g62
(dp3445
g89
g90
ssg71
g3434
sg64
(lp3446
S':'
asbag57
(g78
g59
NtRp3447
(dp3448
g62
(dp3449
sg71
g3434
sg64
(lp3450
g57
(g58
g59
NtRp3451
(dp3452
g62
(dp3453
g70
I4
ssg71
g3447
sg64
(lp3454
g57
(g66
g59
NtRp3455
(dp3456
g62
(dp3457
g70
I3
ssg71
Nsg64
(lp3458
g57
(g73
g59
NtRp3459
(dp3460
g62
(dp3461
sg71
g3455
sg64
(lp3462
g57
(g78
g59
NtRp3463
(dp3464
g62
(dp3465
g82
g83
ssg71
g3459
sg64
(lp3466
g271
asbag57
(g78
g59
NtRp3467
(dp3468
g62
(dp3469
g89
g90
ssg71
g3459
sg64
(lp3470
S':'
asbag57
(g78
g59
NtRp3471
(dp3472
g62
(dp3473
sg71
g3459
sg64
(lp3474
g57
(g58
g59
NtRp3475
(dp3476
g62
(dp3477
g70
I3
ssg71
g3471
sg64
(lp3478
S''
asbasbasbag57
(g73
g59
NtRp3479
(dp3480
g62
(dp3481
sg71
g3455
sg64
(lp3482
g57
(g78
g59
NtRp3483
(dp3484
g62
(dp3485
g82
g83
ssg71
g3479
sg64
(lp3486
g292
asbag57
(g78
g59
NtRp3487
(dp3488
g62
(dp3489
g89
g90
ssg71
g3479
sg64
(lp3490
S':'
asbag57
(g78
g59
NtRp3491
(dp3492
g62
(dp3493
sg71
g3479
sg64
(lp3494
g57
(g58
g59
NtRp3495
(dp3496
g62
(dp3497
g70
I3
ssg71
g3491
sg64
(lp3498
S''
asbasbasbag57
(g73
g59
NtRp3499
(dp3500
g62
(dp3501
sg71
g3455
sg64
(lp3502
g57
(g78
g59
NtRp3503
(dp3504
g62
(dp3505
g82
g83
ssg71
g3499
sg64
(lp3506
g313
asbag57
(g78
g59
NtRp3507
(dp3508
g62
(dp3509
g89
g90
ssg71
g3499
sg64
(lp3510
S':'
asbag57
(g78
g59
NtRp3511
(dp3512
g62
(dp3513
sg71
g3499
sg64
(lp3514
g57
(g58
g59
NtRp3515
(dp3516
g62
(dp3517
g70
I3
ssg71
g3511
sg64
(lp3518
S''
asbasbasbag57
(g73
g59
NtRp3519
(dp3520
g62
(dp3521
sg71
g3455
sg64
(lp3522
g57
(g78
g59
NtRp3523
(dp3524
g62
(dp3525
g82
g83
ssg71
g3519
sg64
(lp3526
g334
asbag57
(g78
g59
NtRp3527
(dp3528
g62
(dp3529
g89
g90
ssg71
g3519
sg64
(lp3530
S':'
asbag57
(g78
g59
NtRp3531
(dp3532
g62
(dp3533
sg71
g3519
sg64
(lp3534
g57
(g58
g59
NtRp3535
(dp3536
g62
(dp3537
g70
I3
ssg71
g3531
sg64
(lp3538
S''
asbasbasbag57
(g73
g59
NtRp3539
(dp3540
g62
(dp3541
sg71
g3455
sg64
(lp3542
g57
(g78
g59
NtRp3543
(dp3544
g62
(dp3545
g82
g83
ssg71
g3539
sg64
(lp3546
g355
asbag57
(g78
g59
NtRp3547
(dp3548
g62
(dp3549
g89
g90
ssg71
g3539
sg64
(lp3550
S':'
asbag57
(g78
g59
NtRp3551
(dp3552
g62
(dp3553
sg71
g3539
sg64
(lp3554
g57
(g58
g59
NtRp3555
(dp3556
g62
(dp3557
g70
I3
ssg71
g3551
sg64
(lp3558
S''
asbasbasbag57
(g73
g59
NtRp3559
(dp3560
g62
(dp3561
sg71
g3455
sg64
(lp3562
g57
(g78
g59
NtRp3563
(dp3564
g62
(dp3565
g82
g83
ssg71
g3559
sg64
(lp3566
g376
asbag57
(g78
g59
NtRp3567
(dp3568
g62
(dp3569
g89
g90
ssg71
g3559
sg64
(lp3570
S':'
asbag57
(g78
g59
NtRp3571
(dp3572
g62
(dp3573
sg71
g3559
sg64
(lp3574
g57
(g58
g59
NtRp3575
(dp3576
g62
(dp3577
g70
I3
ssg71
g3571
sg64
(lp3578
S'/'
asbasbasbag57
(g73
g59
NtRp3579
(dp3580
g62
(dp3581
sg71
g3455
sg64
(lp3582
g57
(g78
g59
NtRp3583
(dp3584
g62
(dp3585
g82
g83
ssg71
g3579
sg64
(lp3586
g397
asbag57
(g78
g59
NtRp3587
(dp3588
g62
(dp3589
g89
g90
ssg71
g3579
sg64
(lp3590
S':'
asbag57
(g78
g59
NtRp3591
(dp3592
g62
(dp3593
sg71
g3579
sg64
(lp3594
g57
(g58
g59
NtRp3595
(dp3596
g62
(dp3597
g70
I3
ssg71
g3591
sg64
(lp3598
S''
asbasbasbag57
(g73
g59
NtRp3599
(dp3600
g62
(dp3601
sg71
g3455
sg64
(lp3602
g57
(g78
g59
NtRp3603
(dp3604
g62
(dp3605
g82
g83
ssg71
g3599
sg64
(lp3606
g418
asbag57
(g78
g59
NtRp3607
(dp3608
g62
(dp3609
g89
g90
ssg71
g3599
sg64
(lp3610
S':'
asbag57
(g78
g59
NtRp3611
(dp3612
g62
(dp3613
sg71
g3599
sg64
(lp3614
g57
(g58
g59
NtRp3615
(dp3616
g62
(dp3617
g70
I3
ssg71
g3611
sg64
(lp3618
S''
asbasbasbasbasbasbasbasbasbasbasbag57
(g73
g59
NtRp3619
(dp3620
g62
(dp3621
sg71
g3385
sg64
(lp3622
g57
(g78
g59
NtRp3623
(dp3624
g62
(dp3625
g82
g83
ssg71
g3619
sg64
(lp3626
S'files'
p3627
asbag57
(g78
g59
NtRp3628
(dp3629
g62
(dp3630
g89
g90
ssg71
g3619
sg64
(lp3631
S':'
asbag57
(g78
g59
NtRp3632
(dp3633
g62
(dp3634
sg71
g3619
sg64
(lp3635
g57
(g58
g59
NtRp3636
(dp3637
g62
(dp3638
g70
I5
ssg71
g3632
sg64
(lp3639
g57
(g66
g59
NtRp3640
(dp3641
g62
(dp3642
g70
I4
ssg71
Nsg64
(lp3643
g57
(g73
g59
NtRp3644
(dp3645
g62
(dp3646
sg71
g3640
sg64
(lp3647
g57
(g78
g59
NtRp3648
(dp3649
g62
(dp3650
sg71
g3644
sg64
(lp3651
g57
(g58
g59
NtRp3652
(dp3653
g62
(dp3654
g70
I4
ssg71
g3648
sg64
(lp3655
S'/Gordian_Knot/static/js/jquery.js'
p3656
asbasbasbag57
(g73
g59
NtRp3657
(dp3658
g62
(dp3659
sg71
g3640
sg64
(lp3660
g57
(g78
g59
NtRp3661
(dp3662
g62
(dp3663
sg71
g3657
sg64
(lp3664
g57
(g58
g59
NtRp3665
(dp3666
g62
(dp3667
g70
I4
ssg71
g3661
sg64
(lp3668
S'/Gordian_Knot/static/css/calendar.css'
p3669
asbasbasbag57
(g73
g59
NtRp3670
(dp3671
g62
(dp3672
sg71
g3640
sg64
(lp3673
g57
(g78
g59
NtRp3674
(dp3675
g62
(dp3676
sg71
g3670
sg64
(lp3677
g57
(g58
g59
NtRp3678
(dp3679
g62
(dp3680
g70
I4
ssg71
g3674
sg64
(lp3681
S'/Gordian_Knot/static/js/calendar.js'
p3682
asbasbasbag57
(g73
g59
NtRp3683
(dp3684
g62
(dp3685
sg71
g3640
sg64
(lp3686
g57
(g78
g59
NtRp3687
(dp3688
g62
(dp3689
sg71
g3683
sg64
(lp3690
g57
(g58
g59
NtRp3691
(dp3692
g62
(dp3693
g70
I4
ssg71
g3687
sg64
(lp3694
S'/Gordian_Knot/static/js/web2py.js'
p3695
asbasbasbag57
(g73
g59
NtRp3696
(dp3697
g62
(dp3698
sg71
g3640
sg64
(lp3699
g57
(g78
g59
NtRp3700
(dp3701
g62
(dp3702
sg71
g3696
sg64
(lp3703
g57
(g58
g59
NtRp3704
(dp3705
g62
(dp3706
g70
I4
ssg71
g3700
sg64
(lp3707
S'/Gordian_Knot/static/css/skeleton.css'
p3708
asbasbasbag57
(g73
g59
NtRp3709
(dp3710
g62
(dp3711
sg71
g3640
sg64
(lp3712
g57
(g78
g59
NtRp3713
(dp3714
g62
(dp3715
sg71
g3709
sg64
(lp3716
g57
(g58
g59
NtRp3717
(dp3718
g62
(dp3719
g70
I4
ssg71
g3713
sg64
(lp3720
S'/Gordian_Knot/static/css/web2py.css'
p3721
asbasbasbag57
(g73
g59
NtRp3722
(dp3723
g62
(dp3724
sg71
g3640
sg64
(lp3725
g57
(g78
g59
NtRp3726
(dp3727
g62
(dp3728
sg71
g3722
sg64
(lp3729
g57
(g58
g59
NtRp3730
(dp3731
g62
(dp3732
g70
I4
ssg71
g3726
sg64
(lp3733
S'/Gordian_Knot/static/css/superfish.css'
p3734
asbasbasbag57
(g73
g59
NtRp3735
(dp3736
g62
(dp3737
sg71
g3640
sg64
(lp3738
g57
(g78
g59
NtRp3739
(dp3740
g62
(dp3741
sg71
g3735
sg64
(lp3742
g57
(g58
g59
NtRp3743
(dp3744
g62
(dp3745
g70
I4
ssg71
g3739
sg64
(lp3746
S'/Gordian_Knot/static/js/superfish.js'
p3747
asbasbasbasbasbasbasbag57
(g73
g59
NtRp3748
(dp3749
g62
(dp3750
sg71
g3385
sg64
(lp3751
g57
(g78
g59
NtRp3752
(dp3753
g62
(dp3754
g82
g83
ssg71
g3748
sg64
(lp3755
S'flash'
p3756
asbag57
(g78
g59
NtRp3757
(dp3758
g62
(dp3759
g89
g90
ssg71
g3748
sg64
(lp3760
S':'
asbag57
(g78
g59
NtRp3761
(dp3762
g62
(dp3763
sg71
g3748
sg64
(lp3764
g57
(g58
g59
NtRp3765
(dp3766
g62
(dp3767
g70
I5
ssg71
g3761
sg64
(lp3768
S''
asbasbasbag57
(g73
g59
NtRp3769
(dp3770
g62
(dp3771
sg71
g3385
sg64
(lp3772
g57
(g78
g59
NtRp3773
(dp3774
g62
(dp3775
g82
g83
ssg71
g3769
sg64
(lp3776
S'generic_patterns'
p3777
asbag57
(g78
g59
NtRp3778
(dp3779
g62
(dp3780
g89
g90
ssg71
g3769
sg64
(lp3781
S':'
asbag57
(g78
g59
NtRp3782
(dp3783
g62
(dp3784
sg71
g3769
sg64
(lp3785
g57
(g58
g59
NtRp3786
(dp3787
g62
(dp3788
g70
I5
ssg71
g3782
sg64
(lp3789
g57
(g66
g59
NtRp3790
(dp3791
g62
(dp3792
g70
I4
ssg71
Nsg64
(lp3793
g57
(g73
g59
NtRp3794
(dp3795
g62
(dp3796
sg71
g3790
sg64
(lp3797
g57
(g78
g59
NtRp3798
(dp3799
g62
(dp3800
sg71
g3794
sg64
(lp3801
g57
(g58
g59
NtRp3802
(dp3803
g62
(dp3804
g70
I4
ssg71
g3798
sg64
(lp3805
S'*'
asbasbasbasbasbasbasbag57
(g73
g59
NtRp3806
(dp3807
g62
(dp3808
sg71
g3385
sg64
(lp3809
g57
(g78
g59
NtRp3810
(dp3811
g62
(dp3812
g82
g83
ssg71
g3806
sg64
(lp3813
S'headers'
p3814
asbag57
(g78
g59
NtRp3815
(dp3816
g62
(dp3817
g89
g90
ssg71
g3806
sg64
(lp3818
S':'
asbag57
(g78
g59
NtRp3819
(dp3820
g62
(dp3821
sg71
g3806
sg64
(lp3822
g57
(g58
g59
NtRp3823
(dp3824
g62
(dp3825
g70
I5
ssg71
g3819
sg64
(lp3826
g57
(g66
g59
NtRp3827
(dp3828
g62
(dp3829
g70
I4
ssg71
Nsg64
(lp3830
g57
(g73
g59
NtRp3831
(dp3832
g62
(dp3833
sg71
g3827
sg64
(lp3834
g57
(g78
g59
NtRp3835
(dp3836
g62
(dp3837
g82
g83
ssg71
g3831
sg64
(lp3838
S'Cache-Control'
p3839
asbag57
(g78
g59
NtRp3840
(dp3841
g62
(dp3842
g89
g90
ssg71
g3831
sg64
(lp3843
S':'
asbag57
(g78
g59
NtRp3844
(dp3845
g62
(dp3846
sg71
g3831
sg64
(lp3847
g57
(g58
g59
NtRp3848
(dp3849
g62
(dp3850
g70
I4
ssg71
g3844
sg64
(lp3851
S'no-store, no-cache, must-revalidate, post-check=0, pre-check=0'
p3852
asbasbasbag57
(g73
g59
NtRp3853
(dp3854
g62
(dp3855
sg71
g3827
sg64
(lp3856
g57
(g78
g59
NtRp3857
(dp3858
g62
(dp3859
g82
g83
ssg71
g3853
sg64
(lp3860
S'Content-Type'
p3861
asbag57
(g78
g59
NtRp3862
(dp3863
g62
(dp3864
g89
g90
ssg71
g3853
sg64
(lp3865
S':'
asbag57
(g78
g59
NtRp3866
(dp3867
g62
(dp3868
sg71
g3853
sg64
(lp3869
g57
(g58
g59
NtRp3870
(dp3871
g62
(dp3872
g70
I4
ssg71
g3866
sg64
(lp3873
S'text/html; charset=utf-8'
p3874
asbasbasbag57
(g73
g59
NtRp3875
(dp3876
g62
(dp3877
sg71
g3827
sg64
(lp3878
g57
(g78
g59
NtRp3879
(dp3880
g62
(dp3881
g82
g83
ssg71
g3875
sg64
(lp3882
S'Expires'
p3883
asbag57
(g78
g59
NtRp3884
(dp3885
g62
(dp3886
g89
g90
ssg71
g3875
sg64
(lp3887
S':'
asbag57
(g78
g59
NtRp3888
(dp3889
g62
(dp3890
sg71
g3875
sg64
(lp3891
g57
(g58
g59
NtRp3892
(dp3893
g62
(dp3894
g70
I4
ssg71
g3888
sg64
(lp3895
S'Wed, 25 Sep 2013 20:39:19 GMT'
p3896
asbasbasbag57
(g73
g59
NtRp3897
(dp3898
g62
(dp3899
sg71
g3827
sg64
(lp3900
g57
(g78
g59
NtRp3901
(dp3902
g62
(dp3903
g82
g83
ssg71
g3897
sg64
(lp3904
S'Pragma'
p3905
asbag57
(g78
g59
NtRp3906
(dp3907
g62
(dp3908
g89
g90
ssg71
g3897
sg64
(lp3909
S':'
asbag57
(g78
g59
NtRp3910
(dp3911
g62
(dp3912
sg71
g3897
sg64
(lp3913
g57
(g58
g59
NtRp3914
(dp3915
g62
(dp3916
g70
I4
ssg71
g3910
sg64
(lp3917
S'no-cache'
p3918
asbasbasbag57
(g73
g59
NtRp3919
(dp3920
g62
(dp3921
sg71
g3827
sg64
(lp3922
g57
(g78
g59
NtRp3923
(dp3924
g62
(dp3925
g82
g83
ssg71
g3919
sg64
(lp3926
S'X-Powered-By'
p3927
asbag57
(g78
g59
NtRp3928
(dp3929
g62
(dp3930
g89
g90
ssg71
g3919
sg64
(lp3931
S':'
asbag57
(g78
g59
NtRp3932
(dp3933
g62
(dp3934
sg71
g3919
sg64
(lp3935
g57
(g58
g59
NtRp3936
(dp3937
g62
(dp3938
g70
I4
ssg71
g3932
sg64
(lp3939
S'web2py'
p3940
asbasbasbasbasbasbasbag57
(g73
g59
NtRp3941
(dp3942
g62
(dp3943
sg71
g3385
sg64
(lp3944
g57
(g78
g59
NtRp3945
(dp3946
g62
(dp3947
g82
g83
ssg71
g3941
sg64
(lp3948
S'menu'
p3949
asbag57
(g78
g59
NtRp3950
(dp3951
g62
(dp3952
g89
g90
ssg71
g3941
sg64
(lp3953
S':'
asbag57
(g78
g59
NtRp3954
(dp3955
g62
(dp3956
sg71
g3941
sg64
(lp3957
g57
(g58
g59
NtRp3958
(dp3959
g62
(dp3960
g70
I5
ssg71
g3954
sg64
(lp3961
g57
(g66
g59
NtRp3962
(dp3963
g62
(dp3964
g70
I4
ssg71
Nsg64
(lp3965
g57
(g73
g59
NtRp3966
(dp3967
g62
(dp3968
sg71
g3962
sg64
(lp3969
g57
(g78
g59
NtRp3970
(dp3971
g62
(dp3972
sg71
g3966
sg64
(lp3973
g57
(g58
g59
NtRp3974
(dp3975
g62
(dp3976
g70
I4
ssg71
g3970
sg64
(lp3977
g57
(g66
g59
NtRp3978
(dp3979
g62
(dp3980
g70
I3
ssg71
Nsg64
(lp3981
g57
(g73
g59
NtRp3982
(dp3983
g62
(dp3984
sg71
g3978
sg64
(lp3985
g57
(g78
g59
NtRp3986
(dp3987
g62
(dp3988
sg71
g3982
sg64
(lp3989
g57
(g58
g59
NtRp3990
(dp3991
g62
(dp3992
g70
I3
ssg71
g3986
sg64
(lp3993
cgluon.languages
lazyT_unpickle
p3994
(S't\x04\x00\x00\x00Home'
tRp3995
asbasbasbag57
(g73
g59
NtRp3996
(dp3997
g62
(dp3998
sg71
g3978
sg64
(lp3999
g57
(g78
g59
NtRp4000
(dp4001
g62
(dp4002
sg71
g3996
sg64
(lp4003
g57
(g58
g59
NtRp4004
(dp4005
g62
(dp4006
g70
I3
ssg71
g4000
sg64
(lp4007
g100
asbasbasbag57
(g73
g59
NtRp4008
(dp4009
g62
(dp4010
sg71
g3978
sg64
(lp4011
g57
(g78
g59
NtRp4012
(dp4013
g62
(dp4014
sg71
g4008
sg64
(lp4015
g57
(g58
g59
NtRp4016
(dp4017
g62
(dp4018
g70
I3
ssg71
g4012
sg64
(lp4019
S'/Gordian_Knot/default/index'
p4020
asbasbasbag57
(g73
g59
NtRp4021
(dp4022
g62
(dp4023
sg71
g3978
sg64
(lp4024
g57
(g78
g59
NtRp4025
(dp4026
g62
(dp4027
sg71
g4021
sg64
(lp4028
g57
(g58
g59
NtRp4029
(dp4030
g62
(dp4031
g70
I3
ssg71
g4025
sg64
(lp4032
g57
(g66
g59
NtRp4033
(dp4034
g62
(dp4035
g70
I2
ssg71
Nsg64
(lp4036
sbasbasbasbasbasbasbasbag57
(g73
g59
NtRp4037
(dp4038
g62
(dp4039
sg71
g3962
sg64
(lp4040
g57
(g78
g59
NtRp4041
(dp4042
g62
(dp4043
sg71
g4037
sg64
(lp4044
g57
(g58
g59
NtRp4045
(dp4046
g62
(dp4047
g70
I4
ssg71
g4041
sg64
(lp4048
g57
(g66
g59
NtRp4049
(dp4050
g62
(dp4051
g70
I3
ssg71
Nsg64
(lp4052
g57
(g73
g59
NtRp4053
(dp4054
g62
(dp4055
sg71
g4049
sg64
(lp4056
g57
(g78
g59
NtRp4057
(dp4058
g62
(dp4059
sg71
g4053
sg64
(lp4060
g57
(g58
g59
NtRp4061
(dp4062
g62
(dp4063
g70
I3
ssg71
g4057
sg64
(lp4064
g57
(cgluon.html
SPAN
p4065
g59
NtRp4066
(dp4067
g62
(dp4068
g82
S'color:yellow'
p4069
ssg71
g57
(cgluon.html
A
p4070
g59
NtRp4071
(dp4072
g62
(dp4073
S'_onclick'
p4074
S'javascript:void(0);return false;'
p4075
sS'_href'
p4076
S'#'
ssg71
g57
(cgluon.html
LI
p4077
g59
NtRp4078
(dp4079
g62
(dp4080
S'_class'
p4081
S'web2py-menu-expand'
p4082
ssg71
g57
(cgluon.html
UL
p4083
g59
NtRp4084
(dp4085
g62
(dp4086
S'mobile'
p4087
I00
sS'li_class'
p4088
g4082
sg4081
S'sf-menu'
p4089
sS'ul_class'
p4090
S'web2py-menu-vertical'
p4091
sS'li_active'
p4092
S'web2py-menu-active'
p4093
ssg71
Nsg64
(lp4094
g57
(g4077
g59
NtRp4095
(dp4096
g62
(dp4097
sg71
g4084
sg64
(lp4098
g57
(g4070
g59
NtRp4099
(dp4100
g62
(dp4101
g4076
g4020
ssg71
g4095
sg64
(lp4102
g3995
asbasbag4078
asbsg64
(lp4103
g4071
ag57
(g4083
g59
NtRp4104
(dp4105
g62
(dp4106
g4081
g4091
ssg71
g4078
sg64
(lp4107
g57
(g4077
g59
NtRp4108
(dp4109
g62
(dp4110
sg71
g4104
sg64
(lp4111
g57
(g4070
g59
NtRp4112
(dp4113
g62
(dp4114
g4076
S'/admin/default/site'
p4115
ssg71
g4108
sg64
(lp4116
g3994
(S's\x08\x00\x00\x00My Sites'
tRp4117
asbasbag57
(g4077
g59
NtRp4118
(dp4119
g62
(dp4120
g4081
g4082
ssg71
g4104
sg64
(lp4121
g57
(g4070
g59
NtRp4122
(dp4123
g62
(dp4124
g4076
S'/admin/default/design/Gordian_Knot'
p4125
ssg71
g4118
sg64
(lp4126
g3994
(S's\x08\x00\x00\x00This App'
tRp4127
asbag57
(g4083
g59
NtRp4128
(dp4129
g62
(dp4130
g4081
g4091
ssg71
g4118
sg64
(lp4131
g57
(g4077
g59
NtRp4132
(dp4133
g62
(dp4134
sg71
g4128
sg64
(lp4135
g57
(g4070
g59
NtRp4136
(dp4137
g62
(dp4138
g4076
S'/admin/default/edit/Gordian_Knot/controllers/default.py'
p4139
ssg71
g4132
sg64
(lp4140
g3994
(S't\n\x00\x00\x00Controller'
tRp4141
asbasbag57
(g4077
g59
NtRp4142
(dp4143
g62
(dp4144
sg71
g4128
sg64
(lp4145
g57
(g4070
g59
NtRp4146
(dp4147
g62
(dp4148
g4076
S'/admin/default/edit/Gordian_Knot/views/default/landing.html'
p4149
ssg71
g4142
sg64
(lp4150
g3994
(S't\x04\x00\x00\x00View'
tRp4151
asbasbag57
(g4077
g59
NtRp4152
(dp4153
g62
(dp4154
sg71
g4128
sg64
(lp4155
g57
(g4070
g59
NtRp4156
(dp4157
g62
(dp4158
g4076
S'/admin/default/edit/Gordian_Knot/views/layout.html'
p4159
ssg71
g4152
sg64
(lp4160
g3994
(S't\x06\x00\x00\x00Layout'
tRp4161
asbasbag57
(g4077
g59
NtRp4162
(dp4163
g62
(dp4164
sg71
g4128
sg64
(lp4165
g57
(g4070
g59
NtRp4166
(dp4167
g62
(dp4168
g4076
S'/admin/default/edit/Gordian_Knot/static/css/web2py.css'
p4169
ssg71
g4162
sg64
(lp4170
g3994
(S't\n\x00\x00\x00Stylesheet'
tRp4171
asbasbag57
(g4077
g59
NtRp4172
(dp4173
g62
(dp4174
sg71
g4128
sg64
(lp4175
g57
(g4070
g59
NtRp4176
(dp4177
g62
(dp4178
g4076
S'/admin/default/edit/Gordian_Knot/models/db.py'
p4179
ssg71
g4172
sg64
(lp4180
g3994
(S's\x08\x00\x00\x00DB Model'
tRp4181
asbasbag57
(g4077
g59
NtRp4182
(dp4183
g62
(dp4184
sg71
g4128
sg64
(lp4185
g57
(g4070
g59
NtRp4186
(dp4187
g62
(dp4188
g4076
S'/admin/default/edit/Gordian_Knot/models/menu.py'
p4189
ssg71
g4182
sg64
(lp4190
g3994
(S's\n\x00\x00\x00Menu Model'
tRp4191
asbasbag57
(g4077
g59
NtRp4192
(dp4193
g62
(dp4194
sg71
g4128
sg64
(lp4195
g57
(g4070
g59
NtRp4196
(dp4197
g62
(dp4198
g4076
S'/Gordian_Knot/appadmin/index'
p4199
ssg71
g4192
sg64
(lp4200
g3994
(S't\x08\x00\x00\x00Database'
tRp4201
asbasbag57
(g4077
g59
NtRp4202
(dp4203
g62
(dp4204
sg71
g4128
sg64
(lp4205
g57
(g4070
g59
NtRp4206
(dp4207
g62
(dp4208
g4076
S'/admin/default/errors/Gordian_Knot'
p4209
ssg71
g4202
sg64
(lp4210
g3994
(S't\x06\x00\x00\x00Errors'
tRp4211
asbasbag57
(g4077
g59
NtRp4212
(dp4213
g62
(dp4214
sg71
g4128
sg64
(lp4215
g57
(g4070
g59
NtRp4216
(dp4217
g62
(dp4218
g4076
S'/admin/default/about/Gordian_Knot'
p4219
ssg71
g4212
sg64
(lp4220
g3994
(S't\x05\x00\x00\x00About'
tRp4221
asbasbasbasbag57
(g4077
g59
NtRp4222
(dp4223
g62
(dp4224
g4081
g4082
ssg71
g4104
sg64
(lp4225
g57
(g4070
g59
NtRp4226
(dp4227
g62
(dp4228
g4076
S'http://www.web2py.com'
p4229
ssg71
g4222
sg64
(lp4230
S'web2py.com'
p4231
asbag57
(g4083
g59
NtRp4232
(dp4233
g62
(dp4234
g4081
g4091
ssg71
g4222
sg64
(lp4235
g57
(g4077
g59
NtRp4236
(dp4237
g62
(dp4238
sg71
g4232
sg64
(lp4239
g57
(g4070
g59
NtRp4240
(dp4241
g62
(dp4242
g4076
S'http://www.web2py.com/examples/default/download'
p4243
ssg71
g4236
sg64
(lp4244
g3994
(S't\x08\x00\x00\x00Download'
tRp4245
asbasbag57
(g4077
g59
NtRp4246
(dp4247
g62
(dp4248
sg71
g4232
sg64
(lp4249
g57
(g4070
g59
NtRp4250
(dp4251
g62
(dp4252
g4076
S'http://www.web2py.com/examples/default/support'
p4253
ssg71
g4246
sg64
(lp4254
g3994
(S't\x07\x00\x00\x00Support'
tRp4255
asbasbag57
(g4077
g59
NtRp4256
(dp4257
g62
(dp4258
sg71
g4232
sg64
(lp4259
g57
(g4070
g59
NtRp4260
(dp4261
g62
(dp4262
g4076
S'http://web2py.com/demo_admin'
p4263
ssg71
g4256
sg64
(lp4264
g3994
(S't\x04\x00\x00\x00Demo'
tRp4265
asbasbag57
(g4077
g59
NtRp4266
(dp4267
g62
(dp4268
sg71
g4232
sg64
(lp4269
g57
(g4070
g59
NtRp4270
(dp4271
g62
(dp4272
g4076
S'http://web2py.com/examples/default/examples'
p4273
ssg71
g4266
sg64
(lp4274
g3994
(S's\x0e\x00\x00\x00Quick Examples'
tRp4275
asbasbag57
(g4077
g59
NtRp4276
(dp4277
g62
(dp4278
sg71
g4232
sg64
(lp4279
g57
(g4070
g59
NtRp4280
(dp4281
g62
(dp4282
g4076
S'http://web2py.com/AlterEgo'
p4283
ssg71
g4276
sg64
(lp4284
g3994
(S't\x03\x00\x00\x00FAQ'
tRp4285
asbasbag57
(g4077
g59
NtRp4286
(dp4287
g62
(dp4288
sg71
g4232
sg64
(lp4289
g57
(g4070
g59
NtRp4290
(dp4291
g62
(dp4292
g4076
S'http://www.web2py.com/examples/default/videos/'
p4293
ssg71
g4286
sg64
(lp4294
g3994
(S't\x06\x00\x00\x00Videos'
tRp4295
asbasbag57
(g4077
g59
NtRp4296
(dp4297
g62
(dp4298
sg71
g4232
sg64
(lp4299
g57
(g4070
g59
NtRp4300
(dp4301
g62
(dp4302
g4076
S'http://web2py.com/appliances'
p4303
ssg71
g4296
sg64
(lp4304
g3994
(S's\x11\x00\x00\x00Free Applications'
tRp4305
asbasbag57
(g4077
g59
NtRp4306
(dp4307
g62
(dp4308
sg71
g4232
sg64
(lp4309
g57
(g4070
g59
NtRp4310
(dp4311
g62
(dp4312
g4076
S'http://web2py.com/plugins'
p4313
ssg71
g4306
sg64
(lp4314
g3994
(S't\x07\x00\x00\x00Plugins'
tRp4315
asbasbag57
(g4077
g59
NtRp4316
(dp4317
g62
(dp4318
sg71
g4232
sg64
(lp4319
g57
(g4070
g59
NtRp4320
(dp4321
g62
(dp4322
g4076
S'http://web2py.com/layouts'
p4323
ssg71
g4316
sg64
(lp4324
g3994
(S't\x07\x00\x00\x00Layouts'
tRp4325
asbasbag57
(g4077
g59
NtRp4326
(dp4327
g62
(dp4328
sg71
g4232
sg64
(lp4329
g57
(g4070
g59
NtRp4330
(dp4331
g62
(dp4332
g4076
S'http://web2pyslices.com/'
p4333
ssg71
g4326
sg64
(lp4334
g3994
(S't\x07\x00\x00\x00Recipes'
tRp4335
asbasbag57
(g4077
g59
NtRp4336
(dp4337
g62
(dp4338
sg71
g4232
sg64
(lp4339
g57
(g4070
g59
NtRp4340
(dp4341
g62
(dp4342
g4076
S'http://web2py.com/semantic'
p4343
ssg71
g4336
sg64
(lp4344
g3994
(S't\x08\x00\x00\x00Semantic'
tRp4345
asbasbasbasbag57
(g4077
g59
NtRp4346
(dp4347
g62
(dp4348
g4081
g4082
ssg71
g4104
sg64
(lp4349
g57
(g4070
g59
NtRp4350
(dp4351
g62
(dp4352
g4076
S'http://www.web2py.com/book'
p4353
ssg71
g4346
sg64
(lp4354
g3994
(S't\r\x00\x00\x00Documentation'
tRp4355
asbag57
(g4083
g59
NtRp4356
(dp4357
g62
(dp4358
g4081
g4091
ssg71
g4346
sg64
(lp4359
g57
(g4077
g59
NtRp4360
(dp4361
g62
(dp4362
sg71
g4356
sg64
(lp4363
g57
(g4070
g59
NtRp4364
(dp4365
g62
(dp4366
g4076
S'http://www.web2py.com/book/default/chapter/00'
p4367
ssg71
g4360
sg64
(lp4368
g3994
(S't\x07\x00\x00\x00Preface'
tRp4369
asbasbag57
(g4077
g59
NtRp4370
(dp4371
g62
(dp4372
sg71
g4356
sg64
(lp4373
g57
(g4070
g59
NtRp4374
(dp4375
g62
(dp4376
g4076
S'http://www.web2py.com/book/default/chapter/01'
p4377
ssg71
g4370
sg64
(lp4378
g3994
(S't\x0c\x00\x00\x00Introduction'
tRp4379
asbasbag57
(g4077
g59
NtRp4380
(dp4381
g62
(dp4382
sg71
g4356
sg64
(lp4383
g57
(g4070
g59
NtRp4384
(dp4385
g62
(dp4386
g4076
S'http://www.web2py.com/book/default/chapter/02'
p4387
ssg71
g4380
sg64
(lp4388
g3994
(S't\x06\x00\x00\x00Python'
tRp4389
asbasbag57
(g4077
g59
NtRp4390
(dp4391
g62
(dp4392
sg71
g4356
sg64
(lp4393
g57
(g4070
g59
NtRp4394
(dp4395
g62
(dp4396
g4076
S'http://www.web2py.com/book/default/chapter/03'
p4397
ssg71
g4390
sg64
(lp4398
g3994
(S't\x08\x00\x00\x00Overview'
tRp4399
asbasbag57
(g4077
g59
NtRp4400
(dp4401
g62
(dp4402
sg71
g4356
sg64
(lp4403
g57
(g4070
g59
NtRp4404
(dp4405
g62
(dp4406
g4076
S'http://www.web2py.com/book/default/chapter/04'
p4407
ssg71
g4400
sg64
(lp4408
g3994
(S's\x08\x00\x00\x00The Core'
tRp4409
asbasbag57
(g4077
g59
NtRp4410
(dp4411
g62
(dp4412
sg71
g4356
sg64
(lp4413
g57
(g4070
g59
NtRp4414
(dp4415
g62
(dp4416
g4076
S'http://www.web2py.com/book/default/chapter/05'
p4417
ssg71
g4410
sg64
(lp4418
g3994
(S's\t\x00\x00\x00The Views'
tRp4419
asbasbag57
(g4077
g59
NtRp4420
(dp4421
g62
(dp4422
sg71
g4356
sg64
(lp4423
g57
(g4070
g59
NtRp4424
(dp4425
g62
(dp4426
g4076
S'http://www.web2py.com/book/default/chapter/06'
p4427
ssg71
g4420
sg64
(lp4428
g3994
(S't\x08\x00\x00\x00Database'
tRp4429
asbasbag57
(g4077
g59
NtRp4430
(dp4431
g62
(dp4432
sg71
g4356
sg64
(lp4433
g57
(g4070
g59
NtRp4434
(dp4435
g62
(dp4436
g4076
S'http://www.web2py.com/book/default/chapter/07'
p4437
ssg71
g4430
sg64
(lp4438
g3994
(S's\x14\x00\x00\x00Forms and Validators'
tRp4439
asbasbag57
(g4077
g59
NtRp4440
(dp4441
g62
(dp4442
sg71
g4356
sg64
(lp4443
g57
(g4070
g59
NtRp4444
(dp4445
g62
(dp4446
g4076
S'http://www.web2py.com/book/default/chapter/08'
p4447
ssg71
g4440
sg64
(lp4448
g3994
(S's\r\x00\x00\x00Email and SMS'
tRp4449
asbasbag57
(g4077
g59
NtRp4450
(dp4451
g62
(dp4452
sg71
g4356
sg64
(lp4453
g57
(g4070
g59
NtRp4454
(dp4455
g62
(dp4456
g4076
S'http://www.web2py.com/book/default/chapter/09'
p4457
ssg71
g4450
sg64
(lp4458
g3994
(S's\x0e\x00\x00\x00Access Control'
tRp4459
asbasbag57
(g4077
g59
NtRp4460
(dp4461
g62
(dp4462
sg71
g4356
sg64
(lp4463
g57
(g4070
g59
NtRp4464
(dp4465
g62
(dp4466
g4076
S'http://www.web2py.com/book/default/chapter/10'
p4467
ssg71
g4460
sg64
(lp4468
g3994
(S't\x08\x00\x00\x00Services'
tRp4469
asbasbag57
(g4077
g59
NtRp4470
(dp4471
g62
(dp4472
sg71
g4356
sg64
(lp4473
g57
(g4070
g59
NtRp4474
(dp4475
g62
(dp4476
g4076
S'http://www.web2py.com/book/default/chapter/11'
p4477
ssg71
g4470
sg64
(lp4478
g3994
(S's\x0c\x00\x00\x00Ajax Recipes'
tRp4479
asbasbag57
(g4077
g59
NtRp4480
(dp4481
g62
(dp4482
sg71
g4356
sg64
(lp4483
g57
(g4070
g59
NtRp4484
(dp4485
g62
(dp4486
g4076
S'http://www.web2py.com/book/default/chapter/12'
p4487
ssg71
g4480
sg64
(lp4488
g3994
(S's\x16\x00\x00\x00Components and Plugins'
tRp4489
asbasbag57
(g4077
g59
NtRp4490
(dp4491
g62
(dp4492
sg71
g4356
sg64
(lp4493
g57
(g4070
g59
NtRp4494
(dp4495
g62
(dp4496
g4076
S'http://www.web2py.com/book/default/chapter/13'
p4497
ssg71
g4490
sg64
(lp4498
g3994
(S's\x12\x00\x00\x00Deployment Recipes'
tRp4499
asbasbag57
(g4077
g59
NtRp4500
(dp4501
g62
(dp4502
sg71
g4356
sg64
(lp4503
g57
(g4070
g59
NtRp4504
(dp4505
g62
(dp4506
g4076
S'http://www.web2py.com/book/default/chapter/14'
p4507
ssg71
g4500
sg64
(lp4508
g3994
(S's\r\x00\x00\x00Other Recipes'
tRp4509
asbasbag57
(g4077
g59
NtRp4510
(dp4511
g62
(dp4512
sg71
g4356
sg64
(lp4513
g57
(g4070
g59
NtRp4514
(dp4515
g62
(dp4516
g4076
S'http://stores.lulu.com/web2py'
p4517
ssg71
g4510
sg64
(lp4518
g3994
(S's\r\x00\x00\x00Buy this book'
tRp4519
asbasbasbasbag57
(g4077
g59
NtRp4520
(dp4521
g62
(dp4522
g4081
g4082
ssg71
g4104
sg64
(lp4523
g57
(g4070
g59
NtRp4524
(dp4525
g62
(dp4526
g4074
g4075
sg4076
S'#'
ssg71
g4520
sg64
(lp4527
g3994
(S't\t\x00\x00\x00Community'
tRp4528
asbag57
(g4083
g59
NtRp4529
(dp4530
g62
(dp4531
g4081
g4091
ssg71
g4520
sg64
(lp4532
g57
(g4077
g59
NtRp4533
(dp4534
g62
(dp4535
sg71
g4529
sg64
(lp4536
g57
(g4070
g59
NtRp4537
(dp4538
g62
(dp4539
g4076
S'http://www.web2py.com/examples/default/usergroups'
p4540
ssg71
g4533
sg64
(lp4541
g3994
(S't\x06\x00\x00\x00Groups'
tRp4542
asbasbag57
(g4077
g59
NtRp4543
(dp4544
g62
(dp4545
sg71
g4529
sg64
(lp4546
g57
(g4070
g59
NtRp4547
(dp4548
g62
(dp4549
g4076
S'http://twitter.com/web2py'
p4550
ssg71
g4543
sg64
(lp4551
g3994
(S't\x07\x00\x00\x00Twitter'
tRp4552
asbasbag57
(g4077
g59
NtRp4553
(dp4554
g62
(dp4555
sg71
g4529
sg64
(lp4556
g57
(g4070
g59
NtRp4557
(dp4558
g62
(dp4559
g4076
S'http://webchat.freenode.net/?channels=web2py'
p4560
ssg71
g4553
sg64
(lp4561
g3994
(S's\t\x00\x00\x00Live Chat'
tRp4562
asbasbasbasbag57
(g4077
g59
NtRp4563
(dp4564
g62
(dp4565
g4081
g4082
ssg71
g4104
sg64
(lp4566
g57
(g4070
g59
NtRp4567
(dp4568
g62
(dp4569
g4074
g4075
sg4076
S'#'
ssg71
g4563
sg64
(lp4570
g3994
(S't\x07\x00\x00\x00Plugins'
tRp4571
asbag57
(g4083
g59
NtRp4572
(dp4573
g62
(dp4574
g4081
g4091
ssg71
g4563
sg64
(lp4575
g57
(g4077
g59
NtRp4576
(dp4577
g62
(dp4578
sg71
g4572
sg64
(lp4579
g57
(g4070
g59
NtRp4580
(dp4581
g62
(dp4582
g4076
S'http://web2py.com/examples/default/download'
p4583
ssg71
g4576
sg64
(lp4584
S'plugin_wiki'
p4585
asbasbag57
(g4077
g59
NtRp4586
(dp4587
g62
(dp4588
sg71
g4572
sg64
(lp4589
g57
(g4070
g59
NtRp4590
(dp4591
g62
(dp4592
g4076
g4313
ssg71
g4586
sg64
(lp4593
g3994
(S's\r\x00\x00\x00Other Plugins'
tRp4594
asbasbag57
(g4077
g59
NtRp4595
(dp4596
g62
(dp4597
sg71
g4572
sg64
(lp4598
g57
(g4070
g59
NtRp4599
(dp4600
g62
(dp4601
g4076
g4323
ssg71
g4595
sg64
(lp4602
g3994
(S's\x0e\x00\x00\x00Layout Plugins'
tRp4603
asbasbasbasbasbasbsg64
(lp4604
g4066
asbsg64
(lp4605
g3940
asbasbasbasbag57
(g73
g59
NtRp4606
(dp4607
g62
(dp4608
sg71
g4049
sg64
(lp4609
g57
(g78
g59
NtRp4610
(dp4611
g62
(dp4612
sg71
g4606
sg64
(lp4613
g57
(g58
g59
NtRp4614
(dp4615
g62
(dp4616
g70
I3
ssg71
g4610
sg64
(lp4617
g100
asbasbasbag57
(g73
g59
NtRp4618
(dp4619
g62
(dp4620
sg71
g4049
sg64
(lp4621
g57
(g78
g59
NtRp4622
(dp4623
g62
(dp4624
sg71
g4618
sg64
(lp4625
g57
(g58
g59
NtRp4626
(dp4627
g62
(dp4628
g70
I3
ssg71
g4622
sg64
(lp4629
S'None'
p4630
asbasbasbag57
(g73
g59
NtRp4631
(dp4632
g62
(dp4633
sg71
g4049
sg64
(lp4634
g57
(g78
g59
NtRp4635
(dp4636
g62
(dp4637
sg71
g4631
sg64
(lp4638
g57
(g58
g59
NtRp4639
(dp4640
g62
(dp4641
g70
I3
ssg71
g4635
sg64
(lp4642
g57
(g66
g59
NtRp4643
(dp4644
g62
(dp4645
g70
I2
ssg71
Nsg64
(lp4646
g57
(g73
g59
NtRp4647
(dp4648
g62
(dp4649
sg71
g4643
sg64
(lp4650
g57
(g78
g59
NtRp4651
(dp4652
g62
(dp4653
sg71
g4647
sg64
(lp4654
g57
(g58
g59
NtRp4655
(dp4656
g62
(dp4657
g70
I2
ssg71
g4651
sg64
(lp4658
g57
(g66
g59
NtRp4659
(dp4660
g62
(dp4661
g70
I1
ssg71
Nsg64
(lp4662
g57
(g73
g59
NtRp4663
(dp4664
g62
(dp4665
sg71
g4659
sg64
(lp4666
g57
(g78
g59
NtRp4667
(dp4668
g62
(dp4669
sg71
g4663
sg64
(lp4670
g57
(g58
g59
NtRp4671
(dp4672
g62
(dp4673
g70
I1
ssg71
g4667
sg64
(lp4674
g4117
asbasbasbag57
(g73
g59
NtRp4675
(dp4676
g62
(dp4677
sg71
g4659
sg64
(lp4678
g57
(g78
g59
NtRp4679
(dp4680
g62
(dp4681
sg71
g4675
sg64
(lp4682
g57
(g58
g59
NtRp4683
(dp4684
g62
(dp4685
g70
I1
ssg71
g4679
sg64
(lp4686
I00
asbasbasbag57
(g73
g59
NtRp4687
(dp4688
g62
(dp4689
sg71
g4659
sg64
(lp4690
g57
(g78
g59
NtRp4691
(dp4692
g62
(dp4693
sg71
g4687
sg64
(lp4694
g57
(g58
g59
NtRp4695
(dp4696
g62
(dp4697
g70
I1
ssg71
g4691
sg64
(lp4698
g4115
asbasbasbasbasbasbasbag57
(g73
g59
NtRp4699
(dp4700
g62
(dp4701
sg71
g4643
sg64
(lp4702
g57
(g78
g59
NtRp4703
(dp4704
g62
(dp4705
sg71
g4699
sg64
(lp4706
g57
(g58
g59
NtRp4707
(dp4708
g62
(dp4709
g70
I2
ssg71
g4703
sg64
(lp4710
g57
(g66
g59
NtRp4711
(dp4712
g62
(dp4713
g70
I1
ssg71
Nsg64
(lp4714
g57
(g73
g59
NtRp4715
(dp4716
g62
(dp4717
sg71
g4711
sg64
(lp4718
g57
(g78
g59
NtRp4719
(dp4720
g62
(dp4721
sg71
g4715
sg64
(lp4722
g57
(g58
g59
NtRp4723
(dp4724
g62
(dp4725
g70
I1
ssg71
g4719
sg64
(lp4726
g4127
asbasbasbag57
(g73
g59
NtRp4727
(dp4728
g62
(dp4729
sg71
g4711
sg64
(lp4730
g57
(g78
g59
NtRp4731
(dp4732
g62
(dp4733
sg71
g4727
sg64
(lp4734
g57
(g58
g59
NtRp4735
(dp4736
g62
(dp4737
g70
I1
ssg71
g4731
sg64
(lp4738
I00
asbasbasbag57
(g73
g59
NtRp4739
(dp4740
g62
(dp4741
sg71
g4711
sg64
(lp4742
g57
(g78
g59
NtRp4743
(dp4744
g62
(dp4745
sg71
g4739
sg64
(lp4746
g57
(g58
g59
NtRp4747
(dp4748
g62
(dp4749
g70
I1
ssg71
g4743
sg64
(lp4750
g4125
asbasbasbag57
(g73
g59
NtRp4751
(dp4752
g62
(dp4753
sg71
g4711
sg64
(lp4754
g57
(g78
g59
NtRp4755
(dp4756
g62
(dp4757
sg71
g4751
sg64
(lp4758
g57
(g58
g59
NtRp4759
(dp4760
g62
(dp4761
g70
I1
ssg71
g4755
sg64
(lp4762
(lp4763
(g4141
I00
g4139
tp4764
a(g4151
I00
g4149
tp4765
a(g4161
I00
g4159
tp4766
a(g4171
I00
g4169
tp4767
a(g4181
I00
g4179
tp4768
a(g4191
I00
g4189
tp4769
a(g4201
I00
g4199
tp4770
a(g4211
I00
g4209
tp4771
a(g4221
I00
g4219
tp4772
aasbasbasbasbasbasbasbag57
(g73
g59
NtRp4773
(dp4774
g62
(dp4775
sg71
g4643
sg64
(lp4776
g57
(g78
g59
NtRp4777
(dp4778
g62
(dp4779
sg71
g4773
sg64
(lp4780
g57
(g58
g59
NtRp4781
(dp4782
g62
(dp4783
g70
I2
ssg71
g4777
sg64
(lp4784
g57
(g66
g59
NtRp4785
(dp4786
g62
(dp4787
g70
I1
ssg71
Nsg64
(lp4788
g57
(g73
g59
NtRp4789
(dp4790
g62
(dp4791
sg71
g4785
sg64
(lp4792
g57
(g78
g59
NtRp4793
(dp4794
g62
(dp4795
sg71
g4789
sg64
(lp4796
g57
(g58
g59
NtRp4797
(dp4798
g62
(dp4799
g70
I1
ssg71
g4793
sg64
(lp4800
g4231
asbasbasbag57
(g73
g59
NtRp4801
(dp4802
g62
(dp4803
sg71
g4785
sg64
(lp4804
g57
(g78
g59
NtRp4805
(dp4806
g62
(dp4807
sg71
g4801
sg64
(lp4808
g57
(g58
g59
NtRp4809
(dp4810
g62
(dp4811
g70
I1
ssg71
g4805
sg64
(lp4812
I00
asbasbasbag57
(g73
g59
NtRp4813
(dp4814
g62
(dp4815
sg71
g4785
sg64
(lp4816
g57
(g78
g59
NtRp4817
(dp4818
g62
(dp4819
sg71
g4813
sg64
(lp4820
g57
(g58
g59
NtRp4821
(dp4822
g62
(dp4823
g70
I1
ssg71
g4817
sg64
(lp4824
g4229
asbasbasbag57
(g73
g59
NtRp4825
(dp4826
g62
(dp4827
sg71
g4785
sg64
(lp4828
g57
(g78
g59
NtRp4829
(dp4830
g62
(dp4831
sg71
g4825
sg64
(lp4832
g57
(g58
g59
NtRp4833
(dp4834
g62
(dp4835
g70
I1
ssg71
g4829
sg64
(lp4836
(lp4837
(g4245
I00
g4243
tp4838
a(g4255
I00
g4253
tp4839
a(g4265
I00
g4263
tp4840
a(g4275
I00
g4273
tp4841
a(g4285
I00
g4283
tp4842
a(g4295
I00
g4293
tp4843
a(g4305
I00
g4303
tp4844
a(g4315
I00
g4313
tp4845
a(g4325
I00
g4323
tp4846
a(g4335
I00
g4333
tp4847
a(g4345
I00
g4343
tp4848
aasbasbasbasbasbasbasbag57
(g73
g59
NtRp4849
(dp4850
g62
(dp4851
sg71
g4643
sg64
(lp4852
g57
(g78
g59
NtRp4853
(dp4854
g62
(dp4855
sg71
g4849
sg64
(lp4856
g57
(g58
g59
NtRp4857
(dp4858
g62
(dp4859
g70
I2
ssg71
g4853
sg64
(lp4860
g57
(g66
g59
NtRp4861
(dp4862
g62
(dp4863
g70
I1
ssg71
Nsg64
(lp4864
g57
(g73
g59
NtRp4865
(dp4866
g62
(dp4867
sg71
g4861
sg64
(lp4868
g57
(g78
g59
NtRp4869
(dp4870
g62
(dp4871
sg71
g4865
sg64
(lp4872
g57
(g58
g59
NtRp4873
(dp4874
g62
(dp4875
g70
I1
ssg71
g4869
sg64
(lp4876
g4355
asbasbasbag57
(g73
g59
NtRp4877
(dp4878
g62
(dp4879
sg71
g4861
sg64
(lp4880
g57
(g78
g59
NtRp4881
(dp4882
g62
(dp4883
sg71
g4877
sg64
(lp4884
g57
(g58
g59
NtRp4885
(dp4886
g62
(dp4887
g70
I1
ssg71
g4881
sg64
(lp4888
I00
asbasbasbag57
(g73
g59
NtRp4889
(dp4890
g62
(dp4891
sg71
g4861
sg64
(lp4892
g57
(g78
g59
NtRp4893
(dp4894
g62
(dp4895
sg71
g4889
sg64
(lp4896
g57
(g58
g59
NtRp4897
(dp4898
g62
(dp4899
g70
I1
ssg71
g4893
sg64
(lp4900
g4353
asbasbasbag57
(g73
g59
NtRp4901
(dp4902
g62
(dp4903
sg71
g4861
sg64
(lp4904
g57
(g78
g59
NtRp4905
(dp4906
g62
(dp4907
sg71
g4901
sg64
(lp4908
g57
(g58
g59
NtRp4909
(dp4910
g62
(dp4911
g70
I1
ssg71
g4905
sg64
(lp4912
(lp4913
(g4369
I00
g4367
tp4914
a(g4379
I00
g4377
tp4915
a(g4389
I00
g4387
tp4916
a(g4399
I00
g4397
tp4917
a(g4409
I00
g4407
tp4918
a(g4419
I00
g4417
tp4919
a(g4429
I00
g4427
tp4920
a(g4439
I00
g4437
tp4921
a(g4449
I00
g4447
tp4922
a(g4459
I00
g4457
tp4923
a(g4469
I00
g4467
tp4924
a(g4479
I00
g4477
tp4925
a(g4489
I00
g4487
tp4926
a(g4499
I00
g4497
tp4927
a(g4509
I00
g4507
tp4928
a(g4519
I00
g4517
tp4929
aasbasbasbasbasbasbasbag57
(g73
g59
NtRp4930
(dp4931
g62
(dp4932
sg71
g4643
sg64
(lp4933
g57
(g78
g59
NtRp4934
(dp4935
g62
(dp4936
sg71
g4930
sg64
(lp4937
g57
(g58
g59
NtRp4938
(dp4939
g62
(dp4940
g70
I2
ssg71
g4934
sg64
(lp4941
g57
(g66
g59
NtRp4942
(dp4943
g62
(dp4944
g70
I1
ssg71
Nsg64
(lp4945
g57
(g73
g59
NtRp4946
(dp4947
g62
(dp4948
sg71
g4942
sg64
(lp4949
g57
(g78
g59
NtRp4950
(dp4951
g62
(dp4952
sg71
g4946
sg64
(lp4953
g57
(g58
g59
NtRp4954
(dp4955
g62
(dp4956
g70
I1
ssg71
g4950
sg64
(lp4957
g4528
asbasbasbag57
(g73
g59
NtRp4958
(dp4959
g62
(dp4960
sg71
g4942
sg64
(lp4961
g57
(g78
g59
NtRp4962
(dp4963
g62
(dp4964
sg71
g4958
sg64
(lp4965
g57
(g58
g59
NtRp4966
(dp4967
g62
(dp4968
g70
I1
ssg71
g4962
sg64
(lp4969
I00
asbasbasbag57
(g73
g59
NtRp4970
(dp4971
g62
(dp4972
sg71
g4942
sg64
(lp4973
g57
(g78
g59
NtRp4974
(dp4975
g62
(dp4976
sg71
g4970
sg64
(lp4977
g57
(g58
g59
NtRp4978
(dp4979
g62
(dp4980
g70
I1
ssg71
g4974
sg64
(lp4981
Nasbasbasbag57
(g73
g59
NtRp4982
(dp4983
g62
(dp4984
sg71
g4942
sg64
(lp4985
g57
(g78
g59
NtRp4986
(dp4987
g62
(dp4988
sg71
g4982
sg64
(lp4989
g57
(g58
g59
NtRp4990
(dp4991
g62
(dp4992
g70
I1
ssg71
g4986
sg64
(lp4993
(lp4994
(g4542
I00
g4540
tp4995
a(g4552
I00
g4550
tp4996
a(g4562
I00
g4560
tp4997
aasbasbasbasbasbasbasbag57
(g73
g59
NtRp4998
(dp4999
g62
(dp5000
sg71
g4643
sg64
(lp5001
g57
(g78
g59
NtRp5002
(dp5003
g62
(dp5004
sg71
g4998
sg64
(lp5005
g57
(g58
g59
NtRp5006
(dp5007
g62
(dp5008
g70
I2
ssg71
g5002
sg64
(lp5009
g57
(g66
g59
NtRp5010
(dp5011
g62
(dp5012
g70
I1
ssg71
Nsg64
(lp5013
g57
(g73
g59
NtRp5014
(dp5015
g62
(dp5016
sg71
g5010
sg64
(lp5017
g57
(g78
g59
NtRp5018
(dp5019
g62
(dp5020
sg71
g5014
sg64
(lp5021
g57
(g58
g59
NtRp5022
(dp5023
g62
(dp5024
g70
I1
ssg71
g5018
sg64
(lp5025
g4571
asbasbasbag57
(g73
g59
NtRp5026
(dp5027
g62
(dp5028
sg71
g5010
sg64
(lp5029
g57
(g78
g59
NtRp5030
(dp5031
g62
(dp5032
sg71
g5026
sg64
(lp5033
g57
(g58
g59
NtRp5034
(dp5035
g62
(dp5036
g70
I1
ssg71
g5030
sg64
(lp5037
I00
asbasbasbag57
(g73
g59
NtRp5038
(dp5039
g62
(dp5040
sg71
g5010
sg64
(lp5041
g57
(g78
g59
NtRp5042
(dp5043
g62
(dp5044
sg71
g5038
sg64
(lp5045
g57
(g58
g59
NtRp5046
(dp5047
g62
(dp5048
g70
I1
ssg71
g5042
sg64
(lp5049
Nasbasbasbag57
(g73
g59
NtRp5050
(dp5051
g62
(dp5052
sg71
g5010
sg64
(lp5053
g57
(g78
g59
NtRp5054
(dp5055
g62
(dp5056
sg71
g5050
sg64
(lp5057
g57
(g58
g59
NtRp5058
(dp5059
g62
(dp5060
g70
I1
ssg71
g5054
sg64
(lp5061
(lp5062
(g4585
I00
g4583
tp5063
a(g4594
I00
g4313
tp5064
a(g4603
I00
g4323
tp5065
aasbasbasbasbasbasbasbasbasbasbasbasbasbasbasbasbasbasbasbag57
(g73
g59
NtRp5066
(dp5067
g62
(dp5068
sg71
g3385
sg64
(lp5069
g57
(g78
g59
NtRp5070
(dp5071
g62
(dp5072
g82
g83
ssg71
g5066
sg64
(lp5073
S'meta'
p5074
asbag57
(g78
g59
NtRp5075
(dp5076
g62
(dp5077
g89
g90
ssg71
g5066
sg64
(lp5078
S':'
asbag57
(g78
g59
NtRp5079
(dp5080
g62
(dp5081
sg71
g5066
sg64
(lp5082
g57
(g58
g59
NtRp5083
(dp5084
g62
(dp5085
g70
I5
ssg71
g5079
sg64
(lp5086
g57
(g66
g59
NtRp5087
(dp5088
g62
(dp5089
g70
I4
ssg71
Nsg64
(lp5090
g57
(g73
g59
NtRp5091
(dp5092
g62
(dp5093
sg71
g5087
sg64
(lp5094
g57
(g78
g59
NtRp5095
(dp5096
g62
(dp5097
g82
g83
ssg71
g5091
sg64
(lp5098
S'author'
p5099
asbag57
(g78
g59
NtRp5100
(dp5101
g62
(dp5102
g89
g90
ssg71
g5091
sg64
(lp5103
S':'
asbag57
(g78
g59
NtRp5104
(dp5105
g62
(dp5106
sg71
g5091
sg64
(lp5107
g57
(g58
g59
NtRp5108
(dp5109
g62
(dp5110
g70
I4
ssg71
g5104
sg64
(lp5111
S'Your Name <you@example.com>'
p5112
asbasbasbag57
(g73
g59
NtRp5113
(dp5114
g62
(dp5115
sg71
g5087
sg64
(lp5116
g57
(g78
g59
NtRp5117
(dp5118
g62
(dp5119
g82
g83
ssg71
g5113
sg64
(lp5120
S'copyright'
p5121
asbag57
(g78
g59
NtRp5122
(dp5123
g62
(dp5124
g89
g90
ssg71
g5113
sg64
(lp5125
S':'
asbag57
(g78
g59
NtRp5126
(dp5127
g62
(dp5128
sg71
g5113
sg64
(lp5129
g57
(g58
g59
NtRp5130
(dp5131
g62
(dp5132
g70
I4
ssg71
g5126
sg64
(lp5133
S'Copyright 2011'
p5134
asbasbasbag57
(g73
g59
NtRp5135
(dp5136
g62
(dp5137
sg71
g5087
sg64
(lp5138
g57
(g78
g59
NtRp5139
(dp5140
g62
(dp5141
g82
g83
ssg71
g5135
sg64
(lp5142
S'description'
p5143
asbag57
(g78
g59
NtRp5144
(dp5145
g62
(dp5146
g89
g90
ssg71
g5135
sg64
(lp5147
S':'
asbag57
(g78
g59
NtRp5148
(dp5149
g62
(dp5150
sg71
g5135
sg64
(lp5151
g57
(g58
g59
NtRp5152
(dp5153
g62
(dp5154
g70
I4
ssg71
g5148
sg64
(lp5155
S'a cool new app'
p5156
asbasbasbag57
(g73
g59
NtRp5157
(dp5158
g62
(dp5159
sg71
g5087
sg64
(lp5160
g57
(g78
g59
NtRp5161
(dp5162
g62
(dp5163
g82
g83
ssg71
g5157
sg64
(lp5164
S'generator'
p5165
asbag57
(g78
g59
NtRp5166
(dp5167
g62
(dp5168
g89
g90
ssg71
g5157
sg64
(lp5169
S':'
asbag57
(g78
g59
NtRp5170
(dp5171
g62
(dp5172
sg71
g5157
sg64
(lp5173
g57
(g58
g59
NtRp5174
(dp5175
g62
(dp5176
g70
I4
ssg71
g5170
sg64
(lp5177
S'Web2py Web Framework'
p5178
asbasbasbag57
(g73
g59
NtRp5179
(dp5180
g62
(dp5181
sg71
g5087
sg64
(lp5182
g57
(g78
g59
NtRp5183
(dp5184
g62
(dp5185
g82
g83
ssg71
g5179
sg64
(lp5186
S'keywords'
p5187
asbag57
(g78
g59
NtRp5188
(dp5189
g62
(dp5190
g89
g90
ssg71
g5179
sg64
(lp5191
S':'
asbag57
(g78
g59
NtRp5192
(dp5193
g62
(dp5194
sg71
g5179
sg64
(lp5195
g57
(g58
g59
NtRp5196
(dp5197
g62
(dp5198
g70
I4
ssg71
g5192
sg64
(lp5199
S'web2py, python, framework'
p5200
asbasbasbasbasbasbasbag57
(g73
g59
NtRp5201
(dp5202
g62
(dp5203
sg71
g3385
sg64
(lp5204
g57
(g78
g59
NtRp5205
(dp5206
g62
(dp5207
g82
g83
ssg71
g5201
sg64
(lp5208
S'postprocessing'
p5209
asbag57
(g78
g59
NtRp5210
(dp5211
g62
(dp5212
g89
g90
ssg71
g5201
sg64
(lp5213
S':'
asbag57
(g78
g59
NtRp5214
(dp5215
g62
(dp5216
sg71
g5201
sg64
(lp5217
g57
(g58
g59
NtRp5218
(dp5219
g62
(dp5220
g70
I5
ssg71
g5214
sg64
(lp5221
g57
(g66
g59
NtRp5222
(dp5223
g62
(dp5224
g70
I4
ssg71
Nsg64
(lp5225
sbasbasbasbag57
(g73
g59
NtRp5226
(dp5227
g62
(dp5228
sg71
g3385
sg64
(lp5229
g57
(g78
g59
NtRp5230
(dp5231
g62
(dp5232
g82
g83
ssg71
g5226
sg64
(lp5233
S'session_file'
p5234
asbag57
(g78
g59
NtRp5235
(dp5236
g62
(dp5237
g89
g90
ssg71
g5226
sg64
(lp5238
S':'
asbag57
(g78
g59
NtRp5239
(dp5240
g62
(dp5241
sg71
g5226
sg64
(lp5242
g57
(g58
g59
NtRp5243
(dp5244
g62
(dp5245
g70
I5
ssg71
g5239
sg64
(lp5246
S"<open file '/home/ds-iiit/web2py/applications/Gordian_Knot/sessions/127.0.0.1-a9733ab7-5e43-4323-b962-9c2b175f5f60', mode 'rb+' at 0x7f61dc0f35d0>"
p5247
asbasbasbag57
(g73
g59
NtRp5248
(dp5249
g62
(dp5250
sg71
g3385
sg64
(lp5251
g57
(g78
g59
NtRp5252
(dp5253
g62
(dp5254
g82
g83
ssg71
g5248
sg64
(lp5255
S'session_filename'
p5256
asbag57
(g78
g59
NtRp5257
(dp5258
g62
(dp5259
g89
g90
ssg71
g5248
sg64
(lp5260
S':'
asbag57
(g78
g59
NtRp5261
(dp5262
g62
(dp5263
sg71
g5248
sg64
(lp5264
g57
(g58
g59
NtRp5265
(dp5266
g62
(dp5267
g70
I5
ssg71
g5261
sg64
(lp5268
S'/home/ds-iiit/web2py/applications/Gordian_Knot/sessions/127.0.0.1-a9733ab7-5e43-4323-b962-9c2b175f5f60'
p5269
asbasbasbag57
(g73
g59
NtRp5270
(dp5271
g62
(dp5272
sg71
g3385
sg64
(lp5273
g57
(g78
g59
NtRp5274
(dp5275
g62
(dp5276
g82
g83
ssg71
g5270
sg64
(lp5277
S'session_id'
p5278
asbag57
(g78
g59
NtRp5279
(dp5280
g62
(dp5281
g89
g90
ssg71
g5270
sg64
(lp5282
S':'
asbag57
(g78
g59
NtRp5283
(dp5284
g62
(dp5285
sg71
g5270
sg64
(lp5286
g57
(g58
g59
NtRp5287
(dp5288
g62
(dp5289
g70
I5
ssg71
g5283
sg64
(lp5290
S'127.0.0.1-a9733ab7-5e43-4323-b962-9c2b175f5f60'
p5291
asbasbasbag57
(g73
g59
NtRp5292
(dp5293
g62
(dp5294
sg71
g3385
sg64
(lp5295
g57
(g78
g59
NtRp5296
(dp5297
g62
(dp5298
g82
g83
ssg71
g5292
sg64
(lp5299
S'session_id_name'
p5300
asbag57
(g78
g59
NtRp5301
(dp5302
g62
(dp5303
g89
g90
ssg71
g5292
sg64
(lp5304
S':'
asbag57
(g78
g59
NtRp5305
(dp5306
g62
(dp5307
sg71
g5292
sg64
(lp5308
g57
(g58
g59
NtRp5309
(dp5310
g62
(dp5311
g70
I5
ssg71
g5305
sg64
(lp5312
g3442
asbasbasbag57
(g73
g59
NtRp5313
(dp5314
g62
(dp5315
sg71
g3385
sg64
(lp5316
g57
(g78
g59
NtRp5317
(dp5318
g62
(dp5319
g82
g83
ssg71
g5313
sg64
(lp5320
S'session_locked'
p5321
asbag57
(g78
g59
NtRp5322
(dp5323
g62
(dp5324
g89
g90
ssg71
g5313
sg64
(lp5325
S':'
asbag57
(g78
g59
NtRp5326
(dp5327
g62
(dp5328
sg71
g5313
sg64
(lp5329
g57
(g58
g59
NtRp5330
(dp5331
g62
(dp5332
g70
I5
ssg71
g5326
sg64
(lp5333
g1656
asbasbasbag57
(g73
g59
NtRp5334
(dp5335
g62
(dp5336
sg71
g3385
sg64
(lp5337
g57
(g78
g59
NtRp5338
(dp5339
g62
(dp5340
g82
g83
ssg71
g5334
sg64
(lp5341
S'session_new'
p5342
asbag57
(g78
g59
NtRp5343
(dp5344
g62
(dp5345
g89
g90
ssg71
g5334
sg64
(lp5346
S':'
asbag57
(g78
g59
NtRp5347
(dp5348
g62
(dp5349
sg71
g5334
sg64
(lp5350
g57
(g58
g59
NtRp5351
(dp5352
g62
(dp5353
g70
I5
ssg71
g5347
sg64
(lp5354
g100
asbasbasbag57
(g73
g59
NtRp5355
(dp5356
g62
(dp5357
sg71
g3385
sg64
(lp5358
g57
(g78
g59
NtRp5359
(dp5360
g62
(dp5361
g82
g83
ssg71
g5355
sg64
(lp5362
S'status'
p5363
asbag57
(g78
g59
NtRp5364
(dp5365
g62
(dp5366
g89
g90
ssg71
g5355
sg64
(lp5367
S':'
asbag57
(g78
g59
NtRp5368
(dp5369
g62
(dp5370
sg71
g5355
sg64
(lp5371
g57
(g58
g59
NtRp5372
(dp5373
g62
(dp5374
g70
I5
ssg71
g5368
sg64
(lp5375
S'200'
p5376
asbasbasbag57
(g73
g59
NtRp5377
(dp5378
g62
(dp5379
sg71
g3385
sg64
(lp5380
g57
(g78
g59
NtRp5381
(dp5382
g62
(dp5383
g82
g83
ssg71
g5377
sg64
(lp5384
S'subtitle'
p5385
asbag57
(g78
g59
NtRp5386
(dp5387
g62
(dp5388
g89
g90
ssg71
g5377
sg64
(lp5389
S':'
asbag57
(g78
g59
NtRp5390
(dp5391
g62
(dp5392
sg71
g5377
sg64
(lp5393
g57
(g58
g59
NtRp5394
(dp5395
g62
(dp5396
g70
I5
ssg71
g5390
sg64
(lp5397
g3994
(S's\r\x00\x00\x00customize me!'
tRp5398
asbasbasbag57
(g73
g59
NtRp5399
(dp5400
g62
(dp5401
sg71
g3385
sg64
(lp5402
g57
(g78
g59
NtRp5403
(dp5404
g62
(dp5405
g82
g83
ssg71
g5399
sg64
(lp5406
S'title'
p5407
asbag57
(g78
g59
NtRp5408
(dp5409
g62
(dp5410
g89
g90
ssg71
g5399
sg64
(lp5411
S':'
asbag57
(g78
g59
NtRp5412
(dp5413
g62
(dp5414
sg71
g5399
sg64
(lp5415
g57
(g58
g59
NtRp5416
(dp5417
g62
(dp5418
g70
I5
ssg71
g5412
sg64
(lp5419
S'Gordian Knot'
p5420
asbasbasbag57
(g73
g59
NtRp5421
(dp5422
g62
(dp5423
sg71
g3385
sg64
(lp5424
g57
(g78
g59
NtRp5425
(dp5426
g62
(dp5427
g82
g83
ssg71
g5421
sg64
(lp5428
g2320
asbag57
(g78
g59
NtRp5429
(dp5430
g62
(dp5431
g89
g90
ssg71
g5421
sg64
(lp5432
S':'
asbag57
(g78
g59
NtRp5433
(dp5434
g62
(dp5435
sg71
g5421
sg64
(lp5436
g57
(g58
g59
NtRp5437
(dp5438
g62
(dp5439
g70
I5
ssg71
g5433
sg64
(lp5440
g2333
asbasbasbag57
(g73
g59
NtRp5441
(dp5442
g62
(dp5443
sg71
g3385
sg64
(lp5444
g57
(g78
g59
NtRp5445
(dp5446
g62
(dp5447
g82
g83
ssg71
g5441
sg64
(lp5448
S'view'
p5449
asbag57
(g78
g59
NtRp5450
(dp5451
g62
(dp5452
g89
g90
ssg71
g5441
sg64
(lp5453
S':'
asbag57
(g78
g59
NtRp5454
(dp5455
g62
(dp5456
sg71
g5441
sg64
(lp5457
g57
(g58
g59
NtRp5458
(dp5459
g62
(dp5460
g70
I5
ssg71
g5454
sg64
(lp5461
S'default/landing.html'
p5462
asbasbasbasbasbsS'locals'
p5463
(dp5464
S'Service'
p5465
S"<class 'gluon.tools.Service'>"
p5466
sS'OBJECT'
p5467
S"<class 'gluon.html.OBJECT'>"
p5468
sS'SQLDB'
p5469
S"<class 'gluon.dal.DAL'>"
p5470
sg3014
S"<Storage {'_user_agent': {'os': {'name': 'Linux'...login]': '148a4759-760c-4c97-9e47-d42f5d23f876'}>"
p5471
sS'LINK'
p5472
S"<class 'gluon.html.LINK'>"
p5473
sS'BR'
p5474
S"<class 'gluon.html.BR'>"
p5475
sS'local_import'
p5476
S'<function <lambda>>'
p5477
sS'OPTGROUP'
p5478
S"<class 'gluon.html.OPTGROUP'>"
p5479
sS'PRE'
p5480
S"<class 'gluon.html.PRE'>"
p5481
sS'IS_INT_IN_RANGE'
p5482
S"<class 'gluon.validators.IS_INT_IN_RANGE'>"
p5483
sS'left_sidebar_enabled'
p5484
g100
sS'IS_LOWER'
p5485
S"<class 'gluon.validators.IS_LOWER'>"
p5486
sS'IS_STRONG'
p5487
S"<class 'gluon.validators.IS_STRONG'>"
p5488
sS'cache'
p5489
S'<gluon.cache.Cache object>'
p5490
sS'IS_IN_DB'
p5491
S"<class 'gluon.validators.IS_IN_DB'>"
p5492
sS'TAG'
p5493
S'<gluon.html.__TAG__ object>'
p5494
sS'SQLField'
p5495
S"<class 'gluon.dal.Field'>"
p5496
sS'mail'
p5497
S'<gluon.tools.Mail object>'
p5498
sS'BODY'
p5499
S"<class 'gluon.html.BODY'>"
p5500
sS'IS_DATE_IN_RANGE'
p5501
S"<class 'gluon.validators.IS_DATE_IN_RANGE'>"
p5502
sS'TH'
p5503
S"<class 'gluon.html.TH'>"
p5504
sS'URL'
p5505
S'<function URL>'
p5506
sS'__file__'
p5507
S"'/home/ds-iiit/web2py/applications/Gordian_Knot/views/default/landing.html'"
p5508
sS'db'
p5509
S"<DAL {'auth_event': <Table {'origin': <gluon.dal... '_id': <gluon.dal.Field object at 0x2194690>}>}>"
p5510
sS'auth'
p5511
S'<gluon.tools.Auth object>'
p5512
sS'P'
S"<class 'gluon.html.P'>"
p5513
sS'TFOOT'
p5514
S"<class 'gluon.html.TFOOT'>"
p5515
sS'XHTML'
p5516
S"<class 'gluon.html.XHTML'>"
p5517
sS'ON'
p5518
g1656
sS'OL'
p5519
S"<class 'gluon.html.OL'>"
p5520
sS'TEXTAREA'
p5521
S"<class 'gluon.html.TEXTAREA'>"
p5522
sS'MENU'
p5523
S"<class 'gluon.html.MENU'>"
p5524
sS'x'
S'(0, 1, 2, 3, 4)'
p5525
sS'LOAD'
p5526
S'<function LOAD>'
p5527
sS'CODE'
p5528
S"<class 'gluon.html.CODE'>"
p5529
sS'HTTP'
p5530
S"<class 'gluon.http.HTTP'>"
p5531
sS'HR'
p5532
S"<class 'gluon.html.HR'>"
p5533
sS'IS_DATETIME'
p5534
S"<class 'gluon.validators.IS_DATETIME'>"
p5535
sS'HEAD'
p5536
S"<class 'gluon.html.HEAD'>"
p5537
sS'LABEL'
p5538
S"<class 'gluon.html.LABEL'>"
p5539
sS'CLEANUP'
p5540
S"<class 'gluon.validators.CLEANUP'>"
p5541
sS'plugins'
p5542
S'<gluon.tools.PluginManager object>'
p5543
sS'SELECT'
p5544
S"<class 'gluon.html.SELECT'>"
p5545
sS'use_janrain'
p5546
S'<function use_janrain>'
p5547
sS'CENTER'
p5548
S"<class 'gluon.html.CENTER'>"
p5549
sS'prettydate'
p5550
S'<function prettydate>'
p5551
sS'Crud'
p5552
S"<class 'gluon.tools.Crud'>"
p5553
sS'Auth'
p5554
S"<class 'gluon.tools.Auth'>"
p5555
sS'__builtins__'
p5556
S"{'ArithmeticError': <type 'exceptions.ArithmeticError'>, 'AssertionError': <type 'exceptions.AssertionError'>, 'AttributeError': <type 'exceptions.AttributeError'>, 'BaseException': <type 'exceptions.BaseException'>, 'BufferError': <type 'exceptions.BufferError'>, 'BytesWarning': <type 'exceptions.BytesWarning'>, 'DeprecationWarning': <type 'exceptions.DeprecationWarning'>, 'EOFError': <type 'exceptions.EOFError'>, 'Ellipsis': Ellipsis, 'EnvironmentError': <type 'exceptions.EnvironmentError'>, ...}"
p5557
sS'HTML'
p5558
S"<class 'gluon.html.HTML'>"
p5559
sS'SQLFORM'
p5560
S"<class 'gluon.sqlhtml.SQLFORM'>"
p5561
sS'EM'
p5562
S"<class 'gluon.html.EM'>"
p5563
sS'redirect'
p5564
S'<function redirect>'
p5565
sS'FIELDSET'
p5566
S"<class 'gluon.html.FIELDSET'>"
p5567
sS'IS_EQUAL_TO'
p5568
S"<class 'gluon.validators.IS_EQUAL_TO'>"
p5569
sS'embed64'
p5570
S'<function embed64>'
p5571
sS'IS_LIST_OF'
p5572
S"<class 'gluon.validators.IS_LIST_OF'>"
p5573
sS'INPUT'
p5574
S"<class 'gluon.html.INPUT'>"
p5575
sS'EMBED'
p5576
S"<class 'gluon.html.EMBED'>"
p5577
sS'_'
S'<function _>'
p5578
sS'FORM'
p5579
S"<class 'gluon.html.FORM'>"
p5580
sS'H2'
p5581
S"<class 'gluon.html.H2'>"
p5582
sS'H3'
p5583
S"<class 'gluon.html.H3'>"
p5584
sS'BUTTON'
p5585
S"<class 'gluon.html.BUTTON'>"
p5586
sS'H1'
p5587
S"<class 'gluon.html.H1'>"
p5588
sS'H6'
p5589
S"<class 'gluon.html.H6'>"
p5590
sS'H4'
p5591
S"<class 'gluon.html.H4'>"
p5592
sS'H5'
p5593
S"<class 'gluon.html.H5'>"
p5594
sS'UL'
p5595
S"<class 'gluon.html.UL'>"
p5596
sS'IS_UPPER'
p5597
S"<class 'gluon.validators.IS_UPPER'>"
p5598
sS'xmlescape'
p5599
S'<function xmlescape>'
p5600
sS'IS_TIME'
p5601
S"<class 'gluon.validators.IS_TIME'>"
p5602
sS'OPTION'
p5603
S"<class 'gluon.html.OPTION'>"
p5604
sS'TITLE'
p5605
S"<class 'gluon.html.TITLE'>"
p5606
sS'CRYPT'
p5607
S"<class 'gluon.validators.CRYPT'>"
p5608
sS'IS_EMPTY_OR'
p5609
S"<class 'gluon.validators.IS_EMPTY_OR'>"
p5610
sS'MARKMIN'
p5611
S"<class 'gluon.html.MARKMIN'>"
p5612
sS'COL'
p5613
S"<class 'gluon.html.COL'>"
p5614
sS'service'
p5615
S'<gluon.tools.Service object>'
p5616
sS'SCRIPT'
p5617
S"<class 'gluon.html.SCRIPT'>"
p5618
sS'is_mobile'
p5619
g100
sS'TABLE'
p5620
S"<class 'gluon.html.TABLE'>"
p5621
sS'IS_IPV4'
p5622
S"<class 'gluon.validators.IS_IPV4'>"
p5623
sS'IS_LENGTH'
p5624
S"<class 'gluon.validators.IS_LENGTH'>"
p5625
sS'XML'
p5626
S"<class 'gluon.html.XML'>"
p5627
sS'B'
S"<class 'gluon.html.B'>"
p5628
sS'IMG'
p5629
S"<class 'gluon.html.IMG'>"
p5630
sS'SQLTABLE'
p5631
S"<class 'gluon.sqlhtml.SQLTABLE'>"
p5632
sS'IS_MATCH'
p5633
S"<class 'gluon.validators.IS_MATCH'>"
p5634
sS'IS_ALPHANUMERIC'
p5635
S"<class 'gluon.validators.IS_ALPHANUMERIC'>"
p5636
sS'SPAN'
p5637
S"<class 'gluon.html.SPAN'>"
p5638
sS'IS_SLUG'
p5639
S"<class 'gluon.validators.IS_SLUG'>"
p5640
sS'BEAUTIFY'
p5641
S"<class 'gluon.html.BEAUTIFY'>"
p5642
sS'META'
p5643
S"<class 'gluon.html.META'>"
p5644
sS'IS_DATE'
p5645
S"<class 'gluon.validators.IS_DATE'>"
p5646
sS'IS_EMAIL'
p5647
S"<class 'gluon.validators.IS_EMAIL'>"
p5648
sS'IS_NOT_EMPTY'
p5649
S"<class 'gluon.validators.IS_NOT_EMPTY'>"
p5650
sS'IS_FLOAT_IN_RANGE'
p5651
S"<class 'gluon.validators.IS_FLOAT_IN_RANGE'>"
p5652
sS'TBODY'
p5653
S"<class 'gluon.html.TBODY'>"
p5654
sS'CAT'
p5655
S"<class 'gluon.html.CAT'>"
p5656
sS'Field'
p5657
S"<class 'gluon.dal.Field'>"
p5658
sS'middle_columns'
p5659
S"'sixteen'"
p5660
sS'DIV'
p5661
S"<class 'gluon.html.DIV'>"
p5662
sS'LEGEND'
p5663
S"<class 'gluon.html.LEGEND'>"
p5664
sS'COLGROUP'
p5665
S"<class 'gluon.html.COLGROUP'>"
p5666
sS'DAL'
p5667
S"<class 'gluon.dal.DAL'>"
p5668
sS'TT'
p5669
S"<class 'gluon.html.TT'>"
p5670
sS'TR'
p5671
S"<class 'gluon.html.TR'>"
p5672
sS'LI'
p5673
S"<class 'gluon.html.LI'>"
p5674
sS'right_sidebar_enabled'
p5675
g100
sS'IFRAME'
p5676
S"<class 'gluon.html.IFRAME'>"
p5677
sS'TD'
p5678
S"<class 'gluon.html.TD'>"
p5679
sS'PluginManager'
p5680
S"<class 'gluon.tools.PluginManager'>"
p5681
sS'IS_URL'
p5682
S"<class 'gluon.validators.IS_URL'>"
p5683
sS'A'
S"<class 'gluon.html.A'>"
p5684
sS'STYLE'
p5685
S"<class 'gluon.html.STYLE'>"
p5686
sS'IS_DATETIME_IN_RANGE'
p5687
S"<class 'gluon.validators.IS_DATETIME_IN_RANGE'>"
p5688
sS'IS_IMAGE'
p5689
S"<class 'gluon.validators.IS_IMAGE'>"
p5690
sS'I'
S"<class 'gluon.html.I'>"
p5691
sS'crud'
p5692
S'<gluon.tools.Crud object>'
p5693
sS'IS_NOT_IN_DB'
p5694
S"<class 'gluon.validators.IS_NOT_IN_DB'>"
p5695
sg3380
S"<Storage {'body': <cStringIO.StringO object at 0...> at 0x21207d0>, 'view': 'default/landing.html'}>"
p5696
sS'THEAD'
p5697
S"<class 'gluon.html.THEAD'>"
p5698
sS'IS_NULL_OR'
p5699
S"<class 'gluon.validators.IS_EMPTY_OR'>"
p5700
sg56
S"<Storage {'body': <cStringIO.StringO object at 0..._vars': <Storage {}>, 'post_vars': <Storage {}>}>"
p5701
sS'IS_EXPR'
p5702
S"<class 'gluon.validators.IS_EXPR'>"
p5703
sS'T'
S'<gluon.languages.translator object>'
p5704
sS'IS_IN_SET'
p5705
S"<class 'gluon.validators.IS_IN_SET'>"
p5706
sS'IS_UPLOAD_FILENAME'
p5707
S"<class 'gluon.validators.IS_UPLOAD_FILENAME'>"
p5708
sS'y'
S'<gluon.dal.Rows object>'
p5709
sS'IS_DECIMAL_IN_RANGE'
p5710
S"<class 'gluon.validators.IS_DECIMAL_IN_RANGE'>"
p5711
sssS'traceback'
p5712
S'Traceback (most recent call last):\n  File "/usr/lib/pymodules/python2.7/gluon/restricted.py", line 204, in restricted\n    exec ccode in environment\n  File "/home/ds-iiit/web2py/applications/Gordian_Knot/views/default/landing.html", line 60, in <module>\nTypeError: \'list\' object is not callable\n'
p5713
s.