(dp1
S'output'
p2
S"<type 'exceptions.TypeError'> cannot concatenate 'str' and 'int' objects"
p3
sS'layer'
p4
S'/home/ds-iiit/web2py/applications/Gordian_Knot/controllers/default.py'
p5
sS'code'
p6
S'# -*- coding: utf-8 -*-\n# this file is released under public domain and you can use without limitations\n\n#########################################################################\n## This is a samples controller\n## - index is the default action of any application\n## - user is required for authentication and authorization\n## - download is for downloading files uploaded in the db (does streaming)\n## - call exposes all registered services (none by default)\n#########################################################################\n@auth.requires_login()\ndef addquestion():\n\tif auth.user_id != 1:\n\t\treturn dict(form="No Donut for you!")\n\tform = crud.create(\'Trivia\')\n\treturn dict(form=form)\n\n@auth.requires_login()\ndef updatequestion():\n\tif auth.user_id != 1:\n\t\treturn dict(form="No Donut for you!")\n\tno = int(request.args(0))\n\tform = crud.update(\'Trivia\',no)\n\treturn dict(form=form)\n\n@auth.requires_login()\ndef ranklist():\n\tx = db(db.auth_user.id > 0).select(orderby = db.auth_user.Points)\n\treturn dict(x=x)\n\n@auth.requires_login()\ndef solved():\n\tx = db((db.Done.User == auth.user_id) & (db.Done.Question == db.Trivia.id)).select(orderby=db.Done.Question)\n\treturn dict(x=x)\n\n@auth.requires_login()\ndef question():\n\tno=request.args(0)\n\tno = int(no)\n\tif auth.user_id == None:\n\t\tredirect(URL(\'landing\'))\n\tif len(db((db.Level.Level == no) & (db.Level.User == auth.user_id)).select()) != 0 or no == 0:\n\t\tquestions = []\n\t\tx = db((db.Trivia.Level == no) & ((db.Done.User == auth.user_id) & (db.Done.Question == db.Trivia.id))).select(db.Trivia.ALL)\n\t\ty = db(db.Trivia.Level == no).select()\n\t\tfor i in y:\n\t\t\tif i not in x:\n\t\t\t\tquestions.append(i)\n\t\treturn dict(questions = questions)\n\telse:\n\t\tsession.flash = "You are yet to reach that level yet!"\n\t\tredirect(URL(\'landing\'))\n\n@auth.requires_login()\ndef think():\n\t#Perform validation here\n\tno = int(request.vars.qno)\n\tif len(db((db.Level.Level == db.Trivia.Level) & (db.Trivia.id == no) & (db.Level.User == auth.user_id)).select()) > 0 or len(db((db.Trivia.id == no) & (db.Trivia.Level == 0)).select()) > 0:\n\t\tx = db(db.Trivia.id == no).select()\n\telse:\n\t\tx = []\n\t\tsession.flash = "No Donot for you kiddo!"\n\t\tredirect(URL(\'landing\'))\n\treturn dict(x=x)\n\n@auth.requires_login()\ndef landing():\n\ty = db(db.Level.User == auth.user_id).select(distinct=True)\n\treturn dict(y=y)\n\n@auth.requires_login()\ndef checkans():\n\ttry:\n\t\tans = int(request.vars.ans)\n\t\tqno = int(request.vars.Qno)\n\texcept:\n\t\tqno = int(request.vars.Qno)\n\t\tsession.flash = \'Invalid answer. Please enter a positive integer\'\n\t\tredirect(URL(\'think\',vars={\'qno\':qno}))\n\tif len(db((db.Done.User == auth.user_id) & (db.Done.Question == qno)).select()) > 0:\n\t\tresponse.flash = "You\'ve already attempted this question"\n\t\tz = db(db.Trivia.id == qno).select(distinct=True)\n\t\treturn dict(z=z,done=True)\n\tx = db((db.Trivia.id == qno) & (db.Trivia.Answer == ans)).select()\n\tif  len(x) == 0:\n\t\tsession.flash = \'Wrong answer. But You can do it!\'\n\t\tredirect(URL(\'think\',vars={\'qno\':qno,\'wrong\':True}))\n\t#\tz = db(db.Level.User == auth.user_id).select(distinct=True)\n\t#\tresponse.flash = "I think you can do it!"\n\t#\treturn dict(z=z,done=False)\n\telse:\n\t\tdb.Done.insert(User=auth.user.id,Question=qno)\n\t\ty = db((db.Done.User == auth.user.id) & (db.auth_user.id == db.Done.User)).select(db.auth_user.ALL).first()\n\t\tans = y[\'Points\']+100\n\t\tdb(db.auth_user.id == auth.user.id).update(Points=ans)\n\t\tif len(y) >= 2 and len(db((db.Level.User == auth.user_id) & (db.Level.Level == 1)).select()) == 0:\n\t\t\tsession.flash = "Congratulations, Level 1 unlocked!"\n\t\t\tdb.Level.insert(User=auth.user_id,Level=1)\n\t\telif len(y) >= 5 and len(db((db.Level.User == auth.user_id) & (db.Level.Level == 2)).select()) == 0:\n\t\t\tsession.flash = "Congratulations, Level 2 unlocked!"\n\t\t\tdb.Level.insert(User=auth.user_id,Level=2)\n\t\telif len(y) >= 10 and len(db((db.Level.User == auth.user_id) & (db.Level.Level == 3)).select()) == 0:\n\t\t\tsession.flash = "Congratulations, Level 3 unlocked!"\n\t\t\tdb.Level.insert(User=auth.user_id,Level=3)\n\t\telif len(y) >= 15 and len(db((db.Level.User == auth.user_id) & (db.Level.Level == 4)).select()) == 0:\n\t\t\tsession.flash = "Congratulations, Level 4 unlocked!"\n\t\t\tdb.Level.insert(User=auth.user_id,Level=4)\t\t\t\n\t\tz = db(db.Trivia.id == qno).select(distinct=True)\n\t\treturn dict(z=z,done=True)\n\ndef index():\n    """\n    example action using the internationalization operator T and flash\n    rendered by views/default/index.html or views/generic.html\n    """\n    response.flash = "Cut the Gordian Knot!"\n    return dict(message=T(\'What is Gordian Knot?\'))\n\ndef user():\n    """\n    exposes:\n    http://..../[app]/default/user/login\n    http://..../[app]/default/user/logout\n    http://..../[app]/default/user/register\n    http://..../[app]/default/user/profile\n    http://..../[app]/default/user/retrieve_password\n    http://..../[app]/default/user/change_password\n    use @auth.requires_login()\n        @auth.requires_membership(\'group name\')\n        @auth.requires_permission(\'read\',\'table name\',record_id)\n    to decorate functions that need access control\n    """\n    return dict(form=auth())\n\n\ndef download():\n    """\n    allows downloading of uploaded files\n    http://..../[app]/default/download/[filename]\n    """\n    return response.download(request,db)\n\n\ndef call():\n    """\n    exposes services. for example:\n    http://..../[app]/default/call/jsonrpc\n    decorate with @services.jsonrpc the functions to expose\n    supports xml, json, xmlrpc, jsonrpc, amfrpc, rss, csv\n    """\n    return service()\n\n\n@auth.requires_signature()\ndef data():\n    """\n    http://..../[app]/default/data/tables\n    http://..../[app]/default/data/create/[table]\n    http://..../[app]/default/data/read/[table]/[id]\n    http://..../[app]/default/data/update/[table]/[id]\n    http://..../[app]/default/data/delete/[table]/[id]\n    http://..../[app]/default/data/select/[table]\n    http://..../[app]/default/data/search/[table]\n    but URLs must be signed, i.e. linked with\n      A(\'table\',_href=URL(\'data/tables\',user_signature=True))\n    or with the signed load operator\n      LOAD(\'default\',\'data.load\',args=\'tables\',ajax=True,user_signature=True)\n    """\n    return dict(form=crud())\n\n\nresponse._vars=response._caller(checkans)\n'
p7
sS'snapshot'
p8
(dp9
S'exception'
p10
(dp11
S'__hash__'
p12
S"<method-wrapper '__hash__' of exceptions.TypeError object>"
p13
sS'__setattr__'
p14
S"<method-wrapper '__setattr__' of exceptions.TypeError object>"
p15
sS'__reduce_ex__'
p16
S'<built-in method __reduce_ex__ of exceptions.TypeError object>'
p17
sS'__getslice__'
p18
S"<method-wrapper '__getslice__' of exceptions.TypeError object>"
p19
sS'__getitem__'
p20
S"<method-wrapper '__getitem__' of exceptions.TypeError object>"
p21
sS'__setstate__'
p22
S'<built-in method __setstate__ of exceptions.TypeError object>'
p23
sS'args'
p24
S'("cannot concatenate \'str\' and \'int\' objects",)'
p25
sS'__reduce__'
p26
S'<built-in method __reduce__ of exceptions.TypeError object>'
p27
sS'__str__'
p28
S"<method-wrapper '__str__' of exceptions.TypeError object>"
p29
sS'__format__'
p30
S'<built-in method __format__ of exceptions.TypeError object>'
p31
sS'__getattribute__'
p32
S"<method-wrapper '__getattribute__' of exceptions.TypeError object>"
p33
sS'__class__'
p34
S"<type 'exceptions.TypeError'>"
p35
sS'__unicode__'
p36
S'<built-in method __unicode__ of exceptions.TypeError object>'
p37
sS'__delattr__'
p38
S"<method-wrapper '__delattr__' of exceptions.TypeError object>"
p39
sS'__subclasshook__'
p40
S'<built-in method __subclasshook__ of type object>'
p41
sS'__repr__'
p42
S"<method-wrapper '__repr__' of exceptions.TypeError object>"
p43
sS'__dict__'
p44
S'{}'
p45
sS'__sizeof__'
p46
S'<built-in method __sizeof__ of exceptions.TypeError object>'
p47
sS'__doc__'
p48
S"'Inappropriate argument type.'"
p49
sS'__init__'
p50
S"<method-wrapper '__init__' of exceptions.TypeError object>"
p51
sS'__new__'
p52
S'<built-in method __new__ of type object>'
p53
ssS'evalue'
p54
S"cannot concatenate 'str' and 'int' objects"
p55
sS'request'
p56
ccopy_reg
_reconstructor
p57
(cgluon.html
BEAUTIFY
p58
c__builtin__
object
p59
NtRp60
(dp61
S'attributes'
p62
(dp63
sS'components'
p64
(lp65
g57
(cgluon.html
TABLE
p66
g59
NtRp67
(dp68
g62
(dp69
S'level'
p70
I5
ssS'parent'
p71
Nsg64
(lp72
g57
(cgluon.html
TR
p73
g59
NtRp74
(dp75
g62
(dp76
sg71
g67
sg64
(lp77
g57
(cgluon.html
TD
p78
g59
NtRp79
(dp80
g62
(dp81
S'_style'
p82
S'font-weight:bold;vertical-align:top'
p83
ssg71
g74
sg64
(lp84
S'ajax'
p85
asbag57
(g78
g59
NtRp86
(dp87
g62
(dp88
S'_valign'
p89
S'top'
p90
ssg71
g74
sg64
(lp91
S':'
asbag57
(g78
g59
NtRp92
(dp93
g62
(dp94
sg71
g74
sg64
(lp95
g57
(g58
g59
NtRp96
(dp97
g62
(dp98
g70
I5
ssg71
g92
sg64
(lp99
S'False'
p100
asbasbasbag57
(g73
g59
NtRp101
(dp102
g62
(dp103
sg71
g67
sg64
(lp104
g57
(g78
g59
NtRp105
(dp106
g62
(dp107
g82
g83
ssg71
g101
sg64
(lp108
S'application'
p109
asbag57
(g78
g59
NtRp110
(dp111
g62
(dp112
g89
g90
ssg71
g101
sg64
(lp113
S':'
asbag57
(g78
g59
NtRp114
(dp115
g62
(dp116
sg71
g101
sg64
(lp117
g57
(g58
g59
NtRp118
(dp119
g62
(dp120
g70
I5
ssg71
g114
sg64
(lp121
S'Gordian_Knot'
p122
asbasbasbag57
(g73
g59
NtRp123
(dp124
g62
(dp125
sg71
g67
sg64
(lp126
g57
(g78
g59
NtRp127
(dp128
g62
(dp129
g82
g83
ssg71
g123
sg64
(lp130
g24
asbag57
(g78
g59
NtRp131
(dp132
g62
(dp133
g89
g90
ssg71
g123
sg64
(lp134
S':'
asbag57
(g78
g59
NtRp135
(dp136
g62
(dp137
sg71
g123
sg64
(lp138
g57
(g58
g59
NtRp139
(dp140
g62
(dp141
g70
I5
ssg71
g135
sg64
(lp142
g57
(g66
g59
NtRp143
(dp144
g62
(dp145
g70
I4
ssg71
Nsg64
(lp146
sbasbasbasbag57
(g73
g59
NtRp147
(dp148
g62
(dp149
sg71
g67
sg64
(lp150
g57
(g78
g59
NtRp151
(dp152
g62
(dp153
g82
g83
ssg71
g147
sg64
(lp154
S'body'
p155
asbag57
(g78
g59
NtRp156
(dp157
g62
(dp158
g89
g90
ssg71
g147
sg64
(lp159
S':'
asbag57
(g78
g59
NtRp160
(dp161
g62
(dp162
sg71
g147
sg64
(lp163
g57
(g58
g59
NtRp164
(dp165
g62
(dp166
g70
I5
ssg71
g160
sg64
(lp167
S"<open file '<fdopen>', mode 'w+b' at 0x7f61d40bc1e0>"
p168
asbasbasbag57
(g73
g59
NtRp169
(dp170
g62
(dp171
sg71
g67
sg64
(lp172
g57
(g78
g59
NtRp173
(dp174
g62
(dp175
g82
g83
ssg71
g169
sg64
(lp176
S'client'
p177
asbag57
(g78
g59
NtRp178
(dp179
g62
(dp180
g89
g90
ssg71
g169
sg64
(lp181
S':'
asbag57
(g78
g59
NtRp182
(dp183
g62
(dp184
sg71
g169
sg64
(lp185
g57
(g58
g59
NtRp186
(dp187
g62
(dp188
g70
I5
ssg71
g182
sg64
(lp189
S'127.0.0.1'
p190
asbasbasbag57
(g73
g59
NtRp191
(dp192
g62
(dp193
sg71
g67
sg64
(lp194
g57
(g78
g59
NtRp195
(dp196
g62
(dp197
g82
g83
ssg71
g191
sg64
(lp198
S'controller'
p199
asbag57
(g78
g59
NtRp200
(dp201
g62
(dp202
g89
g90
ssg71
g191
sg64
(lp203
S':'
asbag57
(g78
g59
NtRp204
(dp205
g62
(dp206
sg71
g191
sg64
(lp207
g57
(g58
g59
NtRp208
(dp209
g62
(dp210
g70
I5
ssg71
g204
sg64
(lp211
S'default'
p212
asbasbasbag57
(g73
g59
NtRp213
(dp214
g62
(dp215
sg71
g67
sg64
(lp216
g57
(g78
g59
NtRp217
(dp218
g62
(dp219
g82
g83
ssg71
g213
sg64
(lp220
S'cookies'
p221
asbag57
(g78
g59
NtRp222
(dp223
g62
(dp224
g89
g90
ssg71
g213
sg64
(lp225
S':'
asbag57
(g78
g59
NtRp226
(dp227
g62
(dp228
sg71
g213
sg64
(lp229
g57
(g58
g59
NtRp230
(dp231
g62
(dp232
g70
I5
ssg71
g226
sg64
(lp233
g57
(g66
g59
NtRp234
(dp235
g62
(dp236
g70
I4
ssg71
Nsg64
(lp237
g57
(g73
g59
NtRp238
(dp239
g62
(dp240
sg71
g234
sg64
(lp241
g57
(g78
g59
NtRp242
(dp243
g62
(dp244
g82
g83
ssg71
g238
sg64
(lp245
S'session_id_admin'
p246
asbag57
(g78
g59
NtRp247
(dp248
g62
(dp249
g89
g90
ssg71
g238
sg64
(lp250
S':'
asbag57
(g78
g59
NtRp251
(dp252
g62
(dp253
sg71
g238
sg64
(lp254
g57
(g58
g59
NtRp255
(dp256
g62
(dp257
g70
I4
ssg71
g251
sg64
(lp258
g57
(g66
g59
NtRp259
(dp260
g62
(dp261
g70
I3
ssg71
Nsg64
(lp262
g57
(g73
g59
NtRp263
(dp264
g62
(dp265
sg71
g259
sg64
(lp266
g57
(g78
g59
NtRp267
(dp268
g62
(dp269
g82
g83
ssg71
g263
sg64
(lp270
S'comment'
p271
asbag57
(g78
g59
NtRp272
(dp273
g62
(dp274
g89
g90
ssg71
g263
sg64
(lp275
S':'
asbag57
(g78
g59
NtRp276
(dp277
g62
(dp278
sg71
g263
sg64
(lp279
g57
(g58
g59
NtRp280
(dp281
g62
(dp282
g70
I3
ssg71
g276
sg64
(lp283
S''
asbasbasbag57
(g73
g59
NtRp284
(dp285
g62
(dp286
sg71
g259
sg64
(lp287
g57
(g78
g59
NtRp288
(dp289
g62
(dp290
g82
g83
ssg71
g284
sg64
(lp291
S'domain'
p292
asbag57
(g78
g59
NtRp293
(dp294
g62
(dp295
g89
g90
ssg71
g284
sg64
(lp296
S':'
asbag57
(g78
g59
NtRp297
(dp298
g62
(dp299
sg71
g284
sg64
(lp300
g57
(g58
g59
NtRp301
(dp302
g62
(dp303
g70
I3
ssg71
g297
sg64
(lp304
S''
asbasbasbag57
(g73
g59
NtRp305
(dp306
g62
(dp307
sg71
g259
sg64
(lp308
g57
(g78
g59
NtRp309
(dp310
g62
(dp311
g82
g83
ssg71
g305
sg64
(lp312
S'expires'
p313
asbag57
(g78
g59
NtRp314
(dp315
g62
(dp316
g89
g90
ssg71
g305
sg64
(lp317
S':'
asbag57
(g78
g59
NtRp318
(dp319
g62
(dp320
sg71
g305
sg64
(lp321
g57
(g58
g59
NtRp322
(dp323
g62
(dp324
g70
I3
ssg71
g318
sg64
(lp325
S''
asbasbasbag57
(g73
g59
NtRp326
(dp327
g62
(dp328
sg71
g259
sg64
(lp329
g57
(g78
g59
NtRp330
(dp331
g62
(dp332
g82
g83
ssg71
g326
sg64
(lp333
S'httponly'
p334
asbag57
(g78
g59
NtRp335
(dp336
g62
(dp337
g89
g90
ssg71
g326
sg64
(lp338
S':'
asbag57
(g78
g59
NtRp339
(dp340
g62
(dp341
sg71
g326
sg64
(lp342
g57
(g58
g59
NtRp343
(dp344
g62
(dp345
g70
I3
ssg71
g339
sg64
(lp346
S''
asbasbasbag57
(g73
g59
NtRp347
(dp348
g62
(dp349
sg71
g259
sg64
(lp350
g57
(g78
g59
NtRp351
(dp352
g62
(dp353
g82
g83
ssg71
g347
sg64
(lp354
S'max-age'
p355
asbag57
(g78
g59
NtRp356
(dp357
g62
(dp358
g89
g90
ssg71
g347
sg64
(lp359
S':'
asbag57
(g78
g59
NtRp360
(dp361
g62
(dp362
sg71
g347
sg64
(lp363
g57
(g58
g59
NtRp364
(dp365
g62
(dp366
g70
I3
ssg71
g360
sg64
(lp367
S''
asbasbasbag57
(g73
g59
NtRp368
(dp369
g62
(dp370
sg71
g259
sg64
(lp371
g57
(g78
g59
NtRp372
(dp373
g62
(dp374
g82
g83
ssg71
g368
sg64
(lp375
S'path'
p376
asbag57
(g78
g59
NtRp377
(dp378
g62
(dp379
g89
g90
ssg71
g368
sg64
(lp380
S':'
asbag57
(g78
g59
NtRp381
(dp382
g62
(dp383
sg71
g368
sg64
(lp384
g57
(g58
g59
NtRp385
(dp386
g62
(dp387
g70
I3
ssg71
g381
sg64
(lp388
S''
asbasbasbag57
(g73
g59
NtRp389
(dp390
g62
(dp391
sg71
g259
sg64
(lp392
g57
(g78
g59
NtRp393
(dp394
g62
(dp395
g82
g83
ssg71
g389
sg64
(lp396
S'secure'
p397
asbag57
(g78
g59
NtRp398
(dp399
g62
(dp400
g89
g90
ssg71
g389
sg64
(lp401
S':'
asbag57
(g78
g59
NtRp402
(dp403
g62
(dp404
sg71
g389
sg64
(lp405
g57
(g58
g59
NtRp406
(dp407
g62
(dp408
g70
I3
ssg71
g402
sg64
(lp409
S''
asbasbasbag57
(g73
g59
NtRp410
(dp411
g62
(dp412
sg71
g259
sg64
(lp413
g57
(g78
g59
NtRp414
(dp415
g62
(dp416
g82
g83
ssg71
g410
sg64
(lp417
S'version'
p418
asbag57
(g78
g59
NtRp419
(dp420
g62
(dp421
g89
g90
ssg71
g410
sg64
(lp422
S':'
asbag57
(g78
g59
NtRp423
(dp424
g62
(dp425
sg71
g410
sg64
(lp426
g57
(g58
g59
NtRp427
(dp428
g62
(dp429
g70
I3
ssg71
g423
sg64
(lp430
S''
asbasbasbasbasbasbasbag57
(g73
g59
NtRp431
(dp432
g62
(dp433
sg71
g234
sg64
(lp434
g57
(g78
g59
NtRp435
(dp436
g62
(dp437
g82
g83
ssg71
g431
sg64
(lp438
S'session_id_gordian_knot'
p439
asbag57
(g78
g59
NtRp440
(dp441
g62
(dp442
g89
g90
ssg71
g431
sg64
(lp443
S':'
asbag57
(g78
g59
NtRp444
(dp445
g62
(dp446
sg71
g431
sg64
(lp447
g57
(g58
g59
NtRp448
(dp449
g62
(dp450
g70
I4
ssg71
g444
sg64
(lp451
g57
(g66
g59
NtRp452
(dp453
g62
(dp454
g70
I3
ssg71
Nsg64
(lp455
g57
(g73
g59
NtRp456
(dp457
g62
(dp458
sg71
g452
sg64
(lp459
g57
(g78
g59
NtRp460
(dp461
g62
(dp462
g82
g83
ssg71
g456
sg64
(lp463
g271
asbag57
(g78
g59
NtRp464
(dp465
g62
(dp466
g89
g90
ssg71
g456
sg64
(lp467
S':'
asbag57
(g78
g59
NtRp468
(dp469
g62
(dp470
sg71
g456
sg64
(lp471
g57
(g58
g59
NtRp472
(dp473
g62
(dp474
g70
I3
ssg71
g468
sg64
(lp475
S''
asbasbasbag57
(g73
g59
NtRp476
(dp477
g62
(dp478
sg71
g452
sg64
(lp479
g57
(g78
g59
NtRp480
(dp481
g62
(dp482
g82
g83
ssg71
g476
sg64
(lp483
g292
asbag57
(g78
g59
NtRp484
(dp485
g62
(dp486
g89
g90
ssg71
g476
sg64
(lp487
S':'
asbag57
(g78
g59
NtRp488
(dp489
g62
(dp490
sg71
g476
sg64
(lp491
g57
(g58
g59
NtRp492
(dp493
g62
(dp494
g70
I3
ssg71
g488
sg64
(lp495
S''
asbasbasbag57
(g73
g59
NtRp496
(dp497
g62
(dp498
sg71
g452
sg64
(lp499
g57
(g78
g59
NtRp500
(dp501
g62
(dp502
g82
g83
ssg71
g496
sg64
(lp503
g313
asbag57
(g78
g59
NtRp504
(dp505
g62
(dp506
g89
g90
ssg71
g496
sg64
(lp507
S':'
asbag57
(g78
g59
NtRp508
(dp509
g62
(dp510
sg71
g496
sg64
(lp511
g57
(g58
g59
NtRp512
(dp513
g62
(dp514
g70
I3
ssg71
g508
sg64
(lp515
S''
asbasbasbag57
(g73
g59
NtRp516
(dp517
g62
(dp518
sg71
g452
sg64
(lp519
g57
(g78
g59
NtRp520
(dp521
g62
(dp522
g82
g83
ssg71
g516
sg64
(lp523
g334
asbag57
(g78
g59
NtRp524
(dp525
g62
(dp526
g89
g90
ssg71
g516
sg64
(lp527
S':'
asbag57
(g78
g59
NtRp528
(dp529
g62
(dp530
sg71
g516
sg64
(lp531
g57
(g58
g59
NtRp532
(dp533
g62
(dp534
g70
I3
ssg71
g528
sg64
(lp535
S''
asbasbasbag57
(g73
g59
NtRp536
(dp537
g62
(dp538
sg71
g452
sg64
(lp539
g57
(g78
g59
NtRp540
(dp541
g62
(dp542
g82
g83
ssg71
g536
sg64
(lp543
g355
asbag57
(g78
g59
NtRp544
(dp545
g62
(dp546
g89
g90
ssg71
g536
sg64
(lp547
S':'
asbag57
(g78
g59
NtRp548
(dp549
g62
(dp550
sg71
g536
sg64
(lp551
g57
(g58
g59
NtRp552
(dp553
g62
(dp554
g70
I3
ssg71
g548
sg64
(lp555
S''
asbasbasbag57
(g73
g59
NtRp556
(dp557
g62
(dp558
sg71
g452
sg64
(lp559
g57
(g78
g59
NtRp560
(dp561
g62
(dp562
g82
g83
ssg71
g556
sg64
(lp563
g376
asbag57
(g78
g59
NtRp564
(dp565
g62
(dp566
g89
g90
ssg71
g556
sg64
(lp567
S':'
asbag57
(g78
g59
NtRp568
(dp569
g62
(dp570
sg71
g556
sg64
(lp571
g57
(g58
g59
NtRp572
(dp573
g62
(dp574
g70
I3
ssg71
g568
sg64
(lp575
S''
asbasbasbag57
(g73
g59
NtRp576
(dp577
g62
(dp578
sg71
g452
sg64
(lp579
g57
(g78
g59
NtRp580
(dp581
g62
(dp582
g82
g83
ssg71
g576
sg64
(lp583
g397
asbag57
(g78
g59
NtRp584
(dp585
g62
(dp586
g89
g90
ssg71
g576
sg64
(lp587
S':'
asbag57
(g78
g59
NtRp588
(dp589
g62
(dp590
sg71
g576
sg64
(lp591
g57
(g58
g59
NtRp592
(dp593
g62
(dp594
g70
I3
ssg71
g588
sg64
(lp595
S''
asbasbasbag57
(g73
g59
NtRp596
(dp597
g62
(dp598
sg71
g452
sg64
(lp599
g57
(g78
g59
NtRp600
(dp601
g62
(dp602
g82
g83
ssg71
g596
sg64
(lp603
g418
asbag57
(g78
g59
NtRp604
(dp605
g62
(dp606
g89
g90
ssg71
g596
sg64
(lp607
S':'
asbag57
(g78
g59
NtRp608
(dp609
g62
(dp610
sg71
g596
sg64
(lp611
g57
(g58
g59
NtRp612
(dp613
g62
(dp614
g70
I3
ssg71
g608
sg64
(lp615
S''
asbasbasbasbasbasbasbag57
(g73
g59
NtRp616
(dp617
g62
(dp618
sg71
g234
sg64
(lp619
g57
(g78
g59
NtRp620
(dp621
g62
(dp622
g82
g83
ssg71
g616
sg64
(lp623
S'session_id_welcome'
p624
asbag57
(g78
g59
NtRp625
(dp626
g62
(dp627
g89
g90
ssg71
g616
sg64
(lp628
S':'
asbag57
(g78
g59
NtRp629
(dp630
g62
(dp631
sg71
g616
sg64
(lp632
g57
(g58
g59
NtRp633
(dp634
g62
(dp635
g70
I4
ssg71
g629
sg64
(lp636
g57
(g66
g59
NtRp637
(dp638
g62
(dp639
g70
I3
ssg71
Nsg64
(lp640
g57
(g73
g59
NtRp641
(dp642
g62
(dp643
sg71
g637
sg64
(lp644
g57
(g78
g59
NtRp645
(dp646
g62
(dp647
g82
g83
ssg71
g641
sg64
(lp648
g271
asbag57
(g78
g59
NtRp649
(dp650
g62
(dp651
g89
g90
ssg71
g641
sg64
(lp652
S':'
asbag57
(g78
g59
NtRp653
(dp654
g62
(dp655
sg71
g641
sg64
(lp656
g57
(g58
g59
NtRp657
(dp658
g62
(dp659
g70
I3
ssg71
g653
sg64
(lp660
S''
asbasbasbag57
(g73
g59
NtRp661
(dp662
g62
(dp663
sg71
g637
sg64
(lp664
g57
(g78
g59
NtRp665
(dp666
g62
(dp667
g82
g83
ssg71
g661
sg64
(lp668
g292
asbag57
(g78
g59
NtRp669
(dp670
g62
(dp671
g89
g90
ssg71
g661
sg64
(lp672
S':'
asbag57
(g78
g59
NtRp673
(dp674
g62
(dp675
sg71
g661
sg64
(lp676
g57
(g58
g59
NtRp677
(dp678
g62
(dp679
g70
I3
ssg71
g673
sg64
(lp680
S''
asbasbasbag57
(g73
g59
NtRp681
(dp682
g62
(dp683
sg71
g637
sg64
(lp684
g57
(g78
g59
NtRp685
(dp686
g62
(dp687
g82
g83
ssg71
g681
sg64
(lp688
g313
asbag57
(g78
g59
NtRp689
(dp690
g62
(dp691
g89
g90
ssg71
g681
sg64
(lp692
S':'
asbag57
(g78
g59
NtRp693
(dp694
g62
(dp695
sg71
g681
sg64
(lp696
g57
(g58
g59
NtRp697
(dp698
g62
(dp699
g70
I3
ssg71
g693
sg64
(lp700
S''
asbasbasbag57
(g73
g59
NtRp701
(dp702
g62
(dp703
sg71
g637
sg64
(lp704
g57
(g78
g59
NtRp705
(dp706
g62
(dp707
g82
g83
ssg71
g701
sg64
(lp708
g334
asbag57
(g78
g59
NtRp709
(dp710
g62
(dp711
g89
g90
ssg71
g701
sg64
(lp712
S':'
asbag57
(g78
g59
NtRp713
(dp714
g62
(dp715
sg71
g701
sg64
(lp716
g57
(g58
g59
NtRp717
(dp718
g62
(dp719
g70
I3
ssg71
g713
sg64
(lp720
S''
asbasbasbag57
(g73
g59
NtRp721
(dp722
g62
(dp723
sg71
g637
sg64
(lp724
g57
(g78
g59
NtRp725
(dp726
g62
(dp727
g82
g83
ssg71
g721
sg64
(lp728
g355
asbag57
(g78
g59
NtRp729
(dp730
g62
(dp731
g89
g90
ssg71
g721
sg64
(lp732
S':'
asbag57
(g78
g59
NtRp733
(dp734
g62
(dp735
sg71
g721
sg64
(lp736
g57
(g58
g59
NtRp737
(dp738
g62
(dp739
g70
I3
ssg71
g733
sg64
(lp740
S''
asbasbasbag57
(g73
g59
NtRp741
(dp742
g62
(dp743
sg71
g637
sg64
(lp744
g57
(g78
g59
NtRp745
(dp746
g62
(dp747
g82
g83
ssg71
g741
sg64
(lp748
g376
asbag57
(g78
g59
NtRp749
(dp750
g62
(dp751
g89
g90
ssg71
g741
sg64
(lp752
S':'
asbag57
(g78
g59
NtRp753
(dp754
g62
(dp755
sg71
g741
sg64
(lp756
g57
(g58
g59
NtRp757
(dp758
g62
(dp759
g70
I3
ssg71
g753
sg64
(lp760
S''
asbasbasbag57
(g73
g59
NtRp761
(dp762
g62
(dp763
sg71
g637
sg64
(lp764
g57
(g78
g59
NtRp765
(dp766
g62
(dp767
g82
g83
ssg71
g761
sg64
(lp768
g397
asbag57
(g78
g59
NtRp769
(dp770
g62
(dp771
g89
g90
ssg71
g761
sg64
(lp772
S':'
asbag57
(g78
g59
NtRp773
(dp774
g62
(dp775
sg71
g761
sg64
(lp776
g57
(g58
g59
NtRp777
(dp778
g62
(dp779
g70
I3
ssg71
g773
sg64
(lp780
S''
asbasbasbag57
(g73
g59
NtRp781
(dp782
g62
(dp783
sg71
g637
sg64
(lp784
g57
(g78
g59
NtRp785
(dp786
g62
(dp787
g82
g83
ssg71
g781
sg64
(lp788
g418
asbag57
(g78
g59
NtRp789
(dp790
g62
(dp791
g89
g90
ssg71
g781
sg64
(lp792
S':'
asbag57
(g78
g59
NtRp793
(dp794
g62
(dp795
sg71
g781
sg64
(lp796
g57
(g58
g59
NtRp797
(dp798
g62
(dp799
g70
I3
ssg71
g793
sg64
(lp800
S''
asbasbasbasbasbasbasbasbasbasbasbag57
(g73
g59
NtRp801
(dp802
g62
(dp803
sg71
g67
sg64
(lp804
g57
(g78
g59
NtRp805
(dp806
g62
(dp807
g82
g83
ssg71
g801
sg64
(lp808
S'env'
p809
asbag57
(g78
g59
NtRp810
(dp811
g62
(dp812
g89
g90
ssg71
g801
sg64
(lp813
S':'
asbag57
(g78
g59
NtRp814
(dp815
g62
(dp816
sg71
g801
sg64
(lp817
g57
(g58
g59
NtRp818
(dp819
g62
(dp820
g70
I5
ssg71
g814
sg64
(lp821
g57
(g66
g59
NtRp822
(dp823
g62
(dp824
g70
I4
ssg71
Nsg64
(lp825
g57
(g73
g59
NtRp826
(dp827
g62
(dp828
sg71
g822
sg64
(lp829
g57
(g78
g59
NtRp830
(dp831
g62
(dp832
g82
g83
ssg71
g826
sg64
(lp833
S'app_folders'
p834
asbag57
(g78
g59
NtRp835
(dp836
g62
(dp837
g89
g90
ssg71
g826
sg64
(lp838
S':'
asbag57
(g78
g59
NtRp839
(dp840
g62
(dp841
sg71
g826
sg64
(lp842
g57
(g58
g59
NtRp843
(dp844
g62
(dp845
g70
I4
ssg71
g839
sg64
(lp846
S"set(['/home/ds-iiit/web2py/applications/Gordian_Knot/', '/home/ds-iiit/web2py/applications/welcome/', '/home/ds-iiit/web2py/applications/admin/'])"
p847
asbasbasbag57
(g73
g59
NtRp848
(dp849
g62
(dp850
sg71
g822
sg64
(lp851
g57
(g78
g59
NtRp852
(dp853
g62
(dp854
g82
g83
ssg71
g848
sg64
(lp855
S'applications_parent'
p856
asbag57
(g78
g59
NtRp857
(dp858
g62
(dp859
g89
g90
ssg71
g848
sg64
(lp860
S':'
asbag57
(g78
g59
NtRp861
(dp862
g62
(dp863
sg71
g848
sg64
(lp864
g57
(g58
g59
NtRp865
(dp866
g62
(dp867
g70
I4
ssg71
g861
sg64
(lp868
S'/home/ds-iiit/web2py'
p869
asbasbasbag57
(g73
g59
NtRp870
(dp871
g62
(dp872
sg71
g822
sg64
(lp873
g57
(g78
g59
NtRp874
(dp875
g62
(dp876
g82
g83
ssg71
g870
sg64
(lp877
S'cmd_args'
p878
asbag57
(g78
g59
NtRp879
(dp880
g62
(dp881
g89
g90
ssg71
g870
sg64
(lp882
S':'
asbag57
(g78
g59
NtRp883
(dp884
g62
(dp885
sg71
g870
sg64
(lp886
g57
(g58
g59
NtRp887
(dp888
g62
(dp889
g70
I4
ssg71
g883
sg64
(lp890
g57
(g66
g59
NtRp891
(dp892
g62
(dp893
g70
I3
ssg71
Nsg64
(lp894
sbasbasbasbag57
(g73
g59
NtRp895
(dp896
g62
(dp897
sg71
g822
sg64
(lp898
g57
(g78
g59
NtRp899
(dp900
g62
(dp901
g82
g83
ssg71
g895
sg64
(lp902
S'cmd_options'
p903
asbag57
(g78
g59
NtRp904
(dp905
g62
(dp906
g89
g90
ssg71
g895
sg64
(lp907
S':'
asbag57
(g78
g59
NtRp908
(dp909
g62
(dp910
sg71
g895
sg64
(lp911
g57
(g58
g59
NtRp912
(dp913
g62
(dp914
g70
I4
ssg71
g908
sg64
(lp915
S"<Values at 0x2139e60: {'verbose': False, 'ip': '127.0.0.1', 'shutdown_timeout': 5, 'taskbar': False, 'port': 8000, 'maxthreads': None, 'softcron': False, 'server_name': 'DS-IIIT', 'bpython': False, 'nogui': False, 'nocron': False, 'extcron': False, 'debuglevel': 30, 'test': None, 'folder': '/home/ds-iiit/web2py', 'config': '', 'import_models': False, 'winservice': '', 'shell': None, 'run': '', 'log_filename': 'httpserver.log', 'args': [''], 'socket_timeout': 1, 'profiler_filename': None, 'ssl_private_key': '', 'password': '<ask>', 'request_queue_size': 5, 'ssl_certificate': '', 'cronjob': False, 'plain': False, 'quiet': False, 'interfaces': None, 'minthreads': None, 'timeout': 10, 'numthreads': None, 'nobanner': False, 'pid_filename': 'httpserver.pid'}>"
p916
asbasbasbag57
(g73
g59
NtRp917
(dp918
g62
(dp919
sg71
g822
sg64
(lp920
g57
(g78
g59
NtRp921
(dp922
g62
(dp923
g82
g83
ssg71
g917
sg64
(lp924
S'content_length'
p925
asbag57
(g78
g59
NtRp926
(dp927
g62
(dp928
g89
g90
ssg71
g917
sg64
(lp929
S':'
asbag57
(g78
g59
NtRp930
(dp931
g62
(dp932
sg71
g917
sg64
(lp933
g57
(g58
g59
NtRp934
(dp935
g62
(dp936
g70
I4
ssg71
g930
sg64
(lp937
S'12'
p938
asbasbasbag57
(g73
g59
NtRp939
(dp940
g62
(dp941
sg71
g822
sg64
(lp942
g57
(g78
g59
NtRp943
(dp944
g62
(dp945
g82
g83
ssg71
g939
sg64
(lp946
S'content_type'
p947
asbag57
(g78
g59
NtRp948
(dp949
g62
(dp950
g89
g90
ssg71
g939
sg64
(lp951
S':'
asbag57
(g78
g59
NtRp952
(dp953
g62
(dp954
sg71
g939
sg64
(lp955
g57
(g58
g59
NtRp956
(dp957
g62
(dp958
g70
I4
ssg71
g952
sg64
(lp959
S'application/x-www-form-urlencoded'
p960
asbasbasbag57
(g73
g59
NtRp961
(dp962
g62
(dp963
sg71
g822
sg64
(lp964
g57
(g78
g59
NtRp965
(dp966
g62
(dp967
g82
g83
ssg71
g961
sg64
(lp968
S'db_sessions'
p969
asbag57
(g78
g59
NtRp970
(dp971
g62
(dp972
g89
g90
ssg71
g961
sg64
(lp973
S':'
asbag57
(g78
g59
NtRp974
(dp975
g62
(dp976
sg71
g961
sg64
(lp977
g57
(g58
g59
NtRp978
(dp979
g62
(dp980
g70
I4
ssg71
g974
sg64
(lp981
S'set([])'
p982
asbasbasbag57
(g73
g59
NtRp983
(dp984
g62
(dp985
sg71
g822
sg64
(lp986
g57
(g78
g59
NtRp987
(dp988
g62
(dp989
g82
g83
ssg71
g983
sg64
(lp990
S'debugging'
p991
asbag57
(g78
g59
NtRp992
(dp993
g62
(dp994
g89
g90
ssg71
g983
sg64
(lp995
S':'
asbag57
(g78
g59
NtRp996
(dp997
g62
(dp998
sg71
g983
sg64
(lp999
g57
(g58
g59
NtRp1000
(dp1001
g62
(dp1002
g70
I4
ssg71
g996
sg64
(lp1003
g100
asbasbasbag57
(g73
g59
NtRp1004
(dp1005
g62
(dp1006
sg71
g822
sg64
(lp1007
g57
(g78
g59
NtRp1008
(dp1009
g62
(dp1010
g82
g83
ssg71
g1004
sg64
(lp1011
S'gluon_parent'
p1012
asbag57
(g78
g59
NtRp1013
(dp1014
g62
(dp1015
g89
g90
ssg71
g1004
sg64
(lp1016
S':'
asbag57
(g78
g59
NtRp1017
(dp1018
g62
(dp1019
sg71
g1004
sg64
(lp1020
g57
(g58
g59
NtRp1021
(dp1022
g62
(dp1023
g70
I4
ssg71
g1017
sg64
(lp1024
S'/usr/share/web2py'
p1025
asbasbasbag57
(g73
g59
NtRp1026
(dp1027
g62
(dp1028
sg71
g822
sg64
(lp1029
g57
(g78
g59
NtRp1030
(dp1031
g62
(dp1032
g82
g83
ssg71
g1026
sg64
(lp1033
S'http_accept'
p1034
asbag57
(g78
g59
NtRp1035
(dp1036
g62
(dp1037
g89
g90
ssg71
g1026
sg64
(lp1038
S':'
asbag57
(g78
g59
NtRp1039
(dp1040
g62
(dp1041
sg71
g1026
sg64
(lp1042
g57
(g58
g59
NtRp1043
(dp1044
g62
(dp1045
g70
I4
ssg71
g1039
sg64
(lp1046
S'text/html,application/xhtml+xml,application/xml;q=0.9,*/*;q=0.8'
p1047
asbasbasbag57
(g73
g59
NtRp1048
(dp1049
g62
(dp1050
sg71
g822
sg64
(lp1051
g57
(g78
g59
NtRp1052
(dp1053
g62
(dp1054
g82
g83
ssg71
g1048
sg64
(lp1055
S'http_accept_encoding'
p1056
asbag57
(g78
g59
NtRp1057
(dp1058
g62
(dp1059
g89
g90
ssg71
g1048
sg64
(lp1060
S':'
asbag57
(g78
g59
NtRp1061
(dp1062
g62
(dp1063
sg71
g1048
sg64
(lp1064
g57
(g58
g59
NtRp1065
(dp1066
g62
(dp1067
g70
I4
ssg71
g1061
sg64
(lp1068
S'gzip,deflate,sdch'
p1069
asbasbasbag57
(g73
g59
NtRp1070
(dp1071
g62
(dp1072
sg71
g822
sg64
(lp1073
g57
(g78
g59
NtRp1074
(dp1075
g62
(dp1076
g82
g83
ssg71
g1070
sg64
(lp1077
S'http_accept_language'
p1078
asbag57
(g78
g59
NtRp1079
(dp1080
g62
(dp1081
g89
g90
ssg71
g1070
sg64
(lp1082
S':'
asbag57
(g78
g59
NtRp1083
(dp1084
g62
(dp1085
sg71
g1070
sg64
(lp1086
g57
(g58
g59
NtRp1087
(dp1088
g62
(dp1089
g70
I4
ssg71
g1083
sg64
(lp1090
S'en-US,en;q=0.8'
p1091
asbasbasbag57
(g73
g59
NtRp1092
(dp1093
g62
(dp1094
sg71
g822
sg64
(lp1095
g57
(g78
g59
NtRp1096
(dp1097
g62
(dp1098
g82
g83
ssg71
g1092
sg64
(lp1099
S'http_cache_control'
p1100
asbag57
(g78
g59
NtRp1101
(dp1102
g62
(dp1103
g89
g90
ssg71
g1092
sg64
(lp1104
S':'
asbag57
(g78
g59
NtRp1105
(dp1106
g62
(dp1107
sg71
g1092
sg64
(lp1108
g57
(g58
g59
NtRp1109
(dp1110
g62
(dp1111
g70
I4
ssg71
g1105
sg64
(lp1112
S'max-age=0'
p1113
asbasbasbag57
(g73
g59
NtRp1114
(dp1115
g62
(dp1116
sg71
g822
sg64
(lp1117
g57
(g78
g59
NtRp1118
(dp1119
g62
(dp1120
g82
g83
ssg71
g1114
sg64
(lp1121
S'http_connection'
p1122
asbag57
(g78
g59
NtRp1123
(dp1124
g62
(dp1125
g89
g90
ssg71
g1114
sg64
(lp1126
S':'
asbag57
(g78
g59
NtRp1127
(dp1128
g62
(dp1129
sg71
g1114
sg64
(lp1130
g57
(g58
g59
NtRp1131
(dp1132
g62
(dp1133
g70
I4
ssg71
g1127
sg64
(lp1134
S'keep-alive'
p1135
asbasbasbag57
(g73
g59
NtRp1136
(dp1137
g62
(dp1138
sg71
g822
sg64
(lp1139
g57
(g78
g59
NtRp1140
(dp1141
g62
(dp1142
g82
g83
ssg71
g1136
sg64
(lp1143
S'http_content_length'
p1144
asbag57
(g78
g59
NtRp1145
(dp1146
g62
(dp1147
g89
g90
ssg71
g1136
sg64
(lp1148
S':'
asbag57
(g78
g59
NtRp1149
(dp1150
g62
(dp1151
sg71
g1136
sg64
(lp1152
g57
(g58
g59
NtRp1153
(dp1154
g62
(dp1155
g70
I4
ssg71
g1149
sg64
(lp1156
g938
asbasbasbag57
(g73
g59
NtRp1157
(dp1158
g62
(dp1159
sg71
g822
sg64
(lp1160
g57
(g78
g59
NtRp1161
(dp1162
g62
(dp1163
g82
g83
ssg71
g1157
sg64
(lp1164
S'http_content_type'
p1165
asbag57
(g78
g59
NtRp1166
(dp1167
g62
(dp1168
g89
g90
ssg71
g1157
sg64
(lp1169
S':'
asbag57
(g78
g59
NtRp1170
(dp1171
g62
(dp1172
sg71
g1157
sg64
(lp1173
g57
(g58
g59
NtRp1174
(dp1175
g62
(dp1176
g70
I4
ssg71
g1170
sg64
(lp1177
g960
asbasbasbag57
(g73
g59
NtRp1178
(dp1179
g62
(dp1180
sg71
g822
sg64
(lp1181
g57
(g78
g59
NtRp1182
(dp1183
g62
(dp1184
g82
g83
ssg71
g1178
sg64
(lp1185
S'http_cookie'
p1186
asbag57
(g78
g59
NtRp1187
(dp1188
g62
(dp1189
g89
g90
ssg71
g1178
sg64
(lp1190
S':'
asbag57
(g78
g59
NtRp1191
(dp1192
g62
(dp1193
sg71
g1178
sg64
(lp1194
g57
(g58
g59
NtRp1195
(dp1196
g62
(dp1197
g70
I4
ssg71
g1191
sg64
(lp1198
S'session_id_welcome=127.0.0.1-5f55f5e2-e8df-4e51-8e50-af4db37687a4; session_id_admin=127.0.0.1-eec440ea-bfb0-454e-8342-e1b716d65698; session_id_gordian_knot=127.0.0.1-a9733ab7-5e43-4323-b962-9c2b175f5f60'
p1199
asbasbasbag57
(g73
g59
NtRp1200
(dp1201
g62
(dp1202
sg71
g822
sg64
(lp1203
g57
(g78
g59
NtRp1204
(dp1205
g62
(dp1206
g82
g83
ssg71
g1200
sg64
(lp1207
S'http_host'
p1208
asbag57
(g78
g59
NtRp1209
(dp1210
g62
(dp1211
g89
g90
ssg71
g1200
sg64
(lp1212
S':'
asbag57
(g78
g59
NtRp1213
(dp1214
g62
(dp1215
sg71
g1200
sg64
(lp1216
g57
(g58
g59
NtRp1217
(dp1218
g62
(dp1219
g70
I4
ssg71
g1213
sg64
(lp1220
S'127.0.0.1:8001'
p1221
asbasbasbag57
(g73
g59
NtRp1222
(dp1223
g62
(dp1224
sg71
g822
sg64
(lp1225
g57
(g78
g59
NtRp1226
(dp1227
g62
(dp1228
g82
g83
ssg71
g1222
sg64
(lp1229
S'http_origin'
p1230
asbag57
(g78
g59
NtRp1231
(dp1232
g62
(dp1233
g89
g90
ssg71
g1222
sg64
(lp1234
S':'
asbag57
(g78
g59
NtRp1235
(dp1236
g62
(dp1237
sg71
g1222
sg64
(lp1238
g57
(g58
g59
NtRp1239
(dp1240
g62
(dp1241
g70
I4
ssg71
g1235
sg64
(lp1242
S'http://127.0.0.1:8001'
p1243
asbasbasbag57
(g73
g59
NtRp1244
(dp1245
g62
(dp1246
sg71
g822
sg64
(lp1247
g57
(g78
g59
NtRp1248
(dp1249
g62
(dp1250
g82
g83
ssg71
g1244
sg64
(lp1251
S'http_referer'
p1252
asbag57
(g78
g59
NtRp1253
(dp1254
g62
(dp1255
g89
g90
ssg71
g1244
sg64
(lp1256
S':'
asbag57
(g78
g59
NtRp1257
(dp1258
g62
(dp1259
sg71
g1244
sg64
(lp1260
g57
(g58
g59
NtRp1261
(dp1262
g62
(dp1263
g70
I4
ssg71
g1257
sg64
(lp1264
S'http://127.0.0.1:8001/Gordian_Knot/default/think?qno=3'
p1265
asbasbasbag57
(g73
g59
NtRp1266
(dp1267
g62
(dp1268
sg71
g822
sg64
(lp1269
g57
(g78
g59
NtRp1270
(dp1271
g62
(dp1272
g82
g83
ssg71
g1266
sg64
(lp1273
S'http_user_agent'
p1274
asbag57
(g78
g59
NtRp1275
(dp1276
g62
(dp1277
g89
g90
ssg71
g1266
sg64
(lp1278
S':'
asbag57
(g78
g59
NtRp1279
(dp1280
g62
(dp1281
sg71
g1266
sg64
(lp1282
g57
(g58
g59
NtRp1283
(dp1284
g62
(dp1285
g70
I4
ssg71
g1279
sg64
(lp1286
S'Mozilla/5.0 (X11; Linux x86_64) AppleWebKit/537.36 (KHTML, like Gecko) Chrome/29.0.1547.57 Safari/537.36'
p1287
asbasbasbag57
(g73
g59
NtRp1288
(dp1289
g62
(dp1290
sg71
g822
sg64
(lp1291
g57
(g78
g59
NtRp1292
(dp1293
g62
(dp1294
g82
g83
ssg71
g1288
sg64
(lp1295
S'is_jython'
p1296
asbag57
(g78
g59
NtRp1297
(dp1298
g62
(dp1299
g89
g90
ssg71
g1288
sg64
(lp1300
S':'
asbag57
(g78
g59
NtRp1301
(dp1302
g62
(dp1303
sg71
g1288
sg64
(lp1304
g57
(g58
g59
NtRp1305
(dp1306
g62
(dp1307
g70
I4
ssg71
g1301
sg64
(lp1308
g100
asbasbasbag57
(g73
g59
NtRp1309
(dp1310
g62
(dp1311
sg71
g822
sg64
(lp1312
g57
(g78
g59
NtRp1313
(dp1314
g62
(dp1315
g82
g83
ssg71
g1309
sg64
(lp1316
S'is_pypy'
p1317
asbag57
(g78
g59
NtRp1318
(dp1319
g62
(dp1320
g89
g90
ssg71
g1309
sg64
(lp1321
S':'
asbag57
(g78
g59
NtRp1322
(dp1323
g62
(dp1324
sg71
g1309
sg64
(lp1325
g57
(g58
g59
NtRp1326
(dp1327
g62
(dp1328
g70
I4
ssg71
g1322
sg64
(lp1329
g100
asbasbasbag57
(g73
g59
NtRp1330
(dp1331
g62
(dp1332
sg71
g822
sg64
(lp1333
g57
(g78
g59
NtRp1334
(dp1335
g62
(dp1336
g82
g83
ssg71
g1330
sg64
(lp1337
S'path_info'
p1338
asbag57
(g78
g59
NtRp1339
(dp1340
g62
(dp1341
g89
g90
ssg71
g1330
sg64
(lp1342
S':'
asbag57
(g78
g59
NtRp1343
(dp1344
g62
(dp1345
sg71
g1330
sg64
(lp1346
g57
(g58
g59
NtRp1347
(dp1348
g62
(dp1349
g70
I4
ssg71
g1343
sg64
(lp1350
S'/Gordian_Knot/default/checkans'
p1351
asbasbasbag57
(g73
g59
NtRp1352
(dp1353
g62
(dp1354
sg71
g822
sg64
(lp1355
g57
(g78
g59
NtRp1356
(dp1357
g62
(dp1358
g82
g83
ssg71
g1352
sg64
(lp1359
S'query_string'
p1360
asbag57
(g78
g59
NtRp1361
(dp1362
g62
(dp1363
g89
g90
ssg71
g1352
sg64
(lp1364
S':'
asbag57
(g78
g59
NtRp1365
(dp1366
g62
(dp1367
sg71
g1352
sg64
(lp1368
g57
(g58
g59
NtRp1369
(dp1370
g62
(dp1371
g70
I4
ssg71
g1365
sg64
(lp1372
S''
asbasbasbag57
(g73
g59
NtRp1373
(dp1374
g62
(dp1375
sg71
g822
sg64
(lp1376
g57
(g78
g59
NtRp1377
(dp1378
g62
(dp1379
g82
g83
ssg71
g1373
sg64
(lp1380
S'remote_addr'
p1381
asbag57
(g78
g59
NtRp1382
(dp1383
g62
(dp1384
g89
g90
ssg71
g1373
sg64
(lp1385
S':'
asbag57
(g78
g59
NtRp1386
(dp1387
g62
(dp1388
sg71
g1373
sg64
(lp1389
g57
(g58
g59
NtRp1390
(dp1391
g62
(dp1392
g70
I4
ssg71
g1386
sg64
(lp1393
g190
asbasbasbag57
(g73
g59
NtRp1394
(dp1395
g62
(dp1396
sg71
g822
sg64
(lp1397
g57
(g78
g59
NtRp1398
(dp1399
g62
(dp1400
g82
g83
ssg71
g1394
sg64
(lp1401
S'remote_port'
p1402
asbag57
(g78
g59
NtRp1403
(dp1404
g62
(dp1405
g89
g90
ssg71
g1394
sg64
(lp1406
S':'
asbag57
(g78
g59
NtRp1407
(dp1408
g62
(dp1409
sg71
g1394
sg64
(lp1410
g57
(g58
g59
NtRp1411
(dp1412
g62
(dp1413
g70
I4
ssg71
g1407
sg64
(lp1414
S'46871'
p1415
asbasbasbag57
(g73
g59
NtRp1416
(dp1417
g62
(dp1418
sg71
g822
sg64
(lp1419
g57
(g78
g59
NtRp1420
(dp1421
g62
(dp1422
g82
g83
ssg71
g1416
sg64
(lp1423
S'request_method'
p1424
asbag57
(g78
g59
NtRp1425
(dp1426
g62
(dp1427
g89
g90
ssg71
g1416
sg64
(lp1428
S':'
asbag57
(g78
g59
NtRp1429
(dp1430
g62
(dp1431
sg71
g1416
sg64
(lp1432
g57
(g58
g59
NtRp1433
(dp1434
g62
(dp1435
g70
I4
ssg71
g1429
sg64
(lp1436
S'POST'
p1437
asbasbasbag57
(g73
g59
NtRp1438
(dp1439
g62
(dp1440
sg71
g822
sg64
(lp1441
g57
(g78
g59
NtRp1442
(dp1443
g62
(dp1444
g82
g83
ssg71
g1438
sg64
(lp1445
S'script_name'
p1446
asbag57
(g78
g59
NtRp1447
(dp1448
g62
(dp1449
g89
g90
ssg71
g1438
sg64
(lp1450
S':'
asbag57
(g78
g59
NtRp1451
(dp1452
g62
(dp1453
sg71
g1438
sg64
(lp1454
g57
(g58
g59
NtRp1455
(dp1456
g62
(dp1457
g70
I4
ssg71
g1451
sg64
(lp1458
S''
asbasbasbag57
(g73
g59
NtRp1459
(dp1460
g62
(dp1461
sg71
g822
sg64
(lp1462
g57
(g78
g59
NtRp1463
(dp1464
g62
(dp1465
g82
g83
ssg71
g1459
sg64
(lp1466
S'server_name'
p1467
asbag57
(g78
g59
NtRp1468
(dp1469
g62
(dp1470
g89
g90
ssg71
g1459
sg64
(lp1471
S':'
asbag57
(g78
g59
NtRp1472
(dp1473
g62
(dp1474
sg71
g1459
sg64
(lp1475
g57
(g58
g59
NtRp1476
(dp1477
g62
(dp1478
g70
I4
ssg71
g1472
sg64
(lp1479
S'DS-IIIT'
p1480
asbasbasbag57
(g73
g59
NtRp1481
(dp1482
g62
(dp1483
sg71
g822
sg64
(lp1484
g57
(g78
g59
NtRp1485
(dp1486
g62
(dp1487
g82
g83
ssg71
g1481
sg64
(lp1488
S'server_port'
p1489
asbag57
(g78
g59
NtRp1490
(dp1491
g62
(dp1492
g89
g90
ssg71
g1481
sg64
(lp1493
S':'
asbag57
(g78
g59
NtRp1494
(dp1495
g62
(dp1496
sg71
g1481
sg64
(lp1497
g57
(g58
g59
NtRp1498
(dp1499
g62
(dp1500
g70
I4
ssg71
g1494
sg64
(lp1501
S'8001'
p1502
asbasbasbag57
(g73
g59
NtRp1503
(dp1504
g62
(dp1505
sg71
g822
sg64
(lp1506
g57
(g78
g59
NtRp1507
(dp1508
g62
(dp1509
g82
g83
ssg71
g1503
sg64
(lp1510
S'server_protocol'
p1511
asbag57
(g78
g59
NtRp1512
(dp1513
g62
(dp1514
g89
g90
ssg71
g1503
sg64
(lp1515
S':'
asbag57
(g78
g59
NtRp1516
(dp1517
g62
(dp1518
sg71
g1503
sg64
(lp1519
g57
(g58
g59
NtRp1520
(dp1521
g62
(dp1522
g70
I4
ssg71
g1516
sg64
(lp1523
S'HTTP/1.1'
p1524
asbasbasbag57
(g73
g59
NtRp1525
(dp1526
g62
(dp1527
sg71
g822
sg64
(lp1528
g57
(g78
g59
NtRp1529
(dp1530
g62
(dp1531
g82
g83
ssg71
g1525
sg64
(lp1532
S'server_software'
p1533
asbag57
(g78
g59
NtRp1534
(dp1535
g62
(dp1536
g89
g90
ssg71
g1525
sg64
(lp1537
S':'
asbag57
(g78
g59
NtRp1538
(dp1539
g62
(dp1540
sg71
g1525
sg64
(lp1541
g57
(g58
g59
NtRp1542
(dp1543
g62
(dp1544
g70
I4
ssg71
g1538
sg64
(lp1545
S'Rocket 1.2.4'
p1546
asbasbasbag57
(g73
g59
NtRp1547
(dp1548
g62
(dp1549
sg71
g822
sg64
(lp1550
g57
(g78
g59
NtRp1551
(dp1552
g62
(dp1553
g82
g83
ssg71
g1547
sg64
(lp1554
S'web2py_crontype'
p1555
asbag57
(g78
g59
NtRp1556
(dp1557
g62
(dp1558
g89
g90
ssg71
g1547
sg64
(lp1559
S':'
asbag57
(g78
g59
NtRp1560
(dp1561
g62
(dp1562
sg71
g1547
sg64
(lp1563
g57
(g58
g59
NtRp1564
(dp1565
g62
(dp1566
g70
I4
ssg71
g1560
sg64
(lp1567
S'hard'
p1568
asbasbasbag57
(g73
g59
NtRp1569
(dp1570
g62
(dp1571
sg71
g822
sg64
(lp1572
g57
(g78
g59
NtRp1573
(dp1574
g62
(dp1575
g82
g83
ssg71
g1569
sg64
(lp1576
S'web2py_path'
p1577
asbag57
(g78
g59
NtRp1578
(dp1579
g62
(dp1580
g89
g90
ssg71
g1569
sg64
(lp1581
S':'
asbag57
(g78
g59
NtRp1582
(dp1583
g62
(dp1584
sg71
g1569
sg64
(lp1585
g57
(g58
g59
NtRp1586
(dp1587
g62
(dp1588
g70
I4
ssg71
g1582
sg64
(lp1589
g869
asbasbasbag57
(g73
g59
NtRp1590
(dp1591
g62
(dp1592
sg71
g822
sg64
(lp1593
g57
(g78
g59
NtRp1594
(dp1595
g62
(dp1596
g82
g83
ssg71
g1590
sg64
(lp1597
S'web2py_version'
p1598
asbag57
(g78
g59
NtRp1599
(dp1600
g62
(dp1601
g89
g90
ssg71
g1590
sg64
(lp1602
S':'
asbag57
(g78
g59
NtRp1603
(dp1604
g62
(dp1605
sg71
g1590
sg64
(lp1606
g57
(g58
g59
NtRp1607
(dp1608
g62
(dp1609
g70
I4
ssg71
g1603
sg64
(lp1610
g57
(g66
g59
NtRp1611
(dp1612
g62
(dp1613
g70
I3
ssg71
Nsg64
(lp1614
g57
(g73
g59
NtRp1615
(dp1616
g62
(dp1617
sg71
g1611
sg64
(lp1618
g57
(g78
g59
NtRp1619
(dp1620
g62
(dp1621
sg71
g1615
sg64
(lp1622
g57
(g58
g59
NtRp1623
(dp1624
g62
(dp1625
g70
I3
ssg71
g1619
sg64
(lp1626
S'1'
asbasbasbag57
(g73
g59
NtRp1627
(dp1628
g62
(dp1629
sg71
g1611
sg64
(lp1630
g57
(g78
g59
NtRp1631
(dp1632
g62
(dp1633
sg71
g1627
sg64
(lp1634
g57
(g58
g59
NtRp1635
(dp1636
g62
(dp1637
g70
I3
ssg71
g1631
sg64
(lp1638
S'99'
p1639
asbasbasbag57
(g73
g59
NtRp1640
(dp1641
g62
(dp1642
sg71
g1611
sg64
(lp1643
g57
(g78
g59
NtRp1644
(dp1645
g62
(dp1646
sg71
g1640
sg64
(lp1647
g57
(g58
g59
NtRp1648
(dp1649
g62
(dp1650
g70
I3
ssg71
g1644
sg64
(lp1651
S'4'
asbasbasbag57
(g73
g59
NtRp1652
(dp1653
g62
(dp1654
sg71
g1611
sg64
(lp1655
g57
(g78
g59
NtRp1656
(dp1657
g62
(dp1658
sg71
g1652
sg64
(lp1659
g57
(g58
g59
NtRp1660
(dp1661
g62
(dp1662
g70
I3
ssg71
g1656
sg64
(lp1663
S'datetime.datetime(2011, 12, 14, 14, 46, 14)'
p1664
asbasbasbag57
(g73
g59
NtRp1665
(dp1666
g62
(dp1667
sg71
g1611
sg64
(lp1668
g57
(g78
g59
NtRp1669
(dp1670
g62
(dp1671
sg71
g1665
sg64
(lp1672
g57
(g58
g59
NtRp1673
(dp1674
g62
(dp1675
g70
I3
ssg71
g1669
sg64
(lp1676
S'stable'
p1677
asbasbasbasbasbasbasbag57
(g73
g59
NtRp1678
(dp1679
g62
(dp1680
sg71
g822
sg64
(lp1681
g57
(g78
g59
NtRp1682
(dp1683
g62
(dp1684
g82
g83
ssg71
g1678
sg64
(lp1685
S'wsgi_errors'
p1686
asbag57
(g78
g59
NtRp1687
(dp1688
g62
(dp1689
g89
g90
ssg71
g1678
sg64
(lp1690
S':'
asbag57
(g78
g59
NtRp1691
(dp1692
g62
(dp1693
sg71
g1678
sg64
(lp1694
g57
(g58
g59
NtRp1695
(dp1696
g62
(dp1697
g70
I4
ssg71
g1691
sg64
(lp1698
S"<open file '<stderr>', mode 'w' at 0x7f622d3a1270>"
p1699
asbasbasbag57
(g73
g59
NtRp1700
(dp1701
g62
(dp1702
sg71
g822
sg64
(lp1703
g57
(g78
g59
NtRp1704
(dp1705
g62
(dp1706
g82
g83
ssg71
g1700
sg64
(lp1707
S'wsgi_file_wrapper'
p1708
asbag57
(g78
g59
NtRp1709
(dp1710
g62
(dp1711
g89
g90
ssg71
g1700
sg64
(lp1712
S':'
asbag57
(g78
g59
NtRp1713
(dp1714
g62
(dp1715
sg71
g1700
sg64
(lp1716
g57
(g58
g59
NtRp1717
(dp1718
g62
(dp1719
g70
I4
ssg71
g1713
sg64
(lp1720
S'<class wsgiref.util.FileWrapper at 0x2164390>'
p1721
asbasbasbag57
(g73
g59
NtRp1722
(dp1723
g62
(dp1724
sg71
g822
sg64
(lp1725
g57
(g78
g59
NtRp1726
(dp1727
g62
(dp1728
g82
g83
ssg71
g1722
sg64
(lp1729
S'wsgi_input'
p1730
asbag57
(g78
g59
NtRp1731
(dp1732
g62
(dp1733
g89
g90
ssg71
g1722
sg64
(lp1734
S':'
asbag57
(g78
g59
NtRp1735
(dp1736
g62
(dp1737
sg71
g1722
sg64
(lp1738
g57
(g58
g59
NtRp1739
(dp1740
g62
(dp1741
g70
I4
ssg71
g1735
sg64
(lp1742
S'<socket._fileobject object at 0x7f61f46399d0>'
p1743
asbasbasbag57
(g73
g59
NtRp1744
(dp1745
g62
(dp1746
sg71
g822
sg64
(lp1747
g57
(g78
g59
NtRp1748
(dp1749
g62
(dp1750
g82
g83
ssg71
g1744
sg64
(lp1751
S'wsgi_multiprocess'
p1752
asbag57
(g78
g59
NtRp1753
(dp1754
g62
(dp1755
g89
g90
ssg71
g1744
sg64
(lp1756
S':'
asbag57
(g78
g59
NtRp1757
(dp1758
g62
(dp1759
sg71
g1744
sg64
(lp1760
g57
(g58
g59
NtRp1761
(dp1762
g62
(dp1763
g70
I4
ssg71
g1757
sg64
(lp1764
g100
asbasbasbag57
(g73
g59
NtRp1765
(dp1766
g62
(dp1767
sg71
g822
sg64
(lp1768
g57
(g78
g59
NtRp1769
(dp1770
g62
(dp1771
g82
g83
ssg71
g1765
sg64
(lp1772
S'wsgi_multithread'
p1773
asbag57
(g78
g59
NtRp1774
(dp1775
g62
(dp1776
g89
g90
ssg71
g1765
sg64
(lp1777
S':'
asbag57
(g78
g59
NtRp1778
(dp1779
g62
(dp1780
sg71
g1765
sg64
(lp1781
g57
(g58
g59
NtRp1782
(dp1783
g62
(dp1784
g70
I4
ssg71
g1778
sg64
(lp1785
S'True'
p1786
asbasbasbag57
(g73
g59
NtRp1787
(dp1788
g62
(dp1789
sg71
g822
sg64
(lp1790
g57
(g78
g59
NtRp1791
(dp1792
g62
(dp1793
g82
g83
ssg71
g1787
sg64
(lp1794
S'wsgi_run_once'
p1795
asbag57
(g78
g59
NtRp1796
(dp1797
g62
(dp1798
g89
g90
ssg71
g1787
sg64
(lp1799
S':'
asbag57
(g78
g59
NtRp1800
(dp1801
g62
(dp1802
sg71
g1787
sg64
(lp1803
g57
(g58
g59
NtRp1804
(dp1805
g62
(dp1806
g70
I4
ssg71
g1800
sg64
(lp1807
g100
asbasbasbag57
(g73
g59
NtRp1808
(dp1809
g62
(dp1810
sg71
g822
sg64
(lp1811
g57
(g78
g59
NtRp1812
(dp1813
g62
(dp1814
g82
g83
ssg71
g1808
sg64
(lp1815
S'wsgi_url_scheme'
p1816
asbag57
(g78
g59
NtRp1817
(dp1818
g62
(dp1819
g89
g90
ssg71
g1808
sg64
(lp1820
S':'
asbag57
(g78
g59
NtRp1821
(dp1822
g62
(dp1823
sg71
g1808
sg64
(lp1824
g57
(g58
g59
NtRp1825
(dp1826
g62
(dp1827
g70
I4
ssg71
g1821
sg64
(lp1828
S'http'
p1829
asbasbasbag57
(g73
g59
NtRp1830
(dp1831
g62
(dp1832
sg71
g822
sg64
(lp1833
g57
(g78
g59
NtRp1834
(dp1835
g62
(dp1836
g82
g83
ssg71
g1830
sg64
(lp1837
S'wsgi_version'
p1838
asbag57
(g78
g59
NtRp1839
(dp1840
g62
(dp1841
g89
g90
ssg71
g1830
sg64
(lp1842
S':'
asbag57
(g78
g59
NtRp1843
(dp1844
g62
(dp1845
sg71
g1830
sg64
(lp1846
g57
(g58
g59
NtRp1847
(dp1848
g62
(dp1849
g70
I4
ssg71
g1843
sg64
(lp1850
g57
(g66
g59
NtRp1851
(dp1852
g62
(dp1853
g70
I3
ssg71
Nsg64
(lp1854
g57
(g73
g59
NtRp1855
(dp1856
g62
(dp1857
sg71
g1851
sg64
(lp1858
g57
(g78
g59
NtRp1859
(dp1860
g62
(dp1861
sg71
g1855
sg64
(lp1862
g57
(g58
g59
NtRp1863
(dp1864
g62
(dp1865
g70
I3
ssg71
g1859
sg64
(lp1866
S'1'
asbasbasbag57
(g73
g59
NtRp1867
(dp1868
g62
(dp1869
sg71
g1851
sg64
(lp1870
g57
(g78
g59
NtRp1871
(dp1872
g62
(dp1873
sg71
g1867
sg64
(lp1874
g57
(g58
g59
NtRp1875
(dp1876
g62
(dp1877
g70
I3
ssg71
g1871
sg64
(lp1878
S'0'
asbasbasbasbasbasbasbasbasbasbasbag57
(g73
g59
NtRp1879
(dp1880
g62
(dp1881
sg71
g67
sg64
(lp1882
g57
(g78
g59
NtRp1883
(dp1884
g62
(dp1885
g82
g83
ssg71
g1879
sg64
(lp1886
S'extension'
p1887
asbag57
(g78
g59
NtRp1888
(dp1889
g62
(dp1890
g89
g90
ssg71
g1879
sg64
(lp1891
S':'
asbag57
(g78
g59
NtRp1892
(dp1893
g62
(dp1894
sg71
g1879
sg64
(lp1895
g57
(g58
g59
NtRp1896
(dp1897
g62
(dp1898
g70
I5
ssg71
g1892
sg64
(lp1899
S'html'
p1900
asbasbasbag57
(g73
g59
NtRp1901
(dp1902
g62
(dp1903
sg71
g67
sg64
(lp1904
g57
(g78
g59
NtRp1905
(dp1906
g62
(dp1907
g82
g83
ssg71
g1901
sg64
(lp1908
S'folder'
p1909
asbag57
(g78
g59
NtRp1910
(dp1911
g62
(dp1912
g89
g90
ssg71
g1901
sg64
(lp1913
S':'
asbag57
(g78
g59
NtRp1914
(dp1915
g62
(dp1916
sg71
g1901
sg64
(lp1917
g57
(g58
g59
NtRp1918
(dp1919
g62
(dp1920
g70
I5
ssg71
g1914
sg64
(lp1921
S'/home/ds-iiit/web2py/applications/Gordian_Knot/'
p1922
asbasbasbag57
(g73
g59
NtRp1923
(dp1924
g62
(dp1925
sg71
g67
sg64
(lp1926
g57
(g78
g59
NtRp1927
(dp1928
g62
(dp1929
g82
g83
ssg71
g1923
sg64
(lp1930
S'function'
p1931
asbag57
(g78
g59
NtRp1932
(dp1933
g62
(dp1934
g89
g90
ssg71
g1923
sg64
(lp1935
S':'
asbag57
(g78
g59
NtRp1936
(dp1937
g62
(dp1938
sg71
g1923
sg64
(lp1939
g57
(g58
g59
NtRp1940
(dp1941
g62
(dp1942
g70
I5
ssg71
g1936
sg64
(lp1943
S'checkans'
p1944
asbasbasbag57
(g73
g59
NtRp1945
(dp1946
g62
(dp1947
sg71
g67
sg64
(lp1948
g57
(g78
g59
NtRp1949
(dp1950
g62
(dp1951
g82
g83
ssg71
g1945
sg64
(lp1952
S'get_vars'
p1953
asbag57
(g78
g59
NtRp1954
(dp1955
g62
(dp1956
g89
g90
ssg71
g1945
sg64
(lp1957
S':'
asbag57
(g78
g59
NtRp1958
(dp1959
g62
(dp1960
sg71
g1945
sg64
(lp1961
g57
(g58
g59
NtRp1962
(dp1963
g62
(dp1964
g70
I5
ssg71
g1958
sg64
(lp1965
g57
(g66
g59
NtRp1966
(dp1967
g62
(dp1968
g70
I4
ssg71
Nsg64
(lp1969
sbasbasbasbag57
(g73
g59
NtRp1970
(dp1971
g62
(dp1972
sg71
g67
sg64
(lp1973
g57
(g78
g59
NtRp1974
(dp1975
g62
(dp1976
g82
g83
ssg71
g1970
sg64
(lp1977
S'global_settings'
p1978
asbag57
(g78
g59
NtRp1979
(dp1980
g62
(dp1981
g89
g90
ssg71
g1970
sg64
(lp1982
S':'
asbag57
(g78
g59
NtRp1983
(dp1984
g62
(dp1985
sg71
g1970
sg64
(lp1986
g57
(g58
g59
NtRp1987
(dp1988
g62
(dp1989
g70
I5
ssg71
g1983
sg64
(lp1990
g57
(g66
g59
NtRp1991
(dp1992
g62
(dp1993
g70
I4
ssg71
Nsg64
(lp1994
g57
(g73
g59
NtRp1995
(dp1996
g62
(dp1997
sg71
g1991
sg64
(lp1998
g57
(g78
g59
NtRp1999
(dp2000
g62
(dp2001
g82
g83
ssg71
g1995
sg64
(lp2002
g834
asbag57
(g78
g59
NtRp2003
(dp2004
g62
(dp2005
g89
g90
ssg71
g1995
sg64
(lp2006
S':'
asbag57
(g78
g59
NtRp2007
(dp2008
g62
(dp2009
sg71
g1995
sg64
(lp2010
g57
(g58
g59
NtRp2011
(dp2012
g62
(dp2013
g70
I4
ssg71
g2007
sg64
(lp2014
S"set(['/home/ds-iiit/web2py/applications/Gordian_Knot/', '/home/ds-iiit/web2py/applications/welcome/', '/home/ds-iiit/web2py/applications/admin/'])"
p2015
asbasbasbag57
(g73
g59
NtRp2016
(dp2017
g62
(dp2018
sg71
g1991
sg64
(lp2019
g57
(g78
g59
NtRp2020
(dp2021
g62
(dp2022
g82
g83
ssg71
g2016
sg64
(lp2023
g856
asbag57
(g78
g59
NtRp2024
(dp2025
g62
(dp2026
g89
g90
ssg71
g2016
sg64
(lp2027
S':'
asbag57
(g78
g59
NtRp2028
(dp2029
g62
(dp2030
sg71
g2016
sg64
(lp2031
g57
(g58
g59
NtRp2032
(dp2033
g62
(dp2034
g70
I4
ssg71
g2028
sg64
(lp2035
g869
asbasbasbag57
(g73
g59
NtRp2036
(dp2037
g62
(dp2038
sg71
g1991
sg64
(lp2039
g57
(g78
g59
NtRp2040
(dp2041
g62
(dp2042
g82
g83
ssg71
g2036
sg64
(lp2043
g878
asbag57
(g78
g59
NtRp2044
(dp2045
g62
(dp2046
g89
g90
ssg71
g2036
sg64
(lp2047
S':'
asbag57
(g78
g59
NtRp2048
(dp2049
g62
(dp2050
sg71
g2036
sg64
(lp2051
g57
(g58
g59
NtRp2052
(dp2053
g62
(dp2054
g70
I4
ssg71
g2048
sg64
(lp2055
g57
(g66
g59
NtRp2056
(dp2057
g62
(dp2058
g70
I3
ssg71
Nsg64
(lp2059
sbasbasbasbag57
(g73
g59
NtRp2060
(dp2061
g62
(dp2062
sg71
g1991
sg64
(lp2063
g57
(g78
g59
NtRp2064
(dp2065
g62
(dp2066
g82
g83
ssg71
g2060
sg64
(lp2067
g903
asbag57
(g78
g59
NtRp2068
(dp2069
g62
(dp2070
g89
g90
ssg71
g2060
sg64
(lp2071
S':'
asbag57
(g78
g59
NtRp2072
(dp2073
g62
(dp2074
sg71
g2060
sg64
(lp2075
g57
(g58
g59
NtRp2076
(dp2077
g62
(dp2078
g70
I4
ssg71
g2072
sg64
(lp2079
S"<Values at 0x2139e60: {'verbose': False, 'ip': '127.0.0.1', 'shutdown_timeout': 5, 'taskbar': False, 'port': 8000, 'maxthreads': None, 'softcron': False, 'server_name': 'DS-IIIT', 'bpython': False, 'nogui': False, 'nocron': False, 'extcron': False, 'debuglevel': 30, 'test': None, 'folder': '/home/ds-iiit/web2py', 'config': '', 'import_models': False, 'winservice': '', 'shell': None, 'run': '', 'log_filename': 'httpserver.log', 'args': [''], 'socket_timeout': 1, 'profiler_filename': None, 'ssl_private_key': '', 'password': '<ask>', 'request_queue_size': 5, 'ssl_certificate': '', 'cronjob': False, 'plain': False, 'quiet': False, 'interfaces': None, 'minthreads': None, 'timeout': 10, 'numthreads': None, 'nobanner': False, 'pid_filename': 'httpserver.pid'}>"
p2080
asbasbasbag57
(g73
g59
NtRp2081
(dp2082
g62
(dp2083
sg71
g1991
sg64
(lp2084
g57
(g78
g59
NtRp2085
(dp2086
g62
(dp2087
g82
g83
ssg71
g2081
sg64
(lp2088
g969
asbag57
(g78
g59
NtRp2089
(dp2090
g62
(dp2091
g89
g90
ssg71
g2081
sg64
(lp2092
S':'
asbag57
(g78
g59
NtRp2093
(dp2094
g62
(dp2095
sg71
g2081
sg64
(lp2096
g57
(g58
g59
NtRp2097
(dp2098
g62
(dp2099
g70
I4
ssg71
g2093
sg64
(lp2100
S'set([])'
p2101
asbasbasbag57
(g73
g59
NtRp2102
(dp2103
g62
(dp2104
sg71
g1991
sg64
(lp2105
g57
(g78
g59
NtRp2106
(dp2107
g62
(dp2108
g82
g83
ssg71
g2102
sg64
(lp2109
g991
asbag57
(g78
g59
NtRp2110
(dp2111
g62
(dp2112
g89
g90
ssg71
g2102
sg64
(lp2113
S':'
asbag57
(g78
g59
NtRp2114
(dp2115
g62
(dp2116
sg71
g2102
sg64
(lp2117
g57
(g58
g59
NtRp2118
(dp2119
g62
(dp2120
g70
I4
ssg71
g2114
sg64
(lp2121
g100
asbasbasbag57
(g73
g59
NtRp2122
(dp2123
g62
(dp2124
sg71
g1991
sg64
(lp2125
g57
(g78
g59
NtRp2126
(dp2127
g62
(dp2128
g82
g83
ssg71
g2122
sg64
(lp2129
g1012
asbag57
(g78
g59
NtRp2130
(dp2131
g62
(dp2132
g89
g90
ssg71
g2122
sg64
(lp2133
S':'
asbag57
(g78
g59
NtRp2134
(dp2135
g62
(dp2136
sg71
g2122
sg64
(lp2137
g57
(g58
g59
NtRp2138
(dp2139
g62
(dp2140
g70
I4
ssg71
g2134
sg64
(lp2141
g1025
asbasbasbag57
(g73
g59
NtRp2142
(dp2143
g62
(dp2144
sg71
g1991
sg64
(lp2145
g57
(g78
g59
NtRp2146
(dp2147
g62
(dp2148
g82
g83
ssg71
g2142
sg64
(lp2149
g1296
asbag57
(g78
g59
NtRp2150
(dp2151
g62
(dp2152
g89
g90
ssg71
g2142
sg64
(lp2153
S':'
asbag57
(g78
g59
NtRp2154
(dp2155
g62
(dp2156
sg71
g2142
sg64
(lp2157
g57
(g58
g59
NtRp2158
(dp2159
g62
(dp2160
g70
I4
ssg71
g2154
sg64
(lp2161
g100
asbasbasbag57
(g73
g59
NtRp2162
(dp2163
g62
(dp2164
sg71
g1991
sg64
(lp2165
g57
(g78
g59
NtRp2166
(dp2167
g62
(dp2168
g82
g83
ssg71
g2162
sg64
(lp2169
g1317
asbag57
(g78
g59
NtRp2170
(dp2171
g62
(dp2172
g89
g90
ssg71
g2162
sg64
(lp2173
S':'
asbag57
(g78
g59
NtRp2174
(dp2175
g62
(dp2176
sg71
g2162
sg64
(lp2177
g57
(g58
g59
NtRp2178
(dp2179
g62
(dp2180
g70
I4
ssg71
g2174
sg64
(lp2181
g100
asbasbasbag57
(g73
g59
NtRp2182
(dp2183
g62
(dp2184
sg71
g1991
sg64
(lp2185
g57
(g78
g59
NtRp2186
(dp2187
g62
(dp2188
g82
g83
ssg71
g2182
sg64
(lp2189
g1555
asbag57
(g78
g59
NtRp2190
(dp2191
g62
(dp2192
g89
g90
ssg71
g2182
sg64
(lp2193
S':'
asbag57
(g78
g59
NtRp2194
(dp2195
g62
(dp2196
sg71
g2182
sg64
(lp2197
g57
(g58
g59
NtRp2198
(dp2199
g62
(dp2200
g70
I4
ssg71
g2194
sg64
(lp2201
g1568
asbasbasbag57
(g73
g59
NtRp2202
(dp2203
g62
(dp2204
sg71
g1991
sg64
(lp2205
g57
(g78
g59
NtRp2206
(dp2207
g62
(dp2208
g82
g83
ssg71
g2202
sg64
(lp2209
g1598
asbag57
(g78
g59
NtRp2210
(dp2211
g62
(dp2212
g89
g90
ssg71
g2202
sg64
(lp2213
S':'
asbag57
(g78
g59
NtRp2214
(dp2215
g62
(dp2216
sg71
g2202
sg64
(lp2217
g57
(g58
g59
NtRp2218
(dp2219
g62
(dp2220
g70
I4
ssg71
g2214
sg64
(lp2221
g57
(g66
g59
NtRp2222
(dp2223
g62
(dp2224
g70
I3
ssg71
Nsg64
(lp2225
g57
(g73
g59
NtRp2226
(dp2227
g62
(dp2228
sg71
g2222
sg64
(lp2229
g57
(g78
g59
NtRp2230
(dp2231
g62
(dp2232
sg71
g2226
sg64
(lp2233
g57
(g58
g59
NtRp2234
(dp2235
g62
(dp2236
g70
I3
ssg71
g2230
sg64
(lp2237
S'1'
asbasbasbag57
(g73
g59
NtRp2238
(dp2239
g62
(dp2240
sg71
g2222
sg64
(lp2241
g57
(g78
g59
NtRp2242
(dp2243
g62
(dp2244
sg71
g2238
sg64
(lp2245
g57
(g58
g59
NtRp2246
(dp2247
g62
(dp2248
g70
I3
ssg71
g2242
sg64
(lp2249
S'99'
p2250
asbasbasbag57
(g73
g59
NtRp2251
(dp2252
g62
(dp2253
sg71
g2222
sg64
(lp2254
g57
(g78
g59
NtRp2255
(dp2256
g62
(dp2257
sg71
g2251
sg64
(lp2258
g57
(g58
g59
NtRp2259
(dp2260
g62
(dp2261
g70
I3
ssg71
g2255
sg64
(lp2262
S'4'
asbasbasbag57
(g73
g59
NtRp2263
(dp2264
g62
(dp2265
sg71
g2222
sg64
(lp2266
g57
(g78
g59
NtRp2267
(dp2268
g62
(dp2269
sg71
g2263
sg64
(lp2270
g57
(g58
g59
NtRp2271
(dp2272
g62
(dp2273
g70
I3
ssg71
g2267
sg64
(lp2274
S'datetime.datetime(2011, 12, 14, 14, 46, 14)'
p2275
asbasbasbag57
(g73
g59
NtRp2276
(dp2277
g62
(dp2278
sg71
g2222
sg64
(lp2279
g57
(g78
g59
NtRp2280
(dp2281
g62
(dp2282
sg71
g2276
sg64
(lp2283
g57
(g58
g59
NtRp2284
(dp2285
g62
(dp2286
g70
I3
ssg71
g2280
sg64
(lp2287
g1677
asbasbasbasbasbasbasbasbasbasbasbag57
(g73
g59
NtRp2288
(dp2289
g62
(dp2290
sg71
g67
sg64
(lp2291
g57
(g78
g59
NtRp2292
(dp2293
g62
(dp2294
g82
g83
ssg71
g2288
sg64
(lp2295
S'is_https'
p2296
asbag57
(g78
g59
NtRp2297
(dp2298
g62
(dp2299
g89
g90
ssg71
g2288
sg64
(lp2300
S':'
asbag57
(g78
g59
NtRp2301
(dp2302
g62
(dp2303
sg71
g2288
sg64
(lp2304
g57
(g58
g59
NtRp2305
(dp2306
g62
(dp2307
g70
I5
ssg71
g2301
sg64
(lp2308
g100
asbasbasbag57
(g73
g59
NtRp2309
(dp2310
g62
(dp2311
sg71
g67
sg64
(lp2312
g57
(g78
g59
NtRp2313
(dp2314
g62
(dp2315
g82
g83
ssg71
g2309
sg64
(lp2316
S'is_local'
p2317
asbag57
(g78
g59
NtRp2318
(dp2319
g62
(dp2320
g89
g90
ssg71
g2309
sg64
(lp2321
S':'
asbag57
(g78
g59
NtRp2322
(dp2323
g62
(dp2324
sg71
g2309
sg64
(lp2325
g57
(g58
g59
NtRp2326
(dp2327
g62
(dp2328
g70
I5
ssg71
g2322
sg64
(lp2329
g1786
asbasbasbag57
(g73
g59
NtRp2330
(dp2331
g62
(dp2332
sg71
g67
sg64
(lp2333
g57
(g78
g59
NtRp2334
(dp2335
g62
(dp2336
g82
g83
ssg71
g2330
sg64
(lp2337
S'is_restful'
p2338
asbag57
(g78
g59
NtRp2339
(dp2340
g62
(dp2341
g89
g90
ssg71
g2330
sg64
(lp2342
S':'
asbag57
(g78
g59
NtRp2343
(dp2344
g62
(dp2345
sg71
g2330
sg64
(lp2346
g57
(g58
g59
NtRp2347
(dp2348
g62
(dp2349
g70
I5
ssg71
g2343
sg64
(lp2350
g100
asbasbasbag57
(g73
g59
NtRp2351
(dp2352
g62
(dp2353
sg71
g67
sg64
(lp2354
g57
(g78
g59
NtRp2355
(dp2356
g62
(dp2357
g82
g83
ssg71
g2351
sg64
(lp2358
S'now'
p2359
asbag57
(g78
g59
NtRp2360
(dp2361
g62
(dp2362
g89
g90
ssg71
g2351
sg64
(lp2363
S':'
asbag57
(g78
g59
NtRp2364
(dp2365
g62
(dp2366
sg71
g2351
sg64
(lp2367
g57
(g58
g59
NtRp2368
(dp2369
g62
(dp2370
g70
I5
ssg71
g2364
sg64
(lp2371
S'datetime.datetime(2013, 9, 26, 3, 59, 22, 115120)'
p2372
asbasbasbag57
(g73
g59
NtRp2373
(dp2374
g62
(dp2375
sg71
g67
sg64
(lp2376
g57
(g78
g59
NtRp2377
(dp2378
g62
(dp2379
g82
g83
ssg71
g2373
sg64
(lp2380
S'post_vars'
p2381
asbag57
(g78
g59
NtRp2382
(dp2383
g62
(dp2384
g89
g90
ssg71
g2373
sg64
(lp2385
S':'
asbag57
(g78
g59
NtRp2386
(dp2387
g62
(dp2388
sg71
g2373
sg64
(lp2389
g57
(g58
g59
NtRp2390
(dp2391
g62
(dp2392
g70
I5
ssg71
g2386
sg64
(lp2393
g57
(g66
g59
NtRp2394
(dp2395
g62
(dp2396
g70
I4
ssg71
Nsg64
(lp2397
g57
(g73
g59
NtRp2398
(dp2399
g62
(dp2400
sg71
g2394
sg64
(lp2401
g57
(g78
g59
NtRp2402
(dp2403
g62
(dp2404
g82
g83
ssg71
g2398
sg64
(lp2405
S'Qno'
p2406
asbag57
(g78
g59
NtRp2407
(dp2408
g62
(dp2409
g89
g90
ssg71
g2398
sg64
(lp2410
S':'
asbag57
(g78
g59
NtRp2411
(dp2412
g62
(dp2413
sg71
g2398
sg64
(lp2414
g57
(g58
g59
NtRp2415
(dp2416
g62
(dp2417
g70
I4
ssg71
g2411
sg64
(lp2418
S'3'
asbasbasbag57
(g73
g59
NtRp2419
(dp2420
g62
(dp2421
sg71
g2394
sg64
(lp2422
g57
(g78
g59
NtRp2423
(dp2424
g62
(dp2425
g82
g83
ssg71
g2419
sg64
(lp2426
S'ans'
p2427
asbag57
(g78
g59
NtRp2428
(dp2429
g62
(dp2430
g89
g90
ssg71
g2419
sg64
(lp2431
S':'
asbag57
(g78
g59
NtRp2432
(dp2433
g62
(dp2434
sg71
g2419
sg64
(lp2435
g57
(g58
g59
NtRp2436
(dp2437
g62
(dp2438
g70
I4
ssg71
g2432
sg64
(lp2439
S'24'
p2440
asbasbasbasbasbasbasbag57
(g73
g59
NtRp2441
(dp2442
g62
(dp2443
sg71
g67
sg64
(lp2444
g57
(g78
g59
NtRp2445
(dp2446
g62
(dp2447
g82
g83
ssg71
g2441
sg64
(lp2448
S'url'
p2449
asbag57
(g78
g59
NtRp2450
(dp2451
g62
(dp2452
g89
g90
ssg71
g2441
sg64
(lp2453
S':'
asbag57
(g78
g59
NtRp2454
(dp2455
g62
(dp2456
sg71
g2441
sg64
(lp2457
g57
(g58
g59
NtRp2458
(dp2459
g62
(dp2460
g70
I5
ssg71
g2454
sg64
(lp2461
S'/Gordian_Knot/default/checkans'
p2462
asbasbasbag57
(g73
g59
NtRp2463
(dp2464
g62
(dp2465
sg71
g67
sg64
(lp2466
g57
(g78
g59
NtRp2467
(dp2468
g62
(dp2469
g82
g83
ssg71
g2463
sg64
(lp2470
S'utcnow'
p2471
asbag57
(g78
g59
NtRp2472
(dp2473
g62
(dp2474
g89
g90
ssg71
g2463
sg64
(lp2475
S':'
asbag57
(g78
g59
NtRp2476
(dp2477
g62
(dp2478
sg71
g2463
sg64
(lp2479
g57
(g58
g59
NtRp2480
(dp2481
g62
(dp2482
g70
I5
ssg71
g2476
sg64
(lp2483
S'datetime.datetime(2013, 9, 25, 22, 29, 22, 115158)'
p2484
asbasbasbag57
(g73
g59
NtRp2485
(dp2486
g62
(dp2487
sg71
g67
sg64
(lp2488
g57
(g78
g59
NtRp2489
(dp2490
g62
(dp2491
g82
g83
ssg71
g2485
sg64
(lp2492
S'uuid'
p2493
asbag57
(g78
g59
NtRp2494
(dp2495
g62
(dp2496
g89
g90
ssg71
g2485
sg64
(lp2497
S':'
asbag57
(g78
g59
NtRp2498
(dp2499
g62
(dp2500
sg71
g2485
sg64
(lp2501
g57
(g58
g59
NtRp2502
(dp2503
g62
(dp2504
g70
I5
ssg71
g2498
sg64
(lp2505
S'Gordian_Knot/127.0.0.1.2013-09-26.03-59-22.08577a1b-4cc5-47ea-8786-734a1c2e04dc'
p2506
asbasbasbag57
(g73
g59
NtRp2507
(dp2508
g62
(dp2509
sg71
g67
sg64
(lp2510
g57
(g78
g59
NtRp2511
(dp2512
g62
(dp2513
g82
g83
ssg71
g2507
sg64
(lp2514
S'vars'
p2515
asbag57
(g78
g59
NtRp2516
(dp2517
g62
(dp2518
g89
g90
ssg71
g2507
sg64
(lp2519
S':'
asbag57
(g78
g59
NtRp2520
(dp2521
g62
(dp2522
sg71
g2507
sg64
(lp2523
g57
(g58
g59
NtRp2524
(dp2525
g62
(dp2526
g70
I5
ssg71
g2520
sg64
(lp2527
g57
(g66
g59
NtRp2528
(dp2529
g62
(dp2530
g70
I4
ssg71
Nsg64
(lp2531
g57
(g73
g59
NtRp2532
(dp2533
g62
(dp2534
sg71
g2528
sg64
(lp2535
g57
(g78
g59
NtRp2536
(dp2537
g62
(dp2538
g82
g83
ssg71
g2532
sg64
(lp2539
g2406
asbag57
(g78
g59
NtRp2540
(dp2541
g62
(dp2542
g89
g90
ssg71
g2532
sg64
(lp2543
S':'
asbag57
(g78
g59
NtRp2544
(dp2545
g62
(dp2546
sg71
g2532
sg64
(lp2547
g57
(g58
g59
NtRp2548
(dp2549
g62
(dp2550
g70
I4
ssg71
g2544
sg64
(lp2551
S'3'
asbasbasbag57
(g73
g59
NtRp2552
(dp2553
g62
(dp2554
sg71
g2528
sg64
(lp2555
g57
(g78
g59
NtRp2556
(dp2557
g62
(dp2558
g82
g83
ssg71
g2552
sg64
(lp2559
g2427
asbag57
(g78
g59
NtRp2560
(dp2561
g62
(dp2562
g89
g90
ssg71
g2552
sg64
(lp2563
S':'
asbag57
(g78
g59
NtRp2564
(dp2565
g62
(dp2566
sg71
g2552
sg64
(lp2567
g57
(g58
g59
NtRp2568
(dp2569
g62
(dp2570
g70
I4
ssg71
g2564
sg64
(lp2571
g2440
asbasbasbasbasbasbasbag57
(g73
g59
NtRp2572
(dp2573
g62
(dp2574
sg71
g67
sg64
(lp2575
g57
(g78
g59
NtRp2576
(dp2577
g62
(dp2578
g82
g83
ssg71
g2572
sg64
(lp2579
S'wsgi'
p2580
asbag57
(g78
g59
NtRp2581
(dp2582
g62
(dp2583
g89
g90
ssg71
g2572
sg64
(lp2584
S':'
asbag57
(g78
g59
NtRp2585
(dp2586
g62
(dp2587
sg71
g2572
sg64
(lp2588
g57
(g58
g59
NtRp2589
(dp2590
g62
(dp2591
g70
I5
ssg71
g2585
sg64
(lp2592
g57
(g66
g59
NtRp2593
(dp2594
g62
(dp2595
g70
I4
ssg71
Nsg64
(lp2596
g57
(g73
g59
NtRp2597
(dp2598
g62
(dp2599
sg71
g2593
sg64
(lp2600
g57
(g78
g59
NtRp2601
(dp2602
g62
(dp2603
g82
g83
ssg71
g2597
sg64
(lp2604
S'environ'
p2605
asbag57
(g78
g59
NtRp2606
(dp2607
g62
(dp2608
g89
g90
ssg71
g2597
sg64
(lp2609
S':'
asbag57
(g78
g59
NtRp2610
(dp2611
g62
(dp2612
sg71
g2597
sg64
(lp2613
g57
(g58
g59
NtRp2614
(dp2615
g62
(dp2616
g70
I4
ssg71
g2610
sg64
(lp2617
g57
(g66
g59
NtRp2618
(dp2619
g62
(dp2620
g70
I3
ssg71
Nsg64
(lp2621
g57
(g73
g59
NtRp2622
(dp2623
g62
(dp2624
sg71
g2618
sg64
(lp2625
g57
(g78
g59
NtRp2626
(dp2627
g62
(dp2628
g82
g83
ssg71
g2622
sg64
(lp2629
S'CONTENT_LENGTH'
p2630
asbag57
(g78
g59
NtRp2631
(dp2632
g62
(dp2633
g89
g90
ssg71
g2622
sg64
(lp2634
S':'
asbag57
(g78
g59
NtRp2635
(dp2636
g62
(dp2637
sg71
g2622
sg64
(lp2638
g57
(g58
g59
NtRp2639
(dp2640
g62
(dp2641
g70
I3
ssg71
g2635
sg64
(lp2642
g938
asbasbasbag57
(g73
g59
NtRp2643
(dp2644
g62
(dp2645
sg71
g2618
sg64
(lp2646
g57
(g78
g59
NtRp2647
(dp2648
g62
(dp2649
g82
g83
ssg71
g2643
sg64
(lp2650
S'CONTENT_TYPE'
p2651
asbag57
(g78
g59
NtRp2652
(dp2653
g62
(dp2654
g89
g90
ssg71
g2643
sg64
(lp2655
S':'
asbag57
(g78
g59
NtRp2656
(dp2657
g62
(dp2658
sg71
g2643
sg64
(lp2659
g57
(g58
g59
NtRp2660
(dp2661
g62
(dp2662
g70
I3
ssg71
g2656
sg64
(lp2663
g960
asbasbasbag57
(g73
g59
NtRp2664
(dp2665
g62
(dp2666
sg71
g2618
sg64
(lp2667
g57
(g78
g59
NtRp2668
(dp2669
g62
(dp2670
g82
g83
ssg71
g2664
sg64
(lp2671
S'HTTP_ACCEPT'
p2672
asbag57
(g78
g59
NtRp2673
(dp2674
g62
(dp2675
g89
g90
ssg71
g2664
sg64
(lp2676
S':'
asbag57
(g78
g59
NtRp2677
(dp2678
g62
(dp2679
sg71
g2664
sg64
(lp2680
g57
(g58
g59
NtRp2681
(dp2682
g62
(dp2683
g70
I3
ssg71
g2677
sg64
(lp2684
g1047
asbasbasbag57
(g73
g59
NtRp2685
(dp2686
g62
(dp2687
sg71
g2618
sg64
(lp2688
g57
(g78
g59
NtRp2689
(dp2690
g62
(dp2691
g82
g83
ssg71
g2685
sg64
(lp2692
S'HTTP_ACCEPT_ENCODING'
p2693
asbag57
(g78
g59
NtRp2694
(dp2695
g62
(dp2696
g89
g90
ssg71
g2685
sg64
(lp2697
S':'
asbag57
(g78
g59
NtRp2698
(dp2699
g62
(dp2700
sg71
g2685
sg64
(lp2701
g57
(g58
g59
NtRp2702
(dp2703
g62
(dp2704
g70
I3
ssg71
g2698
sg64
(lp2705
g1069
asbasbasbag57
(g73
g59
NtRp2706
(dp2707
g62
(dp2708
sg71
g2618
sg64
(lp2709
g57
(g78
g59
NtRp2710
(dp2711
g62
(dp2712
g82
g83
ssg71
g2706
sg64
(lp2713
S'HTTP_ACCEPT_LANGUAGE'
p2714
asbag57
(g78
g59
NtRp2715
(dp2716
g62
(dp2717
g89
g90
ssg71
g2706
sg64
(lp2718
S':'
asbag57
(g78
g59
NtRp2719
(dp2720
g62
(dp2721
sg71
g2706
sg64
(lp2722
g57
(g58
g59
NtRp2723
(dp2724
g62
(dp2725
g70
I3
ssg71
g2719
sg64
(lp2726
g1091
asbasbasbag57
(g73
g59
NtRp2727
(dp2728
g62
(dp2729
sg71
g2618
sg64
(lp2730
g57
(g78
g59
NtRp2731
(dp2732
g62
(dp2733
g82
g83
ssg71
g2727
sg64
(lp2734
S'HTTP_CACHE_CONTROL'
p2735
asbag57
(g78
g59
NtRp2736
(dp2737
g62
(dp2738
g89
g90
ssg71
g2727
sg64
(lp2739
S':'
asbag57
(g78
g59
NtRp2740
(dp2741
g62
(dp2742
sg71
g2727
sg64
(lp2743
g57
(g58
g59
NtRp2744
(dp2745
g62
(dp2746
g70
I3
ssg71
g2740
sg64
(lp2747
g1113
asbasbasbag57
(g73
g59
NtRp2748
(dp2749
g62
(dp2750
sg71
g2618
sg64
(lp2751
g57
(g78
g59
NtRp2752
(dp2753
g62
(dp2754
g82
g83
ssg71
g2748
sg64
(lp2755
S'HTTP_CONNECTION'
p2756
asbag57
(g78
g59
NtRp2757
(dp2758
g62
(dp2759
g89
g90
ssg71
g2748
sg64
(lp2760
S':'
asbag57
(g78
g59
NtRp2761
(dp2762
g62
(dp2763
sg71
g2748
sg64
(lp2764
g57
(g58
g59
NtRp2765
(dp2766
g62
(dp2767
g70
I3
ssg71
g2761
sg64
(lp2768
g1135
asbasbasbag57
(g73
g59
NtRp2769
(dp2770
g62
(dp2771
sg71
g2618
sg64
(lp2772
g57
(g78
g59
NtRp2773
(dp2774
g62
(dp2775
g82
g83
ssg71
g2769
sg64
(lp2776
S'HTTP_CONTENT_LENGTH'
p2777
asbag57
(g78
g59
NtRp2778
(dp2779
g62
(dp2780
g89
g90
ssg71
g2769
sg64
(lp2781
S':'
asbag57
(g78
g59
NtRp2782
(dp2783
g62
(dp2784
sg71
g2769
sg64
(lp2785
g57
(g58
g59
NtRp2786
(dp2787
g62
(dp2788
g70
I3
ssg71
g2782
sg64
(lp2789
g938
asbasbasbag57
(g73
g59
NtRp2790
(dp2791
g62
(dp2792
sg71
g2618
sg64
(lp2793
g57
(g78
g59
NtRp2794
(dp2795
g62
(dp2796
g82
g83
ssg71
g2790
sg64
(lp2797
S'HTTP_CONTENT_TYPE'
p2798
asbag57
(g78
g59
NtRp2799
(dp2800
g62
(dp2801
g89
g90
ssg71
g2790
sg64
(lp2802
S':'
asbag57
(g78
g59
NtRp2803
(dp2804
g62
(dp2805
sg71
g2790
sg64
(lp2806
g57
(g58
g59
NtRp2807
(dp2808
g62
(dp2809
g70
I3
ssg71
g2803
sg64
(lp2810
g960
asbasbasbag57
(g73
g59
NtRp2811
(dp2812
g62
(dp2813
sg71
g2618
sg64
(lp2814
g57
(g78
g59
NtRp2815
(dp2816
g62
(dp2817
g82
g83
ssg71
g2811
sg64
(lp2818
S'HTTP_COOKIE'
p2819
asbag57
(g78
g59
NtRp2820
(dp2821
g62
(dp2822
g89
g90
ssg71
g2811
sg64
(lp2823
S':'
asbag57
(g78
g59
NtRp2824
(dp2825
g62
(dp2826
sg71
g2811
sg64
(lp2827
g57
(g58
g59
NtRp2828
(dp2829
g62
(dp2830
g70
I3
ssg71
g2824
sg64
(lp2831
g1199
asbasbasbag57
(g73
g59
NtRp2832
(dp2833
g62
(dp2834
sg71
g2618
sg64
(lp2835
g57
(g78
g59
NtRp2836
(dp2837
g62
(dp2838
g82
g83
ssg71
g2832
sg64
(lp2839
S'HTTP_HOST'
p2840
asbag57
(g78
g59
NtRp2841
(dp2842
g62
(dp2843
g89
g90
ssg71
g2832
sg64
(lp2844
S':'
asbag57
(g78
g59
NtRp2845
(dp2846
g62
(dp2847
sg71
g2832
sg64
(lp2848
g57
(g58
g59
NtRp2849
(dp2850
g62
(dp2851
g70
I3
ssg71
g2845
sg64
(lp2852
g1221
asbasbasbag57
(g73
g59
NtRp2853
(dp2854
g62
(dp2855
sg71
g2618
sg64
(lp2856
g57
(g78
g59
NtRp2857
(dp2858
g62
(dp2859
g82
g83
ssg71
g2853
sg64
(lp2860
S'HTTP_ORIGIN'
p2861
asbag57
(g78
g59
NtRp2862
(dp2863
g62
(dp2864
g89
g90
ssg71
g2853
sg64
(lp2865
S':'
asbag57
(g78
g59
NtRp2866
(dp2867
g62
(dp2868
sg71
g2853
sg64
(lp2869
g57
(g58
g59
NtRp2870
(dp2871
g62
(dp2872
g70
I3
ssg71
g2866
sg64
(lp2873
g1243
asbasbasbag57
(g73
g59
NtRp2874
(dp2875
g62
(dp2876
sg71
g2618
sg64
(lp2877
g57
(g78
g59
NtRp2878
(dp2879
g62
(dp2880
g82
g83
ssg71
g2874
sg64
(lp2881
S'HTTP_REFERER'
p2882
asbag57
(g78
g59
NtRp2883
(dp2884
g62
(dp2885
g89
g90
ssg71
g2874
sg64
(lp2886
S':'
asbag57
(g78
g59
NtRp2887
(dp2888
g62
(dp2889
sg71
g2874
sg64
(lp2890
g57
(g58
g59
NtRp2891
(dp2892
g62
(dp2893
g70
I3
ssg71
g2887
sg64
(lp2894
g1265
asbasbasbag57
(g73
g59
NtRp2895
(dp2896
g62
(dp2897
sg71
g2618
sg64
(lp2898
g57
(g78
g59
NtRp2899
(dp2900
g62
(dp2901
g82
g83
ssg71
g2895
sg64
(lp2902
S'HTTP_USER_AGENT'
p2903
asbag57
(g78
g59
NtRp2904
(dp2905
g62
(dp2906
g89
g90
ssg71
g2895
sg64
(lp2907
S':'
asbag57
(g78
g59
NtRp2908
(dp2909
g62
(dp2910
sg71
g2895
sg64
(lp2911
g57
(g58
g59
NtRp2912
(dp2913
g62
(dp2914
g70
I3
ssg71
g2908
sg64
(lp2915
g1287
asbasbasbag57
(g73
g59
NtRp2916
(dp2917
g62
(dp2918
sg71
g2618
sg64
(lp2919
g57
(g78
g59
NtRp2920
(dp2921
g62
(dp2922
g82
g83
ssg71
g2916
sg64
(lp2923
S'PATH_INFO'
p2924
asbag57
(g78
g59
NtRp2925
(dp2926
g62
(dp2927
g89
g90
ssg71
g2916
sg64
(lp2928
S':'
asbag57
(g78
g59
NtRp2929
(dp2930
g62
(dp2931
sg71
g2916
sg64
(lp2932
g57
(g58
g59
NtRp2933
(dp2934
g62
(dp2935
g70
I3
ssg71
g2929
sg64
(lp2936
g1351
asbasbasbag57
(g73
g59
NtRp2937
(dp2938
g62
(dp2939
sg71
g2618
sg64
(lp2940
g57
(g78
g59
NtRp2941
(dp2942
g62
(dp2943
g82
g83
ssg71
g2937
sg64
(lp2944
S'QUERY_STRING'
p2945
asbag57
(g78
g59
NtRp2946
(dp2947
g62
(dp2948
g89
g90
ssg71
g2937
sg64
(lp2949
S':'
asbag57
(g78
g59
NtRp2950
(dp2951
g62
(dp2952
sg71
g2937
sg64
(lp2953
g57
(g58
g59
NtRp2954
(dp2955
g62
(dp2956
g70
I3
ssg71
g2950
sg64
(lp2957
S''
asbasbasbag57
(g73
g59
NtRp2958
(dp2959
g62
(dp2960
sg71
g2618
sg64
(lp2961
g57
(g78
g59
NtRp2962
(dp2963
g62
(dp2964
g82
g83
ssg71
g2958
sg64
(lp2965
S'REMOTE_ADDR'
p2966
asbag57
(g78
g59
NtRp2967
(dp2968
g62
(dp2969
g89
g90
ssg71
g2958
sg64
(lp2970
S':'
asbag57
(g78
g59
NtRp2971
(dp2972
g62
(dp2973
sg71
g2958
sg64
(lp2974
g57
(g58
g59
NtRp2975
(dp2976
g62
(dp2977
g70
I3
ssg71
g2971
sg64
(lp2978
g190
asbasbasbag57
(g73
g59
NtRp2979
(dp2980
g62
(dp2981
sg71
g2618
sg64
(lp2982
g57
(g78
g59
NtRp2983
(dp2984
g62
(dp2985
g82
g83
ssg71
g2979
sg64
(lp2986
S'REMOTE_PORT'
p2987
asbag57
(g78
g59
NtRp2988
(dp2989
g62
(dp2990
g89
g90
ssg71
g2979
sg64
(lp2991
S':'
asbag57
(g78
g59
NtRp2992
(dp2993
g62
(dp2994
sg71
g2979
sg64
(lp2995
g57
(g58
g59
NtRp2996
(dp2997
g62
(dp2998
g70
I3
ssg71
g2992
sg64
(lp2999
g1415
asbasbasbag57
(g73
g59
NtRp3000
(dp3001
g62
(dp3002
sg71
g2618
sg64
(lp3003
g57
(g78
g59
NtRp3004
(dp3005
g62
(dp3006
g82
g83
ssg71
g3000
sg64
(lp3007
S'REQUEST_METHOD'
p3008
asbag57
(g78
g59
NtRp3009
(dp3010
g62
(dp3011
g89
g90
ssg71
g3000
sg64
(lp3012
S':'
asbag57
(g78
g59
NtRp3013
(dp3014
g62
(dp3015
sg71
g3000
sg64
(lp3016
g57
(g58
g59
NtRp3017
(dp3018
g62
(dp3019
g70
I3
ssg71
g3013
sg64
(lp3020
g1437
asbasbasbag57
(g73
g59
NtRp3021
(dp3022
g62
(dp3023
sg71
g2618
sg64
(lp3024
g57
(g78
g59
NtRp3025
(dp3026
g62
(dp3027
g82
g83
ssg71
g3021
sg64
(lp3028
S'SCRIPT_NAME'
p3029
asbag57
(g78
g59
NtRp3030
(dp3031
g62
(dp3032
g89
g90
ssg71
g3021
sg64
(lp3033
S':'
asbag57
(g78
g59
NtRp3034
(dp3035
g62
(dp3036
sg71
g3021
sg64
(lp3037
g57
(g58
g59
NtRp3038
(dp3039
g62
(dp3040
g70
I3
ssg71
g3034
sg64
(lp3041
S''
asbasbasbag57
(g73
g59
NtRp3042
(dp3043
g62
(dp3044
sg71
g2618
sg64
(lp3045
g57
(g78
g59
NtRp3046
(dp3047
g62
(dp3048
g82
g83
ssg71
g3042
sg64
(lp3049
S'SERVER_NAME'
p3050
asbag57
(g78
g59
NtRp3051
(dp3052
g62
(dp3053
g89
g90
ssg71
g3042
sg64
(lp3054
S':'
asbag57
(g78
g59
NtRp3055
(dp3056
g62
(dp3057
sg71
g3042
sg64
(lp3058
g57
(g58
g59
NtRp3059
(dp3060
g62
(dp3061
g70
I3
ssg71
g3055
sg64
(lp3062
g1480
asbasbasbag57
(g73
g59
NtRp3063
(dp3064
g62
(dp3065
sg71
g2618
sg64
(lp3066
g57
(g78
g59
NtRp3067
(dp3068
g62
(dp3069
g82
g83
ssg71
g3063
sg64
(lp3070
S'SERVER_PORT'
p3071
asbag57
(g78
g59
NtRp3072
(dp3073
g62
(dp3074
g89
g90
ssg71
g3063
sg64
(lp3075
S':'
asbag57
(g78
g59
NtRp3076
(dp3077
g62
(dp3078
sg71
g3063
sg64
(lp3079
g57
(g58
g59
NtRp3080
(dp3081
g62
(dp3082
g70
I3
ssg71
g3076
sg64
(lp3083
g1502
asbasbasbag57
(g73
g59
NtRp3084
(dp3085
g62
(dp3086
sg71
g2618
sg64
(lp3087
g57
(g78
g59
NtRp3088
(dp3089
g62
(dp3090
g82
g83
ssg71
g3084
sg64
(lp3091
S'SERVER_PROTOCOL'
p3092
asbag57
(g78
g59
NtRp3093
(dp3094
g62
(dp3095
g89
g90
ssg71
g3084
sg64
(lp3096
S':'
asbag57
(g78
g59
NtRp3097
(dp3098
g62
(dp3099
sg71
g3084
sg64
(lp3100
g57
(g58
g59
NtRp3101
(dp3102
g62
(dp3103
g70
I3
ssg71
g3097
sg64
(lp3104
g1524
asbasbasbag57
(g73
g59
NtRp3105
(dp3106
g62
(dp3107
sg71
g2618
sg64
(lp3108
g57
(g78
g59
NtRp3109
(dp3110
g62
(dp3111
g82
g83
ssg71
g3105
sg64
(lp3112
S'SERVER_SOFTWARE'
p3113
asbag57
(g78
g59
NtRp3114
(dp3115
g62
(dp3116
g89
g90
ssg71
g3105
sg64
(lp3117
S':'
asbag57
(g78
g59
NtRp3118
(dp3119
g62
(dp3120
sg71
g3105
sg64
(lp3121
g57
(g58
g59
NtRp3122
(dp3123
g62
(dp3124
g70
I3
ssg71
g3118
sg64
(lp3125
g1546
asbasbasbag57
(g73
g59
NtRp3126
(dp3127
g62
(dp3128
sg71
g2618
sg64
(lp3129
g57
(g78
g59
NtRp3130
(dp3131
g62
(dp3132
g82
g83
ssg71
g3126
sg64
(lp3133
S'wsgi.errors'
p3134
asbag57
(g78
g59
NtRp3135
(dp3136
g62
(dp3137
g89
g90
ssg71
g3126
sg64
(lp3138
S':'
asbag57
(g78
g59
NtRp3139
(dp3140
g62
(dp3141
sg71
g3126
sg64
(lp3142
g57
(g58
g59
NtRp3143
(dp3144
g62
(dp3145
g70
I3
ssg71
g3139
sg64
(lp3146
S"<open file '<stderr>', mode 'w' at 0x7f622d3a1270>"
p3147
asbasbasbag57
(g73
g59
NtRp3148
(dp3149
g62
(dp3150
sg71
g2618
sg64
(lp3151
g57
(g78
g59
NtRp3152
(dp3153
g62
(dp3154
g82
g83
ssg71
g3148
sg64
(lp3155
S'wsgi.file_wrapper'
p3156
asbag57
(g78
g59
NtRp3157
(dp3158
g62
(dp3159
g89
g90
ssg71
g3148
sg64
(lp3160
S':'
asbag57
(g78
g59
NtRp3161
(dp3162
g62
(dp3163
sg71
g3148
sg64
(lp3164
g57
(g58
g59
NtRp3165
(dp3166
g62
(dp3167
g70
I3
ssg71
g3161
sg64
(lp3168
S'<class wsgiref.util.FileWrapper at 0x2164390>'
p3169
asbasbasbag57
(g73
g59
NtRp3170
(dp3171
g62
(dp3172
sg71
g2618
sg64
(lp3173
g57
(g78
g59
NtRp3174
(dp3175
g62
(dp3176
g82
g83
ssg71
g3170
sg64
(lp3177
S'wsgi.input'
p3178
asbag57
(g78
g59
NtRp3179
(dp3180
g62
(dp3181
g89
g90
ssg71
g3170
sg64
(lp3182
S':'
asbag57
(g78
g59
NtRp3183
(dp3184
g62
(dp3185
sg71
g3170
sg64
(lp3186
g57
(g58
g59
NtRp3187
(dp3188
g62
(dp3189
g70
I3
ssg71
g3183
sg64
(lp3190
S"<open file '<fdopen>', mode 'w+b' at 0x7f61d40bc1e0>"
p3191
asbasbasbag57
(g73
g59
NtRp3192
(dp3193
g62
(dp3194
sg71
g2618
sg64
(lp3195
g57
(g78
g59
NtRp3196
(dp3197
g62
(dp3198
g82
g83
ssg71
g3192
sg64
(lp3199
S'wsgi.multiprocess'
p3200
asbag57
(g78
g59
NtRp3201
(dp3202
g62
(dp3203
g89
g90
ssg71
g3192
sg64
(lp3204
S':'
asbag57
(g78
g59
NtRp3205
(dp3206
g62
(dp3207
sg71
g3192
sg64
(lp3208
g57
(g58
g59
NtRp3209
(dp3210
g62
(dp3211
g70
I3
ssg71
g3205
sg64
(lp3212
g100
asbasbasbag57
(g73
g59
NtRp3213
(dp3214
g62
(dp3215
sg71
g2618
sg64
(lp3216
g57
(g78
g59
NtRp3217
(dp3218
g62
(dp3219
g82
g83
ssg71
g3213
sg64
(lp3220
S'wsgi.multithread'
p3221
asbag57
(g78
g59
NtRp3222
(dp3223
g62
(dp3224
g89
g90
ssg71
g3213
sg64
(lp3225
S':'
asbag57
(g78
g59
NtRp3226
(dp3227
g62
(dp3228
sg71
g3213
sg64
(lp3229
g57
(g58
g59
NtRp3230
(dp3231
g62
(dp3232
g70
I3
ssg71
g3226
sg64
(lp3233
g1786
asbasbasbag57
(g73
g59
NtRp3234
(dp3235
g62
(dp3236
sg71
g2618
sg64
(lp3237
g57
(g78
g59
NtRp3238
(dp3239
g62
(dp3240
g82
g83
ssg71
g3234
sg64
(lp3241
S'wsgi.run_once'
p3242
asbag57
(g78
g59
NtRp3243
(dp3244
g62
(dp3245
g89
g90
ssg71
g3234
sg64
(lp3246
S':'
asbag57
(g78
g59
NtRp3247
(dp3248
g62
(dp3249
sg71
g3234
sg64
(lp3250
g57
(g58
g59
NtRp3251
(dp3252
g62
(dp3253
g70
I3
ssg71
g3247
sg64
(lp3254
g100
asbasbasbag57
(g73
g59
NtRp3255
(dp3256
g62
(dp3257
sg71
g2618
sg64
(lp3258
g57
(g78
g59
NtRp3259
(dp3260
g62
(dp3261
g82
g83
ssg71
g3255
sg64
(lp3262
S'wsgi.url_scheme'
p3263
asbag57
(g78
g59
NtRp3264
(dp3265
g62
(dp3266
g89
g90
ssg71
g3255
sg64
(lp3267
S':'
asbag57
(g78
g59
NtRp3268
(dp3269
g62
(dp3270
sg71
g3255
sg64
(lp3271
g57
(g58
g59
NtRp3272
(dp3273
g62
(dp3274
g70
I3
ssg71
g3268
sg64
(lp3275
g1829
asbasbasbag57
(g73
g59
NtRp3276
(dp3277
g62
(dp3278
sg71
g2618
sg64
(lp3279
g57
(g78
g59
NtRp3280
(dp3281
g62
(dp3282
g82
g83
ssg71
g3276
sg64
(lp3283
S'wsgi.version'
p3284
asbag57
(g78
g59
NtRp3285
(dp3286
g62
(dp3287
g89
g90
ssg71
g3276
sg64
(lp3288
S':'
asbag57
(g78
g59
NtRp3289
(dp3290
g62
(dp3291
sg71
g3276
sg64
(lp3292
g57
(g58
g59
NtRp3293
(dp3294
g62
(dp3295
g70
I3
ssg71
g3289
sg64
(lp3296
S'1'
asbasbasbasbasbasbasbasbasbasbasbasbasbsS'frames'
p3297
(lp3298
(dp3299
S'file'
p3300
S'/usr/lib/pymodules/python2.7/gluon/restricted.py'
p3301
sS'dump'
p3302
(dp3303
S'environment'
p3304
S"{'A': <class 'gluon.html.A'>, 'Auth': <class 'gluon.tools.Auth'>, 'B': <class 'gluon.html.B'>, 'BEAUTIFY': <class 'gluon.html.BEAUTIFY'>, 'BODY': <class 'gluon.html.BODY'>, 'BR': <class 'gluon.html.BR'>, 'BUTTON': <class 'gluon.html.BUTTON'>, 'CAT': <class 'gluon.html.CAT'>, 'CENTER': <class 'gluon.html.CENTER'>, 'CLEANUP': <class 'gluon.validators.CLEANUP'>, ...}"
p3305
sS'ccode'
p3306
S'<code object <module> at 0x7f61d818ccb0, file "/...ns/Gordian_Knot/controllers/default.py", line 11>'
p3307
ssS'lnum'
p3308
I204
sS'lines'
p3309
(dp3310
I199
S'    try:'
p3311
sI200
S'        if type(code) == types.CodeType:'
p3312
sI201
S'            ccode = code'
p3313
sI202
S'        else:'
p3314
sI203
S'            ccode = compile2(code,layer)'
p3315
sI204
S'        exec ccode in environment'
p3316
sI205
S'    except HTTP:'
p3317
sI206
S'        raise'
p3318
sI207
S'    except RestrictedError:'
p3319
sI208
S'        # do not encapsulate (obfuscate) the original RestrictedError'
p3320
ssS'call'
p3321
S"(code='# -*- coding: utf-8 -*-\\n# this file is released ...d())\\n\\n\\nresponse._vars=response._caller(checkans)\\n', environment={'A': <class 'gluon.html.A'>, 'Auth': <class 'gluon.tools.Auth'>, 'B': <class 'gluon.html.B'>, 'BEAUTIFY': <class 'gluon.html.BEAUTIFY'>, 'BODY': <class 'gluon.html.BODY'>, 'BR': <class 'gluon.html.BR'>, 'BUTTON': <class 'gluon.html.BUTTON'>, 'CAT': <class 'gluon.html.CAT'>, 'CENTER': <class 'gluon.html.CENTER'>, 'CLEANUP': <class 'gluon.validators.CLEANUP'>, ...}, layer='/home/ds-iiit/web2py/applications/Gordian_Knot/controllers/default.py')"
p3322
sS'func'
p3323
S'restricted'
p3324
sa(dp3325
g3300
S'/home/ds-iiit/web2py/applications/Gordian_Knot/controllers/default.py'
p3326
sg3302
(dp3327
sg3308
I172
sg3309
(dp3328
I161
S'    http://..../[app]/default/data/delete/[table]/[id]'
p3329
sI162
S'    http://..../[app]/default/data/select/[table]'
p3330
sI163
S'    http://..../[app]/default/data/search/[table]'
p3331
sI164
S'    but URLs must be signed, i.e. linked with'
p3332
sI165
S"      A('table',_href=URL('data/tables',user_signature=True))"
p3333
sI166
S'    or with the signed load operator'
p3334
sI167
S"      LOAD('default','data.load',args='tables',ajax=True,user_signature=True)"
p3335
sI168
S'    """'
p3336
sI169
S'    return dict(form=crud())'
p3337
sI170
S''
ssg3321
S'()'
p3338
sg3323
S'<module>'
p3339
sa(dp3340
g3300
S'/usr/lib/pymodules/python2.7/gluon/globals.py'
p3341
sg3302
(dp3342
S'self'
p3343
S'undefined'
p3344
sS'f'
S'<function checkans>'
p3345
ssg3308
I172
sg3309
(dp3346
I167
S'        self.meta = Storage()      # used by web2py_ajax.html'
p3347
sI168
S'        self.menu = []             # used by the default view layout'
p3348
sI169
S'        self.files = []            # used by web2py_ajax.html'
p3349
sI170
S'        self.generic_patterns = [] # patterns to allow generic views'
p3350
sI171
S'        self._vars = None'
p3351
sI172
S'        self._caller = lambda f: f()'
p3352
sI173
S'        self._view_environment = None'
p3353
sI174
S'        self._custom_commit = None'
p3354
sI175
S'        self._custom_rollback = None'
p3355
sI176
S''
ssg3321
S'(f=<function checkans>)'
p3356
sg3323
S'<lambda>'
p3357
sa(dp3358
g3300
S'/usr/lib/pymodules/python2.7/gluon/tools.py'
p3359
sg3302
(dp3360
S'action'
p3361
S'<function checkans>'
p3362
sS'a'
S'()'
p3363
sS'b'
g45
ssg3308
I2533
sg3309
(dp3364
I2528
S'                # otherwise case 3 would be ok.'
p3365
sI2529
S'                if not (callable(condition) and condition() == True) and not condition == True:'
p3366
sI2530
S'                    current.session.flash = self.messages.access_denied'
p3367
sI2531
S'                    return call_or_redirect('
p3368
sI2532
S'                        self.settings.on_failed_authorization)'
p3369
sI2533
S'                return action(*a, **b)'
p3370
sI2534
S'            f.__doc__ = action.__doc__'
p3371
sI2535
S'            f.__name__ = action.__name__'
p3372
sI2536
S'            f.__dict__.update(action.__dict__)'
p3373
sI2537
S'            return f'
p3374
ssg3321
S'(*a=(), **b={})'
p3375
sg3323
S'f'
sa(dp3376
g3300
S'/home/ds-iiit/web2py/applications/Gordian_Knot/controllers/default.py'
p3377
sg3302
(dp3378
S'y'
S"<Row {'auth_event': <gluon.dal.Set object at 0x7..._record': <function <lambda> at 0x7f61f4642aa0>}>"
p3379
sS'ans'
p3380
S'24'
p3381
ssg3308
I94
sg3309
(dp3382
I96
S'\t\tif len(y) >= 2 and len(db((db.Level.User == auth.user_id) & (db.Level.Level == 1)).select()) == 0:'
p3383
sI97
S'\t\t\tsession.flash = "Congratulations, Level 1 unlocked!"'
p3384
sI98
S'\t\t\tdb.Level.insert(User=auth.user_id,Level=1)'
p3385
sI89
S'\t#\tresponse.flash = "I think you can do it!"'
p3386
sI90
S'\t#\treturn dict(z=z,done=False)'
p3387
sI91
S'\telse:'
p3388
sI92
S'\t\tdb.Done.insert(User=auth.user.id,Question=qno)'
p3389
sI93
S'\t\ty = db((db.Done.User == auth.user.id) & (db.auth_user.id == db.Done.User)).select(db.auth_user.ALL).first()'
p3390
sI94
S"\t\tans = y['Points']+100"
p3391
sI95
S'\t\tdb(db.auth_user.id == auth.user.id).update(Points=ans)'
p3392
ssg3321
S'()'
p3393
sg3323
S'checkans'
p3394
sasS'pyver'
p3395
S'Python 2.7.3: /usr/bin/python'
p3396
sS'session'
p3397
g57
(g58
g59
NtRp3398
(dp3399
g62
(dp3400
sg64
(lp3401
g57
(g66
g59
NtRp3402
(dp3403
g62
(dp3404
g70
I5
ssg71
Nsg64
(lp3405
g57
(g73
g59
NtRp3406
(dp3407
g62
(dp3408
sg71
g3402
sg64
(lp3409
g57
(g78
g59
NtRp3410
(dp3411
g62
(dp3412
g82
g83
ssg71
g3406
sg64
(lp3413
S'auth'
p3414
asbag57
(g78
g59
NtRp3415
(dp3416
g62
(dp3417
g89
g90
ssg71
g3406
sg64
(lp3418
S':'
asbag57
(g78
g59
NtRp3419
(dp3420
g62
(dp3421
sg71
g3406
sg64
(lp3422
g57
(g58
g59
NtRp3423
(dp3424
g62
(dp3425
g70
I5
ssg71
g3419
sg64
(lp3426
g57
(g66
g59
NtRp3427
(dp3428
g62
(dp3429
g70
I4
ssg71
Nsg64
(lp3430
g57
(g73
g59
NtRp3431
(dp3432
g62
(dp3433
sg71
g3427
sg64
(lp3434
g57
(g78
g59
NtRp3435
(dp3436
g62
(dp3437
g82
g83
ssg71
g3431
sg64
(lp3438
S'expiration'
p3439
asbag57
(g78
g59
NtRp3440
(dp3441
g62
(dp3442
g89
g90
ssg71
g3431
sg64
(lp3443
S':'
asbag57
(g78
g59
NtRp3444
(dp3445
g62
(dp3446
sg71
g3431
sg64
(lp3447
g57
(g58
g59
NtRp3448
(dp3449
g62
(dp3450
g70
I4
ssg71
g3444
sg64
(lp3451
S'2592000'
p3452
asbasbasbag57
(g73
g59
NtRp3453
(dp3454
g62
(dp3455
sg71
g3427
sg64
(lp3456
g57
(g78
g59
NtRp3457
(dp3458
g62
(dp3459
g82
g83
ssg71
g3453
sg64
(lp3460
S'hmac_key'
p3461
asbag57
(g78
g59
NtRp3462
(dp3463
g62
(dp3464
g89
g90
ssg71
g3453
sg64
(lp3465
S':'
asbag57
(g78
g59
NtRp3466
(dp3467
g62
(dp3468
sg71
g3453
sg64
(lp3469
g57
(g58
g59
NtRp3470
(dp3471
g62
(dp3472
g70
I4
ssg71
g3466
sg64
(lp3473
S'9ea27845-d9fd-46fb-9f14-d33c357c9b8c'
p3474
asbasbasbag57
(g73
g59
NtRp3475
(dp3476
g62
(dp3477
sg71
g3427
sg64
(lp3478
g57
(g78
g59
NtRp3479
(dp3480
g62
(dp3481
g82
g83
ssg71
g3475
sg64
(lp3482
S'last_visit'
p3483
asbag57
(g78
g59
NtRp3484
(dp3485
g62
(dp3486
g89
g90
ssg71
g3475
sg64
(lp3487
S':'
asbag57
(g78
g59
NtRp3488
(dp3489
g62
(dp3490
sg71
g3475
sg64
(lp3491
g57
(g58
g59
NtRp3492
(dp3493
g62
(dp3494
g70
I4
ssg71
g3488
sg64
(lp3495
S'datetime.datetime(2013, 9, 26, 3, 0, 38, 81727)'
p3496
asbasbasbag57
(g73
g59
NtRp3497
(dp3498
g62
(dp3499
sg71
g3427
sg64
(lp3500
g57
(g78
g59
NtRp3501
(dp3502
g62
(dp3503
g82
g83
ssg71
g3497
sg64
(lp3504
S'remember'
p3505
asbag57
(g78
g59
NtRp3506
(dp3507
g62
(dp3508
g89
g90
ssg71
g3497
sg64
(lp3509
S':'
asbag57
(g78
g59
NtRp3510
(dp3511
g62
(dp3512
sg71
g3497
sg64
(lp3513
g57
(g58
g59
NtRp3514
(dp3515
g62
(dp3516
g70
I4
ssg71
g3510
sg64
(lp3517
g100
asbasbasbag57
(g73
g59
NtRp3518
(dp3519
g62
(dp3520
sg71
g3427
sg64
(lp3521
g57
(g78
g59
NtRp3522
(dp3523
g62
(dp3524
g82
g83
ssg71
g3518
sg64
(lp3525
S'user'
p3526
asbag57
(g78
g59
NtRp3527
(dp3528
g62
(dp3529
g89
g90
ssg71
g3518
sg64
(lp3530
S':'
asbag57
(g78
g59
NtRp3531
(dp3532
g62
(dp3533
sg71
g3518
sg64
(lp3534
g57
(g58
g59
NtRp3535
(dp3536
g62
(dp3537
g70
I4
ssg71
g3531
sg64
(lp3538
g57
(g66
g59
NtRp3539
(dp3540
g62
(dp3541
g70
I3
ssg71
Nsg64
(lp3542
g57
(g73
g59
NtRp3543
(dp3544
g62
(dp3545
sg71
g3539
sg64
(lp3546
g57
(g78
g59
NtRp3547
(dp3548
g62
(dp3549
g82
g83
ssg71
g3543
sg64
(lp3550
S'Points'
p3551
asbag57
(g78
g59
NtRp3552
(dp3553
g62
(dp3554
g89
g90
ssg71
g3543
sg64
(lp3555
S':'
asbag57
(g78
g59
NtRp3556
(dp3557
g62
(dp3558
sg71
g3543
sg64
(lp3559
g57
(g58
g59
NtRp3560
(dp3561
g62
(dp3562
g70
I3
ssg71
g3556
sg64
(lp3563
S'100'
p3564
asbasbasbag57
(g73
g59
NtRp3565
(dp3566
g62
(dp3567
sg71
g3539
sg64
(lp3568
g57
(g78
g59
NtRp3569
(dp3570
g62
(dp3571
g82
g83
ssg71
g3565
sg64
(lp3572
S'RollNo'
p3573
asbag57
(g78
g59
NtRp3574
(dp3575
g62
(dp3576
g89
g90
ssg71
g3565
sg64
(lp3577
S':'
asbag57
(g78
g59
NtRp3578
(dp3579
g62
(dp3580
sg71
g3565
sg64
(lp3581
g57
(g58
g59
NtRp3582
(dp3583
g62
(dp3584
g70
I3
ssg71
g3578
sg64
(lp3585
S'201256053'
p3586
asbasbasbag57
(g73
g59
NtRp3587
(dp3588
g62
(dp3589
sg71
g3539
sg64
(lp3590
g57
(g78
g59
NtRp3591
(dp3592
g62
(dp3593
g82
g83
ssg71
g3587
sg64
(lp3594
S'email'
p3595
asbag57
(g78
g59
NtRp3596
(dp3597
g62
(dp3598
g89
g90
ssg71
g3587
sg64
(lp3599
S':'
asbag57
(g78
g59
NtRp3600
(dp3601
g62
(dp3602
sg71
g3587
sg64
(lp3603
g57
(g58
g59
NtRp3604
(dp3605
g62
(dp3606
g70
I3
ssg71
g3600
sg64
(lp3607
S'devansh.shah@students.iiit.ac.in'
p3608
asbasbasbag57
(g73
g59
NtRp3609
(dp3610
g62
(dp3611
sg71
g3539
sg64
(lp3612
g57
(g78
g59
NtRp3613
(dp3614
g62
(dp3615
g82
g83
ssg71
g3609
sg64
(lp3616
S'first_name'
p3617
asbag57
(g78
g59
NtRp3618
(dp3619
g62
(dp3620
g89
g90
ssg71
g3609
sg64
(lp3621
S':'
asbag57
(g78
g59
NtRp3622
(dp3623
g62
(dp3624
sg71
g3609
sg64
(lp3625
g57
(g58
g59
NtRp3626
(dp3627
g62
(dp3628
g70
I3
ssg71
g3622
sg64
(lp3629
S'Devansh'
p3630
asbasbasbag57
(g73
g59
NtRp3631
(dp3632
g62
(dp3633
sg71
g3539
sg64
(lp3634
g57
(g78
g59
NtRp3635
(dp3636
g62
(dp3637
g82
g83
ssg71
g3631
sg64
(lp3638
S'id'
p3639
asbag57
(g78
g59
NtRp3640
(dp3641
g62
(dp3642
g89
g90
ssg71
g3631
sg64
(lp3643
S':'
asbag57
(g78
g59
NtRp3644
(dp3645
g62
(dp3646
sg71
g3631
sg64
(lp3647
g57
(g58
g59
NtRp3648
(dp3649
g62
(dp3650
g70
I3
ssg71
g3644
sg64
(lp3651
S'1'
asbasbasbag57
(g73
g59
NtRp3652
(dp3653
g62
(dp3654
sg71
g3539
sg64
(lp3655
g57
(g78
g59
NtRp3656
(dp3657
g62
(dp3658
g82
g83
ssg71
g3652
sg64
(lp3659
S'last_name'
p3660
asbag57
(g78
g59
NtRp3661
(dp3662
g62
(dp3663
g89
g90
ssg71
g3652
sg64
(lp3664
S':'
asbag57
(g78
g59
NtRp3665
(dp3666
g62
(dp3667
sg71
g3652
sg64
(lp3668
g57
(g58
g59
NtRp3669
(dp3670
g62
(dp3671
g70
I3
ssg71
g3665
sg64
(lp3672
S'Shah'
p3673
asbasbasbag57
(g73
g59
NtRp3674
(dp3675
g62
(dp3676
sg71
g3539
sg64
(lp3677
g57
(g78
g59
NtRp3678
(dp3679
g62
(dp3680
g82
g83
ssg71
g3674
sg64
(lp3681
S'password'
p3682
asbag57
(g78
g59
NtRp3683
(dp3684
g62
(dp3685
g89
g90
ssg71
g3674
sg64
(lp3686
S':'
asbag57
(g78
g59
NtRp3687
(dp3688
g62
(dp3689
sg71
g3674
sg64
(lp3690
g57
(g58
g59
NtRp3691
(dp3692
g62
(dp3693
g70
I3
ssg71
g3687
sg64
(lp3694
S'4fa78620b77f92c7faf768350dccbc8d'
p3695
asbasbasbag57
(g73
g59
NtRp3696
(dp3697
g62
(dp3698
sg71
g3539
sg64
(lp3699
g57
(g78
g59
NtRp3700
(dp3701
g62
(dp3702
g82
g83
ssg71
g3696
sg64
(lp3703
S'registration_id'
p3704
asbag57
(g78
g59
NtRp3705
(dp3706
g62
(dp3707
g89
g90
ssg71
g3696
sg64
(lp3708
S':'
asbag57
(g78
g59
NtRp3709
(dp3710
g62
(dp3711
sg71
g3696
sg64
(lp3712
g57
(g58
g59
NtRp3713
(dp3714
g62
(dp3715
g70
I3
ssg71
g3709
sg64
(lp3716
S''
asbasbasbag57
(g73
g59
NtRp3717
(dp3718
g62
(dp3719
sg71
g3539
sg64
(lp3720
g57
(g78
g59
NtRp3721
(dp3722
g62
(dp3723
g82
g83
ssg71
g3717
sg64
(lp3724
S'registration_key'
p3725
asbag57
(g78
g59
NtRp3726
(dp3727
g62
(dp3728
g89
g90
ssg71
g3717
sg64
(lp3729
S':'
asbag57
(g78
g59
NtRp3730
(dp3731
g62
(dp3732
sg71
g3717
sg64
(lp3733
g57
(g58
g59
NtRp3734
(dp3735
g62
(dp3736
g70
I3
ssg71
g3730
sg64
(lp3737
S''
asbasbasbag57
(g73
g59
NtRp3738
(dp3739
g62
(dp3740
sg71
g3539
sg64
(lp3741
g57
(g78
g59
NtRp3742
(dp3743
g62
(dp3744
g82
g83
ssg71
g3738
sg64
(lp3745
S'reset_password_key'
p3746
asbag57
(g78
g59
NtRp3747
(dp3748
g62
(dp3749
g89
g90
ssg71
g3738
sg64
(lp3750
S':'
asbag57
(g78
g59
NtRp3751
(dp3752
g62
(dp3753
sg71
g3738
sg64
(lp3754
g57
(g58
g59
NtRp3755
(dp3756
g62
(dp3757
g70
I3
ssg71
g3751
sg64
(lp3758
S''
asbasbasbasbasbasbasbasbasbasbasbasbasbsS'etype'
p3759
S"<type 'exceptions.TypeError'>"
p3760
sS'date'
p3761
S'Thu Sep 26 03:59:22 2013'
p3762
sS'response'
p3763
g57
(g58
g59
NtRp3764
(dp3765
g62
(dp3766
sg64
(lp3767
g57
(g66
g59
NtRp3768
(dp3769
g62
(dp3770
g70
I5
ssg71
Nsg64
(lp3771
g57
(g73
g59
NtRp3772
(dp3773
g62
(dp3774
sg71
g3768
sg64
(lp3775
g57
(g78
g59
NtRp3776
(dp3777
g62
(dp3778
g82
g83
ssg71
g3772
sg64
(lp3779
g155
asbag57
(g78
g59
NtRp3780
(dp3781
g62
(dp3782
g89
g90
ssg71
g3772
sg64
(lp3783
S':'
asbag57
(g78
g59
NtRp3784
(dp3785
g62
(dp3786
sg71
g3772
sg64
(lp3787
g57
(g58
g59
NtRp3788
(dp3789
g62
(dp3790
g70
I5
ssg71
g3784
sg64
(lp3791
S'<cStringIO.StringO object at 0x7f61d425df48>'
p3792
asbasbasbag57
(g73
g59
NtRp3793
(dp3794
g62
(dp3795
sg71
g3768
sg64
(lp3796
g57
(g78
g59
NtRp3797
(dp3798
g62
(dp3799
g82
g83
ssg71
g3793
sg64
(lp3800
g221
asbag57
(g78
g59
NtRp3801
(dp3802
g62
(dp3803
g89
g90
ssg71
g3793
sg64
(lp3804
S':'
asbag57
(g78
g59
NtRp3805
(dp3806
g62
(dp3807
sg71
g3793
sg64
(lp3808
g57
(g58
g59
NtRp3809
(dp3810
g62
(dp3811
g70
I5
ssg71
g3805
sg64
(lp3812
g57
(g66
g59
NtRp3813
(dp3814
g62
(dp3815
g70
I4
ssg71
Nsg64
(lp3816
g57
(g73
g59
NtRp3817
(dp3818
g62
(dp3819
sg71
g3813
sg64
(lp3820
g57
(g78
g59
NtRp3821
(dp3822
g62
(dp3823
g82
g83
ssg71
g3817
sg64
(lp3824
S'session_id_gordian_knot'
p3825
asbag57
(g78
g59
NtRp3826
(dp3827
g62
(dp3828
g89
g90
ssg71
g3817
sg64
(lp3829
S':'
asbag57
(g78
g59
NtRp3830
(dp3831
g62
(dp3832
sg71
g3817
sg64
(lp3833
g57
(g58
g59
NtRp3834
(dp3835
g62
(dp3836
g70
I4
ssg71
g3830
sg64
(lp3837
g57
(g66
g59
NtRp3838
(dp3839
g62
(dp3840
g70
I3
ssg71
Nsg64
(lp3841
g57
(g73
g59
NtRp3842
(dp3843
g62
(dp3844
sg71
g3838
sg64
(lp3845
g57
(g78
g59
NtRp3846
(dp3847
g62
(dp3848
g82
g83
ssg71
g3842
sg64
(lp3849
g271
asbag57
(g78
g59
NtRp3850
(dp3851
g62
(dp3852
g89
g90
ssg71
g3842
sg64
(lp3853
S':'
asbag57
(g78
g59
NtRp3854
(dp3855
g62
(dp3856
sg71
g3842
sg64
(lp3857
g57
(g58
g59
NtRp3858
(dp3859
g62
(dp3860
g70
I3
ssg71
g3854
sg64
(lp3861
S''
asbasbasbag57
(g73
g59
NtRp3862
(dp3863
g62
(dp3864
sg71
g3838
sg64
(lp3865
g57
(g78
g59
NtRp3866
(dp3867
g62
(dp3868
g82
g83
ssg71
g3862
sg64
(lp3869
g292
asbag57
(g78
g59
NtRp3870
(dp3871
g62
(dp3872
g89
g90
ssg71
g3862
sg64
(lp3873
S':'
asbag57
(g78
g59
NtRp3874
(dp3875
g62
(dp3876
sg71
g3862
sg64
(lp3877
g57
(g58
g59
NtRp3878
(dp3879
g62
(dp3880
g70
I3
ssg71
g3874
sg64
(lp3881
S''
asbasbasbag57
(g73
g59
NtRp3882
(dp3883
g62
(dp3884
sg71
g3838
sg64
(lp3885
g57
(g78
g59
NtRp3886
(dp3887
g62
(dp3888
g82
g83
ssg71
g3882
sg64
(lp3889
g313
asbag57
(g78
g59
NtRp3890
(dp3891
g62
(dp3892
g89
g90
ssg71
g3882
sg64
(lp3893
S':'
asbag57
(g78
g59
NtRp3894
(dp3895
g62
(dp3896
sg71
g3882
sg64
(lp3897
g57
(g58
g59
NtRp3898
(dp3899
g62
(dp3900
g70
I3
ssg71
g3894
sg64
(lp3901
S''
asbasbasbag57
(g73
g59
NtRp3902
(dp3903
g62
(dp3904
sg71
g3838
sg64
(lp3905
g57
(g78
g59
NtRp3906
(dp3907
g62
(dp3908
g82
g83
ssg71
g3902
sg64
(lp3909
g334
asbag57
(g78
g59
NtRp3910
(dp3911
g62
(dp3912
g89
g90
ssg71
g3902
sg64
(lp3913
S':'
asbag57
(g78
g59
NtRp3914
(dp3915
g62
(dp3916
sg71
g3902
sg64
(lp3917
g57
(g58
g59
NtRp3918
(dp3919
g62
(dp3920
g70
I3
ssg71
g3914
sg64
(lp3921
S''
asbasbasbag57
(g73
g59
NtRp3922
(dp3923
g62
(dp3924
sg71
g3838
sg64
(lp3925
g57
(g78
g59
NtRp3926
(dp3927
g62
(dp3928
g82
g83
ssg71
g3922
sg64
(lp3929
g355
asbag57
(g78
g59
NtRp3930
(dp3931
g62
(dp3932
g89
g90
ssg71
g3922
sg64
(lp3933
S':'
asbag57
(g78
g59
NtRp3934
(dp3935
g62
(dp3936
sg71
g3922
sg64
(lp3937
g57
(g58
g59
NtRp3938
(dp3939
g62
(dp3940
g70
I3
ssg71
g3934
sg64
(lp3941
S''
asbasbasbag57
(g73
g59
NtRp3942
(dp3943
g62
(dp3944
sg71
g3838
sg64
(lp3945
g57
(g78
g59
NtRp3946
(dp3947
g62
(dp3948
g82
g83
ssg71
g3942
sg64
(lp3949
g376
asbag57
(g78
g59
NtRp3950
(dp3951
g62
(dp3952
g89
g90
ssg71
g3942
sg64
(lp3953
S':'
asbag57
(g78
g59
NtRp3954
(dp3955
g62
(dp3956
sg71
g3942
sg64
(lp3957
g57
(g58
g59
NtRp3958
(dp3959
g62
(dp3960
g70
I3
ssg71
g3954
sg64
(lp3961
S'/'
asbasbasbag57
(g73
g59
NtRp3962
(dp3963
g62
(dp3964
sg71
g3838
sg64
(lp3965
g57
(g78
g59
NtRp3966
(dp3967
g62
(dp3968
g82
g83
ssg71
g3962
sg64
(lp3969
g397
asbag57
(g78
g59
NtRp3970
(dp3971
g62
(dp3972
g89
g90
ssg71
g3962
sg64
(lp3973
S':'
asbag57
(g78
g59
NtRp3974
(dp3975
g62
(dp3976
sg71
g3962
sg64
(lp3977
g57
(g58
g59
NtRp3978
(dp3979
g62
(dp3980
g70
I3
ssg71
g3974
sg64
(lp3981
S''
asbasbasbag57
(g73
g59
NtRp3982
(dp3983
g62
(dp3984
sg71
g3838
sg64
(lp3985
g57
(g78
g59
NtRp3986
(dp3987
g62
(dp3988
g82
g83
ssg71
g3982
sg64
(lp3989
g418
asbag57
(g78
g59
NtRp3990
(dp3991
g62
(dp3992
g89
g90
ssg71
g3982
sg64
(lp3993
S':'
asbag57
(g78
g59
NtRp3994
(dp3995
g62
(dp3996
sg71
g3982
sg64
(lp3997
g57
(g58
g59
NtRp3998
(dp3999
g62
(dp4000
g70
I3
ssg71
g3994
sg64
(lp4001
S''
asbasbasbasbasbasbasbasbasbasbasbag57
(g73
g59
NtRp4002
(dp4003
g62
(dp4004
sg71
g3768
sg64
(lp4005
g57
(g78
g59
NtRp4006
(dp4007
g62
(dp4008
g82
g83
ssg71
g4002
sg64
(lp4009
S'files'
p4010
asbag57
(g78
g59
NtRp4011
(dp4012
g62
(dp4013
g89
g90
ssg71
g4002
sg64
(lp4014
S':'
asbag57
(g78
g59
NtRp4015
(dp4016
g62
(dp4017
sg71
g4002
sg64
(lp4018
g57
(g58
g59
NtRp4019
(dp4020
g62
(dp4021
g70
I5
ssg71
g4015
sg64
(lp4022
g57
(g66
g59
NtRp4023
(dp4024
g62
(dp4025
g70
I4
ssg71
Nsg64
(lp4026
sbasbasbasbag57
(g73
g59
NtRp4027
(dp4028
g62
(dp4029
sg71
g3768
sg64
(lp4030
g57
(g78
g59
NtRp4031
(dp4032
g62
(dp4033
g82
g83
ssg71
g4027
sg64
(lp4034
S'flash'
p4035
asbag57
(g78
g59
NtRp4036
(dp4037
g62
(dp4038
g89
g90
ssg71
g4027
sg64
(lp4039
S':'
asbag57
(g78
g59
NtRp4040
(dp4041
g62
(dp4042
sg71
g4027
sg64
(lp4043
g57
(g58
g59
NtRp4044
(dp4045
g62
(dp4046
g70
I5
ssg71
g4040
sg64
(lp4047
S''
asbasbasbag57
(g73
g59
NtRp4048
(dp4049
g62
(dp4050
sg71
g3768
sg64
(lp4051
g57
(g78
g59
NtRp4052
(dp4053
g62
(dp4054
g82
g83
ssg71
g4048
sg64
(lp4055
S'generic_patterns'
p4056
asbag57
(g78
g59
NtRp4057
(dp4058
g62
(dp4059
g89
g90
ssg71
g4048
sg64
(lp4060
S':'
asbag57
(g78
g59
NtRp4061
(dp4062
g62
(dp4063
sg71
g4048
sg64
(lp4064
g57
(g58
g59
NtRp4065
(dp4066
g62
(dp4067
g70
I5
ssg71
g4061
sg64
(lp4068
g57
(g66
g59
NtRp4069
(dp4070
g62
(dp4071
g70
I4
ssg71
Nsg64
(lp4072
g57
(g73
g59
NtRp4073
(dp4074
g62
(dp4075
sg71
g4069
sg64
(lp4076
g57
(g78
g59
NtRp4077
(dp4078
g62
(dp4079
sg71
g4073
sg64
(lp4080
g57
(g58
g59
NtRp4081
(dp4082
g62
(dp4083
g70
I4
ssg71
g4077
sg64
(lp4084
S'*'
asbasbasbasbasbasbasbag57
(g73
g59
NtRp4085
(dp4086
g62
(dp4087
sg71
g3768
sg64
(lp4088
g57
(g78
g59
NtRp4089
(dp4090
g62
(dp4091
g82
g83
ssg71
g4085
sg64
(lp4092
S'headers'
p4093
asbag57
(g78
g59
NtRp4094
(dp4095
g62
(dp4096
g89
g90
ssg71
g4085
sg64
(lp4097
S':'
asbag57
(g78
g59
NtRp4098
(dp4099
g62
(dp4100
sg71
g4085
sg64
(lp4101
g57
(g58
g59
NtRp4102
(dp4103
g62
(dp4104
g70
I5
ssg71
g4098
sg64
(lp4105
g57
(g66
g59
NtRp4106
(dp4107
g62
(dp4108
g70
I4
ssg71
Nsg64
(lp4109
g57
(g73
g59
NtRp4110
(dp4111
g62
(dp4112
sg71
g4106
sg64
(lp4113
g57
(g78
g59
NtRp4114
(dp4115
g62
(dp4116
g82
g83
ssg71
g4110
sg64
(lp4117
S'Cache-Control'
p4118
asbag57
(g78
g59
NtRp4119
(dp4120
g62
(dp4121
g89
g90
ssg71
g4110
sg64
(lp4122
S':'
asbag57
(g78
g59
NtRp4123
(dp4124
g62
(dp4125
sg71
g4110
sg64
(lp4126
g57
(g58
g59
NtRp4127
(dp4128
g62
(dp4129
g70
I4
ssg71
g4123
sg64
(lp4130
S'no-store, no-cache, must-revalidate, post-check=0, pre-check=0'
p4131
asbasbasbag57
(g73
g59
NtRp4132
(dp4133
g62
(dp4134
sg71
g4106
sg64
(lp4135
g57
(g78
g59
NtRp4136
(dp4137
g62
(dp4138
g82
g83
ssg71
g4132
sg64
(lp4139
S'Content-Type'
p4140
asbag57
(g78
g59
NtRp4141
(dp4142
g62
(dp4143
g89
g90
ssg71
g4132
sg64
(lp4144
S':'
asbag57
(g78
g59
NtRp4145
(dp4146
g62
(dp4147
sg71
g4132
sg64
(lp4148
g57
(g58
g59
NtRp4149
(dp4150
g62
(dp4151
g70
I4
ssg71
g4145
sg64
(lp4152
S'text/html; charset=utf-8'
p4153
asbasbasbag57
(g73
g59
NtRp4154
(dp4155
g62
(dp4156
sg71
g4106
sg64
(lp4157
g57
(g78
g59
NtRp4158
(dp4159
g62
(dp4160
g82
g83
ssg71
g4154
sg64
(lp4161
S'Expires'
p4162
asbag57
(g78
g59
NtRp4163
(dp4164
g62
(dp4165
g89
g90
ssg71
g4154
sg64
(lp4166
S':'
asbag57
(g78
g59
NtRp4167
(dp4168
g62
(dp4169
sg71
g4154
sg64
(lp4170
g57
(g58
g59
NtRp4171
(dp4172
g62
(dp4173
g70
I4
ssg71
g4167
sg64
(lp4174
S'Wed, 25 Sep 2013 22:29:22 GMT'
p4175
asbasbasbag57
(g73
g59
NtRp4176
(dp4177
g62
(dp4178
sg71
g4106
sg64
(lp4179
g57
(g78
g59
NtRp4180
(dp4181
g62
(dp4182
g82
g83
ssg71
g4176
sg64
(lp4183
S'Pragma'
p4184
asbag57
(g78
g59
NtRp4185
(dp4186
g62
(dp4187
g89
g90
ssg71
g4176
sg64
(lp4188
S':'
asbag57
(g78
g59
NtRp4189
(dp4190
g62
(dp4191
sg71
g4176
sg64
(lp4192
g57
(g58
g59
NtRp4193
(dp4194
g62
(dp4195
g70
I4
ssg71
g4189
sg64
(lp4196
S'no-cache'
p4197
asbasbasbag57
(g73
g59
NtRp4198
(dp4199
g62
(dp4200
sg71
g4106
sg64
(lp4201
g57
(g78
g59
NtRp4202
(dp4203
g62
(dp4204
g82
g83
ssg71
g4198
sg64
(lp4205
S'X-Powered-By'
p4206
asbag57
(g78
g59
NtRp4207
(dp4208
g62
(dp4209
g89
g90
ssg71
g4198
sg64
(lp4210
S':'
asbag57
(g78
g59
NtRp4211
(dp4212
g62
(dp4213
sg71
g4198
sg64
(lp4214
g57
(g58
g59
NtRp4215
(dp4216
g62
(dp4217
g70
I4
ssg71
g4211
sg64
(lp4218
S'web2py'
p4219
asbasbasbasbasbasbasbag57
(g73
g59
NtRp4220
(dp4221
g62
(dp4222
sg71
g3768
sg64
(lp4223
g57
(g78
g59
NtRp4224
(dp4225
g62
(dp4226
g82
g83
ssg71
g4220
sg64
(lp4227
S'menu'
p4228
asbag57
(g78
g59
NtRp4229
(dp4230
g62
(dp4231
g89
g90
ssg71
g4220
sg64
(lp4232
S':'
asbag57
(g78
g59
NtRp4233
(dp4234
g62
(dp4235
sg71
g4220
sg64
(lp4236
g57
(g58
g59
NtRp4237
(dp4238
g62
(dp4239
g70
I5
ssg71
g4233
sg64
(lp4240
g57
(g66
g59
NtRp4241
(dp4242
g62
(dp4243
g70
I4
ssg71
Nsg64
(lp4244
g57
(g73
g59
NtRp4245
(dp4246
g62
(dp4247
sg71
g4241
sg64
(lp4248
g57
(g78
g59
NtRp4249
(dp4250
g62
(dp4251
sg71
g4245
sg64
(lp4252
g57
(g58
g59
NtRp4253
(dp4254
g62
(dp4255
g70
I4
ssg71
g4249
sg64
(lp4256
g57
(g66
g59
NtRp4257
(dp4258
g62
(dp4259
g70
I3
ssg71
Nsg64
(lp4260
g57
(g73
g59
NtRp4261
(dp4262
g62
(dp4263
sg71
g4257
sg64
(lp4264
g57
(g78
g59
NtRp4265
(dp4266
g62
(dp4267
sg71
g4261
sg64
(lp4268
g57
(g58
g59
NtRp4269
(dp4270
g62
(dp4271
g70
I3
ssg71
g4265
sg64
(lp4272
cgluon.languages
lazyT_unpickle
p4273
(S't\x04\x00\x00\x00Home'
tRp4274
asbasbasbag57
(g73
g59
NtRp4275
(dp4276
g62
(dp4277
sg71
g4257
sg64
(lp4278
g57
(g78
g59
NtRp4279
(dp4280
g62
(dp4281
sg71
g4275
sg64
(lp4282
g57
(g58
g59
NtRp4283
(dp4284
g62
(dp4285
g70
I3
ssg71
g4279
sg64
(lp4286
g100
asbasbasbag57
(g73
g59
NtRp4287
(dp4288
g62
(dp4289
sg71
g4257
sg64
(lp4290
g57
(g78
g59
NtRp4291
(dp4292
g62
(dp4293
sg71
g4287
sg64
(lp4294
g57
(g58
g59
NtRp4295
(dp4296
g62
(dp4297
g70
I3
ssg71
g4291
sg64
(lp4298
S'/Gordian_Knot/default/index'
p4299
asbasbasbag57
(g73
g59
NtRp4300
(dp4301
g62
(dp4302
sg71
g4257
sg64
(lp4303
g57
(g78
g59
NtRp4304
(dp4305
g62
(dp4306
sg71
g4300
sg64
(lp4307
g57
(g58
g59
NtRp4308
(dp4309
g62
(dp4310
g70
I3
ssg71
g4304
sg64
(lp4311
g57
(g66
g59
NtRp4312
(dp4313
g62
(dp4314
g70
I2
ssg71
Nsg64
(lp4315
sbasbasbasbasbasbasbasbag57
(g73
g59
NtRp4316
(dp4317
g62
(dp4318
sg71
g4241
sg64
(lp4319
g57
(g78
g59
NtRp4320
(dp4321
g62
(dp4322
sg71
g4316
sg64
(lp4323
g57
(g58
g59
NtRp4324
(dp4325
g62
(dp4326
g70
I4
ssg71
g4320
sg64
(lp4327
g57
(g66
g59
NtRp4328
(dp4329
g62
(dp4330
g70
I3
ssg71
Nsg64
(lp4331
g57
(g73
g59
NtRp4332
(dp4333
g62
(dp4334
sg71
g4328
sg64
(lp4335
g57
(g78
g59
NtRp4336
(dp4337
g62
(dp4338
sg71
g4332
sg64
(lp4339
g57
(g58
g59
NtRp4340
(dp4341
g62
(dp4342
g70
I3
ssg71
g4336
sg64
(lp4343
g4273
(S't\x08\x00\x00\x00Register'
tRp4344
asbasbasbag57
(g73
g59
NtRp4345
(dp4346
g62
(dp4347
sg71
g4328
sg64
(lp4348
g57
(g78
g59
NtRp4349
(dp4350
g62
(dp4351
sg71
g4345
sg64
(lp4352
g57
(g58
g59
NtRp4353
(dp4354
g62
(dp4355
g70
I3
ssg71
g4349
sg64
(lp4356
g100
asbasbasbag57
(g73
g59
NtRp4357
(dp4358
g62
(dp4359
sg71
g4328
sg64
(lp4360
g57
(g78
g59
NtRp4361
(dp4362
g62
(dp4363
sg71
g4357
sg64
(lp4364
g57
(g58
g59
NtRp4365
(dp4366
g62
(dp4367
g70
I3
ssg71
g4361
sg64
(lp4368
S'/default/user/register'
p4369
asbasbasbag57
(g73
g59
NtRp4370
(dp4371
g62
(dp4372
sg71
g4328
sg64
(lp4373
g57
(g78
g59
NtRp4374
(dp4375
g62
(dp4376
sg71
g4370
sg64
(lp4377
g57
(g58
g59
NtRp4378
(dp4379
g62
(dp4380
g70
I3
ssg71
g4374
sg64
(lp4381
g57
(g66
g59
NtRp4382
(dp4383
g62
(dp4384
g70
I2
ssg71
Nsg64
(lp4385
sbasbasbasbasbasbasbasbag57
(g73
g59
NtRp4386
(dp4387
g62
(dp4388
sg71
g4241
sg64
(lp4389
g57
(g78
g59
NtRp4390
(dp4391
g62
(dp4392
sg71
g4386
sg64
(lp4393
g57
(g58
g59
NtRp4394
(dp4395
g62
(dp4396
g70
I4
ssg71
g4390
sg64
(lp4397
g57
(g66
g59
NtRp4398
(dp4399
g62
(dp4400
g70
I3
ssg71
Nsg64
(lp4401
g57
(g73
g59
NtRp4402
(dp4403
g62
(dp4404
sg71
g4398
sg64
(lp4405
g57
(g78
g59
NtRp4406
(dp4407
g62
(dp4408
sg71
g4402
sg64
(lp4409
g57
(g58
g59
NtRp4410
(dp4411
g62
(dp4412
g70
I3
ssg71
g4406
sg64
(lp4413
g4273
(S't\x05\x00\x00\x00Login'
tRp4414
asbasbasbag57
(g73
g59
NtRp4415
(dp4416
g62
(dp4417
sg71
g4398
sg64
(lp4418
g57
(g78
g59
NtRp4419
(dp4420
g62
(dp4421
sg71
g4415
sg64
(lp4422
g57
(g58
g59
NtRp4423
(dp4424
g62
(dp4425
g70
I3
ssg71
g4419
sg64
(lp4426
g100
asbasbasbag57
(g73
g59
NtRp4427
(dp4428
g62
(dp4429
sg71
g4398
sg64
(lp4430
g57
(g78
g59
NtRp4431
(dp4432
g62
(dp4433
sg71
g4427
sg64
(lp4434
g57
(g58
g59
NtRp4435
(dp4436
g62
(dp4437
g70
I3
ssg71
g4431
sg64
(lp4438
S'/default/user/login'
p4439
asbasbasbag57
(g73
g59
NtRp4440
(dp4441
g62
(dp4442
sg71
g4398
sg64
(lp4443
g57
(g78
g59
NtRp4444
(dp4445
g62
(dp4446
sg71
g4440
sg64
(lp4447
g57
(g58
g59
NtRp4448
(dp4449
g62
(dp4450
g70
I3
ssg71
g4444
sg64
(lp4451
g57
(g66
g59
NtRp4452
(dp4453
g62
(dp4454
g70
I2
ssg71
Nsg64
(lp4455
sbasbasbasbasbasbasbasbag57
(g73
g59
NtRp4456
(dp4457
g62
(dp4458
sg71
g4241
sg64
(lp4459
g57
(g78
g59
NtRp4460
(dp4461
g62
(dp4462
sg71
g4456
sg64
(lp4463
g57
(g58
g59
NtRp4464
(dp4465
g62
(dp4466
g70
I4
ssg71
g4460
sg64
(lp4467
g57
(g66
g59
NtRp4468
(dp4469
g62
(dp4470
g70
I3
ssg71
Nsg64
(lp4471
g57
(g73
g59
NtRp4472
(dp4473
g62
(dp4474
sg71
g4468
sg64
(lp4475
g57
(g78
g59
NtRp4476
(dp4477
g62
(dp4478
sg71
g4472
sg64
(lp4479
g57
(g58
g59
NtRp4480
(dp4481
g62
(dp4482
g70
I3
ssg71
g4476
sg64
(lp4483
g57
(cgluon.html
SPAN
p4484
g59
NtRp4485
(dp4486
g62
(dp4487
g82
S'color:yellow'
p4488
ssg71
Nsg64
(lp4489
g4219
asbasbasbasbag57
(g73
g59
NtRp4490
(dp4491
g62
(dp4492
sg71
g4468
sg64
(lp4493
g57
(g78
g59
NtRp4494
(dp4495
g62
(dp4496
sg71
g4490
sg64
(lp4497
g57
(g58
g59
NtRp4498
(dp4499
g62
(dp4500
g70
I3
ssg71
g4494
sg64
(lp4501
g100
asbasbasbag57
(g73
g59
NtRp4502
(dp4503
g62
(dp4504
sg71
g4468
sg64
(lp4505
g57
(g78
g59
NtRp4506
(dp4507
g62
(dp4508
sg71
g4502
sg64
(lp4509
g57
(g58
g59
NtRp4510
(dp4511
g62
(dp4512
g70
I3
ssg71
g4506
sg64
(lp4513
S'None'
p4514
asbasbasbag57
(g73
g59
NtRp4515
(dp4516
g62
(dp4517
sg71
g4468
sg64
(lp4518
g57
(g78
g59
NtRp4519
(dp4520
g62
(dp4521
sg71
g4515
sg64
(lp4522
g57
(g58
g59
NtRp4523
(dp4524
g62
(dp4525
g70
I3
ssg71
g4519
sg64
(lp4526
g57
(g66
g59
NtRp4527
(dp4528
g62
(dp4529
g70
I2
ssg71
Nsg64
(lp4530
g57
(g73
g59
NtRp4531
(dp4532
g62
(dp4533
sg71
g4527
sg64
(lp4534
g57
(g78
g59
NtRp4535
(dp4536
g62
(dp4537
sg71
g4531
sg64
(lp4538
g57
(g58
g59
NtRp4539
(dp4540
g62
(dp4541
g70
I2
ssg71
g4535
sg64
(lp4542
g57
(g66
g59
NtRp4543
(dp4544
g62
(dp4545
g70
I1
ssg71
Nsg64
(lp4546
g57
(g73
g59
NtRp4547
(dp4548
g62
(dp4549
sg71
g4543
sg64
(lp4550
g57
(g78
g59
NtRp4551
(dp4552
g62
(dp4553
sg71
g4547
sg64
(lp4554
g57
(g58
g59
NtRp4555
(dp4556
g62
(dp4557
g70
I1
ssg71
g4551
sg64
(lp4558
g4273
(S's\x08\x00\x00\x00My Sites'
tRp4559
asbasbasbag57
(g73
g59
NtRp4560
(dp4561
g62
(dp4562
sg71
g4543
sg64
(lp4563
g57
(g78
g59
NtRp4564
(dp4565
g62
(dp4566
sg71
g4560
sg64
(lp4567
g57
(g58
g59
NtRp4568
(dp4569
g62
(dp4570
g70
I1
ssg71
g4564
sg64
(lp4571
I00
asbasbasbag57
(g73
g59
NtRp4572
(dp4573
g62
(dp4574
sg71
g4543
sg64
(lp4575
g57
(g78
g59
NtRp4576
(dp4577
g62
(dp4578
sg71
g4572
sg64
(lp4579
g57
(g58
g59
NtRp4580
(dp4581
g62
(dp4582
g70
I1
ssg71
g4576
sg64
(lp4583
S'/admin/default/site'
p4584
asbasbasbasbasbasbasbag57
(g73
g59
NtRp4585
(dp4586
g62
(dp4587
sg71
g4527
sg64
(lp4588
g57
(g78
g59
NtRp4589
(dp4590
g62
(dp4591
sg71
g4585
sg64
(lp4592
g57
(g58
g59
NtRp4593
(dp4594
g62
(dp4595
g70
I2
ssg71
g4589
sg64
(lp4596
g57
(g66
g59
NtRp4597
(dp4598
g62
(dp4599
g70
I1
ssg71
Nsg64
(lp4600
g57
(g73
g59
NtRp4601
(dp4602
g62
(dp4603
sg71
g4597
sg64
(lp4604
g57
(g78
g59
NtRp4605
(dp4606
g62
(dp4607
sg71
g4601
sg64
(lp4608
g57
(g58
g59
NtRp4609
(dp4610
g62
(dp4611
g70
I1
ssg71
g4605
sg64
(lp4612
g4273
(S's\x08\x00\x00\x00This App'
tRp4613
asbasbasbag57
(g73
g59
NtRp4614
(dp4615
g62
(dp4616
sg71
g4597
sg64
(lp4617
g57
(g78
g59
NtRp4618
(dp4619
g62
(dp4620
sg71
g4614
sg64
(lp4621
g57
(g58
g59
NtRp4622
(dp4623
g62
(dp4624
g70
I1
ssg71
g4618
sg64
(lp4625
I00
asbasbasbag57
(g73
g59
NtRp4626
(dp4627
g62
(dp4628
sg71
g4597
sg64
(lp4629
g57
(g78
g59
NtRp4630
(dp4631
g62
(dp4632
sg71
g4626
sg64
(lp4633
g57
(g58
g59
NtRp4634
(dp4635
g62
(dp4636
g70
I1
ssg71
g4630
sg64
(lp4637
S'/admin/default/design/Gordian_Knot'
p4638
asbasbasbag57
(g73
g59
NtRp4639
(dp4640
g62
(dp4641
sg71
g4597
sg64
(lp4642
g57
(g78
g59
NtRp4643
(dp4644
g62
(dp4645
sg71
g4639
sg64
(lp4646
g57
(g58
g59
NtRp4647
(dp4648
g62
(dp4649
g70
I1
ssg71
g4643
sg64
(lp4650
(lp4651
(g4273
(S't\n\x00\x00\x00Controller'
tRp4652
I00
S'/admin/default/edit/Gordian_Knot/controllers/default.py'
tp4653
a(g4273
(S't\x04\x00\x00\x00View'
tRp4654
I00
S'/admin/default/edit/Gordian_Knot/views/default/checkans.html'
tp4655
a(g4273
(S't\x06\x00\x00\x00Layout'
tRp4656
I00
S'/admin/default/edit/Gordian_Knot/views/layout.html'
tp4657
a(g4273
(S't\n\x00\x00\x00Stylesheet'
tRp4658
I00
S'/admin/default/edit/Gordian_Knot/static/css/web2py.css'
tp4659
a(g4273
(S's\x08\x00\x00\x00DB Model'
tRp4660
I00
S'/admin/default/edit/Gordian_Knot/models/db.py'
tp4661
a(g4273
(S's\n\x00\x00\x00Menu Model'
tRp4662
I00
S'/admin/default/edit/Gordian_Knot/models/menu.py'
tp4663
a(g4273
(S't\x08\x00\x00\x00Database'
tRp4664
I00
S'/Gordian_Knot/appadmin/index'
tp4665
a(g4273
(S't\x06\x00\x00\x00Errors'
tRp4666
I00
S'/admin/default/errors/Gordian_Knot'
tp4667
a(g4273
(S't\x05\x00\x00\x00About'
tRp4668
I00
S'/admin/default/about/Gordian_Knot'
tp4669
aasbasbasbasbasbasbasbag57
(g73
g59
NtRp4670
(dp4671
g62
(dp4672
sg71
g4527
sg64
(lp4673
g57
(g78
g59
NtRp4674
(dp4675
g62
(dp4676
sg71
g4670
sg64
(lp4677
g57
(g58
g59
NtRp4678
(dp4679
g62
(dp4680
g70
I2
ssg71
g4674
sg64
(lp4681
g57
(g66
g59
NtRp4682
(dp4683
g62
(dp4684
g70
I1
ssg71
Nsg64
(lp4685
g57
(g73
g59
NtRp4686
(dp4687
g62
(dp4688
sg71
g4682
sg64
(lp4689
g57
(g78
g59
NtRp4690
(dp4691
g62
(dp4692
sg71
g4686
sg64
(lp4693
g57
(g58
g59
NtRp4694
(dp4695
g62
(dp4696
g70
I1
ssg71
g4690
sg64
(lp4697
S'web2py.com'
p4698
asbasbasbag57
(g73
g59
NtRp4699
(dp4700
g62
(dp4701
sg71
g4682
sg64
(lp4702
g57
(g78
g59
NtRp4703
(dp4704
g62
(dp4705
sg71
g4699
sg64
(lp4706
g57
(g58
g59
NtRp4707
(dp4708
g62
(dp4709
g70
I1
ssg71
g4703
sg64
(lp4710
I00
asbasbasbag57
(g73
g59
NtRp4711
(dp4712
g62
(dp4713
sg71
g4682
sg64
(lp4714
g57
(g78
g59
NtRp4715
(dp4716
g62
(dp4717
sg71
g4711
sg64
(lp4718
g57
(g58
g59
NtRp4719
(dp4720
g62
(dp4721
g70
I1
ssg71
g4715
sg64
(lp4722
S'http://www.web2py.com'
p4723
asbasbasbag57
(g73
g59
NtRp4724
(dp4725
g62
(dp4726
sg71
g4682
sg64
(lp4727
g57
(g78
g59
NtRp4728
(dp4729
g62
(dp4730
sg71
g4724
sg64
(lp4731
g57
(g58
g59
NtRp4732
(dp4733
g62
(dp4734
g70
I1
ssg71
g4728
sg64
(lp4735
(lp4736
(g4273
(S't\x08\x00\x00\x00Download'
tRp4737
I00
S'http://www.web2py.com/examples/default/download'
p4738
tp4739
a(g4273
(S't\x07\x00\x00\x00Support'
tRp4740
I00
S'http://www.web2py.com/examples/default/support'
p4741
tp4742
a(g4273
(S't\x04\x00\x00\x00Demo'
tRp4743
I00
S'http://web2py.com/demo_admin'
p4744
tp4745
a(g4273
(S's\x0e\x00\x00\x00Quick Examples'
tRp4746
I00
S'http://web2py.com/examples/default/examples'
p4747
tp4748
a(g4273
(S't\x03\x00\x00\x00FAQ'
tRp4749
I00
S'http://web2py.com/AlterEgo'
p4750
tp4751
a(g4273
(S't\x06\x00\x00\x00Videos'
tRp4752
I00
S'http://www.web2py.com/examples/default/videos/'
p4753
tp4754
a(g4273
(S's\x11\x00\x00\x00Free Applications'
tRp4755
I00
S'http://web2py.com/appliances'
p4756
tp4757
a(g4273
(S't\x07\x00\x00\x00Plugins'
tRp4758
I00
S'http://web2py.com/plugins'
p4759
tp4760
a(g4273
(S't\x07\x00\x00\x00Layouts'
tRp4761
I00
S'http://web2py.com/layouts'
p4762
tp4763
a(g4273
(S't\x07\x00\x00\x00Recipes'
tRp4764
I00
S'http://web2pyslices.com/'
p4765
tp4766
a(g4273
(S't\x08\x00\x00\x00Semantic'
tRp4767
I00
S'http://web2py.com/semantic'
p4768
tp4769
aasbasbasbasbasbasbasbag57
(g73
g59
NtRp4770
(dp4771
g62
(dp4772
sg71
g4527
sg64
(lp4773
g57
(g78
g59
NtRp4774
(dp4775
g62
(dp4776
sg71
g4770
sg64
(lp4777
g57
(g58
g59
NtRp4778
(dp4779
g62
(dp4780
g70
I2
ssg71
g4774
sg64
(lp4781
g57
(g66
g59
NtRp4782
(dp4783
g62
(dp4784
g70
I1
ssg71
Nsg64
(lp4785
g57
(g73
g59
NtRp4786
(dp4787
g62
(dp4788
sg71
g4782
sg64
(lp4789
g57
(g78
g59
NtRp4790
(dp4791
g62
(dp4792
sg71
g4786
sg64
(lp4793
g57
(g58
g59
NtRp4794
(dp4795
g62
(dp4796
g70
I1
ssg71
g4790
sg64
(lp4797
g4273
(S't\r\x00\x00\x00Documentation'
tRp4798
asbasbasbag57
(g73
g59
NtRp4799
(dp4800
g62
(dp4801
sg71
g4782
sg64
(lp4802
g57
(g78
g59
NtRp4803
(dp4804
g62
(dp4805
sg71
g4799
sg64
(lp4806
g57
(g58
g59
NtRp4807
(dp4808
g62
(dp4809
g70
I1
ssg71
g4803
sg64
(lp4810
I00
asbasbasbag57
(g73
g59
NtRp4811
(dp4812
g62
(dp4813
sg71
g4782
sg64
(lp4814
g57
(g78
g59
NtRp4815
(dp4816
g62
(dp4817
sg71
g4811
sg64
(lp4818
g57
(g58
g59
NtRp4819
(dp4820
g62
(dp4821
g70
I1
ssg71
g4815
sg64
(lp4822
S'http://www.web2py.com/book'
p4823
asbasbasbag57
(g73
g59
NtRp4824
(dp4825
g62
(dp4826
sg71
g4782
sg64
(lp4827
g57
(g78
g59
NtRp4828
(dp4829
g62
(dp4830
sg71
g4824
sg64
(lp4831
g57
(g58
g59
NtRp4832
(dp4833
g62
(dp4834
g70
I1
ssg71
g4828
sg64
(lp4835
(lp4836
(g4273
(S't\x07\x00\x00\x00Preface'
tRp4837
I00
S'http://www.web2py.com/book/default/chapter/00'
p4838
tp4839
a(g4273
(S't\x0c\x00\x00\x00Introduction'
tRp4840
I00
S'http://www.web2py.com/book/default/chapter/01'
p4841
tp4842
a(g4273
(S't\x06\x00\x00\x00Python'
tRp4843
I00
S'http://www.web2py.com/book/default/chapter/02'
p4844
tp4845
a(g4273
(S't\x08\x00\x00\x00Overview'
tRp4846
I00
S'http://www.web2py.com/book/default/chapter/03'
p4847
tp4848
a(g4273
(S's\x08\x00\x00\x00The Core'
tRp4849
I00
S'http://www.web2py.com/book/default/chapter/04'
p4850
tp4851
a(g4273
(S's\t\x00\x00\x00The Views'
tRp4852
I00
S'http://www.web2py.com/book/default/chapter/05'
p4853
tp4854
a(g4273
(S't\x08\x00\x00\x00Database'
tRp4855
I00
S'http://www.web2py.com/book/default/chapter/06'
p4856
tp4857
a(g4273
(S's\x14\x00\x00\x00Forms and Validators'
tRp4858
I00
S'http://www.web2py.com/book/default/chapter/07'
p4859
tp4860
a(g4273
(S's\r\x00\x00\x00Email and SMS'
tRp4861
I00
S'http://www.web2py.com/book/default/chapter/08'
p4862
tp4863
a(g4273
(S's\x0e\x00\x00\x00Access Control'
tRp4864
I00
S'http://www.web2py.com/book/default/chapter/09'
p4865
tp4866
a(g4273
(S't\x08\x00\x00\x00Services'
tRp4867
I00
S'http://www.web2py.com/book/default/chapter/10'
p4868
tp4869
a(g4273
(S's\x0c\x00\x00\x00Ajax Recipes'
tRp4870
I00
S'http://www.web2py.com/book/default/chapter/11'
p4871
tp4872
a(g4273
(S's\x16\x00\x00\x00Components and Plugins'
tRp4873
I00
S'http://www.web2py.com/book/default/chapter/12'
p4874
tp4875
a(g4273
(S's\x12\x00\x00\x00Deployment Recipes'
tRp4876
I00
S'http://www.web2py.com/book/default/chapter/13'
p4877
tp4878
a(g4273
(S's\r\x00\x00\x00Other Recipes'
tRp4879
I00
S'http://www.web2py.com/book/default/chapter/14'
p4880
tp4881
a(g4273
(S's\r\x00\x00\x00Buy this book'
tRp4882
I00
S'http://stores.lulu.com/web2py'
p4883
tp4884
aasbasbasbasbasbasbasbag57
(g73
g59
NtRp4885
(dp4886
g62
(dp4887
sg71
g4527
sg64
(lp4888
g57
(g78
g59
NtRp4889
(dp4890
g62
(dp4891
sg71
g4885
sg64
(lp4892
g57
(g58
g59
NtRp4893
(dp4894
g62
(dp4895
g70
I2
ssg71
g4889
sg64
(lp4896
g57
(g66
g59
NtRp4897
(dp4898
g62
(dp4899
g70
I1
ssg71
Nsg64
(lp4900
g57
(g73
g59
NtRp4901
(dp4902
g62
(dp4903
sg71
g4897
sg64
(lp4904
g57
(g78
g59
NtRp4905
(dp4906
g62
(dp4907
sg71
g4901
sg64
(lp4908
g57
(g58
g59
NtRp4909
(dp4910
g62
(dp4911
g70
I1
ssg71
g4905
sg64
(lp4912
g4273
(S't\t\x00\x00\x00Community'
tRp4913
asbasbasbag57
(g73
g59
NtRp4914
(dp4915
g62
(dp4916
sg71
g4897
sg64
(lp4917
g57
(g78
g59
NtRp4918
(dp4919
g62
(dp4920
sg71
g4914
sg64
(lp4921
g57
(g58
g59
NtRp4922
(dp4923
g62
(dp4924
g70
I1
ssg71
g4918
sg64
(lp4925
I00
asbasbasbag57
(g73
g59
NtRp4926
(dp4927
g62
(dp4928
sg71
g4897
sg64
(lp4929
g57
(g78
g59
NtRp4930
(dp4931
g62
(dp4932
sg71
g4926
sg64
(lp4933
g57
(g58
g59
NtRp4934
(dp4935
g62
(dp4936
g70
I1
ssg71
g4930
sg64
(lp4937
Nasbasbasbag57
(g73
g59
NtRp4938
(dp4939
g62
(dp4940
sg71
g4897
sg64
(lp4941
g57
(g78
g59
NtRp4942
(dp4943
g62
(dp4944
sg71
g4938
sg64
(lp4945
g57
(g58
g59
NtRp4946
(dp4947
g62
(dp4948
g70
I1
ssg71
g4942
sg64
(lp4949
(lp4950
(g4273
(S't\x06\x00\x00\x00Groups'
tRp4951
I00
S'http://www.web2py.com/examples/default/usergroups'
p4952
tp4953
a(g4273
(S't\x07\x00\x00\x00Twitter'
tRp4954
I00
S'http://twitter.com/web2py'
p4955
tp4956
a(g4273
(S's\t\x00\x00\x00Live Chat'
tRp4957
I00
S'http://webchat.freenode.net/?channels=web2py'
p4958
tp4959
aasbasbasbasbasbasbasbag57
(g73
g59
NtRp4960
(dp4961
g62
(dp4962
sg71
g4527
sg64
(lp4963
g57
(g78
g59
NtRp4964
(dp4965
g62
(dp4966
sg71
g4960
sg64
(lp4967
g57
(g58
g59
NtRp4968
(dp4969
g62
(dp4970
g70
I2
ssg71
g4964
sg64
(lp4971
g57
(g66
g59
NtRp4972
(dp4973
g62
(dp4974
g70
I1
ssg71
Nsg64
(lp4975
g57
(g73
g59
NtRp4976
(dp4977
g62
(dp4978
sg71
g4972
sg64
(lp4979
g57
(g78
g59
NtRp4980
(dp4981
g62
(dp4982
sg71
g4976
sg64
(lp4983
g57
(g58
g59
NtRp4984
(dp4985
g62
(dp4986
g70
I1
ssg71
g4980
sg64
(lp4987
g4273
(S't\x07\x00\x00\x00Plugins'
tRp4988
asbasbasbag57
(g73
g59
NtRp4989
(dp4990
g62
(dp4991
sg71
g4972
sg64
(lp4992
g57
(g78
g59
NtRp4993
(dp4994
g62
(dp4995
sg71
g4989
sg64
(lp4996
g57
(g58
g59
NtRp4997
(dp4998
g62
(dp4999
g70
I1
ssg71
g4993
sg64
(lp5000
I00
asbasbasbag57
(g73
g59
NtRp5001
(dp5002
g62
(dp5003
sg71
g4972
sg64
(lp5004
g57
(g78
g59
NtRp5005
(dp5006
g62
(dp5007
sg71
g5001
sg64
(lp5008
g57
(g58
g59
NtRp5009
(dp5010
g62
(dp5011
g70
I1
ssg71
g5005
sg64
(lp5012
Nasbasbasbag57
(g73
g59
NtRp5013
(dp5014
g62
(dp5015
sg71
g4972
sg64
(lp5016
g57
(g78
g59
NtRp5017
(dp5018
g62
(dp5019
sg71
g5013
sg64
(lp5020
g57
(g58
g59
NtRp5021
(dp5022
g62
(dp5023
g70
I1
ssg71
g5017
sg64
(lp5024
(lp5025
(S'plugin_wiki'
p5026
I00
S'http://web2py.com/examples/default/download'
p5027
tp5028
a(g4273
(S's\r\x00\x00\x00Other Plugins'
tRp5029
I00
g4759
tp5030
a(g4273
(S's\x0e\x00\x00\x00Layout Plugins'
tRp5031
I00
g4762
tp5032
aasbasbasbasbasbasbasbasbasbasbasbasbasbasbasbasbasbasbasbag57
(g73
g59
NtRp5033
(dp5034
g62
(dp5035
sg71
g3768
sg64
(lp5036
g57
(g78
g59
NtRp5037
(dp5038
g62
(dp5039
g82
g83
ssg71
g5033
sg64
(lp5040
S'meta'
p5041
asbag57
(g78
g59
NtRp5042
(dp5043
g62
(dp5044
g89
g90
ssg71
g5033
sg64
(lp5045
S':'
asbag57
(g78
g59
NtRp5046
(dp5047
g62
(dp5048
sg71
g5033
sg64
(lp5049
g57
(g58
g59
NtRp5050
(dp5051
g62
(dp5052
g70
I5
ssg71
g5046
sg64
(lp5053
g57
(g66
g59
NtRp5054
(dp5055
g62
(dp5056
g70
I4
ssg71
Nsg64
(lp5057
g57
(g73
g59
NtRp5058
(dp5059
g62
(dp5060
sg71
g5054
sg64
(lp5061
g57
(g78
g59
NtRp5062
(dp5063
g62
(dp5064
g82
g83
ssg71
g5058
sg64
(lp5065
S'author'
p5066
asbag57
(g78
g59
NtRp5067
(dp5068
g62
(dp5069
g89
g90
ssg71
g5058
sg64
(lp5070
S':'
asbag57
(g78
g59
NtRp5071
(dp5072
g62
(dp5073
sg71
g5058
sg64
(lp5074
g57
(g58
g59
NtRp5075
(dp5076
g62
(dp5077
g70
I4
ssg71
g5071
sg64
(lp5078
S'Your Name <you@example.com>'
p5079
asbasbasbag57
(g73
g59
NtRp5080
(dp5081
g62
(dp5082
sg71
g5054
sg64
(lp5083
g57
(g78
g59
NtRp5084
(dp5085
g62
(dp5086
g82
g83
ssg71
g5080
sg64
(lp5087
S'copyright'
p5088
asbag57
(g78
g59
NtRp5089
(dp5090
g62
(dp5091
g89
g90
ssg71
g5080
sg64
(lp5092
S':'
asbag57
(g78
g59
NtRp5093
(dp5094
g62
(dp5095
sg71
g5080
sg64
(lp5096
g57
(g58
g59
NtRp5097
(dp5098
g62
(dp5099
g70
I4
ssg71
g5093
sg64
(lp5100
S'Copyright 2011'
p5101
asbasbasbag57
(g73
g59
NtRp5102
(dp5103
g62
(dp5104
sg71
g5054
sg64
(lp5105
g57
(g78
g59
NtRp5106
(dp5107
g62
(dp5108
g82
g83
ssg71
g5102
sg64
(lp5109
S'description'
p5110
asbag57
(g78
g59
NtRp5111
(dp5112
g62
(dp5113
g89
g90
ssg71
g5102
sg64
(lp5114
S':'
asbag57
(g78
g59
NtRp5115
(dp5116
g62
(dp5117
sg71
g5102
sg64
(lp5118
g57
(g58
g59
NtRp5119
(dp5120
g62
(dp5121
g70
I4
ssg71
g5115
sg64
(lp5122
S'a cool new app'
p5123
asbasbasbag57
(g73
g59
NtRp5124
(dp5125
g62
(dp5126
sg71
g5054
sg64
(lp5127
g57
(g78
g59
NtRp5128
(dp5129
g62
(dp5130
g82
g83
ssg71
g5124
sg64
(lp5131
S'generator'
p5132
asbag57
(g78
g59
NtRp5133
(dp5134
g62
(dp5135
g89
g90
ssg71
g5124
sg64
(lp5136
S':'
asbag57
(g78
g59
NtRp5137
(dp5138
g62
(dp5139
sg71
g5124
sg64
(lp5140
g57
(g58
g59
NtRp5141
(dp5142
g62
(dp5143
g70
I4
ssg71
g5137
sg64
(lp5144
S'Web2py Web Framework'
p5145
asbasbasbag57
(g73
g59
NtRp5146
(dp5147
g62
(dp5148
sg71
g5054
sg64
(lp5149
g57
(g78
g59
NtRp5150
(dp5151
g62
(dp5152
g82
g83
ssg71
g5146
sg64
(lp5153
S'keywords'
p5154
asbag57
(g78
g59
NtRp5155
(dp5156
g62
(dp5157
g89
g90
ssg71
g5146
sg64
(lp5158
S':'
asbag57
(g78
g59
NtRp5159
(dp5160
g62
(dp5161
sg71
g5146
sg64
(lp5162
g57
(g58
g59
NtRp5163
(dp5164
g62
(dp5165
g70
I4
ssg71
g5159
sg64
(lp5166
S'web2py, python, framework'
p5167
asbasbasbasbasbasbasbag57
(g73
g59
NtRp5168
(dp5169
g62
(dp5170
sg71
g3768
sg64
(lp5171
g57
(g78
g59
NtRp5172
(dp5173
g62
(dp5174
g82
g83
ssg71
g5168
sg64
(lp5175
S'postprocessing'
p5176
asbag57
(g78
g59
NtRp5177
(dp5178
g62
(dp5179
g89
g90
ssg71
g5168
sg64
(lp5180
S':'
asbag57
(g78
g59
NtRp5181
(dp5182
g62
(dp5183
sg71
g5168
sg64
(lp5184
g57
(g58
g59
NtRp5185
(dp5186
g62
(dp5187
g70
I5
ssg71
g5181
sg64
(lp5188
g57
(g66
g59
NtRp5189
(dp5190
g62
(dp5191
g70
I4
ssg71
Nsg64
(lp5192
sbasbasbasbag57
(g73
g59
NtRp5193
(dp5194
g62
(dp5195
sg71
g3768
sg64
(lp5196
g57
(g78
g59
NtRp5197
(dp5198
g62
(dp5199
g82
g83
ssg71
g5193
sg64
(lp5200
S'session_file'
p5201
asbag57
(g78
g59
NtRp5202
(dp5203
g62
(dp5204
g89
g90
ssg71
g5193
sg64
(lp5205
S':'
asbag57
(g78
g59
NtRp5206
(dp5207
g62
(dp5208
sg71
g5193
sg64
(lp5209
g57
(g58
g59
NtRp5210
(dp5211
g62
(dp5212
g70
I5
ssg71
g5206
sg64
(lp5213
S"<open file '/home/ds-iiit/web2py/applications/Gordian_Knot/sessions/127.0.0.1-a9733ab7-5e43-4323-b962-9c2b175f5f60', mode 'rb+' at 0x7f61d40bc8a0>"
p5214
asbasbasbag57
(g73
g59
NtRp5215
(dp5216
g62
(dp5217
sg71
g3768
sg64
(lp5218
g57
(g78
g59
NtRp5219
(dp5220
g62
(dp5221
g82
g83
ssg71
g5215
sg64
(lp5222
S'session_filename'
p5223
asbag57
(g78
g59
NtRp5224
(dp5225
g62
(dp5226
g89
g90
ssg71
g5215
sg64
(lp5227
S':'
asbag57
(g78
g59
NtRp5228
(dp5229
g62
(dp5230
sg71
g5215
sg64
(lp5231
g57
(g58
g59
NtRp5232
(dp5233
g62
(dp5234
g70
I5
ssg71
g5228
sg64
(lp5235
S'/home/ds-iiit/web2py/applications/Gordian_Knot/sessions/127.0.0.1-a9733ab7-5e43-4323-b962-9c2b175f5f60'
p5236
asbasbasbag57
(g73
g59
NtRp5237
(dp5238
g62
(dp5239
sg71
g3768
sg64
(lp5240
g57
(g78
g59
NtRp5241
(dp5242
g62
(dp5243
g82
g83
ssg71
g5237
sg64
(lp5244
S'session_id'
p5245
asbag57
(g78
g59
NtRp5246
(dp5247
g62
(dp5248
g89
g90
ssg71
g5237
sg64
(lp5249
S':'
asbag57
(g78
g59
NtRp5250
(dp5251
g62
(dp5252
sg71
g5237
sg64
(lp5253
g57
(g58
g59
NtRp5254
(dp5255
g62
(dp5256
g70
I5
ssg71
g5250
sg64
(lp5257
S'127.0.0.1-a9733ab7-5e43-4323-b962-9c2b175f5f60'
p5258
asbasbasbag57
(g73
g59
NtRp5259
(dp5260
g62
(dp5261
sg71
g3768
sg64
(lp5262
g57
(g78
g59
NtRp5263
(dp5264
g62
(dp5265
g82
g83
ssg71
g5259
sg64
(lp5266
S'session_id_name'
p5267
asbag57
(g78
g59
NtRp5268
(dp5269
g62
(dp5270
g89
g90
ssg71
g5259
sg64
(lp5271
S':'
asbag57
(g78
g59
NtRp5272
(dp5273
g62
(dp5274
sg71
g5259
sg64
(lp5275
g57
(g58
g59
NtRp5276
(dp5277
g62
(dp5278
g70
I5
ssg71
g5272
sg64
(lp5279
g3825
asbasbasbag57
(g73
g59
NtRp5280
(dp5281
g62
(dp5282
sg71
g3768
sg64
(lp5283
g57
(g78
g59
NtRp5284
(dp5285
g62
(dp5286
g82
g83
ssg71
g5280
sg64
(lp5287
S'session_locked'
p5288
asbag57
(g78
g59
NtRp5289
(dp5290
g62
(dp5291
g89
g90
ssg71
g5280
sg64
(lp5292
S':'
asbag57
(g78
g59
NtRp5293
(dp5294
g62
(dp5295
sg71
g5280
sg64
(lp5296
g57
(g58
g59
NtRp5297
(dp5298
g62
(dp5299
g70
I5
ssg71
g5293
sg64
(lp5300
g1786
asbasbasbag57
(g73
g59
NtRp5301
(dp5302
g62
(dp5303
sg71
g3768
sg64
(lp5304
g57
(g78
g59
NtRp5305
(dp5306
g62
(dp5307
g82
g83
ssg71
g5301
sg64
(lp5308
S'session_new'
p5309
asbag57
(g78
g59
NtRp5310
(dp5311
g62
(dp5312
g89
g90
ssg71
g5301
sg64
(lp5313
S':'
asbag57
(g78
g59
NtRp5314
(dp5315
g62
(dp5316
sg71
g5301
sg64
(lp5317
g57
(g58
g59
NtRp5318
(dp5319
g62
(dp5320
g70
I5
ssg71
g5314
sg64
(lp5321
g100
asbasbasbag57
(g73
g59
NtRp5322
(dp5323
g62
(dp5324
sg71
g3768
sg64
(lp5325
g57
(g78
g59
NtRp5326
(dp5327
g62
(dp5328
g82
g83
ssg71
g5322
sg64
(lp5329
S'status'
p5330
asbag57
(g78
g59
NtRp5331
(dp5332
g62
(dp5333
g89
g90
ssg71
g5322
sg64
(lp5334
S':'
asbag57
(g78
g59
NtRp5335
(dp5336
g62
(dp5337
sg71
g5322
sg64
(lp5338
g57
(g58
g59
NtRp5339
(dp5340
g62
(dp5341
g70
I5
ssg71
g5335
sg64
(lp5342
S'200'
p5343
asbasbasbag57
(g73
g59
NtRp5344
(dp5345
g62
(dp5346
sg71
g3768
sg64
(lp5347
g57
(g78
g59
NtRp5348
(dp5349
g62
(dp5350
g82
g83
ssg71
g5344
sg64
(lp5351
S'subtitle'
p5352
asbag57
(g78
g59
NtRp5353
(dp5354
g62
(dp5355
g89
g90
ssg71
g5344
sg64
(lp5356
S':'
asbag57
(g78
g59
NtRp5357
(dp5358
g62
(dp5359
sg71
g5344
sg64
(lp5360
g57
(g58
g59
NtRp5361
(dp5362
g62
(dp5363
g70
I5
ssg71
g5357
sg64
(lp5364
g4273
(S's\r\x00\x00\x00customize me!'
tRp5365
asbasbasbag57
(g73
g59
NtRp5366
(dp5367
g62
(dp5368
sg71
g3768
sg64
(lp5369
g57
(g78
g59
NtRp5370
(dp5371
g62
(dp5372
g82
g83
ssg71
g5366
sg64
(lp5373
S'title'
p5374
asbag57
(g78
g59
NtRp5375
(dp5376
g62
(dp5377
g89
g90
ssg71
g5366
sg64
(lp5378
S':'
asbag57
(g78
g59
NtRp5379
(dp5380
g62
(dp5381
sg71
g5366
sg64
(lp5382
g57
(g58
g59
NtRp5383
(dp5384
g62
(dp5385
g70
I5
ssg71
g5379
sg64
(lp5386
S'Gordian Knot'
p5387
asbasbasbag57
(g73
g59
NtRp5388
(dp5389
g62
(dp5390
sg71
g3768
sg64
(lp5391
g57
(g78
g59
NtRp5392
(dp5393
g62
(dp5394
g82
g83
ssg71
g5388
sg64
(lp5395
g2493
asbag57
(g78
g59
NtRp5396
(dp5397
g62
(dp5398
g89
g90
ssg71
g5388
sg64
(lp5399
S':'
asbag57
(g78
g59
NtRp5400
(dp5401
g62
(dp5402
sg71
g5388
sg64
(lp5403
g57
(g58
g59
NtRp5404
(dp5405
g62
(dp5406
g70
I5
ssg71
g5400
sg64
(lp5407
g2506
asbasbasbag57
(g73
g59
NtRp5408
(dp5409
g62
(dp5410
sg71
g3768
sg64
(lp5411
g57
(g78
g59
NtRp5412
(dp5413
g62
(dp5414
g82
g83
ssg71
g5408
sg64
(lp5415
S'view'
p5416
asbag57
(g78
g59
NtRp5417
(dp5418
g62
(dp5419
g89
g90
ssg71
g5408
sg64
(lp5420
S':'
asbag57
(g78
g59
NtRp5421
(dp5422
g62
(dp5423
sg71
g5408
sg64
(lp5424
g57
(g58
g59
NtRp5425
(dp5426
g62
(dp5427
g70
I5
ssg71
g5421
sg64
(lp5428
S'default/checkans.html'
p5429
asbasbasbasbasbsS'locals'
p5430
(dp5431
S'y'
S"<Row {'auth_event': <gluon.dal.Set object at 0x7..._record': <function <lambda> at 0x7f61f4642aa0>}>"
p5432
sS'x'
S'<gluon.dal.Rows object>'
p5433
sS'qno'
p5434
S'3'
sS'ans'
p5435
S'24'
p5436
sssS'traceback'
p5437
S'Traceback (most recent call last):\n  File "/usr/lib/pymodules/python2.7/gluon/restricted.py", line 204, in restricted\n    exec ccode in environment\n  File "/home/ds-iiit/web2py/applications/Gordian_Knot/controllers/default.py", line 172, in <module>\n  File "/usr/lib/pymodules/python2.7/gluon/globals.py", line 172, in <lambda>\n    self._caller = lambda f: f()\n  File "/usr/lib/pymodules/python2.7/gluon/tools.py", line 2533, in f\n    return action(*a, **b)\n  File "/home/ds-iiit/web2py/applications/Gordian_Knot/controllers/default.py", line 94, in checkans\n    ans = y[\'Points\']+100\nTypeError: cannot concatenate \'str\' and \'int\' objects\n'
p5438
s.