(dp1
S'output'
p2
S"<type 'exceptions.SyntaxError'> invalid syntax (default.py, line 41)"
p3
sS'layer'
p4
S'/home/ds-iiit/web2py/applications/Gordian_Knot/controllers/default.py'
p5
sS'code'
p6
S'# -*- coding: utf-8 -*-\n# this file is released under public domain and you can use without limitations\n\n#########################################################################\n## This is a samples controller\n## - index is the default action of any application\n## - user is required for authentication and authorization\n## - download is for downloading files uploaded in the db (does streaming)\n## - call exposes all registered services (none by default)\n#########################################################################\n@auth.requires_login()\ndef addquestion():\n\tif auth.user_id != 1:\n\t\treturn dict(form="No Donut for you!")\n\tform = crud.create(\'Trivia\')\n\treturn dict(form=form)\n\n@auth.requires_login()\ndef updatequestion():\n\tif auth.user_id != 1:\n\t\treturn dict(form="No Donut for you!")\n\tno = int(request.args(0))\n\tform = crud.update(\'Trivia\',no)\n\treturn dict(form=form)\n\n@auth.requires_login()\ndef ranklist():\n\tx = db(db.auth_user.id > 0).select(orderby = Points)\n\treturn dict(x=x)\n\n@auth.requires_login()\ndef question():\n\tno=request.args(0)\n\tno = int(no)\n\tif auth.user_id == None:\n\t\tredirect(URL(\'landing\'))\n\tif len(db((db.Level.Level == no) & (db.Level.User == auth.user_id)).select()) != 0 or no == 0:\n\t\tquestions = []\n\t\tx = db((db.Trivia.Level == no) & ((db.Done.User == auth.user_id) & (db.Done.Question == db.Trivia.id))).select(db.Trivia.ALL)\n\t\ty = db(db.Trivia.Level == no).select()\n\t\tfor i in y and not in x:\n\t\t\tquestions.append(i)\n\t\treturn dict(questions = questions)\n\telse:\n\t\tredirect(URL(\'landing\'))\n\n@auth.requires_login()\ndef landing():\n\ty = db(db.Level.User == auth.user_id).select(distinct=True)\n\treturn dict(y=y)\n\n@auth.requires_login()\ndef checkans():\n\tans = int(request.vars.ans)\n\tqno = int(request.vars.Qno)\n\tx = db((db.Trivia.id == qno) & (db.Trivia.Answer == ans)).select()\n\tif  len(x) == 0:\n\t\tz = db(db.Level.User == auth.user_id).select(distinct=True)\n\t\tresponse.flash = "I think you can do it!"\n\t\treturn dict(z=z,done=False)\n\telse:\n\t\tdb.Done.insert(User=auth.user.id,Question=qno)\n\t\ty = db((db.Done.User == auth.user.id)).select()\n\t\tif len(y) >= 2:\n\t\t\tresponse.flash = "Congratulations, Level 1 unlocked!"\n\t\t\tdb.Level.insert(User=auth.user_id,Level=1)\n\t\telif len(y) >= 5:\n\t\t\tresponse.flash = "Congratulations, Level 2 unlocked!"\n\t\t\tdb.Level.insert(User=auth.user_id,Level=2)\n\t\telif len(y) >= 10:\n\t\t\tresponse.flash = "Congratulations, Level 4 unlocked!"\n\t\t\tdb.Level.insert(User=auth.user_id,Level=3)\n\t\telif len(y) >= 15:\n\t\t\tresponse.flash = "Congratulations, Level 4 unlocked!"\n\t\t\tdb.Level.insert(User=auth.user_id,Level=4)\t\t\t\n\t\t\tz = db(db.Level.User == auth.user_id).select(distinct=True)\n\t\treturn dict(z=z,done=True)\n\ndef index():\n    """\n    example action using the internationalization operator T and flash\n    rendered by views/default/index.html or views/generic.html\n    """\n    response.flash = "Cut the Gordian Knot!"\n    return dict(message=T(\'What is Gordian Knot?\'))\n\ndef user():\n    """\n    exposes:\n    http://..../[app]/default/user/login\n    http://..../[app]/default/user/logout\n    http://..../[app]/default/user/register\n    http://..../[app]/default/user/profile\n    http://..../[app]/default/user/retrieve_password\n    http://..../[app]/default/user/change_password\n    use @auth.requires_login()\n        @auth.requires_membership(\'group name\')\n        @auth.requires_permission(\'read\',\'table name\',record_id)\n    to decorate functions that need access control\n    """\n    return dict(form=auth())\n\n\ndef download():\n    """\n    allows downloading of uploaded files\n    http://..../[app]/default/download/[filename]\n    """\n    return response.download(request,db)\n\n\ndef call():\n    """\n    exposes services. for example:\n    http://..../[app]/default/call/jsonrpc\n    decorate with @services.jsonrpc the functions to expose\n    supports xml, json, xmlrpc, jsonrpc, amfrpc, rss, csv\n    """\n    return service()\n\n\n@auth.requires_signature()\ndef data():\n    """\n    http://..../[app]/default/data/tables\n    http://..../[app]/default/data/create/[table]\n    http://..../[app]/default/data/read/[table]/[id]\n    http://..../[app]/default/data/update/[table]/[id]\n    http://..../[app]/default/data/delete/[table]/[id]\n    http://..../[app]/default/data/select/[table]\n    http://..../[app]/default/data/search/[table]\n    but URLs must be signed, i.e. linked with\n      A(\'table\',_href=URL(\'data/tables\',user_signature=True))\n    or with the signed load operator\n      LOAD(\'default\',\'data.load\',args=\'tables\',ajax=True,user_signature=True)\n    """\n    return dict(form=crud())\n\n\nresponse._vars=response._caller(question)\n'
p7
sS'snapshot'
p8
(dp9
S'exception'
p10
(dp11
S'__getslice__'
p12
S"<method-wrapper '__getslice__' of exceptions.SyntaxError object>"
p13
sS'text'
p14
S"'\\t\\tfor i in y and not in x:\\n'"
p15
sS'__str__'
p16
S"<method-wrapper '__str__' of exceptions.SyntaxError object>"
p17
sS'__reduce__'
p18
S'<built-in method __reduce__ of exceptions.SyntaxError object>'
p19
sS'__dict__'
p20
S'{}'
p21
sS'__sizeof__'
p22
S'<built-in method __sizeof__ of exceptions.SyntaxError object>'
p23
sS'__init__'
p24
S"<method-wrapper '__init__' of exceptions.SyntaxError object>"
p25
sS'__setattr__'
p26
S"<method-wrapper '__setattr__' of exceptions.SyntaxError object>"
p27
sS'__reduce_ex__'
p28
S'<built-in method __reduce_ex__ of exceptions.SyntaxError object>'
p29
sS'__new__'
p30
S'<built-in method __new__ of type object>'
p31
sS'__format__'
p32
S'<built-in method __format__ of exceptions.SyntaxError object>'
p33
sS'__class__'
p34
S"<type 'exceptions.SyntaxError'>"
p35
sS'filename'
p36
S"'/home/ds-iiit/web2py/applications/Gordian_Knot/controllers/default.py'"
p37
sS'lineno'
p38
S'41'
p39
sS'msg'
p40
S"'invalid syntax'"
p41
sS'__doc__'
p42
S"'Invalid syntax.'"
p43
sS'__getitem__'
p44
S"<method-wrapper '__getitem__' of exceptions.SyntaxError object>"
p45
sS'__setstate__'
p46
S'<built-in method __setstate__ of exceptions.SyntaxError object>'
p47
sS'__getattribute__'
p48
S"<method-wrapper '__getattribute__' of exceptions.SyntaxError object>"
p49
sS'print_file_and_line'
p50
S'None'
p51
sS'args'
p52
S"('invalid syntax', ('/home/ds-iiit/web2py/applications/Gordian_Knot/controllers/default.py', 41, 23, '\\t\\tfor i in y and not in x:\\n'))"
p53
sS'__subclasshook__'
p54
S'<built-in method __subclasshook__ of type object>'
p55
sS'offset'
p56
S'23'
p57
sS'__unicode__'
p58
S'<built-in method __unicode__ of exceptions.SyntaxError object>'
p59
sS'__delattr__'
p60
S"<method-wrapper '__delattr__' of exceptions.SyntaxError object>"
p61
sS'__repr__'
p62
S"<method-wrapper '__repr__' of exceptions.SyntaxError object>"
p63
sS'__hash__'
p64
S"<method-wrapper '__hash__' of exceptions.SyntaxError object>"
p65
ssS'evalue'
p66
S'invalid syntax (default.py, line 41)'
p67
sS'request'
p68
ccopy_reg
_reconstructor
p69
(cgluon.html
BEAUTIFY
p70
c__builtin__
object
p71
NtRp72
(dp73
S'attributes'
p74
(dp75
sS'components'
p76
(lp77
g69
(cgluon.html
TABLE
p78
g71
NtRp79
(dp80
g74
(dp81
S'level'
p82
I5
ssS'parent'
p83
Nsg76
(lp84
g69
(cgluon.html
TR
p85
g71
NtRp86
(dp87
g74
(dp88
sg83
g79
sg76
(lp89
g69
(cgluon.html
TD
p90
g71
NtRp91
(dp92
g74
(dp93
S'_style'
p94
S'font-weight:bold;vertical-align:top'
p95
ssg83
g86
sg76
(lp96
S'ajax'
p97
asbag69
(g90
g71
NtRp98
(dp99
g74
(dp100
S'_valign'
p101
S'top'
p102
ssg83
g86
sg76
(lp103
S':'
asbag69
(g90
g71
NtRp104
(dp105
g74
(dp106
sg83
g86
sg76
(lp107
g69
(g70
g71
NtRp108
(dp109
g74
(dp110
g82
I5
ssg83
g104
sg76
(lp111
S'False'
p112
asbasbasbag69
(g85
g71
NtRp113
(dp114
g74
(dp115
sg83
g79
sg76
(lp116
g69
(g90
g71
NtRp117
(dp118
g74
(dp119
g94
g95
ssg83
g113
sg76
(lp120
S'application'
p121
asbag69
(g90
g71
NtRp122
(dp123
g74
(dp124
g101
g102
ssg83
g113
sg76
(lp125
S':'
asbag69
(g90
g71
NtRp126
(dp127
g74
(dp128
sg83
g113
sg76
(lp129
g69
(g70
g71
NtRp130
(dp131
g74
(dp132
g82
I5
ssg83
g126
sg76
(lp133
S'Gordian_Knot'
p134
asbasbasbag69
(g85
g71
NtRp135
(dp136
g74
(dp137
sg83
g79
sg76
(lp138
g69
(g90
g71
NtRp139
(dp140
g74
(dp141
g94
g95
ssg83
g135
sg76
(lp142
g52
asbag69
(g90
g71
NtRp143
(dp144
g74
(dp145
g101
g102
ssg83
g135
sg76
(lp146
S':'
asbag69
(g90
g71
NtRp147
(dp148
g74
(dp149
sg83
g135
sg76
(lp150
g69
(g70
g71
NtRp151
(dp152
g74
(dp153
g82
I5
ssg83
g147
sg76
(lp154
g69
(g78
g71
NtRp155
(dp156
g74
(dp157
g82
I4
ssg83
Nsg76
(lp158
g69
(g85
g71
NtRp159
(dp160
g74
(dp161
sg83
g155
sg76
(lp162
g69
(g90
g71
NtRp163
(dp164
g74
(dp165
sg83
g159
sg76
(lp166
g69
(g70
g71
NtRp167
(dp168
g74
(dp169
g82
I4
ssg83
g163
sg76
(lp170
S'0'
asbasbasbasbasbasbasbag69
(g85
g71
NtRp171
(dp172
g74
(dp173
sg83
g79
sg76
(lp174
g69
(g90
g71
NtRp175
(dp176
g74
(dp177
g94
g95
ssg83
g171
sg76
(lp178
S'body'
p179
asbag69
(g90
g71
NtRp180
(dp181
g74
(dp182
g101
g102
ssg83
g171
sg76
(lp183
S':'
asbag69
(g90
g71
NtRp184
(dp185
g74
(dp186
sg83
g171
sg76
(lp187
g69
(g70
g71
NtRp188
(dp189
g74
(dp190
g82
I5
ssg83
g184
sg76
(lp191
S'<cStringIO.StringO object at 0x7f0d94265848>'
p192
asbasbasbag69
(g85
g71
NtRp193
(dp194
g74
(dp195
sg83
g79
sg76
(lp196
g69
(g90
g71
NtRp197
(dp198
g74
(dp199
g94
g95
ssg83
g193
sg76
(lp200
S'client'
p201
asbag69
(g90
g71
NtRp202
(dp203
g74
(dp204
g101
g102
ssg83
g193
sg76
(lp205
S':'
asbag69
(g90
g71
NtRp206
(dp207
g74
(dp208
sg83
g193
sg76
(lp209
g69
(g70
g71
NtRp210
(dp211
g74
(dp212
g82
I5
ssg83
g206
sg76
(lp213
S'127.0.0.1'
p214
asbasbasbag69
(g85
g71
NtRp215
(dp216
g74
(dp217
sg83
g79
sg76
(lp218
g69
(g90
g71
NtRp219
(dp220
g74
(dp221
g94
g95
ssg83
g215
sg76
(lp222
S'controller'
p223
asbag69
(g90
g71
NtRp224
(dp225
g74
(dp226
g101
g102
ssg83
g215
sg76
(lp227
S':'
asbag69
(g90
g71
NtRp228
(dp229
g74
(dp230
sg83
g215
sg76
(lp231
g69
(g70
g71
NtRp232
(dp233
g74
(dp234
g82
I5
ssg83
g228
sg76
(lp235
S'default'
p236
asbasbasbag69
(g85
g71
NtRp237
(dp238
g74
(dp239
sg83
g79
sg76
(lp240
g69
(g90
g71
NtRp241
(dp242
g74
(dp243
g94
g95
ssg83
g237
sg76
(lp244
S'cookies'
p245
asbag69
(g90
g71
NtRp246
(dp247
g74
(dp248
g101
g102
ssg83
g237
sg76
(lp249
S':'
asbag69
(g90
g71
NtRp250
(dp251
g74
(dp252
sg83
g237
sg76
(lp253
g69
(g70
g71
NtRp254
(dp255
g74
(dp256
g82
I5
ssg83
g250
sg76
(lp257
g69
(g78
g71
NtRp258
(dp259
g74
(dp260
g82
I4
ssg83
Nsg76
(lp261
g69
(g85
g71
NtRp262
(dp263
g74
(dp264
sg83
g258
sg76
(lp265
g69
(g90
g71
NtRp266
(dp267
g74
(dp268
g94
g95
ssg83
g262
sg76
(lp269
S'session_id_admin'
p270
asbag69
(g90
g71
NtRp271
(dp272
g74
(dp273
g101
g102
ssg83
g262
sg76
(lp274
S':'
asbag69
(g90
g71
NtRp275
(dp276
g74
(dp277
sg83
g262
sg76
(lp278
g69
(g70
g71
NtRp279
(dp280
g74
(dp281
g82
I4
ssg83
g275
sg76
(lp282
g69
(g78
g71
NtRp283
(dp284
g74
(dp285
g82
I3
ssg83
Nsg76
(lp286
g69
(g85
g71
NtRp287
(dp288
g74
(dp289
sg83
g283
sg76
(lp290
g69
(g90
g71
NtRp291
(dp292
g74
(dp293
g94
g95
ssg83
g287
sg76
(lp294
S'comment'
p295
asbag69
(g90
g71
NtRp296
(dp297
g74
(dp298
g101
g102
ssg83
g287
sg76
(lp299
S':'
asbag69
(g90
g71
NtRp300
(dp301
g74
(dp302
sg83
g287
sg76
(lp303
g69
(g70
g71
NtRp304
(dp305
g74
(dp306
g82
I3
ssg83
g300
sg76
(lp307
S''
asbasbasbag69
(g85
g71
NtRp308
(dp309
g74
(dp310
sg83
g283
sg76
(lp311
g69
(g90
g71
NtRp312
(dp313
g74
(dp314
g94
g95
ssg83
g308
sg76
(lp315
S'domain'
p316
asbag69
(g90
g71
NtRp317
(dp318
g74
(dp319
g101
g102
ssg83
g308
sg76
(lp320
S':'
asbag69
(g90
g71
NtRp321
(dp322
g74
(dp323
sg83
g308
sg76
(lp324
g69
(g70
g71
NtRp325
(dp326
g74
(dp327
g82
I3
ssg83
g321
sg76
(lp328
S''
asbasbasbag69
(g85
g71
NtRp329
(dp330
g74
(dp331
sg83
g283
sg76
(lp332
g69
(g90
g71
NtRp333
(dp334
g74
(dp335
g94
g95
ssg83
g329
sg76
(lp336
S'expires'
p337
asbag69
(g90
g71
NtRp338
(dp339
g74
(dp340
g101
g102
ssg83
g329
sg76
(lp341
S':'
asbag69
(g90
g71
NtRp342
(dp343
g74
(dp344
sg83
g329
sg76
(lp345
g69
(g70
g71
NtRp346
(dp347
g74
(dp348
g82
I3
ssg83
g342
sg76
(lp349
S''
asbasbasbag69
(g85
g71
NtRp350
(dp351
g74
(dp352
sg83
g283
sg76
(lp353
g69
(g90
g71
NtRp354
(dp355
g74
(dp356
g94
g95
ssg83
g350
sg76
(lp357
S'httponly'
p358
asbag69
(g90
g71
NtRp359
(dp360
g74
(dp361
g101
g102
ssg83
g350
sg76
(lp362
S':'
asbag69
(g90
g71
NtRp363
(dp364
g74
(dp365
sg83
g350
sg76
(lp366
g69
(g70
g71
NtRp367
(dp368
g74
(dp369
g82
I3
ssg83
g363
sg76
(lp370
S''
asbasbasbag69
(g85
g71
NtRp371
(dp372
g74
(dp373
sg83
g283
sg76
(lp374
g69
(g90
g71
NtRp375
(dp376
g74
(dp377
g94
g95
ssg83
g371
sg76
(lp378
S'max-age'
p379
asbag69
(g90
g71
NtRp380
(dp381
g74
(dp382
g101
g102
ssg83
g371
sg76
(lp383
S':'
asbag69
(g90
g71
NtRp384
(dp385
g74
(dp386
sg83
g371
sg76
(lp387
g69
(g70
g71
NtRp388
(dp389
g74
(dp390
g82
I3
ssg83
g384
sg76
(lp391
S''
asbasbasbag69
(g85
g71
NtRp392
(dp393
g74
(dp394
sg83
g283
sg76
(lp395
g69
(g90
g71
NtRp396
(dp397
g74
(dp398
g94
g95
ssg83
g392
sg76
(lp399
S'path'
p400
asbag69
(g90
g71
NtRp401
(dp402
g74
(dp403
g101
g102
ssg83
g392
sg76
(lp404
S':'
asbag69
(g90
g71
NtRp405
(dp406
g74
(dp407
sg83
g392
sg76
(lp408
g69
(g70
g71
NtRp409
(dp410
g74
(dp411
g82
I3
ssg83
g405
sg76
(lp412
S''
asbasbasbag69
(g85
g71
NtRp413
(dp414
g74
(dp415
sg83
g283
sg76
(lp416
g69
(g90
g71
NtRp417
(dp418
g74
(dp419
g94
g95
ssg83
g413
sg76
(lp420
S'secure'
p421
asbag69
(g90
g71
NtRp422
(dp423
g74
(dp424
g101
g102
ssg83
g413
sg76
(lp425
S':'
asbag69
(g90
g71
NtRp426
(dp427
g74
(dp428
sg83
g413
sg76
(lp429
g69
(g70
g71
NtRp430
(dp431
g74
(dp432
g82
I3
ssg83
g426
sg76
(lp433
S''
asbasbasbag69
(g85
g71
NtRp434
(dp435
g74
(dp436
sg83
g283
sg76
(lp437
g69
(g90
g71
NtRp438
(dp439
g74
(dp440
g94
g95
ssg83
g434
sg76
(lp441
S'version'
p442
asbag69
(g90
g71
NtRp443
(dp444
g74
(dp445
g101
g102
ssg83
g434
sg76
(lp446
S':'
asbag69
(g90
g71
NtRp447
(dp448
g74
(dp449
sg83
g434
sg76
(lp450
g69
(g70
g71
NtRp451
(dp452
g74
(dp453
g82
I3
ssg83
g447
sg76
(lp454
S''
asbasbasbasbasbasbasbag69
(g85
g71
NtRp455
(dp456
g74
(dp457
sg83
g258
sg76
(lp458
g69
(g90
g71
NtRp459
(dp460
g74
(dp461
g94
g95
ssg83
g455
sg76
(lp462
S'session_id_gordian_knot'
p463
asbag69
(g90
g71
NtRp464
(dp465
g74
(dp466
g101
g102
ssg83
g455
sg76
(lp467
S':'
asbag69
(g90
g71
NtRp468
(dp469
g74
(dp470
sg83
g455
sg76
(lp471
g69
(g70
g71
NtRp472
(dp473
g74
(dp474
g82
I4
ssg83
g468
sg76
(lp475
g69
(g78
g71
NtRp476
(dp477
g74
(dp478
g82
I3
ssg83
Nsg76
(lp479
g69
(g85
g71
NtRp480
(dp481
g74
(dp482
sg83
g476
sg76
(lp483
g69
(g90
g71
NtRp484
(dp485
g74
(dp486
g94
g95
ssg83
g480
sg76
(lp487
g295
asbag69
(g90
g71
NtRp488
(dp489
g74
(dp490
g101
g102
ssg83
g480
sg76
(lp491
S':'
asbag69
(g90
g71
NtRp492
(dp493
g74
(dp494
sg83
g480
sg76
(lp495
g69
(g70
g71
NtRp496
(dp497
g74
(dp498
g82
I3
ssg83
g492
sg76
(lp499
S''
asbasbasbag69
(g85
g71
NtRp500
(dp501
g74
(dp502
sg83
g476
sg76
(lp503
g69
(g90
g71
NtRp504
(dp505
g74
(dp506
g94
g95
ssg83
g500
sg76
(lp507
g316
asbag69
(g90
g71
NtRp508
(dp509
g74
(dp510
g101
g102
ssg83
g500
sg76
(lp511
S':'
asbag69
(g90
g71
NtRp512
(dp513
g74
(dp514
sg83
g500
sg76
(lp515
g69
(g70
g71
NtRp516
(dp517
g74
(dp518
g82
I3
ssg83
g512
sg76
(lp519
S''
asbasbasbag69
(g85
g71
NtRp520
(dp521
g74
(dp522
sg83
g476
sg76
(lp523
g69
(g90
g71
NtRp524
(dp525
g74
(dp526
g94
g95
ssg83
g520
sg76
(lp527
g337
asbag69
(g90
g71
NtRp528
(dp529
g74
(dp530
g101
g102
ssg83
g520
sg76
(lp531
S':'
asbag69
(g90
g71
NtRp532
(dp533
g74
(dp534
sg83
g520
sg76
(lp535
g69
(g70
g71
NtRp536
(dp537
g74
(dp538
g82
I3
ssg83
g532
sg76
(lp539
S''
asbasbasbag69
(g85
g71
NtRp540
(dp541
g74
(dp542
sg83
g476
sg76
(lp543
g69
(g90
g71
NtRp544
(dp545
g74
(dp546
g94
g95
ssg83
g540
sg76
(lp547
g358
asbag69
(g90
g71
NtRp548
(dp549
g74
(dp550
g101
g102
ssg83
g540
sg76
(lp551
S':'
asbag69
(g90
g71
NtRp552
(dp553
g74
(dp554
sg83
g540
sg76
(lp555
g69
(g70
g71
NtRp556
(dp557
g74
(dp558
g82
I3
ssg83
g552
sg76
(lp559
S''
asbasbasbag69
(g85
g71
NtRp560
(dp561
g74
(dp562
sg83
g476
sg76
(lp563
g69
(g90
g71
NtRp564
(dp565
g74
(dp566
g94
g95
ssg83
g560
sg76
(lp567
g379
asbag69
(g90
g71
NtRp568
(dp569
g74
(dp570
g101
g102
ssg83
g560
sg76
(lp571
S':'
asbag69
(g90
g71
NtRp572
(dp573
g74
(dp574
sg83
g560
sg76
(lp575
g69
(g70
g71
NtRp576
(dp577
g74
(dp578
g82
I3
ssg83
g572
sg76
(lp579
S''
asbasbasbag69
(g85
g71
NtRp580
(dp581
g74
(dp582
sg83
g476
sg76
(lp583
g69
(g90
g71
NtRp584
(dp585
g74
(dp586
g94
g95
ssg83
g580
sg76
(lp587
g400
asbag69
(g90
g71
NtRp588
(dp589
g74
(dp590
g101
g102
ssg83
g580
sg76
(lp591
S':'
asbag69
(g90
g71
NtRp592
(dp593
g74
(dp594
sg83
g580
sg76
(lp595
g69
(g70
g71
NtRp596
(dp597
g74
(dp598
g82
I3
ssg83
g592
sg76
(lp599
S''
asbasbasbag69
(g85
g71
NtRp600
(dp601
g74
(dp602
sg83
g476
sg76
(lp603
g69
(g90
g71
NtRp604
(dp605
g74
(dp606
g94
g95
ssg83
g600
sg76
(lp607
g421
asbag69
(g90
g71
NtRp608
(dp609
g74
(dp610
g101
g102
ssg83
g600
sg76
(lp611
S':'
asbag69
(g90
g71
NtRp612
(dp613
g74
(dp614
sg83
g600
sg76
(lp615
g69
(g70
g71
NtRp616
(dp617
g74
(dp618
g82
I3
ssg83
g612
sg76
(lp619
S''
asbasbasbag69
(g85
g71
NtRp620
(dp621
g74
(dp622
sg83
g476
sg76
(lp623
g69
(g90
g71
NtRp624
(dp625
g74
(dp626
g94
g95
ssg83
g620
sg76
(lp627
g442
asbag69
(g90
g71
NtRp628
(dp629
g74
(dp630
g101
g102
ssg83
g620
sg76
(lp631
S':'
asbag69
(g90
g71
NtRp632
(dp633
g74
(dp634
sg83
g620
sg76
(lp635
g69
(g70
g71
NtRp636
(dp637
g74
(dp638
g82
I3
ssg83
g632
sg76
(lp639
S''
asbasbasbasbasbasbasbag69
(g85
g71
NtRp640
(dp641
g74
(dp642
sg83
g258
sg76
(lp643
g69
(g90
g71
NtRp644
(dp645
g74
(dp646
g94
g95
ssg83
g640
sg76
(lp647
S'session_id_welcome'
p648
asbag69
(g90
g71
NtRp649
(dp650
g74
(dp651
g101
g102
ssg83
g640
sg76
(lp652
S':'
asbag69
(g90
g71
NtRp653
(dp654
g74
(dp655
sg83
g640
sg76
(lp656
g69
(g70
g71
NtRp657
(dp658
g74
(dp659
g82
I4
ssg83
g653
sg76
(lp660
g69
(g78
g71
NtRp661
(dp662
g74
(dp663
g82
I3
ssg83
Nsg76
(lp664
g69
(g85
g71
NtRp665
(dp666
g74
(dp667
sg83
g661
sg76
(lp668
g69
(g90
g71
NtRp669
(dp670
g74
(dp671
g94
g95
ssg83
g665
sg76
(lp672
g295
asbag69
(g90
g71
NtRp673
(dp674
g74
(dp675
g101
g102
ssg83
g665
sg76
(lp676
S':'
asbag69
(g90
g71
NtRp677
(dp678
g74
(dp679
sg83
g665
sg76
(lp680
g69
(g70
g71
NtRp681
(dp682
g74
(dp683
g82
I3
ssg83
g677
sg76
(lp684
S''
asbasbasbag69
(g85
g71
NtRp685
(dp686
g74
(dp687
sg83
g661
sg76
(lp688
g69
(g90
g71
NtRp689
(dp690
g74
(dp691
g94
g95
ssg83
g685
sg76
(lp692
g316
asbag69
(g90
g71
NtRp693
(dp694
g74
(dp695
g101
g102
ssg83
g685
sg76
(lp696
S':'
asbag69
(g90
g71
NtRp697
(dp698
g74
(dp699
sg83
g685
sg76
(lp700
g69
(g70
g71
NtRp701
(dp702
g74
(dp703
g82
I3
ssg83
g697
sg76
(lp704
S''
asbasbasbag69
(g85
g71
NtRp705
(dp706
g74
(dp707
sg83
g661
sg76
(lp708
g69
(g90
g71
NtRp709
(dp710
g74
(dp711
g94
g95
ssg83
g705
sg76
(lp712
g337
asbag69
(g90
g71
NtRp713
(dp714
g74
(dp715
g101
g102
ssg83
g705
sg76
(lp716
S':'
asbag69
(g90
g71
NtRp717
(dp718
g74
(dp719
sg83
g705
sg76
(lp720
g69
(g70
g71
NtRp721
(dp722
g74
(dp723
g82
I3
ssg83
g717
sg76
(lp724
S''
asbasbasbag69
(g85
g71
NtRp725
(dp726
g74
(dp727
sg83
g661
sg76
(lp728
g69
(g90
g71
NtRp729
(dp730
g74
(dp731
g94
g95
ssg83
g725
sg76
(lp732
g358
asbag69
(g90
g71
NtRp733
(dp734
g74
(dp735
g101
g102
ssg83
g725
sg76
(lp736
S':'
asbag69
(g90
g71
NtRp737
(dp738
g74
(dp739
sg83
g725
sg76
(lp740
g69
(g70
g71
NtRp741
(dp742
g74
(dp743
g82
I3
ssg83
g737
sg76
(lp744
S''
asbasbasbag69
(g85
g71
NtRp745
(dp746
g74
(dp747
sg83
g661
sg76
(lp748
g69
(g90
g71
NtRp749
(dp750
g74
(dp751
g94
g95
ssg83
g745
sg76
(lp752
g379
asbag69
(g90
g71
NtRp753
(dp754
g74
(dp755
g101
g102
ssg83
g745
sg76
(lp756
S':'
asbag69
(g90
g71
NtRp757
(dp758
g74
(dp759
sg83
g745
sg76
(lp760
g69
(g70
g71
NtRp761
(dp762
g74
(dp763
g82
I3
ssg83
g757
sg76
(lp764
S''
asbasbasbag69
(g85
g71
NtRp765
(dp766
g74
(dp767
sg83
g661
sg76
(lp768
g69
(g90
g71
NtRp769
(dp770
g74
(dp771
g94
g95
ssg83
g765
sg76
(lp772
g400
asbag69
(g90
g71
NtRp773
(dp774
g74
(dp775
g101
g102
ssg83
g765
sg76
(lp776
S':'
asbag69
(g90
g71
NtRp777
(dp778
g74
(dp779
sg83
g765
sg76
(lp780
g69
(g70
g71
NtRp781
(dp782
g74
(dp783
g82
I3
ssg83
g777
sg76
(lp784
S''
asbasbasbag69
(g85
g71
NtRp785
(dp786
g74
(dp787
sg83
g661
sg76
(lp788
g69
(g90
g71
NtRp789
(dp790
g74
(dp791
g94
g95
ssg83
g785
sg76
(lp792
g421
asbag69
(g90
g71
NtRp793
(dp794
g74
(dp795
g101
g102
ssg83
g785
sg76
(lp796
S':'
asbag69
(g90
g71
NtRp797
(dp798
g74
(dp799
sg83
g785
sg76
(lp800
g69
(g70
g71
NtRp801
(dp802
g74
(dp803
g82
I3
ssg83
g797
sg76
(lp804
S''
asbasbasbag69
(g85
g71
NtRp805
(dp806
g74
(dp807
sg83
g661
sg76
(lp808
g69
(g90
g71
NtRp809
(dp810
g74
(dp811
g94
g95
ssg83
g805
sg76
(lp812
g442
asbag69
(g90
g71
NtRp813
(dp814
g74
(dp815
g101
g102
ssg83
g805
sg76
(lp816
S':'
asbag69
(g90
g71
NtRp817
(dp818
g74
(dp819
sg83
g805
sg76
(lp820
g69
(g70
g71
NtRp821
(dp822
g74
(dp823
g82
I3
ssg83
g817
sg76
(lp824
S''
asbasbasbasbasbasbasbasbasbasbasbag69
(g85
g71
NtRp825
(dp826
g74
(dp827
sg83
g79
sg76
(lp828
g69
(g90
g71
NtRp829
(dp830
g74
(dp831
g94
g95
ssg83
g825
sg76
(lp832
S'env'
p833
asbag69
(g90
g71
NtRp834
(dp835
g74
(dp836
g101
g102
ssg83
g825
sg76
(lp837
S':'
asbag69
(g90
g71
NtRp838
(dp839
g74
(dp840
sg83
g825
sg76
(lp841
g69
(g70
g71
NtRp842
(dp843
g74
(dp844
g82
I5
ssg83
g838
sg76
(lp845
g69
(g78
g71
NtRp846
(dp847
g74
(dp848
g82
I4
ssg83
Nsg76
(lp849
g69
(g85
g71
NtRp850
(dp851
g74
(dp852
sg83
g846
sg76
(lp853
g69
(g90
g71
NtRp854
(dp855
g74
(dp856
g94
g95
ssg83
g850
sg76
(lp857
S'app_folders'
p858
asbag69
(g90
g71
NtRp859
(dp860
g74
(dp861
g101
g102
ssg83
g850
sg76
(lp862
S':'
asbag69
(g90
g71
NtRp863
(dp864
g74
(dp865
sg83
g850
sg76
(lp866
g69
(g70
g71
NtRp867
(dp868
g74
(dp869
g82
I4
ssg83
g863
sg76
(lp870
S"set(['/home/ds-iiit/web2py/applications/Gordian_Knot/', '/home/ds-iiit/web2py/applications/welcome/', '/home/ds-iiit/web2py/applications/admin/'])"
p871
asbasbasbag69
(g85
g71
NtRp872
(dp873
g74
(dp874
sg83
g846
sg76
(lp875
g69
(g90
g71
NtRp876
(dp877
g74
(dp878
g94
g95
ssg83
g872
sg76
(lp879
S'applications_parent'
p880
asbag69
(g90
g71
NtRp881
(dp882
g74
(dp883
g101
g102
ssg83
g872
sg76
(lp884
S':'
asbag69
(g90
g71
NtRp885
(dp886
g74
(dp887
sg83
g872
sg76
(lp888
g69
(g70
g71
NtRp889
(dp890
g74
(dp891
g82
I4
ssg83
g885
sg76
(lp892
S'/home/ds-iiit/web2py'
p893
asbasbasbag69
(g85
g71
NtRp894
(dp895
g74
(dp896
sg83
g846
sg76
(lp897
g69
(g90
g71
NtRp898
(dp899
g74
(dp900
g94
g95
ssg83
g894
sg76
(lp901
S'cmd_args'
p902
asbag69
(g90
g71
NtRp903
(dp904
g74
(dp905
g101
g102
ssg83
g894
sg76
(lp906
S':'
asbag69
(g90
g71
NtRp907
(dp908
g74
(dp909
sg83
g894
sg76
(lp910
g69
(g70
g71
NtRp911
(dp912
g74
(dp913
g82
I4
ssg83
g907
sg76
(lp914
g69
(g78
g71
NtRp915
(dp916
g74
(dp917
g82
I3
ssg83
Nsg76
(lp918
sbasbasbasbag69
(g85
g71
NtRp919
(dp920
g74
(dp921
sg83
g846
sg76
(lp922
g69
(g90
g71
NtRp923
(dp924
g74
(dp925
g94
g95
ssg83
g919
sg76
(lp926
S'cmd_options'
p927
asbag69
(g90
g71
NtRp928
(dp929
g74
(dp930
g101
g102
ssg83
g919
sg76
(lp931
S':'
asbag69
(g90
g71
NtRp932
(dp933
g74
(dp934
sg83
g919
sg76
(lp935
g69
(g70
g71
NtRp936
(dp937
g74
(dp938
g82
I4
ssg83
g932
sg76
(lp939
S"<Values at 0x29bbdd0: {'verbose': False, 'ip': '127.0.0.1', 'shutdown_timeout': 5, 'taskbar': False, 'port': 8000, 'maxthreads': None, 'softcron': False, 'server_name': 'DS-IIIT', 'bpython': False, 'nogui': False, 'nocron': False, 'extcron': False, 'debuglevel': 30, 'test': None, 'folder': '/home/ds-iiit/web2py', 'config': '', 'import_models': False, 'winservice': '', 'shell': None, 'run': '', 'log_filename': 'httpserver.log', 'args': [''], 'socket_timeout': 1, 'profiler_filename': None, 'ssl_private_key': '', 'password': '<ask>', 'request_queue_size': 5, 'ssl_certificate': '', 'cronjob': False, 'plain': False, 'quiet': False, 'interfaces': None, 'minthreads': None, 'timeout': 10, 'numthreads': None, 'nobanner': False, 'pid_filename': 'httpserver.pid'}>"
p940
asbasbasbag69
(g85
g71
NtRp941
(dp942
g74
(dp943
sg83
g846
sg76
(lp944
g69
(g90
g71
NtRp945
(dp946
g74
(dp947
g94
g95
ssg83
g941
sg76
(lp948
S'db_sessions'
p949
asbag69
(g90
g71
NtRp950
(dp951
g74
(dp952
g101
g102
ssg83
g941
sg76
(lp953
S':'
asbag69
(g90
g71
NtRp954
(dp955
g74
(dp956
sg83
g941
sg76
(lp957
g69
(g70
g71
NtRp958
(dp959
g74
(dp960
g82
I4
ssg83
g954
sg76
(lp961
S'set([])'
p962
asbasbasbag69
(g85
g71
NtRp963
(dp964
g74
(dp965
sg83
g846
sg76
(lp966
g69
(g90
g71
NtRp967
(dp968
g74
(dp969
g94
g95
ssg83
g963
sg76
(lp970
S'debugging'
p971
asbag69
(g90
g71
NtRp972
(dp973
g74
(dp974
g101
g102
ssg83
g963
sg76
(lp975
S':'
asbag69
(g90
g71
NtRp976
(dp977
g74
(dp978
sg83
g963
sg76
(lp979
g69
(g70
g71
NtRp980
(dp981
g74
(dp982
g82
I4
ssg83
g976
sg76
(lp983
g112
asbasbasbag69
(g85
g71
NtRp984
(dp985
g74
(dp986
sg83
g846
sg76
(lp987
g69
(g90
g71
NtRp988
(dp989
g74
(dp990
g94
g95
ssg83
g984
sg76
(lp991
S'gluon_parent'
p992
asbag69
(g90
g71
NtRp993
(dp994
g74
(dp995
g101
g102
ssg83
g984
sg76
(lp996
S':'
asbag69
(g90
g71
NtRp997
(dp998
g74
(dp999
sg83
g984
sg76
(lp1000
g69
(g70
g71
NtRp1001
(dp1002
g74
(dp1003
g82
I4
ssg83
g997
sg76
(lp1004
S'/usr/share/web2py'
p1005
asbasbasbag69
(g85
g71
NtRp1006
(dp1007
g74
(dp1008
sg83
g846
sg76
(lp1009
g69
(g90
g71
NtRp1010
(dp1011
g74
(dp1012
g94
g95
ssg83
g1006
sg76
(lp1013
S'http_accept'
p1014
asbag69
(g90
g71
NtRp1015
(dp1016
g74
(dp1017
g101
g102
ssg83
g1006
sg76
(lp1018
S':'
asbag69
(g90
g71
NtRp1019
(dp1020
g74
(dp1021
sg83
g1006
sg76
(lp1022
g69
(g70
g71
NtRp1023
(dp1024
g74
(dp1025
g82
I4
ssg83
g1019
sg76
(lp1026
S'text/html,application/xhtml+xml,application/xml;q=0.9,*/*;q=0.8'
p1027
asbasbasbag69
(g85
g71
NtRp1028
(dp1029
g74
(dp1030
sg83
g846
sg76
(lp1031
g69
(g90
g71
NtRp1032
(dp1033
g74
(dp1034
g94
g95
ssg83
g1028
sg76
(lp1035
S'http_accept_encoding'
p1036
asbag69
(g90
g71
NtRp1037
(dp1038
g74
(dp1039
g101
g102
ssg83
g1028
sg76
(lp1040
S':'
asbag69
(g90
g71
NtRp1041
(dp1042
g74
(dp1043
sg83
g1028
sg76
(lp1044
g69
(g70
g71
NtRp1045
(dp1046
g74
(dp1047
g82
I4
ssg83
g1041
sg76
(lp1048
S'gzip,deflate,sdch'
p1049
asbasbasbag69
(g85
g71
NtRp1050
(dp1051
g74
(dp1052
sg83
g846
sg76
(lp1053
g69
(g90
g71
NtRp1054
(dp1055
g74
(dp1056
g94
g95
ssg83
g1050
sg76
(lp1057
S'http_accept_language'
p1058
asbag69
(g90
g71
NtRp1059
(dp1060
g74
(dp1061
g101
g102
ssg83
g1050
sg76
(lp1062
S':'
asbag69
(g90
g71
NtRp1063
(dp1064
g74
(dp1065
sg83
g1050
sg76
(lp1066
g69
(g70
g71
NtRp1067
(dp1068
g74
(dp1069
g82
I4
ssg83
g1063
sg76
(lp1070
S'en-US,en;q=0.8'
p1071
asbasbasbag69
(g85
g71
NtRp1072
(dp1073
g74
(dp1074
sg83
g846
sg76
(lp1075
g69
(g90
g71
NtRp1076
(dp1077
g74
(dp1078
g94
g95
ssg83
g1072
sg76
(lp1079
S'http_cache_control'
p1080
asbag69
(g90
g71
NtRp1081
(dp1082
g74
(dp1083
g101
g102
ssg83
g1072
sg76
(lp1084
S':'
asbag69
(g90
g71
NtRp1085
(dp1086
g74
(dp1087
sg83
g1072
sg76
(lp1088
g69
(g70
g71
NtRp1089
(dp1090
g74
(dp1091
g82
I4
ssg83
g1085
sg76
(lp1092
S'max-age=0'
p1093
asbasbasbag69
(g85
g71
NtRp1094
(dp1095
g74
(dp1096
sg83
g846
sg76
(lp1097
g69
(g90
g71
NtRp1098
(dp1099
g74
(dp1100
g94
g95
ssg83
g1094
sg76
(lp1101
S'http_connection'
p1102
asbag69
(g90
g71
NtRp1103
(dp1104
g74
(dp1105
g101
g102
ssg83
g1094
sg76
(lp1106
S':'
asbag69
(g90
g71
NtRp1107
(dp1108
g74
(dp1109
sg83
g1094
sg76
(lp1110
g69
(g70
g71
NtRp1111
(dp1112
g74
(dp1113
g82
I4
ssg83
g1107
sg76
(lp1114
S'keep-alive'
p1115
asbasbasbag69
(g85
g71
NtRp1116
(dp1117
g74
(dp1118
sg83
g846
sg76
(lp1119
g69
(g90
g71
NtRp1120
(dp1121
g74
(dp1122
g94
g95
ssg83
g1116
sg76
(lp1123
S'http_cookie'
p1124
asbag69
(g90
g71
NtRp1125
(dp1126
g74
(dp1127
g101
g102
ssg83
g1116
sg76
(lp1128
S':'
asbag69
(g90
g71
NtRp1129
(dp1130
g74
(dp1131
sg83
g1116
sg76
(lp1132
g69
(g70
g71
NtRp1133
(dp1134
g74
(dp1135
g82
I4
ssg83
g1129
sg76
(lp1136
S'session_id_welcome=127.0.0.1-4e28eb00-9390-42b6-b28b-84e33f3f3dc5; session_id_admin=127.0.0.1-99be9dae-8f31-4d84-8ac1-dd5f88d7bf21; session_id_gordian_knot=127.0.0.1-7cbbc713-1cb8-4d74-8c67-ceeed6d4fabf'
p1137
asbasbasbag69
(g85
g71
NtRp1138
(dp1139
g74
(dp1140
sg83
g846
sg76
(lp1141
g69
(g90
g71
NtRp1142
(dp1143
g74
(dp1144
g94
g95
ssg83
g1138
sg76
(lp1145
S'http_host'
p1146
asbag69
(g90
g71
NtRp1147
(dp1148
g74
(dp1149
g101
g102
ssg83
g1138
sg76
(lp1150
S':'
asbag69
(g90
g71
NtRp1151
(dp1152
g74
(dp1153
sg83
g1138
sg76
(lp1154
g69
(g70
g71
NtRp1155
(dp1156
g74
(dp1157
g82
I4
ssg83
g1151
sg76
(lp1158
S'127.0.0.1:8001'
p1159
asbasbasbag69
(g85
g71
NtRp1160
(dp1161
g74
(dp1162
sg83
g846
sg76
(lp1163
g69
(g90
g71
NtRp1164
(dp1165
g74
(dp1166
g94
g95
ssg83
g1160
sg76
(lp1167
S'http_referer'
p1168
asbag69
(g90
g71
NtRp1169
(dp1170
g74
(dp1171
g101
g102
ssg83
g1160
sg76
(lp1172
S':'
asbag69
(g90
g71
NtRp1173
(dp1174
g74
(dp1175
sg83
g1160
sg76
(lp1176
g69
(g70
g71
NtRp1177
(dp1178
g74
(dp1179
g82
I4
ssg83
g1173
sg76
(lp1180
S'http://127.0.0.1:8001/Gordian_Knot/default/landing'
p1181
asbasbasbag69
(g85
g71
NtRp1182
(dp1183
g74
(dp1184
sg83
g846
sg76
(lp1185
g69
(g90
g71
NtRp1186
(dp1187
g74
(dp1188
g94
g95
ssg83
g1182
sg76
(lp1189
S'http_user_agent'
p1190
asbag69
(g90
g71
NtRp1191
(dp1192
g74
(dp1193
g101
g102
ssg83
g1182
sg76
(lp1194
S':'
asbag69
(g90
g71
NtRp1195
(dp1196
g74
(dp1197
sg83
g1182
sg76
(lp1198
g69
(g70
g71
NtRp1199
(dp1200
g74
(dp1201
g82
I4
ssg83
g1195
sg76
(lp1202
S'Mozilla/5.0 (X11; Linux x86_64) AppleWebKit/537.36 (KHTML, like Gecko) Chrome/29.0.1547.57 Safari/537.36'
p1203
asbasbasbag69
(g85
g71
NtRp1204
(dp1205
g74
(dp1206
sg83
g846
sg76
(lp1207
g69
(g90
g71
NtRp1208
(dp1209
g74
(dp1210
g94
g95
ssg83
g1204
sg76
(lp1211
S'is_jython'
p1212
asbag69
(g90
g71
NtRp1213
(dp1214
g74
(dp1215
g101
g102
ssg83
g1204
sg76
(lp1216
S':'
asbag69
(g90
g71
NtRp1217
(dp1218
g74
(dp1219
sg83
g1204
sg76
(lp1220
g69
(g70
g71
NtRp1221
(dp1222
g74
(dp1223
g82
I4
ssg83
g1217
sg76
(lp1224
g112
asbasbasbag69
(g85
g71
NtRp1225
(dp1226
g74
(dp1227
sg83
g846
sg76
(lp1228
g69
(g90
g71
NtRp1229
(dp1230
g74
(dp1231
g94
g95
ssg83
g1225
sg76
(lp1232
S'is_pypy'
p1233
asbag69
(g90
g71
NtRp1234
(dp1235
g74
(dp1236
g101
g102
ssg83
g1225
sg76
(lp1237
S':'
asbag69
(g90
g71
NtRp1238
(dp1239
g74
(dp1240
sg83
g1225
sg76
(lp1241
g69
(g70
g71
NtRp1242
(dp1243
g74
(dp1244
g82
I4
ssg83
g1238
sg76
(lp1245
g112
asbasbasbag69
(g85
g71
NtRp1246
(dp1247
g74
(dp1248
sg83
g846
sg76
(lp1249
g69
(g90
g71
NtRp1250
(dp1251
g74
(dp1252
g94
g95
ssg83
g1246
sg76
(lp1253
S'path_info'
p1254
asbag69
(g90
g71
NtRp1255
(dp1256
g74
(dp1257
g101
g102
ssg83
g1246
sg76
(lp1258
S':'
asbag69
(g90
g71
NtRp1259
(dp1260
g74
(dp1261
sg83
g1246
sg76
(lp1262
g69
(g70
g71
NtRp1263
(dp1264
g74
(dp1265
g82
I4
ssg83
g1259
sg76
(lp1266
S'/Gordian_Knot/default/question/0'
p1267
asbasbasbag69
(g85
g71
NtRp1268
(dp1269
g74
(dp1270
sg83
g846
sg76
(lp1271
g69
(g90
g71
NtRp1272
(dp1273
g74
(dp1274
g94
g95
ssg83
g1268
sg76
(lp1275
S'query_string'
p1276
asbag69
(g90
g71
NtRp1277
(dp1278
g74
(dp1279
g101
g102
ssg83
g1268
sg76
(lp1280
S':'
asbag69
(g90
g71
NtRp1281
(dp1282
g74
(dp1283
sg83
g1268
sg76
(lp1284
g69
(g70
g71
NtRp1285
(dp1286
g74
(dp1287
g82
I4
ssg83
g1281
sg76
(lp1288
S''
asbasbasbag69
(g85
g71
NtRp1289
(dp1290
g74
(dp1291
sg83
g846
sg76
(lp1292
g69
(g90
g71
NtRp1293
(dp1294
g74
(dp1295
g94
g95
ssg83
g1289
sg76
(lp1296
S'remote_addr'
p1297
asbag69
(g90
g71
NtRp1298
(dp1299
g74
(dp1300
g101
g102
ssg83
g1289
sg76
(lp1301
S':'
asbag69
(g90
g71
NtRp1302
(dp1303
g74
(dp1304
sg83
g1289
sg76
(lp1305
g69
(g70
g71
NtRp1306
(dp1307
g74
(dp1308
g82
I4
ssg83
g1302
sg76
(lp1309
g214
asbasbasbag69
(g85
g71
NtRp1310
(dp1311
g74
(dp1312
sg83
g846
sg76
(lp1313
g69
(g90
g71
NtRp1314
(dp1315
g74
(dp1316
g94
g95
ssg83
g1310
sg76
(lp1317
S'remote_port'
p1318
asbag69
(g90
g71
NtRp1319
(dp1320
g74
(dp1321
g101
g102
ssg83
g1310
sg76
(lp1322
S':'
asbag69
(g90
g71
NtRp1323
(dp1324
g74
(dp1325
sg83
g1310
sg76
(lp1326
g69
(g70
g71
NtRp1327
(dp1328
g74
(dp1329
g82
I4
ssg83
g1323
sg76
(lp1330
S'40177'
p1331
asbasbasbag69
(g85
g71
NtRp1332
(dp1333
g74
(dp1334
sg83
g846
sg76
(lp1335
g69
(g90
g71
NtRp1336
(dp1337
g74
(dp1338
g94
g95
ssg83
g1332
sg76
(lp1339
S'request_method'
p1340
asbag69
(g90
g71
NtRp1341
(dp1342
g74
(dp1343
g101
g102
ssg83
g1332
sg76
(lp1344
S':'
asbag69
(g90
g71
NtRp1345
(dp1346
g74
(dp1347
sg83
g1332
sg76
(lp1348
g69
(g70
g71
NtRp1349
(dp1350
g74
(dp1351
g82
I4
ssg83
g1345
sg76
(lp1352
S'GET'
p1353
asbasbasbag69
(g85
g71
NtRp1354
(dp1355
g74
(dp1356
sg83
g846
sg76
(lp1357
g69
(g90
g71
NtRp1358
(dp1359
g74
(dp1360
g94
g95
ssg83
g1354
sg76
(lp1361
S'script_name'
p1362
asbag69
(g90
g71
NtRp1363
(dp1364
g74
(dp1365
g101
g102
ssg83
g1354
sg76
(lp1366
S':'
asbag69
(g90
g71
NtRp1367
(dp1368
g74
(dp1369
sg83
g1354
sg76
(lp1370
g69
(g70
g71
NtRp1371
(dp1372
g74
(dp1373
g82
I4
ssg83
g1367
sg76
(lp1374
S''
asbasbasbag69
(g85
g71
NtRp1375
(dp1376
g74
(dp1377
sg83
g846
sg76
(lp1378
g69
(g90
g71
NtRp1379
(dp1380
g74
(dp1381
g94
g95
ssg83
g1375
sg76
(lp1382
S'server_name'
p1383
asbag69
(g90
g71
NtRp1384
(dp1385
g74
(dp1386
g101
g102
ssg83
g1375
sg76
(lp1387
S':'
asbag69
(g90
g71
NtRp1388
(dp1389
g74
(dp1390
sg83
g1375
sg76
(lp1391
g69
(g70
g71
NtRp1392
(dp1393
g74
(dp1394
g82
I4
ssg83
g1388
sg76
(lp1395
S'DS-IIIT'
p1396
asbasbasbag69
(g85
g71
NtRp1397
(dp1398
g74
(dp1399
sg83
g846
sg76
(lp1400
g69
(g90
g71
NtRp1401
(dp1402
g74
(dp1403
g94
g95
ssg83
g1397
sg76
(lp1404
S'server_port'
p1405
asbag69
(g90
g71
NtRp1406
(dp1407
g74
(dp1408
g101
g102
ssg83
g1397
sg76
(lp1409
S':'
asbag69
(g90
g71
NtRp1410
(dp1411
g74
(dp1412
sg83
g1397
sg76
(lp1413
g69
(g70
g71
NtRp1414
(dp1415
g74
(dp1416
g82
I4
ssg83
g1410
sg76
(lp1417
S'8001'
p1418
asbasbasbag69
(g85
g71
NtRp1419
(dp1420
g74
(dp1421
sg83
g846
sg76
(lp1422
g69
(g90
g71
NtRp1423
(dp1424
g74
(dp1425
g94
g95
ssg83
g1419
sg76
(lp1426
S'server_protocol'
p1427
asbag69
(g90
g71
NtRp1428
(dp1429
g74
(dp1430
g101
g102
ssg83
g1419
sg76
(lp1431
S':'
asbag69
(g90
g71
NtRp1432
(dp1433
g74
(dp1434
sg83
g1419
sg76
(lp1435
g69
(g70
g71
NtRp1436
(dp1437
g74
(dp1438
g82
I4
ssg83
g1432
sg76
(lp1439
S'HTTP/1.1'
p1440
asbasbasbag69
(g85
g71
NtRp1441
(dp1442
g74
(dp1443
sg83
g846
sg76
(lp1444
g69
(g90
g71
NtRp1445
(dp1446
g74
(dp1447
g94
g95
ssg83
g1441
sg76
(lp1448
S'server_software'
p1449
asbag69
(g90
g71
NtRp1450
(dp1451
g74
(dp1452
g101
g102
ssg83
g1441
sg76
(lp1453
S':'
asbag69
(g90
g71
NtRp1454
(dp1455
g74
(dp1456
sg83
g1441
sg76
(lp1457
g69
(g70
g71
NtRp1458
(dp1459
g74
(dp1460
g82
I4
ssg83
g1454
sg76
(lp1461
S'Rocket 1.2.4'
p1462
asbasbasbag69
(g85
g71
NtRp1463
(dp1464
g74
(dp1465
sg83
g846
sg76
(lp1466
g69
(g90
g71
NtRp1467
(dp1468
g74
(dp1469
g94
g95
ssg83
g1463
sg76
(lp1470
S'web2py_crontype'
p1471
asbag69
(g90
g71
NtRp1472
(dp1473
g74
(dp1474
g101
g102
ssg83
g1463
sg76
(lp1475
S':'
asbag69
(g90
g71
NtRp1476
(dp1477
g74
(dp1478
sg83
g1463
sg76
(lp1479
g69
(g70
g71
NtRp1480
(dp1481
g74
(dp1482
g82
I4
ssg83
g1476
sg76
(lp1483
S'hard'
p1484
asbasbasbag69
(g85
g71
NtRp1485
(dp1486
g74
(dp1487
sg83
g846
sg76
(lp1488
g69
(g90
g71
NtRp1489
(dp1490
g74
(dp1491
g94
g95
ssg83
g1485
sg76
(lp1492
S'web2py_path'
p1493
asbag69
(g90
g71
NtRp1494
(dp1495
g74
(dp1496
g101
g102
ssg83
g1485
sg76
(lp1497
S':'
asbag69
(g90
g71
NtRp1498
(dp1499
g74
(dp1500
sg83
g1485
sg76
(lp1501
g69
(g70
g71
NtRp1502
(dp1503
g74
(dp1504
g82
I4
ssg83
g1498
sg76
(lp1505
g893
asbasbasbag69
(g85
g71
NtRp1506
(dp1507
g74
(dp1508
sg83
g846
sg76
(lp1509
g69
(g90
g71
NtRp1510
(dp1511
g74
(dp1512
g94
g95
ssg83
g1506
sg76
(lp1513
S'web2py_version'
p1514
asbag69
(g90
g71
NtRp1515
(dp1516
g74
(dp1517
g101
g102
ssg83
g1506
sg76
(lp1518
S':'
asbag69
(g90
g71
NtRp1519
(dp1520
g74
(dp1521
sg83
g1506
sg76
(lp1522
g69
(g70
g71
NtRp1523
(dp1524
g74
(dp1525
g82
I4
ssg83
g1519
sg76
(lp1526
g69
(g78
g71
NtRp1527
(dp1528
g74
(dp1529
g82
I3
ssg83
Nsg76
(lp1530
g69
(g85
g71
NtRp1531
(dp1532
g74
(dp1533
sg83
g1527
sg76
(lp1534
g69
(g90
g71
NtRp1535
(dp1536
g74
(dp1537
sg83
g1531
sg76
(lp1538
g69
(g70
g71
NtRp1539
(dp1540
g74
(dp1541
g82
I3
ssg83
g1535
sg76
(lp1542
S'1'
asbasbasbag69
(g85
g71
NtRp1543
(dp1544
g74
(dp1545
sg83
g1527
sg76
(lp1546
g69
(g90
g71
NtRp1547
(dp1548
g74
(dp1549
sg83
g1543
sg76
(lp1550
g69
(g70
g71
NtRp1551
(dp1552
g74
(dp1553
g82
I3
ssg83
g1547
sg76
(lp1554
S'99'
p1555
asbasbasbag69
(g85
g71
NtRp1556
(dp1557
g74
(dp1558
sg83
g1527
sg76
(lp1559
g69
(g90
g71
NtRp1560
(dp1561
g74
(dp1562
sg83
g1556
sg76
(lp1563
g69
(g70
g71
NtRp1564
(dp1565
g74
(dp1566
g82
I3
ssg83
g1560
sg76
(lp1567
S'4'
asbasbasbag69
(g85
g71
NtRp1568
(dp1569
g74
(dp1570
sg83
g1527
sg76
(lp1571
g69
(g90
g71
NtRp1572
(dp1573
g74
(dp1574
sg83
g1568
sg76
(lp1575
g69
(g70
g71
NtRp1576
(dp1577
g74
(dp1578
g82
I3
ssg83
g1572
sg76
(lp1579
S'datetime.datetime(2011, 12, 14, 14, 46, 14)'
p1580
asbasbasbag69
(g85
g71
NtRp1581
(dp1582
g74
(dp1583
sg83
g1527
sg76
(lp1584
g69
(g90
g71
NtRp1585
(dp1586
g74
(dp1587
sg83
g1581
sg76
(lp1588
g69
(g70
g71
NtRp1589
(dp1590
g74
(dp1591
g82
I3
ssg83
g1585
sg76
(lp1592
S'stable'
p1593
asbasbasbasbasbasbasbag69
(g85
g71
NtRp1594
(dp1595
g74
(dp1596
sg83
g846
sg76
(lp1597
g69
(g90
g71
NtRp1598
(dp1599
g74
(dp1600
g94
g95
ssg83
g1594
sg76
(lp1601
S'wsgi_errors'
p1602
asbag69
(g90
g71
NtRp1603
(dp1604
g74
(dp1605
g101
g102
ssg83
g1594
sg76
(lp1606
S':'
asbag69
(g90
g71
NtRp1607
(dp1608
g74
(dp1609
sg83
g1594
sg76
(lp1610
g69
(g70
g71
NtRp1611
(dp1612
g74
(dp1613
g82
I4
ssg83
g1607
sg76
(lp1614
S"<open file '<stderr>', mode 'w' at 0x7f0ddee12270>"
p1615
asbasbasbag69
(g85
g71
NtRp1616
(dp1617
g74
(dp1618
sg83
g846
sg76
(lp1619
g69
(g90
g71
NtRp1620
(dp1621
g74
(dp1622
g94
g95
ssg83
g1616
sg76
(lp1623
S'wsgi_file_wrapper'
p1624
asbag69
(g90
g71
NtRp1625
(dp1626
g74
(dp1627
g101
g102
ssg83
g1616
sg76
(lp1628
S':'
asbag69
(g90
g71
NtRp1629
(dp1630
g74
(dp1631
sg83
g1616
sg76
(lp1632
g69
(g70
g71
NtRp1633
(dp1634
g74
(dp1635
g82
I4
ssg83
g1629
sg76
(lp1636
S'<class wsgiref.util.FileWrapper at 0x29e8390>'
p1637
asbasbasbag69
(g85
g71
NtRp1638
(dp1639
g74
(dp1640
sg83
g846
sg76
(lp1641
g69
(g90
g71
NtRp1642
(dp1643
g74
(dp1644
g94
g95
ssg83
g1638
sg76
(lp1645
S'wsgi_input'
p1646
asbag69
(g90
g71
NtRp1647
(dp1648
g74
(dp1649
g101
g102
ssg83
g1638
sg76
(lp1650
S':'
asbag69
(g90
g71
NtRp1651
(dp1652
g74
(dp1653
sg83
g1638
sg76
(lp1654
g69
(g70
g71
NtRp1655
(dp1656
g74
(dp1657
g82
I4
ssg83
g1651
sg76
(lp1658
S'<socket._fileobject object at 0x7f0d941fec50>'
p1659
asbasbasbag69
(g85
g71
NtRp1660
(dp1661
g74
(dp1662
sg83
g846
sg76
(lp1663
g69
(g90
g71
NtRp1664
(dp1665
g74
(dp1666
g94
g95
ssg83
g1660
sg76
(lp1667
S'wsgi_multiprocess'
p1668
asbag69
(g90
g71
NtRp1669
(dp1670
g74
(dp1671
g101
g102
ssg83
g1660
sg76
(lp1672
S':'
asbag69
(g90
g71
NtRp1673
(dp1674
g74
(dp1675
sg83
g1660
sg76
(lp1676
g69
(g70
g71
NtRp1677
(dp1678
g74
(dp1679
g82
I4
ssg83
g1673
sg76
(lp1680
g112
asbasbasbag69
(g85
g71
NtRp1681
(dp1682
g74
(dp1683
sg83
g846
sg76
(lp1684
g69
(g90
g71
NtRp1685
(dp1686
g74
(dp1687
g94
g95
ssg83
g1681
sg76
(lp1688
S'wsgi_multithread'
p1689
asbag69
(g90
g71
NtRp1690
(dp1691
g74
(dp1692
g101
g102
ssg83
g1681
sg76
(lp1693
S':'
asbag69
(g90
g71
NtRp1694
(dp1695
g74
(dp1696
sg83
g1681
sg76
(lp1697
g69
(g70
g71
NtRp1698
(dp1699
g74
(dp1700
g82
I4
ssg83
g1694
sg76
(lp1701
S'True'
p1702
asbasbasbag69
(g85
g71
NtRp1703
(dp1704
g74
(dp1705
sg83
g846
sg76
(lp1706
g69
(g90
g71
NtRp1707
(dp1708
g74
(dp1709
g94
g95
ssg83
g1703
sg76
(lp1710
S'wsgi_run_once'
p1711
asbag69
(g90
g71
NtRp1712
(dp1713
g74
(dp1714
g101
g102
ssg83
g1703
sg76
(lp1715
S':'
asbag69
(g90
g71
NtRp1716
(dp1717
g74
(dp1718
sg83
g1703
sg76
(lp1719
g69
(g70
g71
NtRp1720
(dp1721
g74
(dp1722
g82
I4
ssg83
g1716
sg76
(lp1723
g112
asbasbasbag69
(g85
g71
NtRp1724
(dp1725
g74
(dp1726
sg83
g846
sg76
(lp1727
g69
(g90
g71
NtRp1728
(dp1729
g74
(dp1730
g94
g95
ssg83
g1724
sg76
(lp1731
S'wsgi_url_scheme'
p1732
asbag69
(g90
g71
NtRp1733
(dp1734
g74
(dp1735
g101
g102
ssg83
g1724
sg76
(lp1736
S':'
asbag69
(g90
g71
NtRp1737
(dp1738
g74
(dp1739
sg83
g1724
sg76
(lp1740
g69
(g70
g71
NtRp1741
(dp1742
g74
(dp1743
g82
I4
ssg83
g1737
sg76
(lp1744
S'http'
p1745
asbasbasbag69
(g85
g71
NtRp1746
(dp1747
g74
(dp1748
sg83
g846
sg76
(lp1749
g69
(g90
g71
NtRp1750
(dp1751
g74
(dp1752
g94
g95
ssg83
g1746
sg76
(lp1753
S'wsgi_version'
p1754
asbag69
(g90
g71
NtRp1755
(dp1756
g74
(dp1757
g101
g102
ssg83
g1746
sg76
(lp1758
S':'
asbag69
(g90
g71
NtRp1759
(dp1760
g74
(dp1761
sg83
g1746
sg76
(lp1762
g69
(g70
g71
NtRp1763
(dp1764
g74
(dp1765
g82
I4
ssg83
g1759
sg76
(lp1766
g69
(g78
g71
NtRp1767
(dp1768
g74
(dp1769
g82
I3
ssg83
Nsg76
(lp1770
g69
(g85
g71
NtRp1771
(dp1772
g74
(dp1773
sg83
g1767
sg76
(lp1774
g69
(g90
g71
NtRp1775
(dp1776
g74
(dp1777
sg83
g1771
sg76
(lp1778
g69
(g70
g71
NtRp1779
(dp1780
g74
(dp1781
g82
I3
ssg83
g1775
sg76
(lp1782
S'1'
asbasbasbag69
(g85
g71
NtRp1783
(dp1784
g74
(dp1785
sg83
g1767
sg76
(lp1786
g69
(g90
g71
NtRp1787
(dp1788
g74
(dp1789
sg83
g1783
sg76
(lp1790
g69
(g70
g71
NtRp1791
(dp1792
g74
(dp1793
g82
I3
ssg83
g1787
sg76
(lp1794
S'0'
asbasbasbasbasbasbasbasbasbasbasbag69
(g85
g71
NtRp1795
(dp1796
g74
(dp1797
sg83
g79
sg76
(lp1798
g69
(g90
g71
NtRp1799
(dp1800
g74
(dp1801
g94
g95
ssg83
g1795
sg76
(lp1802
S'extension'
p1803
asbag69
(g90
g71
NtRp1804
(dp1805
g74
(dp1806
g101
g102
ssg83
g1795
sg76
(lp1807
S':'
asbag69
(g90
g71
NtRp1808
(dp1809
g74
(dp1810
sg83
g1795
sg76
(lp1811
g69
(g70
g71
NtRp1812
(dp1813
g74
(dp1814
g82
I5
ssg83
g1808
sg76
(lp1815
S'html'
p1816
asbasbasbag69
(g85
g71
NtRp1817
(dp1818
g74
(dp1819
sg83
g79
sg76
(lp1820
g69
(g90
g71
NtRp1821
(dp1822
g74
(dp1823
g94
g95
ssg83
g1817
sg76
(lp1824
S'folder'
p1825
asbag69
(g90
g71
NtRp1826
(dp1827
g74
(dp1828
g101
g102
ssg83
g1817
sg76
(lp1829
S':'
asbag69
(g90
g71
NtRp1830
(dp1831
g74
(dp1832
sg83
g1817
sg76
(lp1833
g69
(g70
g71
NtRp1834
(dp1835
g74
(dp1836
g82
I5
ssg83
g1830
sg76
(lp1837
S'/home/ds-iiit/web2py/applications/Gordian_Knot/'
p1838
asbasbasbag69
(g85
g71
NtRp1839
(dp1840
g74
(dp1841
sg83
g79
sg76
(lp1842
g69
(g90
g71
NtRp1843
(dp1844
g74
(dp1845
g94
g95
ssg83
g1839
sg76
(lp1846
S'function'
p1847
asbag69
(g90
g71
NtRp1848
(dp1849
g74
(dp1850
g101
g102
ssg83
g1839
sg76
(lp1851
S':'
asbag69
(g90
g71
NtRp1852
(dp1853
g74
(dp1854
sg83
g1839
sg76
(lp1855
g69
(g70
g71
NtRp1856
(dp1857
g74
(dp1858
g82
I5
ssg83
g1852
sg76
(lp1859
S'question'
p1860
asbasbasbag69
(g85
g71
NtRp1861
(dp1862
g74
(dp1863
sg83
g79
sg76
(lp1864
g69
(g90
g71
NtRp1865
(dp1866
g74
(dp1867
g94
g95
ssg83
g1861
sg76
(lp1868
S'get_vars'
p1869
asbag69
(g90
g71
NtRp1870
(dp1871
g74
(dp1872
g101
g102
ssg83
g1861
sg76
(lp1873
S':'
asbag69
(g90
g71
NtRp1874
(dp1875
g74
(dp1876
sg83
g1861
sg76
(lp1877
g69
(g70
g71
NtRp1878
(dp1879
g74
(dp1880
g82
I5
ssg83
g1874
sg76
(lp1881
g69
(g78
g71
NtRp1882
(dp1883
g74
(dp1884
g82
I4
ssg83
Nsg76
(lp1885
sbasbasbasbag69
(g85
g71
NtRp1886
(dp1887
g74
(dp1888
sg83
g79
sg76
(lp1889
g69
(g90
g71
NtRp1890
(dp1891
g74
(dp1892
g94
g95
ssg83
g1886
sg76
(lp1893
S'global_settings'
p1894
asbag69
(g90
g71
NtRp1895
(dp1896
g74
(dp1897
g101
g102
ssg83
g1886
sg76
(lp1898
S':'
asbag69
(g90
g71
NtRp1899
(dp1900
g74
(dp1901
sg83
g1886
sg76
(lp1902
g69
(g70
g71
NtRp1903
(dp1904
g74
(dp1905
g82
I5
ssg83
g1899
sg76
(lp1906
g69
(g78
g71
NtRp1907
(dp1908
g74
(dp1909
g82
I4
ssg83
Nsg76
(lp1910
g69
(g85
g71
NtRp1911
(dp1912
g74
(dp1913
sg83
g1907
sg76
(lp1914
g69
(g90
g71
NtRp1915
(dp1916
g74
(dp1917
g94
g95
ssg83
g1911
sg76
(lp1918
g858
asbag69
(g90
g71
NtRp1919
(dp1920
g74
(dp1921
g101
g102
ssg83
g1911
sg76
(lp1922
S':'
asbag69
(g90
g71
NtRp1923
(dp1924
g74
(dp1925
sg83
g1911
sg76
(lp1926
g69
(g70
g71
NtRp1927
(dp1928
g74
(dp1929
g82
I4
ssg83
g1923
sg76
(lp1930
S"set(['/home/ds-iiit/web2py/applications/Gordian_Knot/', '/home/ds-iiit/web2py/applications/welcome/', '/home/ds-iiit/web2py/applications/admin/'])"
p1931
asbasbasbag69
(g85
g71
NtRp1932
(dp1933
g74
(dp1934
sg83
g1907
sg76
(lp1935
g69
(g90
g71
NtRp1936
(dp1937
g74
(dp1938
g94
g95
ssg83
g1932
sg76
(lp1939
g880
asbag69
(g90
g71
NtRp1940
(dp1941
g74
(dp1942
g101
g102
ssg83
g1932
sg76
(lp1943
S':'
asbag69
(g90
g71
NtRp1944
(dp1945
g74
(dp1946
sg83
g1932
sg76
(lp1947
g69
(g70
g71
NtRp1948
(dp1949
g74
(dp1950
g82
I4
ssg83
g1944
sg76
(lp1951
g893
asbasbasbag69
(g85
g71
NtRp1952
(dp1953
g74
(dp1954
sg83
g1907
sg76
(lp1955
g69
(g90
g71
NtRp1956
(dp1957
g74
(dp1958
g94
g95
ssg83
g1952
sg76
(lp1959
g902
asbag69
(g90
g71
NtRp1960
(dp1961
g74
(dp1962
g101
g102
ssg83
g1952
sg76
(lp1963
S':'
asbag69
(g90
g71
NtRp1964
(dp1965
g74
(dp1966
sg83
g1952
sg76
(lp1967
g69
(g70
g71
NtRp1968
(dp1969
g74
(dp1970
g82
I4
ssg83
g1964
sg76
(lp1971
g69
(g78
g71
NtRp1972
(dp1973
g74
(dp1974
g82
I3
ssg83
Nsg76
(lp1975
sbasbasbasbag69
(g85
g71
NtRp1976
(dp1977
g74
(dp1978
sg83
g1907
sg76
(lp1979
g69
(g90
g71
NtRp1980
(dp1981
g74
(dp1982
g94
g95
ssg83
g1976
sg76
(lp1983
g927
asbag69
(g90
g71
NtRp1984
(dp1985
g74
(dp1986
g101
g102
ssg83
g1976
sg76
(lp1987
S':'
asbag69
(g90
g71
NtRp1988
(dp1989
g74
(dp1990
sg83
g1976
sg76
(lp1991
g69
(g70
g71
NtRp1992
(dp1993
g74
(dp1994
g82
I4
ssg83
g1988
sg76
(lp1995
S"<Values at 0x29bbdd0: {'verbose': False, 'ip': '127.0.0.1', 'shutdown_timeout': 5, 'taskbar': False, 'port': 8000, 'maxthreads': None, 'softcron': False, 'server_name': 'DS-IIIT', 'bpython': False, 'nogui': False, 'nocron': False, 'extcron': False, 'debuglevel': 30, 'test': None, 'folder': '/home/ds-iiit/web2py', 'config': '', 'import_models': False, 'winservice': '', 'shell': None, 'run': '', 'log_filename': 'httpserver.log', 'args': [''], 'socket_timeout': 1, 'profiler_filename': None, 'ssl_private_key': '', 'password': '<ask>', 'request_queue_size': 5, 'ssl_certificate': '', 'cronjob': False, 'plain': False, 'quiet': False, 'interfaces': None, 'minthreads': None, 'timeout': 10, 'numthreads': None, 'nobanner': False, 'pid_filename': 'httpserver.pid'}>"
p1996
asbasbasbag69
(g85
g71
NtRp1997
(dp1998
g74
(dp1999
sg83
g1907
sg76
(lp2000
g69
(g90
g71
NtRp2001
(dp2002
g74
(dp2003
g94
g95
ssg83
g1997
sg76
(lp2004
g949
asbag69
(g90
g71
NtRp2005
(dp2006
g74
(dp2007
g101
g102
ssg83
g1997
sg76
(lp2008
S':'
asbag69
(g90
g71
NtRp2009
(dp2010
g74
(dp2011
sg83
g1997
sg76
(lp2012
g69
(g70
g71
NtRp2013
(dp2014
g74
(dp2015
g82
I4
ssg83
g2009
sg76
(lp2016
S'set([])'
p2017
asbasbasbag69
(g85
g71
NtRp2018
(dp2019
g74
(dp2020
sg83
g1907
sg76
(lp2021
g69
(g90
g71
NtRp2022
(dp2023
g74
(dp2024
g94
g95
ssg83
g2018
sg76
(lp2025
g971
asbag69
(g90
g71
NtRp2026
(dp2027
g74
(dp2028
g101
g102
ssg83
g2018
sg76
(lp2029
S':'
asbag69
(g90
g71
NtRp2030
(dp2031
g74
(dp2032
sg83
g2018
sg76
(lp2033
g69
(g70
g71
NtRp2034
(dp2035
g74
(dp2036
g82
I4
ssg83
g2030
sg76
(lp2037
g112
asbasbasbag69
(g85
g71
NtRp2038
(dp2039
g74
(dp2040
sg83
g1907
sg76
(lp2041
g69
(g90
g71
NtRp2042
(dp2043
g74
(dp2044
g94
g95
ssg83
g2038
sg76
(lp2045
g992
asbag69
(g90
g71
NtRp2046
(dp2047
g74
(dp2048
g101
g102
ssg83
g2038
sg76
(lp2049
S':'
asbag69
(g90
g71
NtRp2050
(dp2051
g74
(dp2052
sg83
g2038
sg76
(lp2053
g69
(g70
g71
NtRp2054
(dp2055
g74
(dp2056
g82
I4
ssg83
g2050
sg76
(lp2057
g1005
asbasbasbag69
(g85
g71
NtRp2058
(dp2059
g74
(dp2060
sg83
g1907
sg76
(lp2061
g69
(g90
g71
NtRp2062
(dp2063
g74
(dp2064
g94
g95
ssg83
g2058
sg76
(lp2065
g1212
asbag69
(g90
g71
NtRp2066
(dp2067
g74
(dp2068
g101
g102
ssg83
g2058
sg76
(lp2069
S':'
asbag69
(g90
g71
NtRp2070
(dp2071
g74
(dp2072
sg83
g2058
sg76
(lp2073
g69
(g70
g71
NtRp2074
(dp2075
g74
(dp2076
g82
I4
ssg83
g2070
sg76
(lp2077
g112
asbasbasbag69
(g85
g71
NtRp2078
(dp2079
g74
(dp2080
sg83
g1907
sg76
(lp2081
g69
(g90
g71
NtRp2082
(dp2083
g74
(dp2084
g94
g95
ssg83
g2078
sg76
(lp2085
g1233
asbag69
(g90
g71
NtRp2086
(dp2087
g74
(dp2088
g101
g102
ssg83
g2078
sg76
(lp2089
S':'
asbag69
(g90
g71
NtRp2090
(dp2091
g74
(dp2092
sg83
g2078
sg76
(lp2093
g69
(g70
g71
NtRp2094
(dp2095
g74
(dp2096
g82
I4
ssg83
g2090
sg76
(lp2097
g112
asbasbasbag69
(g85
g71
NtRp2098
(dp2099
g74
(dp2100
sg83
g1907
sg76
(lp2101
g69
(g90
g71
NtRp2102
(dp2103
g74
(dp2104
g94
g95
ssg83
g2098
sg76
(lp2105
g1471
asbag69
(g90
g71
NtRp2106
(dp2107
g74
(dp2108
g101
g102
ssg83
g2098
sg76
(lp2109
S':'
asbag69
(g90
g71
NtRp2110
(dp2111
g74
(dp2112
sg83
g2098
sg76
(lp2113
g69
(g70
g71
NtRp2114
(dp2115
g74
(dp2116
g82
I4
ssg83
g2110
sg76
(lp2117
g1484
asbasbasbag69
(g85
g71
NtRp2118
(dp2119
g74
(dp2120
sg83
g1907
sg76
(lp2121
g69
(g90
g71
NtRp2122
(dp2123
g74
(dp2124
g94
g95
ssg83
g2118
sg76
(lp2125
g1514
asbag69
(g90
g71
NtRp2126
(dp2127
g74
(dp2128
g101
g102
ssg83
g2118
sg76
(lp2129
S':'
asbag69
(g90
g71
NtRp2130
(dp2131
g74
(dp2132
sg83
g2118
sg76
(lp2133
g69
(g70
g71
NtRp2134
(dp2135
g74
(dp2136
g82
I4
ssg83
g2130
sg76
(lp2137
g69
(g78
g71
NtRp2138
(dp2139
g74
(dp2140
g82
I3
ssg83
Nsg76
(lp2141
g69
(g85
g71
NtRp2142
(dp2143
g74
(dp2144
sg83
g2138
sg76
(lp2145
g69
(g90
g71
NtRp2146
(dp2147
g74
(dp2148
sg83
g2142
sg76
(lp2149
g69
(g70
g71
NtRp2150
(dp2151
g74
(dp2152
g82
I3
ssg83
g2146
sg76
(lp2153
S'1'
asbasbasbag69
(g85
g71
NtRp2154
(dp2155
g74
(dp2156
sg83
g2138
sg76
(lp2157
g69
(g90
g71
NtRp2158
(dp2159
g74
(dp2160
sg83
g2154
sg76
(lp2161
g69
(g70
g71
NtRp2162
(dp2163
g74
(dp2164
g82
I3
ssg83
g2158
sg76
(lp2165
S'99'
p2166
asbasbasbag69
(g85
g71
NtRp2167
(dp2168
g74
(dp2169
sg83
g2138
sg76
(lp2170
g69
(g90
g71
NtRp2171
(dp2172
g74
(dp2173
sg83
g2167
sg76
(lp2174
g69
(g70
g71
NtRp2175
(dp2176
g74
(dp2177
g82
I3
ssg83
g2171
sg76
(lp2178
S'4'
asbasbasbag69
(g85
g71
NtRp2179
(dp2180
g74
(dp2181
sg83
g2138
sg76
(lp2182
g69
(g90
g71
NtRp2183
(dp2184
g74
(dp2185
sg83
g2179
sg76
(lp2186
g69
(g70
g71
NtRp2187
(dp2188
g74
(dp2189
g82
I3
ssg83
g2183
sg76
(lp2190
S'datetime.datetime(2011, 12, 14, 14, 46, 14)'
p2191
asbasbasbag69
(g85
g71
NtRp2192
(dp2193
g74
(dp2194
sg83
g2138
sg76
(lp2195
g69
(g90
g71
NtRp2196
(dp2197
g74
(dp2198
sg83
g2192
sg76
(lp2199
g69
(g70
g71
NtRp2200
(dp2201
g74
(dp2202
g82
I3
ssg83
g2196
sg76
(lp2203
g1593
asbasbasbasbasbasbasbasbasbasbasbag69
(g85
g71
NtRp2204
(dp2205
g74
(dp2206
sg83
g79
sg76
(lp2207
g69
(g90
g71
NtRp2208
(dp2209
g74
(dp2210
g94
g95
ssg83
g2204
sg76
(lp2211
S'is_https'
p2212
asbag69
(g90
g71
NtRp2213
(dp2214
g74
(dp2215
g101
g102
ssg83
g2204
sg76
(lp2216
S':'
asbag69
(g90
g71
NtRp2217
(dp2218
g74
(dp2219
sg83
g2204
sg76
(lp2220
g69
(g70
g71
NtRp2221
(dp2222
g74
(dp2223
g82
I5
ssg83
g2217
sg76
(lp2224
g112
asbasbasbag69
(g85
g71
NtRp2225
(dp2226
g74
(dp2227
sg83
g79
sg76
(lp2228
g69
(g90
g71
NtRp2229
(dp2230
g74
(dp2231
g94
g95
ssg83
g2225
sg76
(lp2232
S'is_local'
p2233
asbag69
(g90
g71
NtRp2234
(dp2235
g74
(dp2236
g101
g102
ssg83
g2225
sg76
(lp2237
S':'
asbag69
(g90
g71
NtRp2238
(dp2239
g74
(dp2240
sg83
g2225
sg76
(lp2241
g69
(g70
g71
NtRp2242
(dp2243
g74
(dp2244
g82
I5
ssg83
g2238
sg76
(lp2245
g1702
asbasbasbag69
(g85
g71
NtRp2246
(dp2247
g74
(dp2248
sg83
g79
sg76
(lp2249
g69
(g90
g71
NtRp2250
(dp2251
g74
(dp2252
g94
g95
ssg83
g2246
sg76
(lp2253
S'is_restful'
p2254
asbag69
(g90
g71
NtRp2255
(dp2256
g74
(dp2257
g101
g102
ssg83
g2246
sg76
(lp2258
S':'
asbag69
(g90
g71
NtRp2259
(dp2260
g74
(dp2261
sg83
g2246
sg76
(lp2262
g69
(g70
g71
NtRp2263
(dp2264
g74
(dp2265
g82
I5
ssg83
g2259
sg76
(lp2266
g112
asbasbasbag69
(g85
g71
NtRp2267
(dp2268
g74
(dp2269
sg83
g79
sg76
(lp2270
g69
(g90
g71
NtRp2271
(dp2272
g74
(dp2273
g94
g95
ssg83
g2267
sg76
(lp2274
S'now'
p2275
asbag69
(g90
g71
NtRp2276
(dp2277
g74
(dp2278
g101
g102
ssg83
g2267
sg76
(lp2279
S':'
asbag69
(g90
g71
NtRp2280
(dp2281
g74
(dp2282
sg83
g2267
sg76
(lp2283
g69
(g70
g71
NtRp2284
(dp2285
g74
(dp2286
g82
I5
ssg83
g2280
sg76
(lp2287
S'datetime.datetime(2013, 9, 22, 8, 23, 23, 360442)'
p2288
asbasbasbag69
(g85
g71
NtRp2289
(dp2290
g74
(dp2291
sg83
g79
sg76
(lp2292
g69
(g90
g71
NtRp2293
(dp2294
g74
(dp2295
g94
g95
ssg83
g2289
sg76
(lp2296
S'post_vars'
p2297
asbag69
(g90
g71
NtRp2298
(dp2299
g74
(dp2300
g101
g102
ssg83
g2289
sg76
(lp2301
S':'
asbag69
(g90
g71
NtRp2302
(dp2303
g74
(dp2304
sg83
g2289
sg76
(lp2305
g69
(g70
g71
NtRp2306
(dp2307
g74
(dp2308
g82
I5
ssg83
g2302
sg76
(lp2309
g69
(g78
g71
NtRp2310
(dp2311
g74
(dp2312
g82
I4
ssg83
Nsg76
(lp2313
sbasbasbasbag69
(g85
g71
NtRp2314
(dp2315
g74
(dp2316
sg83
g79
sg76
(lp2317
g69
(g90
g71
NtRp2318
(dp2319
g74
(dp2320
g94
g95
ssg83
g2314
sg76
(lp2321
S'raw_args'
p2322
asbag69
(g90
g71
NtRp2323
(dp2324
g74
(dp2325
g101
g102
ssg83
g2314
sg76
(lp2326
S':'
asbag69
(g90
g71
NtRp2327
(dp2328
g74
(dp2329
sg83
g2314
sg76
(lp2330
g69
(g70
g71
NtRp2331
(dp2332
g74
(dp2333
g82
I5
ssg83
g2327
sg76
(lp2334
S'0'
asbasbasbag69
(g85
g71
NtRp2335
(dp2336
g74
(dp2337
sg83
g79
sg76
(lp2338
g69
(g90
g71
NtRp2339
(dp2340
g74
(dp2341
g94
g95
ssg83
g2335
sg76
(lp2342
S'url'
p2343
asbag69
(g90
g71
NtRp2344
(dp2345
g74
(dp2346
g101
g102
ssg83
g2335
sg76
(lp2347
S':'
asbag69
(g90
g71
NtRp2348
(dp2349
g74
(dp2350
sg83
g2335
sg76
(lp2351
g69
(g70
g71
NtRp2352
(dp2353
g74
(dp2354
g82
I5
ssg83
g2348
sg76
(lp2355
S'/Gordian_Knot/default/question/0'
p2356
asbasbasbag69
(g85
g71
NtRp2357
(dp2358
g74
(dp2359
sg83
g79
sg76
(lp2360
g69
(g90
g71
NtRp2361
(dp2362
g74
(dp2363
g94
g95
ssg83
g2357
sg76
(lp2364
S'utcnow'
p2365
asbag69
(g90
g71
NtRp2366
(dp2367
g74
(dp2368
g101
g102
ssg83
g2357
sg76
(lp2369
S':'
asbag69
(g90
g71
NtRp2370
(dp2371
g74
(dp2372
sg83
g2357
sg76
(lp2373
g69
(g70
g71
NtRp2374
(dp2375
g74
(dp2376
g82
I5
ssg83
g2370
sg76
(lp2377
S'datetime.datetime(2013, 9, 22, 2, 53, 23, 360475)'
p2378
asbasbasbag69
(g85
g71
NtRp2379
(dp2380
g74
(dp2381
sg83
g79
sg76
(lp2382
g69
(g90
g71
NtRp2383
(dp2384
g74
(dp2385
g94
g95
ssg83
g2379
sg76
(lp2386
S'uuid'
p2387
asbag69
(g90
g71
NtRp2388
(dp2389
g74
(dp2390
g101
g102
ssg83
g2379
sg76
(lp2391
S':'
asbag69
(g90
g71
NtRp2392
(dp2393
g74
(dp2394
sg83
g2379
sg76
(lp2395
g69
(g70
g71
NtRp2396
(dp2397
g74
(dp2398
g82
I5
ssg83
g2392
sg76
(lp2399
S'Gordian_Knot/127.0.0.1.2013-09-22.08-23-23.85026bb5-5867-4a8d-9030-80614e1b27ba'
p2400
asbasbasbag69
(g85
g71
NtRp2401
(dp2402
g74
(dp2403
sg83
g79
sg76
(lp2404
g69
(g90
g71
NtRp2405
(dp2406
g74
(dp2407
g94
g95
ssg83
g2401
sg76
(lp2408
S'vars'
p2409
asbag69
(g90
g71
NtRp2410
(dp2411
g74
(dp2412
g101
g102
ssg83
g2401
sg76
(lp2413
S':'
asbag69
(g90
g71
NtRp2414
(dp2415
g74
(dp2416
sg83
g2401
sg76
(lp2417
g69
(g70
g71
NtRp2418
(dp2419
g74
(dp2420
g82
I5
ssg83
g2414
sg76
(lp2421
g69
(g78
g71
NtRp2422
(dp2423
g74
(dp2424
g82
I4
ssg83
Nsg76
(lp2425
sbasbasbasbag69
(g85
g71
NtRp2426
(dp2427
g74
(dp2428
sg83
g79
sg76
(lp2429
g69
(g90
g71
NtRp2430
(dp2431
g74
(dp2432
g94
g95
ssg83
g2426
sg76
(lp2433
S'wsgi'
p2434
asbag69
(g90
g71
NtRp2435
(dp2436
g74
(dp2437
g101
g102
ssg83
g2426
sg76
(lp2438
S':'
asbag69
(g90
g71
NtRp2439
(dp2440
g74
(dp2441
sg83
g2426
sg76
(lp2442
g69
(g70
g71
NtRp2443
(dp2444
g74
(dp2445
g82
I5
ssg83
g2439
sg76
(lp2446
g69
(g78
g71
NtRp2447
(dp2448
g74
(dp2449
g82
I4
ssg83
Nsg76
(lp2450
g69
(g85
g71
NtRp2451
(dp2452
g74
(dp2453
sg83
g2447
sg76
(lp2454
g69
(g90
g71
NtRp2455
(dp2456
g74
(dp2457
g94
g95
ssg83
g2451
sg76
(lp2458
S'environ'
p2459
asbag69
(g90
g71
NtRp2460
(dp2461
g74
(dp2462
g101
g102
ssg83
g2451
sg76
(lp2463
S':'
asbag69
(g90
g71
NtRp2464
(dp2465
g74
(dp2466
sg83
g2451
sg76
(lp2467
g69
(g70
g71
NtRp2468
(dp2469
g74
(dp2470
g82
I4
ssg83
g2464
sg76
(lp2471
g69
(g78
g71
NtRp2472
(dp2473
g74
(dp2474
g82
I3
ssg83
Nsg76
(lp2475
g69
(g85
g71
NtRp2476
(dp2477
g74
(dp2478
sg83
g2472
sg76
(lp2479
g69
(g90
g71
NtRp2480
(dp2481
g74
(dp2482
g94
g95
ssg83
g2476
sg76
(lp2483
S'HTTP_ACCEPT'
p2484
asbag69
(g90
g71
NtRp2485
(dp2486
g74
(dp2487
g101
g102
ssg83
g2476
sg76
(lp2488
S':'
asbag69
(g90
g71
NtRp2489
(dp2490
g74
(dp2491
sg83
g2476
sg76
(lp2492
g69
(g70
g71
NtRp2493
(dp2494
g74
(dp2495
g82
I3
ssg83
g2489
sg76
(lp2496
g1027
asbasbasbag69
(g85
g71
NtRp2497
(dp2498
g74
(dp2499
sg83
g2472
sg76
(lp2500
g69
(g90
g71
NtRp2501
(dp2502
g74
(dp2503
g94
g95
ssg83
g2497
sg76
(lp2504
S'HTTP_ACCEPT_ENCODING'
p2505
asbag69
(g90
g71
NtRp2506
(dp2507
g74
(dp2508
g101
g102
ssg83
g2497
sg76
(lp2509
S':'
asbag69
(g90
g71
NtRp2510
(dp2511
g74
(dp2512
sg83
g2497
sg76
(lp2513
g69
(g70
g71
NtRp2514
(dp2515
g74
(dp2516
g82
I3
ssg83
g2510
sg76
(lp2517
g1049
asbasbasbag69
(g85
g71
NtRp2518
(dp2519
g74
(dp2520
sg83
g2472
sg76
(lp2521
g69
(g90
g71
NtRp2522
(dp2523
g74
(dp2524
g94
g95
ssg83
g2518
sg76
(lp2525
S'HTTP_ACCEPT_LANGUAGE'
p2526
asbag69
(g90
g71
NtRp2527
(dp2528
g74
(dp2529
g101
g102
ssg83
g2518
sg76
(lp2530
S':'
asbag69
(g90
g71
NtRp2531
(dp2532
g74
(dp2533
sg83
g2518
sg76
(lp2534
g69
(g70
g71
NtRp2535
(dp2536
g74
(dp2537
g82
I3
ssg83
g2531
sg76
(lp2538
g1071
asbasbasbag69
(g85
g71
NtRp2539
(dp2540
g74
(dp2541
sg83
g2472
sg76
(lp2542
g69
(g90
g71
NtRp2543
(dp2544
g74
(dp2545
g94
g95
ssg83
g2539
sg76
(lp2546
S'HTTP_CACHE_CONTROL'
p2547
asbag69
(g90
g71
NtRp2548
(dp2549
g74
(dp2550
g101
g102
ssg83
g2539
sg76
(lp2551
S':'
asbag69
(g90
g71
NtRp2552
(dp2553
g74
(dp2554
sg83
g2539
sg76
(lp2555
g69
(g70
g71
NtRp2556
(dp2557
g74
(dp2558
g82
I3
ssg83
g2552
sg76
(lp2559
g1093
asbasbasbag69
(g85
g71
NtRp2560
(dp2561
g74
(dp2562
sg83
g2472
sg76
(lp2563
g69
(g90
g71
NtRp2564
(dp2565
g74
(dp2566
g94
g95
ssg83
g2560
sg76
(lp2567
S'HTTP_CONNECTION'
p2568
asbag69
(g90
g71
NtRp2569
(dp2570
g74
(dp2571
g101
g102
ssg83
g2560
sg76
(lp2572
S':'
asbag69
(g90
g71
NtRp2573
(dp2574
g74
(dp2575
sg83
g2560
sg76
(lp2576
g69
(g70
g71
NtRp2577
(dp2578
g74
(dp2579
g82
I3
ssg83
g2573
sg76
(lp2580
g1115
asbasbasbag69
(g85
g71
NtRp2581
(dp2582
g74
(dp2583
sg83
g2472
sg76
(lp2584
g69
(g90
g71
NtRp2585
(dp2586
g74
(dp2587
g94
g95
ssg83
g2581
sg76
(lp2588
S'HTTP_COOKIE'
p2589
asbag69
(g90
g71
NtRp2590
(dp2591
g74
(dp2592
g101
g102
ssg83
g2581
sg76
(lp2593
S':'
asbag69
(g90
g71
NtRp2594
(dp2595
g74
(dp2596
sg83
g2581
sg76
(lp2597
g69
(g70
g71
NtRp2598
(dp2599
g74
(dp2600
g82
I3
ssg83
g2594
sg76
(lp2601
g1137
asbasbasbag69
(g85
g71
NtRp2602
(dp2603
g74
(dp2604
sg83
g2472
sg76
(lp2605
g69
(g90
g71
NtRp2606
(dp2607
g74
(dp2608
g94
g95
ssg83
g2602
sg76
(lp2609
S'HTTP_HOST'
p2610
asbag69
(g90
g71
NtRp2611
(dp2612
g74
(dp2613
g101
g102
ssg83
g2602
sg76
(lp2614
S':'
asbag69
(g90
g71
NtRp2615
(dp2616
g74
(dp2617
sg83
g2602
sg76
(lp2618
g69
(g70
g71
NtRp2619
(dp2620
g74
(dp2621
g82
I3
ssg83
g2615
sg76
(lp2622
g1159
asbasbasbag69
(g85
g71
NtRp2623
(dp2624
g74
(dp2625
sg83
g2472
sg76
(lp2626
g69
(g90
g71
NtRp2627
(dp2628
g74
(dp2629
g94
g95
ssg83
g2623
sg76
(lp2630
S'HTTP_REFERER'
p2631
asbag69
(g90
g71
NtRp2632
(dp2633
g74
(dp2634
g101
g102
ssg83
g2623
sg76
(lp2635
S':'
asbag69
(g90
g71
NtRp2636
(dp2637
g74
(dp2638
sg83
g2623
sg76
(lp2639
g69
(g70
g71
NtRp2640
(dp2641
g74
(dp2642
g82
I3
ssg83
g2636
sg76
(lp2643
g1181
asbasbasbag69
(g85
g71
NtRp2644
(dp2645
g74
(dp2646
sg83
g2472
sg76
(lp2647
g69
(g90
g71
NtRp2648
(dp2649
g74
(dp2650
g94
g95
ssg83
g2644
sg76
(lp2651
S'HTTP_USER_AGENT'
p2652
asbag69
(g90
g71
NtRp2653
(dp2654
g74
(dp2655
g101
g102
ssg83
g2644
sg76
(lp2656
S':'
asbag69
(g90
g71
NtRp2657
(dp2658
g74
(dp2659
sg83
g2644
sg76
(lp2660
g69
(g70
g71
NtRp2661
(dp2662
g74
(dp2663
g82
I3
ssg83
g2657
sg76
(lp2664
g1203
asbasbasbag69
(g85
g71
NtRp2665
(dp2666
g74
(dp2667
sg83
g2472
sg76
(lp2668
g69
(g90
g71
NtRp2669
(dp2670
g74
(dp2671
g94
g95
ssg83
g2665
sg76
(lp2672
S'PATH_INFO'
p2673
asbag69
(g90
g71
NtRp2674
(dp2675
g74
(dp2676
g101
g102
ssg83
g2665
sg76
(lp2677
S':'
asbag69
(g90
g71
NtRp2678
(dp2679
g74
(dp2680
sg83
g2665
sg76
(lp2681
g69
(g70
g71
NtRp2682
(dp2683
g74
(dp2684
g82
I3
ssg83
g2678
sg76
(lp2685
g1267
asbasbasbag69
(g85
g71
NtRp2686
(dp2687
g74
(dp2688
sg83
g2472
sg76
(lp2689
g69
(g90
g71
NtRp2690
(dp2691
g74
(dp2692
g94
g95
ssg83
g2686
sg76
(lp2693
S'QUERY_STRING'
p2694
asbag69
(g90
g71
NtRp2695
(dp2696
g74
(dp2697
g101
g102
ssg83
g2686
sg76
(lp2698
S':'
asbag69
(g90
g71
NtRp2699
(dp2700
g74
(dp2701
sg83
g2686
sg76
(lp2702
g69
(g70
g71
NtRp2703
(dp2704
g74
(dp2705
g82
I3
ssg83
g2699
sg76
(lp2706
S''
asbasbasbag69
(g85
g71
NtRp2707
(dp2708
g74
(dp2709
sg83
g2472
sg76
(lp2710
g69
(g90
g71
NtRp2711
(dp2712
g74
(dp2713
g94
g95
ssg83
g2707
sg76
(lp2714
S'REMOTE_ADDR'
p2715
asbag69
(g90
g71
NtRp2716
(dp2717
g74
(dp2718
g101
g102
ssg83
g2707
sg76
(lp2719
S':'
asbag69
(g90
g71
NtRp2720
(dp2721
g74
(dp2722
sg83
g2707
sg76
(lp2723
g69
(g70
g71
NtRp2724
(dp2725
g74
(dp2726
g82
I3
ssg83
g2720
sg76
(lp2727
g214
asbasbasbag69
(g85
g71
NtRp2728
(dp2729
g74
(dp2730
sg83
g2472
sg76
(lp2731
g69
(g90
g71
NtRp2732
(dp2733
g74
(dp2734
g94
g95
ssg83
g2728
sg76
(lp2735
S'REMOTE_PORT'
p2736
asbag69
(g90
g71
NtRp2737
(dp2738
g74
(dp2739
g101
g102
ssg83
g2728
sg76
(lp2740
S':'
asbag69
(g90
g71
NtRp2741
(dp2742
g74
(dp2743
sg83
g2728
sg76
(lp2744
g69
(g70
g71
NtRp2745
(dp2746
g74
(dp2747
g82
I3
ssg83
g2741
sg76
(lp2748
g1331
asbasbasbag69
(g85
g71
NtRp2749
(dp2750
g74
(dp2751
sg83
g2472
sg76
(lp2752
g69
(g90
g71
NtRp2753
(dp2754
g74
(dp2755
g94
g95
ssg83
g2749
sg76
(lp2756
S'REQUEST_METHOD'
p2757
asbag69
(g90
g71
NtRp2758
(dp2759
g74
(dp2760
g101
g102
ssg83
g2749
sg76
(lp2761
S':'
asbag69
(g90
g71
NtRp2762
(dp2763
g74
(dp2764
sg83
g2749
sg76
(lp2765
g69
(g70
g71
NtRp2766
(dp2767
g74
(dp2768
g82
I3
ssg83
g2762
sg76
(lp2769
g1353
asbasbasbag69
(g85
g71
NtRp2770
(dp2771
g74
(dp2772
sg83
g2472
sg76
(lp2773
g69
(g90
g71
NtRp2774
(dp2775
g74
(dp2776
g94
g95
ssg83
g2770
sg76
(lp2777
S'SCRIPT_NAME'
p2778
asbag69
(g90
g71
NtRp2779
(dp2780
g74
(dp2781
g101
g102
ssg83
g2770
sg76
(lp2782
S':'
asbag69
(g90
g71
NtRp2783
(dp2784
g74
(dp2785
sg83
g2770
sg76
(lp2786
g69
(g70
g71
NtRp2787
(dp2788
g74
(dp2789
g82
I3
ssg83
g2783
sg76
(lp2790
S''
asbasbasbag69
(g85
g71
NtRp2791
(dp2792
g74
(dp2793
sg83
g2472
sg76
(lp2794
g69
(g90
g71
NtRp2795
(dp2796
g74
(dp2797
g94
g95
ssg83
g2791
sg76
(lp2798
S'SERVER_NAME'
p2799
asbag69
(g90
g71
NtRp2800
(dp2801
g74
(dp2802
g101
g102
ssg83
g2791
sg76
(lp2803
S':'
asbag69
(g90
g71
NtRp2804
(dp2805
g74
(dp2806
sg83
g2791
sg76
(lp2807
g69
(g70
g71
NtRp2808
(dp2809
g74
(dp2810
g82
I3
ssg83
g2804
sg76
(lp2811
g1396
asbasbasbag69
(g85
g71
NtRp2812
(dp2813
g74
(dp2814
sg83
g2472
sg76
(lp2815
g69
(g90
g71
NtRp2816
(dp2817
g74
(dp2818
g94
g95
ssg83
g2812
sg76
(lp2819
S'SERVER_PORT'
p2820
asbag69
(g90
g71
NtRp2821
(dp2822
g74
(dp2823
g101
g102
ssg83
g2812
sg76
(lp2824
S':'
asbag69
(g90
g71
NtRp2825
(dp2826
g74
(dp2827
sg83
g2812
sg76
(lp2828
g69
(g70
g71
NtRp2829
(dp2830
g74
(dp2831
g82
I3
ssg83
g2825
sg76
(lp2832
g1418
asbasbasbag69
(g85
g71
NtRp2833
(dp2834
g74
(dp2835
sg83
g2472
sg76
(lp2836
g69
(g90
g71
NtRp2837
(dp2838
g74
(dp2839
g94
g95
ssg83
g2833
sg76
(lp2840
S'SERVER_PROTOCOL'
p2841
asbag69
(g90
g71
NtRp2842
(dp2843
g74
(dp2844
g101
g102
ssg83
g2833
sg76
(lp2845
S':'
asbag69
(g90
g71
NtRp2846
(dp2847
g74
(dp2848
sg83
g2833
sg76
(lp2849
g69
(g70
g71
NtRp2850
(dp2851
g74
(dp2852
g82
I3
ssg83
g2846
sg76
(lp2853
g1440
asbasbasbag69
(g85
g71
NtRp2854
(dp2855
g74
(dp2856
sg83
g2472
sg76
(lp2857
g69
(g90
g71
NtRp2858
(dp2859
g74
(dp2860
g94
g95
ssg83
g2854
sg76
(lp2861
S'SERVER_SOFTWARE'
p2862
asbag69
(g90
g71
NtRp2863
(dp2864
g74
(dp2865
g101
g102
ssg83
g2854
sg76
(lp2866
S':'
asbag69
(g90
g71
NtRp2867
(dp2868
g74
(dp2869
sg83
g2854
sg76
(lp2870
g69
(g70
g71
NtRp2871
(dp2872
g74
(dp2873
g82
I3
ssg83
g2867
sg76
(lp2874
g1462
asbasbasbag69
(g85
g71
NtRp2875
(dp2876
g74
(dp2877
sg83
g2472
sg76
(lp2878
g69
(g90
g71
NtRp2879
(dp2880
g74
(dp2881
g94
g95
ssg83
g2875
sg76
(lp2882
S'wsgi.errors'
p2883
asbag69
(g90
g71
NtRp2884
(dp2885
g74
(dp2886
g101
g102
ssg83
g2875
sg76
(lp2887
S':'
asbag69
(g90
g71
NtRp2888
(dp2889
g74
(dp2890
sg83
g2875
sg76
(lp2891
g69
(g70
g71
NtRp2892
(dp2893
g74
(dp2894
g82
I3
ssg83
g2888
sg76
(lp2895
S"<open file '<stderr>', mode 'w' at 0x7f0ddee12270>"
p2896
asbasbasbag69
(g85
g71
NtRp2897
(dp2898
g74
(dp2899
sg83
g2472
sg76
(lp2900
g69
(g90
g71
NtRp2901
(dp2902
g74
(dp2903
g94
g95
ssg83
g2897
sg76
(lp2904
S'wsgi.file_wrapper'
p2905
asbag69
(g90
g71
NtRp2906
(dp2907
g74
(dp2908
g101
g102
ssg83
g2897
sg76
(lp2909
S':'
asbag69
(g90
g71
NtRp2910
(dp2911
g74
(dp2912
sg83
g2897
sg76
(lp2913
g69
(g70
g71
NtRp2914
(dp2915
g74
(dp2916
g82
I3
ssg83
g2910
sg76
(lp2917
S'<class wsgiref.util.FileWrapper at 0x29e8390>'
p2918
asbasbasbag69
(g85
g71
NtRp2919
(dp2920
g74
(dp2921
sg83
g2472
sg76
(lp2922
g69
(g90
g71
NtRp2923
(dp2924
g74
(dp2925
g94
g95
ssg83
g2919
sg76
(lp2926
S'wsgi.input'
p2927
asbag69
(g90
g71
NtRp2928
(dp2929
g74
(dp2930
g101
g102
ssg83
g2919
sg76
(lp2931
S':'
asbag69
(g90
g71
NtRp2932
(dp2933
g74
(dp2934
sg83
g2919
sg76
(lp2935
g69
(g70
g71
NtRp2936
(dp2937
g74
(dp2938
g82
I3
ssg83
g2932
sg76
(lp2939
S'<cStringIO.StringO object at 0x7f0d94265848>'
p2940
asbasbasbag69
(g85
g71
NtRp2941
(dp2942
g74
(dp2943
sg83
g2472
sg76
(lp2944
g69
(g90
g71
NtRp2945
(dp2946
g74
(dp2947
g94
g95
ssg83
g2941
sg76
(lp2948
S'wsgi.multiprocess'
p2949
asbag69
(g90
g71
NtRp2950
(dp2951
g74
(dp2952
g101
g102
ssg83
g2941
sg76
(lp2953
S':'
asbag69
(g90
g71
NtRp2954
(dp2955
g74
(dp2956
sg83
g2941
sg76
(lp2957
g69
(g70
g71
NtRp2958
(dp2959
g74
(dp2960
g82
I3
ssg83
g2954
sg76
(lp2961
g112
asbasbasbag69
(g85
g71
NtRp2962
(dp2963
g74
(dp2964
sg83
g2472
sg76
(lp2965
g69
(g90
g71
NtRp2966
(dp2967
g74
(dp2968
g94
g95
ssg83
g2962
sg76
(lp2969
S'wsgi.multithread'
p2970
asbag69
(g90
g71
NtRp2971
(dp2972
g74
(dp2973
g101
g102
ssg83
g2962
sg76
(lp2974
S':'
asbag69
(g90
g71
NtRp2975
(dp2976
g74
(dp2977
sg83
g2962
sg76
(lp2978
g69
(g70
g71
NtRp2979
(dp2980
g74
(dp2981
g82
I3
ssg83
g2975
sg76
(lp2982
g1702
asbasbasbag69
(g85
g71
NtRp2983
(dp2984
g74
(dp2985
sg83
g2472
sg76
(lp2986
g69
(g90
g71
NtRp2987
(dp2988
g74
(dp2989
g94
g95
ssg83
g2983
sg76
(lp2990
S'wsgi.run_once'
p2991
asbag69
(g90
g71
NtRp2992
(dp2993
g74
(dp2994
g101
g102
ssg83
g2983
sg76
(lp2995
S':'
asbag69
(g90
g71
NtRp2996
(dp2997
g74
(dp2998
sg83
g2983
sg76
(lp2999
g69
(g70
g71
NtRp3000
(dp3001
g74
(dp3002
g82
I3
ssg83
g2996
sg76
(lp3003
g112
asbasbasbag69
(g85
g71
NtRp3004
(dp3005
g74
(dp3006
sg83
g2472
sg76
(lp3007
g69
(g90
g71
NtRp3008
(dp3009
g74
(dp3010
g94
g95
ssg83
g3004
sg76
(lp3011
S'wsgi.url_scheme'
p3012
asbag69
(g90
g71
NtRp3013
(dp3014
g74
(dp3015
g101
g102
ssg83
g3004
sg76
(lp3016
S':'
asbag69
(g90
g71
NtRp3017
(dp3018
g74
(dp3019
sg83
g3004
sg76
(lp3020
g69
(g70
g71
NtRp3021
(dp3022
g74
(dp3023
g82
I3
ssg83
g3017
sg76
(lp3024
g1745
asbasbasbag69
(g85
g71
NtRp3025
(dp3026
g74
(dp3027
sg83
g2472
sg76
(lp3028
g69
(g90
g71
NtRp3029
(dp3030
g74
(dp3031
g94
g95
ssg83
g3025
sg76
(lp3032
S'wsgi.version'
p3033
asbag69
(g90
g71
NtRp3034
(dp3035
g74
(dp3036
g101
g102
ssg83
g3025
sg76
(lp3037
S':'
asbag69
(g90
g71
NtRp3038
(dp3039
g74
(dp3040
sg83
g3025
sg76
(lp3041
g69
(g70
g71
NtRp3042
(dp3043
g74
(dp3044
g82
I3
ssg83
g3038
sg76
(lp3045
S'1'
asbasbasbasbasbasbasbasbasbasbasbasbasbsS'frames'
p3046
(lp3047
(dp3048
S'file'
p3049
S'/usr/lib/pymodules/python2.7/gluon/restricted.py'
p3050
sS'dump'
p3051
(dp3052
S'code'
p3053
S"'# -*- coding: utf-8 -*-\\n# this file is released ...d())\\n\\n\\nresponse._vars=response._caller(question)\\n'"
p3054
sS'layer'
p3055
S"'/home/ds-iiit/web2py/applications/Gordian_Knot/controllers/default.py'"
p3056
sS'global compile2'
p3057
S'<function compile2>'
p3058
sS'ccode'
p3059
S'undefined'
p3060
ssS'lnum'
p3061
I203
sS'lines'
p3062
(dp3063
I198
S"    environment['__file__'] = layer"
p3064
sI199
S'    try:'
p3065
sI200
S'        if type(code) == types.CodeType:'
p3066
sI201
S'            ccode = code'
p3067
sI202
S'        else:'
p3068
sI203
S'            ccode = compile2(code,layer)'
p3069
sI204
S'        exec ccode in environment'
p3070
sI205
S'    except HTTP:'
p3071
sI206
S'        raise'
p3072
sI207
S'    except RestrictedError:'
p3073
ssS'call'
p3074
S"(code='# -*- coding: utf-8 -*-\\n# this file is released ...d())\\n\\n\\nresponse._vars=response._caller(question)\\n', environment={'A': <class 'gluon.html.A'>, 'Auth': <class 'gluon.tools.Auth'>, 'B': <class 'gluon.html.B'>, 'BEAUTIFY': <class 'gluon.html.BEAUTIFY'>, 'BODY': <class 'gluon.html.BODY'>, 'BR': <class 'gluon.html.BR'>, 'BUTTON': <class 'gluon.html.BUTTON'>, 'CAT': <class 'gluon.html.CAT'>, 'CENTER': <class 'gluon.html.CENTER'>, 'CLEANUP': <class 'gluon.validators.CLEANUP'>, ...}, layer='/home/ds-iiit/web2py/applications/Gordian_Knot/controllers/default.py')"
p3075
sS'func'
p3076
S'restricted'
p3077
sa(dp3078
g3049
S'/usr/lib/pymodules/python2.7/gluon/restricted.py'
p3079
sg3051
(dp3080
S'builtincompile'
p3081
S'<built-in function compile>'
p3082
sS'code'
p3083
S"'# -*- coding: utf-8 -*-\\n# this file is released ...d())\\n\\n\\nresponse._vars=response._caller(question)\\n'"
p3084
sS'code.rstrip'
p3085
S'<built-in method rstrip of str object>'
p3086
sS').replace'
p3087
g3060
sS'layer'
p3088
S"'/home/ds-iiit/web2py/applications/Gordian_Knot/controllers/default.py'"
p3089
ssg3061
I189
sg3062
(dp3090
I192
S'    """'
p3091
sI193
S'    runs code in environment and returns the output. if an exception occurs'
p3092
sI184
S''
sI185
S'def compile2(code,layer):'
p3093
sI186
S'    """'
p3094
sI187
S"    The +'\\n' is necessary else compile fails when code ends in a comment."
p3095
sI188
S'    """'
p3096
sI189
S"    return compile(code.rstrip().replace('\\r\\n','\\n')+'\\n', layer, 'exec')"
p3097
sI190
S''
sI191
S"def restricted(code, environment=None, layer='Unknown'):"
p3098
ssg3074
S"(code='# -*- coding: utf-8 -*-\\n# this file is released ...d())\\n\\n\\nresponse._vars=response._caller(question)\\n', layer='/home/ds-iiit/web2py/applications/Gordian_Knot/controllers/default.py')"
p3099
sg3076
S'compile2'
p3100
sasS'pyver'
p3101
S'Python 2.7.3: /usr/bin/python'
p3102
sS'session'
p3103
g69
(g70
g71
NtRp3104
(dp3105
g74
(dp3106
sg76
(lp3107
g69
(g78
g71
NtRp3108
(dp3109
g74
(dp3110
g82
I5
ssg83
Nsg76
(lp3111
g69
(g85
g71
NtRp3112
(dp3113
g74
(dp3114
sg83
g3108
sg76
(lp3115
g69
(g90
g71
NtRp3116
(dp3117
g74
(dp3118
g94
g95
ssg83
g3112
sg76
(lp3119
S'auth'
p3120
asbag69
(g90
g71
NtRp3121
(dp3122
g74
(dp3123
g101
g102
ssg83
g3112
sg76
(lp3124
S':'
asbag69
(g90
g71
NtRp3125
(dp3126
g74
(dp3127
sg83
g3112
sg76
(lp3128
g69
(g70
g71
NtRp3129
(dp3130
g74
(dp3131
g82
I5
ssg83
g3125
sg76
(lp3132
g69
(g78
g71
NtRp3133
(dp3134
g74
(dp3135
g82
I4
ssg83
Nsg76
(lp3136
g69
(g85
g71
NtRp3137
(dp3138
g74
(dp3139
sg83
g3133
sg76
(lp3140
g69
(g90
g71
NtRp3141
(dp3142
g74
(dp3143
g94
g95
ssg83
g3137
sg76
(lp3144
S'expiration'
p3145
asbag69
(g90
g71
NtRp3146
(dp3147
g74
(dp3148
g101
g102
ssg83
g3137
sg76
(lp3149
S':'
asbag69
(g90
g71
NtRp3150
(dp3151
g74
(dp3152
sg83
g3137
sg76
(lp3153
g69
(g70
g71
NtRp3154
(dp3155
g74
(dp3156
g82
I4
ssg83
g3150
sg76
(lp3157
S'2592000'
p3158
asbasbasbag69
(g85
g71
NtRp3159
(dp3160
g74
(dp3161
sg83
g3133
sg76
(lp3162
g69
(g90
g71
NtRp3163
(dp3164
g74
(dp3165
g94
g95
ssg83
g3159
sg76
(lp3166
S'hmac_key'
p3167
asbag69
(g90
g71
NtRp3168
(dp3169
g74
(dp3170
g101
g102
ssg83
g3159
sg76
(lp3171
S':'
asbag69
(g90
g71
NtRp3172
(dp3173
g74
(dp3174
sg83
g3159
sg76
(lp3175
g69
(g70
g71
NtRp3176
(dp3177
g74
(dp3178
g82
I4
ssg83
g3172
sg76
(lp3179
S'e1e5d73f-bb90-4477-8cca-9d5266dfa972'
p3180
asbasbasbag69
(g85
g71
NtRp3181
(dp3182
g74
(dp3183
sg83
g3133
sg76
(lp3184
g69
(g90
g71
NtRp3185
(dp3186
g74
(dp3187
g94
g95
ssg83
g3181
sg76
(lp3188
S'last_visit'
p3189
asbag69
(g90
g71
NtRp3190
(dp3191
g74
(dp3192
g101
g102
ssg83
g3181
sg76
(lp3193
S':'
asbag69
(g90
g71
NtRp3194
(dp3195
g74
(dp3196
sg83
g3181
sg76
(lp3197
g69
(g70
g71
NtRp3198
(dp3199
g74
(dp3200
g82
I4
ssg83
g3194
sg76
(lp3201
S'datetime.datetime(2013, 9, 22, 8, 1, 19, 967382)'
p3202
asbasbasbag69
(g85
g71
NtRp3203
(dp3204
g74
(dp3205
sg83
g3133
sg76
(lp3206
g69
(g90
g71
NtRp3207
(dp3208
g74
(dp3209
g94
g95
ssg83
g3203
sg76
(lp3210
S'remember'
p3211
asbag69
(g90
g71
NtRp3212
(dp3213
g74
(dp3214
g101
g102
ssg83
g3203
sg76
(lp3215
S':'
asbag69
(g90
g71
NtRp3216
(dp3217
g74
(dp3218
sg83
g3203
sg76
(lp3219
g69
(g70
g71
NtRp3220
(dp3221
g74
(dp3222
g82
I4
ssg83
g3216
sg76
(lp3223
g112
asbasbasbag69
(g85
g71
NtRp3224
(dp3225
g74
(dp3226
sg83
g3133
sg76
(lp3227
g69
(g90
g71
NtRp3228
(dp3229
g74
(dp3230
g94
g95
ssg83
g3224
sg76
(lp3231
S'user'
p3232
asbag69
(g90
g71
NtRp3233
(dp3234
g74
(dp3235
g101
g102
ssg83
g3224
sg76
(lp3236
S':'
asbag69
(g90
g71
NtRp3237
(dp3238
g74
(dp3239
sg83
g3224
sg76
(lp3240
g69
(g70
g71
NtRp3241
(dp3242
g74
(dp3243
g82
I4
ssg83
g3237
sg76
(lp3244
g69
(g78
g71
NtRp3245
(dp3246
g74
(dp3247
g82
I3
ssg83
Nsg76
(lp3248
g69
(g85
g71
NtRp3249
(dp3250
g74
(dp3251
sg83
g3245
sg76
(lp3252
g69
(g90
g71
NtRp3253
(dp3254
g74
(dp3255
g94
g95
ssg83
g3249
sg76
(lp3256
S'Points'
p3257
asbag69
(g90
g71
NtRp3258
(dp3259
g74
(dp3260
g101
g102
ssg83
g3249
sg76
(lp3261
S':'
asbag69
(g90
g71
NtRp3262
(dp3263
g74
(dp3264
sg83
g3249
sg76
(lp3265
g69
(g70
g71
NtRp3266
(dp3267
g74
(dp3268
g82
I3
ssg83
g3262
sg76
(lp3269
S'100'
p3270
asbasbasbag69
(g85
g71
NtRp3271
(dp3272
g74
(dp3273
sg83
g3245
sg76
(lp3274
g69
(g90
g71
NtRp3275
(dp3276
g74
(dp3277
g94
g95
ssg83
g3271
sg76
(lp3278
S'RollNo'
p3279
asbag69
(g90
g71
NtRp3280
(dp3281
g74
(dp3282
g101
g102
ssg83
g3271
sg76
(lp3283
S':'
asbag69
(g90
g71
NtRp3284
(dp3285
g74
(dp3286
sg83
g3271
sg76
(lp3287
g69
(g70
g71
NtRp3288
(dp3289
g74
(dp3290
g82
I3
ssg83
g3284
sg76
(lp3291
S'201256053'
p3292
asbasbasbag69
(g85
g71
NtRp3293
(dp3294
g74
(dp3295
sg83
g3245
sg76
(lp3296
g69
(g90
g71
NtRp3297
(dp3298
g74
(dp3299
g94
g95
ssg83
g3293
sg76
(lp3300
S'email'
p3301
asbag69
(g90
g71
NtRp3302
(dp3303
g74
(dp3304
g101
g102
ssg83
g3293
sg76
(lp3305
S':'
asbag69
(g90
g71
NtRp3306
(dp3307
g74
(dp3308
sg83
g3293
sg76
(lp3309
g69
(g70
g71
NtRp3310
(dp3311
g74
(dp3312
g82
I3
ssg83
g3306
sg76
(lp3313
S'devansh.shah@students.iiit.ac.in'
p3314
asbasbasbag69
(g85
g71
NtRp3315
(dp3316
g74
(dp3317
sg83
g3245
sg76
(lp3318
g69
(g90
g71
NtRp3319
(dp3320
g74
(dp3321
g94
g95
ssg83
g3315
sg76
(lp3322
S'first_name'
p3323
asbag69
(g90
g71
NtRp3324
(dp3325
g74
(dp3326
g101
g102
ssg83
g3315
sg76
(lp3327
S':'
asbag69
(g90
g71
NtRp3328
(dp3329
g74
(dp3330
sg83
g3315
sg76
(lp3331
g69
(g70
g71
NtRp3332
(dp3333
g74
(dp3334
g82
I3
ssg83
g3328
sg76
(lp3335
S'Devansh'
p3336
asbasbasbag69
(g85
g71
NtRp3337
(dp3338
g74
(dp3339
sg83
g3245
sg76
(lp3340
g69
(g90
g71
NtRp3341
(dp3342
g74
(dp3343
g94
g95
ssg83
g3337
sg76
(lp3344
S'id'
p3345
asbag69
(g90
g71
NtRp3346
(dp3347
g74
(dp3348
g101
g102
ssg83
g3337
sg76
(lp3349
S':'
asbag69
(g90
g71
NtRp3350
(dp3351
g74
(dp3352
sg83
g3337
sg76
(lp3353
g69
(g70
g71
NtRp3354
(dp3355
g74
(dp3356
g82
I3
ssg83
g3350
sg76
(lp3357
S'1'
asbasbasbag69
(g85
g71
NtRp3358
(dp3359
g74
(dp3360
sg83
g3245
sg76
(lp3361
g69
(g90
g71
NtRp3362
(dp3363
g74
(dp3364
g94
g95
ssg83
g3358
sg76
(lp3365
S'last_name'
p3366
asbag69
(g90
g71
NtRp3367
(dp3368
g74
(dp3369
g101
g102
ssg83
g3358
sg76
(lp3370
S':'
asbag69
(g90
g71
NtRp3371
(dp3372
g74
(dp3373
sg83
g3358
sg76
(lp3374
g69
(g70
g71
NtRp3375
(dp3376
g74
(dp3377
g82
I3
ssg83
g3371
sg76
(lp3378
S'Shah'
p3379
asbasbasbag69
(g85
g71
NtRp3380
(dp3381
g74
(dp3382
sg83
g3245
sg76
(lp3383
g69
(g90
g71
NtRp3384
(dp3385
g74
(dp3386
g94
g95
ssg83
g3380
sg76
(lp3387
S'password'
p3388
asbag69
(g90
g71
NtRp3389
(dp3390
g74
(dp3391
g101
g102
ssg83
g3380
sg76
(lp3392
S':'
asbag69
(g90
g71
NtRp3393
(dp3394
g74
(dp3395
sg83
g3380
sg76
(lp3396
g69
(g70
g71
NtRp3397
(dp3398
g74
(dp3399
g82
I3
ssg83
g3393
sg76
(lp3400
S'4fa78620b77f92c7faf768350dccbc8d'
p3401
asbasbasbag69
(g85
g71
NtRp3402
(dp3403
g74
(dp3404
sg83
g3245
sg76
(lp3405
g69
(g90
g71
NtRp3406
(dp3407
g74
(dp3408
g94
g95
ssg83
g3402
sg76
(lp3409
S'registration_id'
p3410
asbag69
(g90
g71
NtRp3411
(dp3412
g74
(dp3413
g101
g102
ssg83
g3402
sg76
(lp3414
S':'
asbag69
(g90
g71
NtRp3415
(dp3416
g74
(dp3417
sg83
g3402
sg76
(lp3418
g69
(g70
g71
NtRp3419
(dp3420
g74
(dp3421
g82
I3
ssg83
g3415
sg76
(lp3422
S''
asbasbasbag69
(g85
g71
NtRp3423
(dp3424
g74
(dp3425
sg83
g3245
sg76
(lp3426
g69
(g90
g71
NtRp3427
(dp3428
g74
(dp3429
g94
g95
ssg83
g3423
sg76
(lp3430
S'registration_key'
p3431
asbag69
(g90
g71
NtRp3432
(dp3433
g74
(dp3434
g101
g102
ssg83
g3423
sg76
(lp3435
S':'
asbag69
(g90
g71
NtRp3436
(dp3437
g74
(dp3438
sg83
g3423
sg76
(lp3439
g69
(g70
g71
NtRp3440
(dp3441
g74
(dp3442
g82
I3
ssg83
g3436
sg76
(lp3443
S''
asbasbasbag69
(g85
g71
NtRp3444
(dp3445
g74
(dp3446
sg83
g3245
sg76
(lp3447
g69
(g90
g71
NtRp3448
(dp3449
g74
(dp3450
g94
g95
ssg83
g3444
sg76
(lp3451
S'reset_password_key'
p3452
asbag69
(g90
g71
NtRp3453
(dp3454
g74
(dp3455
g101
g102
ssg83
g3444
sg76
(lp3456
S':'
asbag69
(g90
g71
NtRp3457
(dp3458
g74
(dp3459
sg83
g3444
sg76
(lp3460
g69
(g70
g71
NtRp3461
(dp3462
g74
(dp3463
g82
I3
ssg83
g3457
sg76
(lp3464
S''
asbasbasbasbasbasbasbasbasbasbasbag69
(g85
g71
NtRp3465
(dp3466
g74
(dp3467
sg83
g3108
sg76
(lp3468
g69
(g90
g71
NtRp3469
(dp3470
g74
(dp3471
g94
g95
ssg83
g3465
sg76
(lp3472
S'last_query'
p3473
asbag69
(g90
g71
NtRp3474
(dp3475
g74
(dp3476
g101
g102
ssg83
g3465
sg76
(lp3477
S':'
asbag69
(g90
g71
NtRp3478
(dp3479
g74
(dp3480
sg83
g3465
sg76
(lp3481
g69
(g70
g71
NtRp3482
(dp3483
g74
(dp3484
g82
I5
ssg83
g3478
sg76
(lp3485
S'db.Done.id>0'
p3486
asbasbasbasbasbsS'etype'
p3487
S"<type 'exceptions.SyntaxError'>"
p3488
sS'date'
p3489
S'Sun Sep 22 08:23:23 2013'
p3490
sS'response'
p3491
g69
(g70
g71
NtRp3492
(dp3493
g74
(dp3494
sg76
(lp3495
g69
(g78
g71
NtRp3496
(dp3497
g74
(dp3498
g82
I5
ssg83
Nsg76
(lp3499
g69
(g85
g71
NtRp3500
(dp3501
g74
(dp3502
sg83
g3496
sg76
(lp3503
g69
(g90
g71
NtRp3504
(dp3505
g74
(dp3506
g94
g95
ssg83
g3500
sg76
(lp3507
g179
asbag69
(g90
g71
NtRp3508
(dp3509
g74
(dp3510
g101
g102
ssg83
g3500
sg76
(lp3511
S':'
asbag69
(g90
g71
NtRp3512
(dp3513
g74
(dp3514
sg83
g3500
sg76
(lp3515
g69
(g70
g71
NtRp3516
(dp3517
g74
(dp3518
g82
I5
ssg83
g3512
sg76
(lp3519
S'<cStringIO.StringO object at 0x7f0d9c669c38>'
p3520
asbasbasbag69
(g85
g71
NtRp3521
(dp3522
g74
(dp3523
sg83
g3496
sg76
(lp3524
g69
(g90
g71
NtRp3525
(dp3526
g74
(dp3527
g94
g95
ssg83
g3521
sg76
(lp3528
g245
asbag69
(g90
g71
NtRp3529
(dp3530
g74
(dp3531
g101
g102
ssg83
g3521
sg76
(lp3532
S':'
asbag69
(g90
g71
NtRp3533
(dp3534
g74
(dp3535
sg83
g3521
sg76
(lp3536
g69
(g70
g71
NtRp3537
(dp3538
g74
(dp3539
g82
I5
ssg83
g3533
sg76
(lp3540
g69
(g78
g71
NtRp3541
(dp3542
g74
(dp3543
g82
I4
ssg83
Nsg76
(lp3544
g69
(g85
g71
NtRp3545
(dp3546
g74
(dp3547
sg83
g3541
sg76
(lp3548
g69
(g90
g71
NtRp3549
(dp3550
g74
(dp3551
g94
g95
ssg83
g3545
sg76
(lp3552
S'session_id_gordian_knot'
p3553
asbag69
(g90
g71
NtRp3554
(dp3555
g74
(dp3556
g101
g102
ssg83
g3545
sg76
(lp3557
S':'
asbag69
(g90
g71
NtRp3558
(dp3559
g74
(dp3560
sg83
g3545
sg76
(lp3561
g69
(g70
g71
NtRp3562
(dp3563
g74
(dp3564
g82
I4
ssg83
g3558
sg76
(lp3565
g69
(g78
g71
NtRp3566
(dp3567
g74
(dp3568
g82
I3
ssg83
Nsg76
(lp3569
g69
(g85
g71
NtRp3570
(dp3571
g74
(dp3572
sg83
g3566
sg76
(lp3573
g69
(g90
g71
NtRp3574
(dp3575
g74
(dp3576
g94
g95
ssg83
g3570
sg76
(lp3577
g295
asbag69
(g90
g71
NtRp3578
(dp3579
g74
(dp3580
g101
g102
ssg83
g3570
sg76
(lp3581
S':'
asbag69
(g90
g71
NtRp3582
(dp3583
g74
(dp3584
sg83
g3570
sg76
(lp3585
g69
(g70
g71
NtRp3586
(dp3587
g74
(dp3588
g82
I3
ssg83
g3582
sg76
(lp3589
S''
asbasbasbag69
(g85
g71
NtRp3590
(dp3591
g74
(dp3592
sg83
g3566
sg76
(lp3593
g69
(g90
g71
NtRp3594
(dp3595
g74
(dp3596
g94
g95
ssg83
g3590
sg76
(lp3597
g316
asbag69
(g90
g71
NtRp3598
(dp3599
g74
(dp3600
g101
g102
ssg83
g3590
sg76
(lp3601
S':'
asbag69
(g90
g71
NtRp3602
(dp3603
g74
(dp3604
sg83
g3590
sg76
(lp3605
g69
(g70
g71
NtRp3606
(dp3607
g74
(dp3608
g82
I3
ssg83
g3602
sg76
(lp3609
S''
asbasbasbag69
(g85
g71
NtRp3610
(dp3611
g74
(dp3612
sg83
g3566
sg76
(lp3613
g69
(g90
g71
NtRp3614
(dp3615
g74
(dp3616
g94
g95
ssg83
g3610
sg76
(lp3617
g337
asbag69
(g90
g71
NtRp3618
(dp3619
g74
(dp3620
g101
g102
ssg83
g3610
sg76
(lp3621
S':'
asbag69
(g90
g71
NtRp3622
(dp3623
g74
(dp3624
sg83
g3610
sg76
(lp3625
g69
(g70
g71
NtRp3626
(dp3627
g74
(dp3628
g82
I3
ssg83
g3622
sg76
(lp3629
S''
asbasbasbag69
(g85
g71
NtRp3630
(dp3631
g74
(dp3632
sg83
g3566
sg76
(lp3633
g69
(g90
g71
NtRp3634
(dp3635
g74
(dp3636
g94
g95
ssg83
g3630
sg76
(lp3637
g358
asbag69
(g90
g71
NtRp3638
(dp3639
g74
(dp3640
g101
g102
ssg83
g3630
sg76
(lp3641
S':'
asbag69
(g90
g71
NtRp3642
(dp3643
g74
(dp3644
sg83
g3630
sg76
(lp3645
g69
(g70
g71
NtRp3646
(dp3647
g74
(dp3648
g82
I3
ssg83
g3642
sg76
(lp3649
S''
asbasbasbag69
(g85
g71
NtRp3650
(dp3651
g74
(dp3652
sg83
g3566
sg76
(lp3653
g69
(g90
g71
NtRp3654
(dp3655
g74
(dp3656
g94
g95
ssg83
g3650
sg76
(lp3657
g379
asbag69
(g90
g71
NtRp3658
(dp3659
g74
(dp3660
g101
g102
ssg83
g3650
sg76
(lp3661
S':'
asbag69
(g90
g71
NtRp3662
(dp3663
g74
(dp3664
sg83
g3650
sg76
(lp3665
g69
(g70
g71
NtRp3666
(dp3667
g74
(dp3668
g82
I3
ssg83
g3662
sg76
(lp3669
S''
asbasbasbag69
(g85
g71
NtRp3670
(dp3671
g74
(dp3672
sg83
g3566
sg76
(lp3673
g69
(g90
g71
NtRp3674
(dp3675
g74
(dp3676
g94
g95
ssg83
g3670
sg76
(lp3677
g400
asbag69
(g90
g71
NtRp3678
(dp3679
g74
(dp3680
g101
g102
ssg83
g3670
sg76
(lp3681
S':'
asbag69
(g90
g71
NtRp3682
(dp3683
g74
(dp3684
sg83
g3670
sg76
(lp3685
g69
(g70
g71
NtRp3686
(dp3687
g74
(dp3688
g82
I3
ssg83
g3682
sg76
(lp3689
S'/'
asbasbasbag69
(g85
g71
NtRp3690
(dp3691
g74
(dp3692
sg83
g3566
sg76
(lp3693
g69
(g90
g71
NtRp3694
(dp3695
g74
(dp3696
g94
g95
ssg83
g3690
sg76
(lp3697
g421
asbag69
(g90
g71
NtRp3698
(dp3699
g74
(dp3700
g101
g102
ssg83
g3690
sg76
(lp3701
S':'
asbag69
(g90
g71
NtRp3702
(dp3703
g74
(dp3704
sg83
g3690
sg76
(lp3705
g69
(g70
g71
NtRp3706
(dp3707
g74
(dp3708
g82
I3
ssg83
g3702
sg76
(lp3709
S''
asbasbasbag69
(g85
g71
NtRp3710
(dp3711
g74
(dp3712
sg83
g3566
sg76
(lp3713
g69
(g90
g71
NtRp3714
(dp3715
g74
(dp3716
g94
g95
ssg83
g3710
sg76
(lp3717
g442
asbag69
(g90
g71
NtRp3718
(dp3719
g74
(dp3720
g101
g102
ssg83
g3710
sg76
(lp3721
S':'
asbag69
(g90
g71
NtRp3722
(dp3723
g74
(dp3724
sg83
g3710
sg76
(lp3725
g69
(g70
g71
NtRp3726
(dp3727
g74
(dp3728
g82
I3
ssg83
g3722
sg76
(lp3729
S''
asbasbasbasbasbasbasbasbasbasbasbag69
(g85
g71
NtRp3730
(dp3731
g74
(dp3732
sg83
g3496
sg76
(lp3733
g69
(g90
g71
NtRp3734
(dp3735
g74
(dp3736
g94
g95
ssg83
g3730
sg76
(lp3737
S'files'
p3738
asbag69
(g90
g71
NtRp3739
(dp3740
g74
(dp3741
g101
g102
ssg83
g3730
sg76
(lp3742
S':'
asbag69
(g90
g71
NtRp3743
(dp3744
g74
(dp3745
sg83
g3730
sg76
(lp3746
g69
(g70
g71
NtRp3747
(dp3748
g74
(dp3749
g82
I5
ssg83
g3743
sg76
(lp3750
g69
(g78
g71
NtRp3751
(dp3752
g74
(dp3753
g82
I4
ssg83
Nsg76
(lp3754
sbasbasbasbag69
(g85
g71
NtRp3755
(dp3756
g74
(dp3757
sg83
g3496
sg76
(lp3758
g69
(g90
g71
NtRp3759
(dp3760
g74
(dp3761
g94
g95
ssg83
g3755
sg76
(lp3762
S'flash'
p3763
asbag69
(g90
g71
NtRp3764
(dp3765
g74
(dp3766
g101
g102
ssg83
g3755
sg76
(lp3767
S':'
asbag69
(g90
g71
NtRp3768
(dp3769
g74
(dp3770
sg83
g3755
sg76
(lp3771
g69
(g70
g71
NtRp3772
(dp3773
g74
(dp3774
g82
I5
ssg83
g3768
sg76
(lp3775
S''
asbasbasbag69
(g85
g71
NtRp3776
(dp3777
g74
(dp3778
sg83
g3496
sg76
(lp3779
g69
(g90
g71
NtRp3780
(dp3781
g74
(dp3782
g94
g95
ssg83
g3776
sg76
(lp3783
S'generic_patterns'
p3784
asbag69
(g90
g71
NtRp3785
(dp3786
g74
(dp3787
g101
g102
ssg83
g3776
sg76
(lp3788
S':'
asbag69
(g90
g71
NtRp3789
(dp3790
g74
(dp3791
sg83
g3776
sg76
(lp3792
g69
(g70
g71
NtRp3793
(dp3794
g74
(dp3795
g82
I5
ssg83
g3789
sg76
(lp3796
g69
(g78
g71
NtRp3797
(dp3798
g74
(dp3799
g82
I4
ssg83
Nsg76
(lp3800
g69
(g85
g71
NtRp3801
(dp3802
g74
(dp3803
sg83
g3797
sg76
(lp3804
g69
(g90
g71
NtRp3805
(dp3806
g74
(dp3807
sg83
g3801
sg76
(lp3808
g69
(g70
g71
NtRp3809
(dp3810
g74
(dp3811
g82
I4
ssg83
g3805
sg76
(lp3812
S'*'
asbasbasbasbasbasbasbag69
(g85
g71
NtRp3813
(dp3814
g74
(dp3815
sg83
g3496
sg76
(lp3816
g69
(g90
g71
NtRp3817
(dp3818
g74
(dp3819
g94
g95
ssg83
g3813
sg76
(lp3820
S'headers'
p3821
asbag69
(g90
g71
NtRp3822
(dp3823
g74
(dp3824
g101
g102
ssg83
g3813
sg76
(lp3825
S':'
asbag69
(g90
g71
NtRp3826
(dp3827
g74
(dp3828
sg83
g3813
sg76
(lp3829
g69
(g70
g71
NtRp3830
(dp3831
g74
(dp3832
g82
I5
ssg83
g3826
sg76
(lp3833
g69
(g78
g71
NtRp3834
(dp3835
g74
(dp3836
g82
I4
ssg83
Nsg76
(lp3837
g69
(g85
g71
NtRp3838
(dp3839
g74
(dp3840
sg83
g3834
sg76
(lp3841
g69
(g90
g71
NtRp3842
(dp3843
g74
(dp3844
g94
g95
ssg83
g3838
sg76
(lp3845
S'Cache-Control'
p3846
asbag69
(g90
g71
NtRp3847
(dp3848
g74
(dp3849
g101
g102
ssg83
g3838
sg76
(lp3850
S':'
asbag69
(g90
g71
NtRp3851
(dp3852
g74
(dp3853
sg83
g3838
sg76
(lp3854
g69
(g70
g71
NtRp3855
(dp3856
g74
(dp3857
g82
I4
ssg83
g3851
sg76
(lp3858
S'no-store, no-cache, must-revalidate, post-check=0, pre-check=0'
p3859
asbasbasbag69
(g85
g71
NtRp3860
(dp3861
g74
(dp3862
sg83
g3834
sg76
(lp3863
g69
(g90
g71
NtRp3864
(dp3865
g74
(dp3866
g94
g95
ssg83
g3860
sg76
(lp3867
S'Content-Type'
p3868
asbag69
(g90
g71
NtRp3869
(dp3870
g74
(dp3871
g101
g102
ssg83
g3860
sg76
(lp3872
S':'
asbag69
(g90
g71
NtRp3873
(dp3874
g74
(dp3875
sg83
g3860
sg76
(lp3876
g69
(g70
g71
NtRp3877
(dp3878
g74
(dp3879
g82
I4
ssg83
g3873
sg76
(lp3880
S'text/html; charset=utf-8'
p3881
asbasbasbag69
(g85
g71
NtRp3882
(dp3883
g74
(dp3884
sg83
g3834
sg76
(lp3885
g69
(g90
g71
NtRp3886
(dp3887
g74
(dp3888
g94
g95
ssg83
g3882
sg76
(lp3889
S'Expires'
p3890
asbag69
(g90
g71
NtRp3891
(dp3892
g74
(dp3893
g101
g102
ssg83
g3882
sg76
(lp3894
S':'
asbag69
(g90
g71
NtRp3895
(dp3896
g74
(dp3897
sg83
g3882
sg76
(lp3898
g69
(g70
g71
NtRp3899
(dp3900
g74
(dp3901
g82
I4
ssg83
g3895
sg76
(lp3902
S'Sun, 22 Sep 2013 02:53:23 GMT'
p3903
asbasbasbag69
(g85
g71
NtRp3904
(dp3905
g74
(dp3906
sg83
g3834
sg76
(lp3907
g69
(g90
g71
NtRp3908
(dp3909
g74
(dp3910
g94
g95
ssg83
g3904
sg76
(lp3911
S'Pragma'
p3912
asbag69
(g90
g71
NtRp3913
(dp3914
g74
(dp3915
g101
g102
ssg83
g3904
sg76
(lp3916
S':'
asbag69
(g90
g71
NtRp3917
(dp3918
g74
(dp3919
sg83
g3904
sg76
(lp3920
g69
(g70
g71
NtRp3921
(dp3922
g74
(dp3923
g82
I4
ssg83
g3917
sg76
(lp3924
S'no-cache'
p3925
asbasbasbag69
(g85
g71
NtRp3926
(dp3927
g74
(dp3928
sg83
g3834
sg76
(lp3929
g69
(g90
g71
NtRp3930
(dp3931
g74
(dp3932
g94
g95
ssg83
g3926
sg76
(lp3933
S'X-Powered-By'
p3934
asbag69
(g90
g71
NtRp3935
(dp3936
g74
(dp3937
g101
g102
ssg83
g3926
sg76
(lp3938
S':'
asbag69
(g90
g71
NtRp3939
(dp3940
g74
(dp3941
sg83
g3926
sg76
(lp3942
g69
(g70
g71
NtRp3943
(dp3944
g74
(dp3945
g82
I4
ssg83
g3939
sg76
(lp3946
S'web2py'
p3947
asbasbasbasbasbasbasbag69
(g85
g71
NtRp3948
(dp3949
g74
(dp3950
sg83
g3496
sg76
(lp3951
g69
(g90
g71
NtRp3952
(dp3953
g74
(dp3954
g94
g95
ssg83
g3948
sg76
(lp3955
S'menu'
p3956
asbag69
(g90
g71
NtRp3957
(dp3958
g74
(dp3959
g101
g102
ssg83
g3948
sg76
(lp3960
S':'
asbag69
(g90
g71
NtRp3961
(dp3962
g74
(dp3963
sg83
g3948
sg76
(lp3964
g69
(g70
g71
NtRp3965
(dp3966
g74
(dp3967
g82
I5
ssg83
g3961
sg76
(lp3968
g69
(g78
g71
NtRp3969
(dp3970
g74
(dp3971
g82
I4
ssg83
Nsg76
(lp3972
g69
(g85
g71
NtRp3973
(dp3974
g74
(dp3975
sg83
g3969
sg76
(lp3976
g69
(g90
g71
NtRp3977
(dp3978
g74
(dp3979
sg83
g3973
sg76
(lp3980
g69
(g70
g71
NtRp3981
(dp3982
g74
(dp3983
g82
I4
ssg83
g3977
sg76
(lp3984
g69
(g78
g71
NtRp3985
(dp3986
g74
(dp3987
g82
I3
ssg83
Nsg76
(lp3988
g69
(g85
g71
NtRp3989
(dp3990
g74
(dp3991
sg83
g3985
sg76
(lp3992
g69
(g90
g71
NtRp3993
(dp3994
g74
(dp3995
sg83
g3989
sg76
(lp3996
g69
(g70
g71
NtRp3997
(dp3998
g74
(dp3999
g82
I3
ssg83
g3993
sg76
(lp4000
cgluon.languages
lazyT_unpickle
p4001
(S't\x04\x00\x00\x00Home'
tRp4002
asbasbasbag69
(g85
g71
NtRp4003
(dp4004
g74
(dp4005
sg83
g3985
sg76
(lp4006
g69
(g90
g71
NtRp4007
(dp4008
g74
(dp4009
sg83
g4003
sg76
(lp4010
g69
(g70
g71
NtRp4011
(dp4012
g74
(dp4013
g82
I3
ssg83
g4007
sg76
(lp4014
g112
asbasbasbag69
(g85
g71
NtRp4015
(dp4016
g74
(dp4017
sg83
g3985
sg76
(lp4018
g69
(g90
g71
NtRp4019
(dp4020
g74
(dp4021
sg83
g4015
sg76
(lp4022
g69
(g70
g71
NtRp4023
(dp4024
g74
(dp4025
g82
I3
ssg83
g4019
sg76
(lp4026
S'/Gordian_Knot/default/index'
p4027
asbasbasbag69
(g85
g71
NtRp4028
(dp4029
g74
(dp4030
sg83
g3985
sg76
(lp4031
g69
(g90
g71
NtRp4032
(dp4033
g74
(dp4034
sg83
g4028
sg76
(lp4035
g69
(g70
g71
NtRp4036
(dp4037
g74
(dp4038
g82
I3
ssg83
g4032
sg76
(lp4039
g69
(g78
g71
NtRp4040
(dp4041
g74
(dp4042
g82
I2
ssg83
Nsg76
(lp4043
sbasbasbasbasbasbasbasbag69
(g85
g71
NtRp4044
(dp4045
g74
(dp4046
sg83
g3969
sg76
(lp4047
g69
(g90
g71
NtRp4048
(dp4049
g74
(dp4050
sg83
g4044
sg76
(lp4051
g69
(g70
g71
NtRp4052
(dp4053
g74
(dp4054
g82
I4
ssg83
g4048
sg76
(lp4055
g69
(g78
g71
NtRp4056
(dp4057
g74
(dp4058
g82
I3
ssg83
Nsg76
(lp4059
g69
(g85
g71
NtRp4060
(dp4061
g74
(dp4062
sg83
g4056
sg76
(lp4063
g69
(g90
g71
NtRp4064
(dp4065
g74
(dp4066
sg83
g4060
sg76
(lp4067
g69
(g70
g71
NtRp4068
(dp4069
g74
(dp4070
g82
I3
ssg83
g4064
sg76
(lp4071
g69
(cgluon.html
SPAN
p4072
g71
NtRp4073
(dp4074
g74
(dp4075
g94
S'color:yellow'
p4076
ssg83
Nsg76
(lp4077
g3947
asbasbasbasbag69
(g85
g71
NtRp4078
(dp4079
g74
(dp4080
sg83
g4056
sg76
(lp4081
g69
(g90
g71
NtRp4082
(dp4083
g74
(dp4084
sg83
g4078
sg76
(lp4085
g69
(g70
g71
NtRp4086
(dp4087
g74
(dp4088
g82
I3
ssg83
g4082
sg76
(lp4089
g112
asbasbasbag69
(g85
g71
NtRp4090
(dp4091
g74
(dp4092
sg83
g4056
sg76
(lp4093
g69
(g90
g71
NtRp4094
(dp4095
g74
(dp4096
sg83
g4090
sg76
(lp4097
g69
(g70
g71
NtRp4098
(dp4099
g74
(dp4100
g82
I3
ssg83
g4094
sg76
(lp4101
S'None'
p4102
asbasbasbag69
(g85
g71
NtRp4103
(dp4104
g74
(dp4105
sg83
g4056
sg76
(lp4106
g69
(g90
g71
NtRp4107
(dp4108
g74
(dp4109
sg83
g4103
sg76
(lp4110
g69
(g70
g71
NtRp4111
(dp4112
g74
(dp4113
g82
I3
ssg83
g4107
sg76
(lp4114
g69
(g78
g71
NtRp4115
(dp4116
g74
(dp4117
g82
I2
ssg83
Nsg76
(lp4118
g69
(g85
g71
NtRp4119
(dp4120
g74
(dp4121
sg83
g4115
sg76
(lp4122
g69
(g90
g71
NtRp4123
(dp4124
g74
(dp4125
sg83
g4119
sg76
(lp4126
g69
(g70
g71
NtRp4127
(dp4128
g74
(dp4129
g82
I2
ssg83
g4123
sg76
(lp4130
g69
(g78
g71
NtRp4131
(dp4132
g74
(dp4133
g82
I1
ssg83
Nsg76
(lp4134
g69
(g85
g71
NtRp4135
(dp4136
g74
(dp4137
sg83
g4131
sg76
(lp4138
g69
(g90
g71
NtRp4139
(dp4140
g74
(dp4141
sg83
g4135
sg76
(lp4142
g69
(g70
g71
NtRp4143
(dp4144
g74
(dp4145
g82
I1
ssg83
g4139
sg76
(lp4146
g4001
(S's\x08\x00\x00\x00My Sites'
tRp4147
asbasbasbag69
(g85
g71
NtRp4148
(dp4149
g74
(dp4150
sg83
g4131
sg76
(lp4151
g69
(g90
g71
NtRp4152
(dp4153
g74
(dp4154
sg83
g4148
sg76
(lp4155
g69
(g70
g71
NtRp4156
(dp4157
g74
(dp4158
g82
I1
ssg83
g4152
sg76
(lp4159
I00
asbasbasbag69
(g85
g71
NtRp4160
(dp4161
g74
(dp4162
sg83
g4131
sg76
(lp4163
g69
(g90
g71
NtRp4164
(dp4165
g74
(dp4166
sg83
g4160
sg76
(lp4167
g69
(g70
g71
NtRp4168
(dp4169
g74
(dp4170
g82
I1
ssg83
g4164
sg76
(lp4171
S'/admin/default/site'
p4172
asbasbasbasbasbasbasbag69
(g85
g71
NtRp4173
(dp4174
g74
(dp4175
sg83
g4115
sg76
(lp4176
g69
(g90
g71
NtRp4177
(dp4178
g74
(dp4179
sg83
g4173
sg76
(lp4180
g69
(g70
g71
NtRp4181
(dp4182
g74
(dp4183
g82
I2
ssg83
g4177
sg76
(lp4184
g69
(g78
g71
NtRp4185
(dp4186
g74
(dp4187
g82
I1
ssg83
Nsg76
(lp4188
g69
(g85
g71
NtRp4189
(dp4190
g74
(dp4191
sg83
g4185
sg76
(lp4192
g69
(g90
g71
NtRp4193
(dp4194
g74
(dp4195
sg83
g4189
sg76
(lp4196
g69
(g70
g71
NtRp4197
(dp4198
g74
(dp4199
g82
I1
ssg83
g4193
sg76
(lp4200
g4001
(S's\x08\x00\x00\x00This App'
tRp4201
asbasbasbag69
(g85
g71
NtRp4202
(dp4203
g74
(dp4204
sg83
g4185
sg76
(lp4205
g69
(g90
g71
NtRp4206
(dp4207
g74
(dp4208
sg83
g4202
sg76
(lp4209
g69
(g70
g71
NtRp4210
(dp4211
g74
(dp4212
g82
I1
ssg83
g4206
sg76
(lp4213
I00
asbasbasbag69
(g85
g71
NtRp4214
(dp4215
g74
(dp4216
sg83
g4185
sg76
(lp4217
g69
(g90
g71
NtRp4218
(dp4219
g74
(dp4220
sg83
g4214
sg76
(lp4221
g69
(g70
g71
NtRp4222
(dp4223
g74
(dp4224
g82
I1
ssg83
g4218
sg76
(lp4225
S'/admin/default/design/Gordian_Knot'
p4226
asbasbasbag69
(g85
g71
NtRp4227
(dp4228
g74
(dp4229
sg83
g4185
sg76
(lp4230
g69
(g90
g71
NtRp4231
(dp4232
g74
(dp4233
sg83
g4227
sg76
(lp4234
g69
(g70
g71
NtRp4235
(dp4236
g74
(dp4237
g82
I1
ssg83
g4231
sg76
(lp4238
(lp4239
(g4001
(S't\n\x00\x00\x00Controller'
tRp4240
I00
S'/admin/default/edit/Gordian_Knot/controllers/default.py'
tp4241
a(g4001
(S't\x04\x00\x00\x00View'
tRp4242
I00
S'/admin/default/edit/Gordian_Knot/views/default/question.html'
tp4243
a(g4001
(S't\x06\x00\x00\x00Layout'
tRp4244
I00
S'/admin/default/edit/Gordian_Knot/views/layout.html'
tp4245
a(g4001
(S't\n\x00\x00\x00Stylesheet'
tRp4246
I00
S'/admin/default/edit/Gordian_Knot/static/css/web2py.css'
tp4247
a(g4001
(S's\x08\x00\x00\x00DB Model'
tRp4248
I00
S'/admin/default/edit/Gordian_Knot/models/db.py'
tp4249
a(g4001
(S's\n\x00\x00\x00Menu Model'
tRp4250
I00
S'/admin/default/edit/Gordian_Knot/models/menu.py'
tp4251
a(g4001
(S't\x08\x00\x00\x00Database'
tRp4252
I00
S'/Gordian_Knot/appadmin/index'
tp4253
a(g4001
(S't\x06\x00\x00\x00Errors'
tRp4254
I00
S'/admin/default/errors/Gordian_Knot'
tp4255
a(g4001
(S't\x05\x00\x00\x00About'
tRp4256
I00
S'/admin/default/about/Gordian_Knot'
tp4257
aasbasbasbasbasbasbasbag69
(g85
g71
NtRp4258
(dp4259
g74
(dp4260
sg83
g4115
sg76
(lp4261
g69
(g90
g71
NtRp4262
(dp4263
g74
(dp4264
sg83
g4258
sg76
(lp4265
g69
(g70
g71
NtRp4266
(dp4267
g74
(dp4268
g82
I2
ssg83
g4262
sg76
(lp4269
g69
(g78
g71
NtRp4270
(dp4271
g74
(dp4272
g82
I1
ssg83
Nsg76
(lp4273
g69
(g85
g71
NtRp4274
(dp4275
g74
(dp4276
sg83
g4270
sg76
(lp4277
g69
(g90
g71
NtRp4278
(dp4279
g74
(dp4280
sg83
g4274
sg76
(lp4281
g69
(g70
g71
NtRp4282
(dp4283
g74
(dp4284
g82
I1
ssg83
g4278
sg76
(lp4285
S'web2py.com'
p4286
asbasbasbag69
(g85
g71
NtRp4287
(dp4288
g74
(dp4289
sg83
g4270
sg76
(lp4290
g69
(g90
g71
NtRp4291
(dp4292
g74
(dp4293
sg83
g4287
sg76
(lp4294
g69
(g70
g71
NtRp4295
(dp4296
g74
(dp4297
g82
I1
ssg83
g4291
sg76
(lp4298
I00
asbasbasbag69
(g85
g71
NtRp4299
(dp4300
g74
(dp4301
sg83
g4270
sg76
(lp4302
g69
(g90
g71
NtRp4303
(dp4304
g74
(dp4305
sg83
g4299
sg76
(lp4306
g69
(g70
g71
NtRp4307
(dp4308
g74
(dp4309
g82
I1
ssg83
g4303
sg76
(lp4310
S'http://www.web2py.com'
p4311
asbasbasbag69
(g85
g71
NtRp4312
(dp4313
g74
(dp4314
sg83
g4270
sg76
(lp4315
g69
(g90
g71
NtRp4316
(dp4317
g74
(dp4318
sg83
g4312
sg76
(lp4319
g69
(g70
g71
NtRp4320
(dp4321
g74
(dp4322
g82
I1
ssg83
g4316
sg76
(lp4323
(lp4324
(g4001
(S't\x08\x00\x00\x00Download'
tRp4325
I00
S'http://www.web2py.com/examples/default/download'
p4326
tp4327
a(g4001
(S't\x07\x00\x00\x00Support'
tRp4328
I00
S'http://www.web2py.com/examples/default/support'
p4329
tp4330
a(g4001
(S't\x04\x00\x00\x00Demo'
tRp4331
I00
S'http://web2py.com/demo_admin'
p4332
tp4333
a(g4001
(S's\x0e\x00\x00\x00Quick Examples'
tRp4334
I00
S'http://web2py.com/examples/default/examples'
p4335
tp4336
a(g4001
(S't\x03\x00\x00\x00FAQ'
tRp4337
I00
S'http://web2py.com/AlterEgo'
p4338
tp4339
a(g4001
(S't\x06\x00\x00\x00Videos'
tRp4340
I00
S'http://www.web2py.com/examples/default/videos/'
p4341
tp4342
a(g4001
(S's\x11\x00\x00\x00Free Applications'
tRp4343
I00
S'http://web2py.com/appliances'
p4344
tp4345
a(g4001
(S't\x07\x00\x00\x00Plugins'
tRp4346
I00
S'http://web2py.com/plugins'
p4347
tp4348
a(g4001
(S't\x07\x00\x00\x00Layouts'
tRp4349
I00
S'http://web2py.com/layouts'
p4350
tp4351
a(g4001
(S't\x07\x00\x00\x00Recipes'
tRp4352
I00
S'http://web2pyslices.com/'
p4353
tp4354
a(g4001
(S't\x08\x00\x00\x00Semantic'
tRp4355
I00
S'http://web2py.com/semantic'
p4356
tp4357
aasbasbasbasbasbasbasbag69
(g85
g71
NtRp4358
(dp4359
g74
(dp4360
sg83
g4115
sg76
(lp4361
g69
(g90
g71
NtRp4362
(dp4363
g74
(dp4364
sg83
g4358
sg76
(lp4365
g69
(g70
g71
NtRp4366
(dp4367
g74
(dp4368
g82
I2
ssg83
g4362
sg76
(lp4369
g69
(g78
g71
NtRp4370
(dp4371
g74
(dp4372
g82
I1
ssg83
Nsg76
(lp4373
g69
(g85
g71
NtRp4374
(dp4375
g74
(dp4376
sg83
g4370
sg76
(lp4377
g69
(g90
g71
NtRp4378
(dp4379
g74
(dp4380
sg83
g4374
sg76
(lp4381
g69
(g70
g71
NtRp4382
(dp4383
g74
(dp4384
g82
I1
ssg83
g4378
sg76
(lp4385
g4001
(S't\r\x00\x00\x00Documentation'
tRp4386
asbasbasbag69
(g85
g71
NtRp4387
(dp4388
g74
(dp4389
sg83
g4370
sg76
(lp4390
g69
(g90
g71
NtRp4391
(dp4392
g74
(dp4393
sg83
g4387
sg76
(lp4394
g69
(g70
g71
NtRp4395
(dp4396
g74
(dp4397
g82
I1
ssg83
g4391
sg76
(lp4398
I00
asbasbasbag69
(g85
g71
NtRp4399
(dp4400
g74
(dp4401
sg83
g4370
sg76
(lp4402
g69
(g90
g71
NtRp4403
(dp4404
g74
(dp4405
sg83
g4399
sg76
(lp4406
g69
(g70
g71
NtRp4407
(dp4408
g74
(dp4409
g82
I1
ssg83
g4403
sg76
(lp4410
S'http://www.web2py.com/book'
p4411
asbasbasbag69
(g85
g71
NtRp4412
(dp4413
g74
(dp4414
sg83
g4370
sg76
(lp4415
g69
(g90
g71
NtRp4416
(dp4417
g74
(dp4418
sg83
g4412
sg76
(lp4419
g69
(g70
g71
NtRp4420
(dp4421
g74
(dp4422
g82
I1
ssg83
g4416
sg76
(lp4423
(lp4424
(g4001
(S't\x07\x00\x00\x00Preface'
tRp4425
I00
S'http://www.web2py.com/book/default/chapter/00'
p4426
tp4427
a(g4001
(S't\x0c\x00\x00\x00Introduction'
tRp4428
I00
S'http://www.web2py.com/book/default/chapter/01'
p4429
tp4430
a(g4001
(S't\x06\x00\x00\x00Python'
tRp4431
I00
S'http://www.web2py.com/book/default/chapter/02'
p4432
tp4433
a(g4001
(S't\x08\x00\x00\x00Overview'
tRp4434
I00
S'http://www.web2py.com/book/default/chapter/03'
p4435
tp4436
a(g4001
(S's\x08\x00\x00\x00The Core'
tRp4437
I00
S'http://www.web2py.com/book/default/chapter/04'
p4438
tp4439
a(g4001
(S's\t\x00\x00\x00The Views'
tRp4440
I00
S'http://www.web2py.com/book/default/chapter/05'
p4441
tp4442
a(g4001
(S't\x08\x00\x00\x00Database'
tRp4443
I00
S'http://www.web2py.com/book/default/chapter/06'
p4444
tp4445
a(g4001
(S's\x14\x00\x00\x00Forms and Validators'
tRp4446
I00
S'http://www.web2py.com/book/default/chapter/07'
p4447
tp4448
a(g4001
(S's\r\x00\x00\x00Email and SMS'
tRp4449
I00
S'http://www.web2py.com/book/default/chapter/08'
p4450
tp4451
a(g4001
(S's\x0e\x00\x00\x00Access Control'
tRp4452
I00
S'http://www.web2py.com/book/default/chapter/09'
p4453
tp4454
a(g4001
(S't\x08\x00\x00\x00Services'
tRp4455
I00
S'http://www.web2py.com/book/default/chapter/10'
p4456
tp4457
a(g4001
(S's\x0c\x00\x00\x00Ajax Recipes'
tRp4458
I00
S'http://www.web2py.com/book/default/chapter/11'
p4459
tp4460
a(g4001
(S's\x16\x00\x00\x00Components and Plugins'
tRp4461
I00
S'http://www.web2py.com/book/default/chapter/12'
p4462
tp4463
a(g4001
(S's\x12\x00\x00\x00Deployment Recipes'
tRp4464
I00
S'http://www.web2py.com/book/default/chapter/13'
p4465
tp4466
a(g4001
(S's\r\x00\x00\x00Other Recipes'
tRp4467
I00
S'http://www.web2py.com/book/default/chapter/14'
p4468
tp4469
a(g4001
(S's\r\x00\x00\x00Buy this book'
tRp4470
I00
S'http://stores.lulu.com/web2py'
p4471
tp4472
aasbasbasbasbasbasbasbag69
(g85
g71
NtRp4473
(dp4474
g74
(dp4475
sg83
g4115
sg76
(lp4476
g69
(g90
g71
NtRp4477
(dp4478
g74
(dp4479
sg83
g4473
sg76
(lp4480
g69
(g70
g71
NtRp4481
(dp4482
g74
(dp4483
g82
I2
ssg83
g4477
sg76
(lp4484
g69
(g78
g71
NtRp4485
(dp4486
g74
(dp4487
g82
I1
ssg83
Nsg76
(lp4488
g69
(g85
g71
NtRp4489
(dp4490
g74
(dp4491
sg83
g4485
sg76
(lp4492
g69
(g90
g71
NtRp4493
(dp4494
g74
(dp4495
sg83
g4489
sg76
(lp4496
g69
(g70
g71
NtRp4497
(dp4498
g74
(dp4499
g82
I1
ssg83
g4493
sg76
(lp4500
g4001
(S't\t\x00\x00\x00Community'
tRp4501
asbasbasbag69
(g85
g71
NtRp4502
(dp4503
g74
(dp4504
sg83
g4485
sg76
(lp4505
g69
(g90
g71
NtRp4506
(dp4507
g74
(dp4508
sg83
g4502
sg76
(lp4509
g69
(g70
g71
NtRp4510
(dp4511
g74
(dp4512
g82
I1
ssg83
g4506
sg76
(lp4513
I00
asbasbasbag69
(g85
g71
NtRp4514
(dp4515
g74
(dp4516
sg83
g4485
sg76
(lp4517
g69
(g90
g71
NtRp4518
(dp4519
g74
(dp4520
sg83
g4514
sg76
(lp4521
g69
(g70
g71
NtRp4522
(dp4523
g74
(dp4524
g82
I1
ssg83
g4518
sg76
(lp4525
Nasbasbasbag69
(g85
g71
NtRp4526
(dp4527
g74
(dp4528
sg83
g4485
sg76
(lp4529
g69
(g90
g71
NtRp4530
(dp4531
g74
(dp4532
sg83
g4526
sg76
(lp4533
g69
(g70
g71
NtRp4534
(dp4535
g74
(dp4536
g82
I1
ssg83
g4530
sg76
(lp4537
(lp4538
(g4001
(S't\x06\x00\x00\x00Groups'
tRp4539
I00
S'http://www.web2py.com/examples/default/usergroups'
p4540
tp4541
a(g4001
(S't\x07\x00\x00\x00Twitter'
tRp4542
I00
S'http://twitter.com/web2py'
p4543
tp4544
a(g4001
(S's\t\x00\x00\x00Live Chat'
tRp4545
I00
S'http://webchat.freenode.net/?channels=web2py'
p4546
tp4547
aasbasbasbasbasbasbasbag69
(g85
g71
NtRp4548
(dp4549
g74
(dp4550
sg83
g4115
sg76
(lp4551
g69
(g90
g71
NtRp4552
(dp4553
g74
(dp4554
sg83
g4548
sg76
(lp4555
g69
(g70
g71
NtRp4556
(dp4557
g74
(dp4558
g82
I2
ssg83
g4552
sg76
(lp4559
g69
(g78
g71
NtRp4560
(dp4561
g74
(dp4562
g82
I1
ssg83
Nsg76
(lp4563
g69
(g85
g71
NtRp4564
(dp4565
g74
(dp4566
sg83
g4560
sg76
(lp4567
g69
(g90
g71
NtRp4568
(dp4569
g74
(dp4570
sg83
g4564
sg76
(lp4571
g69
(g70
g71
NtRp4572
(dp4573
g74
(dp4574
g82
I1
ssg83
g4568
sg76
(lp4575
g4001
(S't\x07\x00\x00\x00Plugins'
tRp4576
asbasbasbag69
(g85
g71
NtRp4577
(dp4578
g74
(dp4579
sg83
g4560
sg76
(lp4580
g69
(g90
g71
NtRp4581
(dp4582
g74
(dp4583
sg83
g4577
sg76
(lp4584
g69
(g70
g71
NtRp4585
(dp4586
g74
(dp4587
g82
I1
ssg83
g4581
sg76
(lp4588
I00
asbasbasbag69
(g85
g71
NtRp4589
(dp4590
g74
(dp4591
sg83
g4560
sg76
(lp4592
g69
(g90
g71
NtRp4593
(dp4594
g74
(dp4595
sg83
g4589
sg76
(lp4596
g69
(g70
g71
NtRp4597
(dp4598
g74
(dp4599
g82
I1
ssg83
g4593
sg76
(lp4600
Nasbasbasbag69
(g85
g71
NtRp4601
(dp4602
g74
(dp4603
sg83
g4560
sg76
(lp4604
g69
(g90
g71
NtRp4605
(dp4606
g74
(dp4607
sg83
g4601
sg76
(lp4608
g69
(g70
g71
NtRp4609
(dp4610
g74
(dp4611
g82
I1
ssg83
g4605
sg76
(lp4612
(lp4613
(S'plugin_wiki'
p4614
I00
S'http://web2py.com/examples/default/download'
p4615
tp4616
a(g4001
(S's\r\x00\x00\x00Other Plugins'
tRp4617
I00
g4347
tp4618
a(g4001
(S's\x0e\x00\x00\x00Layout Plugins'
tRp4619
I00
g4350
tp4620
aasbasbasbasbasbasbasbasbasbasbasbasbasbasbasbasbasbasbasbag69
(g85
g71
NtRp4621
(dp4622
g74
(dp4623
sg83
g3496
sg76
(lp4624
g69
(g90
g71
NtRp4625
(dp4626
g74
(dp4627
g94
g95
ssg83
g4621
sg76
(lp4628
S'meta'
p4629
asbag69
(g90
g71
NtRp4630
(dp4631
g74
(dp4632
g101
g102
ssg83
g4621
sg76
(lp4633
S':'
asbag69
(g90
g71
NtRp4634
(dp4635
g74
(dp4636
sg83
g4621
sg76
(lp4637
g69
(g70
g71
NtRp4638
(dp4639
g74
(dp4640
g82
I5
ssg83
g4634
sg76
(lp4641
g69
(g78
g71
NtRp4642
(dp4643
g74
(dp4644
g82
I4
ssg83
Nsg76
(lp4645
g69
(g85
g71
NtRp4646
(dp4647
g74
(dp4648
sg83
g4642
sg76
(lp4649
g69
(g90
g71
NtRp4650
(dp4651
g74
(dp4652
g94
g95
ssg83
g4646
sg76
(lp4653
S'author'
p4654
asbag69
(g90
g71
NtRp4655
(dp4656
g74
(dp4657
g101
g102
ssg83
g4646
sg76
(lp4658
S':'
asbag69
(g90
g71
NtRp4659
(dp4660
g74
(dp4661
sg83
g4646
sg76
(lp4662
g69
(g70
g71
NtRp4663
(dp4664
g74
(dp4665
g82
I4
ssg83
g4659
sg76
(lp4666
S'Your Name <you@example.com>'
p4667
asbasbasbag69
(g85
g71
NtRp4668
(dp4669
g74
(dp4670
sg83
g4642
sg76
(lp4671
g69
(g90
g71
NtRp4672
(dp4673
g74
(dp4674
g94
g95
ssg83
g4668
sg76
(lp4675
S'copyright'
p4676
asbag69
(g90
g71
NtRp4677
(dp4678
g74
(dp4679
g101
g102
ssg83
g4668
sg76
(lp4680
S':'
asbag69
(g90
g71
NtRp4681
(dp4682
g74
(dp4683
sg83
g4668
sg76
(lp4684
g69
(g70
g71
NtRp4685
(dp4686
g74
(dp4687
g82
I4
ssg83
g4681
sg76
(lp4688
S'Copyright 2011'
p4689
asbasbasbag69
(g85
g71
NtRp4690
(dp4691
g74
(dp4692
sg83
g4642
sg76
(lp4693
g69
(g90
g71
NtRp4694
(dp4695
g74
(dp4696
g94
g95
ssg83
g4690
sg76
(lp4697
S'description'
p4698
asbag69
(g90
g71
NtRp4699
(dp4700
g74
(dp4701
g101
g102
ssg83
g4690
sg76
(lp4702
S':'
asbag69
(g90
g71
NtRp4703
(dp4704
g74
(dp4705
sg83
g4690
sg76
(lp4706
g69
(g70
g71
NtRp4707
(dp4708
g74
(dp4709
g82
I4
ssg83
g4703
sg76
(lp4710
S'a cool new app'
p4711
asbasbasbag69
(g85
g71
NtRp4712
(dp4713
g74
(dp4714
sg83
g4642
sg76
(lp4715
g69
(g90
g71
NtRp4716
(dp4717
g74
(dp4718
g94
g95
ssg83
g4712
sg76
(lp4719
S'generator'
p4720
asbag69
(g90
g71
NtRp4721
(dp4722
g74
(dp4723
g101
g102
ssg83
g4712
sg76
(lp4724
S':'
asbag69
(g90
g71
NtRp4725
(dp4726
g74
(dp4727
sg83
g4712
sg76
(lp4728
g69
(g70
g71
NtRp4729
(dp4730
g74
(dp4731
g82
I4
ssg83
g4725
sg76
(lp4732
S'Web2py Web Framework'
p4733
asbasbasbag69
(g85
g71
NtRp4734
(dp4735
g74
(dp4736
sg83
g4642
sg76
(lp4737
g69
(g90
g71
NtRp4738
(dp4739
g74
(dp4740
g94
g95
ssg83
g4734
sg76
(lp4741
S'keywords'
p4742
asbag69
(g90
g71
NtRp4743
(dp4744
g74
(dp4745
g101
g102
ssg83
g4734
sg76
(lp4746
S':'
asbag69
(g90
g71
NtRp4747
(dp4748
g74
(dp4749
sg83
g4734
sg76
(lp4750
g69
(g70
g71
NtRp4751
(dp4752
g74
(dp4753
g82
I4
ssg83
g4747
sg76
(lp4754
S'web2py, python, framework'
p4755
asbasbasbasbasbasbasbag69
(g85
g71
NtRp4756
(dp4757
g74
(dp4758
sg83
g3496
sg76
(lp4759
g69
(g90
g71
NtRp4760
(dp4761
g74
(dp4762
g94
g95
ssg83
g4756
sg76
(lp4763
S'postprocessing'
p4764
asbag69
(g90
g71
NtRp4765
(dp4766
g74
(dp4767
g101
g102
ssg83
g4756
sg76
(lp4768
S':'
asbag69
(g90
g71
NtRp4769
(dp4770
g74
(dp4771
sg83
g4756
sg76
(lp4772
g69
(g70
g71
NtRp4773
(dp4774
g74
(dp4775
g82
I5
ssg83
g4769
sg76
(lp4776
g69
(g78
g71
NtRp4777
(dp4778
g74
(dp4779
g82
I4
ssg83
Nsg76
(lp4780
sbasbasbasbag69
(g85
g71
NtRp4781
(dp4782
g74
(dp4783
sg83
g3496
sg76
(lp4784
g69
(g90
g71
NtRp4785
(dp4786
g74
(dp4787
g94
g95
ssg83
g4781
sg76
(lp4788
S'session_file'
p4789
asbag69
(g90
g71
NtRp4790
(dp4791
g74
(dp4792
g101
g102
ssg83
g4781
sg76
(lp4793
S':'
asbag69
(g90
g71
NtRp4794
(dp4795
g74
(dp4796
sg83
g4781
sg76
(lp4797
g69
(g70
g71
NtRp4798
(dp4799
g74
(dp4800
g82
I5
ssg83
g4794
sg76
(lp4801
S"<open file '/home/ds-iiit/web2py/applications/Gordian_Knot/sessions/127.0.0.1-7cbbc713-1cb8-4d74-8c67-ceeed6d4fabf', mode 'rb+' at 0x7f0d9c28e540>"
p4802
asbasbasbag69
(g85
g71
NtRp4803
(dp4804
g74
(dp4805
sg83
g3496
sg76
(lp4806
g69
(g90
g71
NtRp4807
(dp4808
g74
(dp4809
g94
g95
ssg83
g4803
sg76
(lp4810
S'session_filename'
p4811
asbag69
(g90
g71
NtRp4812
(dp4813
g74
(dp4814
g101
g102
ssg83
g4803
sg76
(lp4815
S':'
asbag69
(g90
g71
NtRp4816
(dp4817
g74
(dp4818
sg83
g4803
sg76
(lp4819
g69
(g70
g71
NtRp4820
(dp4821
g74
(dp4822
g82
I5
ssg83
g4816
sg76
(lp4823
S'/home/ds-iiit/web2py/applications/Gordian_Knot/sessions/127.0.0.1-7cbbc713-1cb8-4d74-8c67-ceeed6d4fabf'
p4824
asbasbasbag69
(g85
g71
NtRp4825
(dp4826
g74
(dp4827
sg83
g3496
sg76
(lp4828
g69
(g90
g71
NtRp4829
(dp4830
g74
(dp4831
g94
g95
ssg83
g4825
sg76
(lp4832
S'session_id'
p4833
asbag69
(g90
g71
NtRp4834
(dp4835
g74
(dp4836
g101
g102
ssg83
g4825
sg76
(lp4837
S':'
asbag69
(g90
g71
NtRp4838
(dp4839
g74
(dp4840
sg83
g4825
sg76
(lp4841
g69
(g70
g71
NtRp4842
(dp4843
g74
(dp4844
g82
I5
ssg83
g4838
sg76
(lp4845
S'127.0.0.1-7cbbc713-1cb8-4d74-8c67-ceeed6d4fabf'
p4846
asbasbasbag69
(g85
g71
NtRp4847
(dp4848
g74
(dp4849
sg83
g3496
sg76
(lp4850
g69
(g90
g71
NtRp4851
(dp4852
g74
(dp4853
g94
g95
ssg83
g4847
sg76
(lp4854
S'session_id_name'
p4855
asbag69
(g90
g71
NtRp4856
(dp4857
g74
(dp4858
g101
g102
ssg83
g4847
sg76
(lp4859
S':'
asbag69
(g90
g71
NtRp4860
(dp4861
g74
(dp4862
sg83
g4847
sg76
(lp4863
g69
(g70
g71
NtRp4864
(dp4865
g74
(dp4866
g82
I5
ssg83
g4860
sg76
(lp4867
g3553
asbasbasbag69
(g85
g71
NtRp4868
(dp4869
g74
(dp4870
sg83
g3496
sg76
(lp4871
g69
(g90
g71
NtRp4872
(dp4873
g74
(dp4874
g94
g95
ssg83
g4868
sg76
(lp4875
S'session_locked'
p4876
asbag69
(g90
g71
NtRp4877
(dp4878
g74
(dp4879
g101
g102
ssg83
g4868
sg76
(lp4880
S':'
asbag69
(g90
g71
NtRp4881
(dp4882
g74
(dp4883
sg83
g4868
sg76
(lp4884
g69
(g70
g71
NtRp4885
(dp4886
g74
(dp4887
g82
I5
ssg83
g4881
sg76
(lp4888
g1702
asbasbasbag69
(g85
g71
NtRp4889
(dp4890
g74
(dp4891
sg83
g3496
sg76
(lp4892
g69
(g90
g71
NtRp4893
(dp4894
g74
(dp4895
g94
g95
ssg83
g4889
sg76
(lp4896
S'session_new'
p4897
asbag69
(g90
g71
NtRp4898
(dp4899
g74
(dp4900
g101
g102
ssg83
g4889
sg76
(lp4901
S':'
asbag69
(g90
g71
NtRp4902
(dp4903
g74
(dp4904
sg83
g4889
sg76
(lp4905
g69
(g70
g71
NtRp4906
(dp4907
g74
(dp4908
g82
I5
ssg83
g4902
sg76
(lp4909
g112
asbasbasbag69
(g85
g71
NtRp4910
(dp4911
g74
(dp4912
sg83
g3496
sg76
(lp4913
g69
(g90
g71
NtRp4914
(dp4915
g74
(dp4916
g94
g95
ssg83
g4910
sg76
(lp4917
S'status'
p4918
asbag69
(g90
g71
NtRp4919
(dp4920
g74
(dp4921
g101
g102
ssg83
g4910
sg76
(lp4922
S':'
asbag69
(g90
g71
NtRp4923
(dp4924
g74
(dp4925
sg83
g4910
sg76
(lp4926
g69
(g70
g71
NtRp4927
(dp4928
g74
(dp4929
g82
I5
ssg83
g4923
sg76
(lp4930
S'200'
p4931
asbasbasbag69
(g85
g71
NtRp4932
(dp4933
g74
(dp4934
sg83
g3496
sg76
(lp4935
g69
(g90
g71
NtRp4936
(dp4937
g74
(dp4938
g94
g95
ssg83
g4932
sg76
(lp4939
S'subtitle'
p4940
asbag69
(g90
g71
NtRp4941
(dp4942
g74
(dp4943
g101
g102
ssg83
g4932
sg76
(lp4944
S':'
asbag69
(g90
g71
NtRp4945
(dp4946
g74
(dp4947
sg83
g4932
sg76
(lp4948
g69
(g70
g71
NtRp4949
(dp4950
g74
(dp4951
g82
I5
ssg83
g4945
sg76
(lp4952
g4001
(S's\r\x00\x00\x00customize me!'
tRp4953
asbasbasbag69
(g85
g71
NtRp4954
(dp4955
g74
(dp4956
sg83
g3496
sg76
(lp4957
g69
(g90
g71
NtRp4958
(dp4959
g74
(dp4960
g94
g95
ssg83
g4954
sg76
(lp4961
S'title'
p4962
asbag69
(g90
g71
NtRp4963
(dp4964
g74
(dp4965
g101
g102
ssg83
g4954
sg76
(lp4966
S':'
asbag69
(g90
g71
NtRp4967
(dp4968
g74
(dp4969
sg83
g4954
sg76
(lp4970
g69
(g70
g71
NtRp4971
(dp4972
g74
(dp4973
g82
I5
ssg83
g4967
sg76
(lp4974
S'Gordian Knot'
p4975
asbasbasbag69
(g85
g71
NtRp4976
(dp4977
g74
(dp4978
sg83
g3496
sg76
(lp4979
g69
(g90
g71
NtRp4980
(dp4981
g74
(dp4982
g94
g95
ssg83
g4976
sg76
(lp4983
g2387
asbag69
(g90
g71
NtRp4984
(dp4985
g74
(dp4986
g101
g102
ssg83
g4976
sg76
(lp4987
S':'
asbag69
(g90
g71
NtRp4988
(dp4989
g74
(dp4990
sg83
g4976
sg76
(lp4991
g69
(g70
g71
NtRp4992
(dp4993
g74
(dp4994
g82
I5
ssg83
g4988
sg76
(lp4995
g2400
asbasbasbag69
(g85
g71
NtRp4996
(dp4997
g74
(dp4998
sg83
g3496
sg76
(lp4999
g69
(g90
g71
NtRp5000
(dp5001
g74
(dp5002
g94
g95
ssg83
g4996
sg76
(lp5003
S'view'
p5004
asbag69
(g90
g71
NtRp5005
(dp5006
g74
(dp5007
g101
g102
ssg83
g4996
sg76
(lp5008
S':'
asbag69
(g90
g71
NtRp5009
(dp5010
g74
(dp5011
sg83
g4996
sg76
(lp5012
g69
(g70
g71
NtRp5013
(dp5014
g74
(dp5015
g82
I5
ssg83
g5009
sg76
(lp5016
S'default/question.html'
p5017
asbasbasbasbasbsS'locals'
p5018
(dp5019
g4
S"'/home/ds-iiit/web2py/applications/Gordian_Knot/controllers/default.py'"
p5020
sg6
S"'# -*- coding: utf-8 -*-\\n# this file is released ...d())\\n\\n\\nresponse._vars=response._caller(question)\\n'"
p5021
sssS'traceback'
p5022
S'Traceback (most recent call last):\n  File "/usr/lib/pymodules/python2.7/gluon/restricted.py", line 203, in restricted\n    ccode = compile2(code,layer)\n  File "/usr/lib/pymodules/python2.7/gluon/restricted.py", line 189, in compile2\n    return compile(code.rstrip().replace(\'\\r\\n\',\'\\n\')+\'\\n\', layer, \'exec\')\n  File "/home/ds-iiit/web2py/applications/Gordian_Knot/controllers/default.py", line 41\n    for i in y and not in x:\n                        ^\nSyntaxError: invalid syntax\n'
p5023
s.