(dp1
S'output'
p2
S"<type 'exceptions.ValueError'> invalid literal for int() with base 10: 'db'"
p3
sS'layer'
p4
S'/home/ds-iiit/web2py/applications/Read_it/models/db.py'
p5
sS'code'
p6
S"# -*- coding: utf-8 -*-\n\n#########################################################################\n## This scaffolding model makes your app work on Google App Engine too\n## File is released under public domain and you can use without limitations\n#########################################################################\n\n## if SSL/HTTPS is properly configured and you want all HTTP requests to\n## be redirected to HTTPS, uncomment the line below:\n# request.requires_https()\n\nif not request.env.web2py_runtime_gae:\n    ## if NOT running on Google App Engine use SQLite or other DB\n    db = DAL('sqlite://storage.sqlite')\nelse:\n    ## connect to Google BigTable (optional 'google:datastore://namespace')\n    db = DAL('google:datastore')\n    ## store sessions and tickets there\n    session.connect(request, response, db = db)\n    ## or store session in Memcache, Redis, etc.\n    ## from gluon.contrib.memdb import MEMDB\n    ## from google.appengine.api.memcache import Client\n    ## session.connect(request, response, db = MEMDB(Client()))\n\n## by default give a view/generic.extension to all actions from localhost\n## none otherwise. a pattern can be 'controller/function.extension'\nresponse.generic_patterns = ['*'] if request.is_local else []\n## (optional) optimize handling of static files\n# response.optimize_css = 'concat,minify,inline'\n# response.optimize_js = 'concat,minify,inline'\n\n#########################################################################\n## Here is sample code if you need for\n## - email capabilities\n## - authentication (registration, login, logout, ... )\n## - authorization (role based authorization)\n## - services (xml, csv, json, xmlrpc, jsonrpc, amf, rss)\n## - old style crud actions\n## (more options discussed in gluon/tools.py)\n#########################################################################\n\nfrom gluon.tools import Auth, Crud, Service, PluginManager, prettydate\nauth = Auth(db, hmac_key=Auth.get_or_create_key())\ncrud, service, plugins = Crud(db), Service(), PluginManager()\n\n## create all tables needed by auth if not custom tables\nauth.define_tables()\n\n## configure email\nmail=auth.settings.mailer\nmail.settings.server = 'logging' or 'smtp.gmail.com:587'\nmail.settings.sender = 'you@gmail.com'\nmail.settings.login = 'username:password'\n\n## configure auth policy\nauth.settings.registration_requires_verification = False\nauth.settings.registration_requires_approval = False\nauth.settings.reset_password_requires_verification = True\n\nadmin_extra_fields =[Field('Experiance')]\nuser_extra_fields = [Field('Interests','text')]\n\nauth.settings.extra_fields['auth_user'] = (\n    [Field('user_type', requires=IS_IN_SET(['Admin', 'User']))] +\n    user_extra_fields + admin_extra_fields)\n    \n\n\n## if you need to use OpenID, Facebook, MySpace, Twitter, Linkedin, etc.\n## register with janrain.com, write your domain:api_key in private/janrain.key\nfrom gluon.contrib.login_methods.rpx_account import use_janrain\nuse_janrain(auth,filename='private/janrain.key')\n\n#########################################################################\n## Define your tables below (or better in another model file) for example\n##\n## >>> db.define_table('mytable',Field('myfield','string'))\n##\n## Fields can be 'string','text','password','integer','double','boolean'\n##       'date','time','datetime','blob','upload', 'reference TABLENAME'\n## There is an implicit 'id integer autoincrement' field\n## Consult manual for more options, validators, etc.\n##\n## More API examples for controllers:\n##\n## >>> db.mytable.insert(myfield='value')\n## >>> rows=db(db.mytable.myfield=='value').select(db.mytable.ALL)\n## >>> for row in rows: print row.id, row.myfield\n#########################################################################\nimport datetime\ncat = ['Top Stories','World','India','Entertaintment','Sports','Politics','Business']\ndb.define_table('Category',\n\tField('Name','string'),\n\tField('Posts','integer',writable=False))\n\ndb.define_table('Item',\n\tField('Category','string',requires=IS_IN_SET(cat),required=True),\n\tField('Heading','string',required=True),\n\tField('URL','string',required=True,requires=IS_URL()),\n\tField('Multimedia','string',requires=IS_URL(),required=False),\n\tField('Rating','integer',default=100,readable=False,writable=False),\n\tField('Time','datetime',default=datetime.datetime.now(),writable=False),\n\tField('User',db.auth_user,requires=IS_IN_DB(db,'auth_user.id','auth_user.name'),default=auth.user_id,writable=False,readable=False))\n\ndb.define_table('Comment',\n\tField('ItemID',db.Item,requires=IS_IN_DB(db,'Item.id','Item.id'),default=request.args(0),writable=False),\n\tField('AuthID',db.auth_user,requires=IS_IN_DB(db,'auth_user.id','auth_user.id'),writable=False),\n\tField('Comment','text'))\ndb.define_table('Rated',\n\tField('UserID',db.auth_user,requires=IS_IN_DB(db,'auth_user.id','auth_user.id'),readable=False),\t\n\tField('Points','integer',requires=IS_IN_SET([5,-3])),\t\n\tField('ItemID',db.Item,requires=IS_IN_DB(db,'Item.id','Item.id'),readable=False))\n"
p7
sS'snapshot'
p8
(dp9
S'exception'
p10
(dp11
S'__hash__'
p12
S"<method-wrapper '__hash__' of exceptions.ValueError object>"
p13
sS'__setattr__'
p14
S"<method-wrapper '__setattr__' of exceptions.ValueError object>"
p15
sS'__reduce_ex__'
p16
S'<built-in method __reduce_ex__ of exceptions.ValueError object>'
p17
sS'__getslice__'
p18
S"<method-wrapper '__getslice__' of exceptions.ValueError object>"
p19
sS'__getitem__'
p20
S"<method-wrapper '__getitem__' of exceptions.ValueError object>"
p21
sS'__setstate__'
p22
S'<built-in method __setstate__ of exceptions.ValueError object>'
p23
sS'args'
p24
S'("invalid literal for int() with base 10: \'db\'",)'
p25
sS'__reduce__'
p26
S'<built-in method __reduce__ of exceptions.ValueError object>'
p27
sS'__str__'
p28
S"<method-wrapper '__str__' of exceptions.ValueError object>"
p29
sS'__format__'
p30
S'<built-in method __format__ of exceptions.ValueError object>'
p31
sS'__getattribute__'
p32
S"<method-wrapper '__getattribute__' of exceptions.ValueError object>"
p33
sS'__class__'
p34
S"<type 'exceptions.ValueError'>"
p35
sS'__unicode__'
p36
S'<built-in method __unicode__ of exceptions.ValueError object>'
p37
sS'__delattr__'
p38
S"<method-wrapper '__delattr__' of exceptions.ValueError object>"
p39
sS'__subclasshook__'
p40
S'<built-in method __subclasshook__ of type object>'
p41
sS'__repr__'
p42
S"<method-wrapper '__repr__' of exceptions.ValueError object>"
p43
sS'__dict__'
p44
S'{}'
p45
sS'__sizeof__'
p46
S'<built-in method __sizeof__ of exceptions.ValueError object>'
p47
sS'__doc__'
p48
S"'Inappropriate argument value (of correct type).'"
p49
sS'__init__'
p50
S"<method-wrapper '__init__' of exceptions.ValueError object>"
p51
sS'__new__'
p52
S'<built-in method __new__ of type object>'
p53
ssS'evalue'
p54
S"invalid literal for int() with base 10: 'db'"
p55
sS'request'
p56
ccopy_reg
_reconstructor
p57
(cgluon.html
BEAUTIFY
p58
c__builtin__
object
p59
NtRp60
(dp61
S'attributes'
p62
(dp63
sS'components'
p64
(lp65
g57
(cgluon.html
TABLE
p66
g59
NtRp67
(dp68
g62
(dp69
S'level'
p70
I5
ssS'parent'
p71
Nsg64
(lp72
g57
(cgluon.html
TR
p73
g59
NtRp74
(dp75
g62
(dp76
sg71
g67
sg64
(lp77
g57
(cgluon.html
TD
p78
g59
NtRp79
(dp80
g62
(dp81
S'_style'
p82
S'font-weight:bold;vertical-align:top'
p83
ssg71
g74
sg64
(lp84
S'ajax'
p85
asbag57
(g78
g59
NtRp86
(dp87
g62
(dp88
S'_valign'
p89
S'top'
p90
ssg71
g74
sg64
(lp91
S':'
asbag57
(g78
g59
NtRp92
(dp93
g62
(dp94
sg71
g74
sg64
(lp95
g57
(g58
g59
NtRp96
(dp97
g62
(dp98
g70
I5
ssg71
g92
sg64
(lp99
S'False'
p100
asbasbasbag57
(g73
g59
NtRp101
(dp102
g62
(dp103
sg71
g67
sg64
(lp104
g57
(g78
g59
NtRp105
(dp106
g62
(dp107
g82
g83
ssg71
g101
sg64
(lp108
S'application'
p109
asbag57
(g78
g59
NtRp110
(dp111
g62
(dp112
g89
g90
ssg71
g101
sg64
(lp113
S':'
asbag57
(g78
g59
NtRp114
(dp115
g62
(dp116
sg71
g101
sg64
(lp117
g57
(g58
g59
NtRp118
(dp119
g62
(dp120
g70
I5
ssg71
g114
sg64
(lp121
S'Read_it'
p122
asbasbasbag57
(g73
g59
NtRp123
(dp124
g62
(dp125
sg71
g67
sg64
(lp126
g57
(g78
g59
NtRp127
(dp128
g62
(dp129
g82
g83
ssg71
g123
sg64
(lp130
g24
asbag57
(g78
g59
NtRp131
(dp132
g62
(dp133
g89
g90
ssg71
g123
sg64
(lp134
S':'
asbag57
(g78
g59
NtRp135
(dp136
g62
(dp137
sg71
g123
sg64
(lp138
g57
(g58
g59
NtRp139
(dp140
g62
(dp141
g70
I5
ssg71
g135
sg64
(lp142
g57
(g66
g59
NtRp143
(dp144
g62
(dp145
g70
I4
ssg71
Nsg64
(lp146
g57
(g73
g59
NtRp147
(dp148
g62
(dp149
sg71
g143
sg64
(lp150
g57
(g78
g59
NtRp151
(dp152
g62
(dp153
sg71
g147
sg64
(lp154
g57
(g58
g59
NtRp155
(dp156
g62
(dp157
g70
I4
ssg71
g151
sg64
(lp158
S'db'
p159
asbasbasbasbasbasbasbag57
(g73
g59
NtRp160
(dp161
g62
(dp162
sg71
g67
sg64
(lp163
g57
(g78
g59
NtRp164
(dp165
g62
(dp166
g82
g83
ssg71
g160
sg64
(lp167
S'body'
p168
asbag57
(g78
g59
NtRp169
(dp170
g62
(dp171
g89
g90
ssg71
g160
sg64
(lp172
S':'
asbag57
(g78
g59
NtRp173
(dp174
g62
(dp175
sg71
g160
sg64
(lp176
g57
(g58
g59
NtRp177
(dp178
g62
(dp179
g70
I5
ssg71
g173
sg64
(lp180
S'<cStringIO.StringO object at 0x7fdcbc64f9d0>'
p181
asbasbasbag57
(g73
g59
NtRp182
(dp183
g62
(dp184
sg71
g67
sg64
(lp185
g57
(g78
g59
NtRp186
(dp187
g62
(dp188
g82
g83
ssg71
g182
sg64
(lp189
S'client'
p190
asbag57
(g78
g59
NtRp191
(dp192
g62
(dp193
g89
g90
ssg71
g182
sg64
(lp194
S':'
asbag57
(g78
g59
NtRp195
(dp196
g62
(dp197
sg71
g182
sg64
(lp198
g57
(g58
g59
NtRp199
(dp200
g62
(dp201
g70
I5
ssg71
g195
sg64
(lp202
S'127.0.0.1'
p203
asbasbasbag57
(g73
g59
NtRp204
(dp205
g62
(dp206
sg71
g67
sg64
(lp207
g57
(g78
g59
NtRp208
(dp209
g62
(dp210
g82
g83
ssg71
g204
sg64
(lp211
S'controller'
p212
asbag57
(g78
g59
NtRp213
(dp214
g62
(dp215
g89
g90
ssg71
g204
sg64
(lp216
S':'
asbag57
(g78
g59
NtRp217
(dp218
g62
(dp219
sg71
g204
sg64
(lp220
g57
(g58
g59
NtRp221
(dp222
g62
(dp223
g70
I5
ssg71
g217
sg64
(lp224
S'appadmin'
p225
asbasbasbag57
(g73
g59
NtRp226
(dp227
g62
(dp228
sg71
g67
sg64
(lp229
g57
(g78
g59
NtRp230
(dp231
g62
(dp232
g82
g83
ssg71
g226
sg64
(lp233
S'cookies'
p234
asbag57
(g78
g59
NtRp235
(dp236
g62
(dp237
g89
g90
ssg71
g226
sg64
(lp238
S':'
asbag57
(g78
g59
NtRp239
(dp240
g62
(dp241
sg71
g226
sg64
(lp242
g57
(g58
g59
NtRp243
(dp244
g62
(dp245
g70
I5
ssg71
g239
sg64
(lp246
g57
(g66
g59
NtRp247
(dp248
g62
(dp249
g70
I4
ssg71
Nsg64
(lp250
g57
(g73
g59
NtRp251
(dp252
g62
(dp253
sg71
g247
sg64
(lp254
g57
(g78
g59
NtRp255
(dp256
g62
(dp257
g82
g83
ssg71
g251
sg64
(lp258
S'session_id_admin'
p259
asbag57
(g78
g59
NtRp260
(dp261
g62
(dp262
g89
g90
ssg71
g251
sg64
(lp263
S':'
asbag57
(g78
g59
NtRp264
(dp265
g62
(dp266
sg71
g251
sg64
(lp267
g57
(g58
g59
NtRp268
(dp269
g62
(dp270
g70
I4
ssg71
g264
sg64
(lp271
g57
(g66
g59
NtRp272
(dp273
g62
(dp274
g70
I3
ssg71
Nsg64
(lp275
g57
(g73
g59
NtRp276
(dp277
g62
(dp278
sg71
g272
sg64
(lp279
g57
(g78
g59
NtRp280
(dp281
g62
(dp282
g82
g83
ssg71
g276
sg64
(lp283
S'comment'
p284
asbag57
(g78
g59
NtRp285
(dp286
g62
(dp287
g89
g90
ssg71
g276
sg64
(lp288
S':'
asbag57
(g78
g59
NtRp289
(dp290
g62
(dp291
sg71
g276
sg64
(lp292
g57
(g58
g59
NtRp293
(dp294
g62
(dp295
g70
I3
ssg71
g289
sg64
(lp296
S''
asbasbasbag57
(g73
g59
NtRp297
(dp298
g62
(dp299
sg71
g272
sg64
(lp300
g57
(g78
g59
NtRp301
(dp302
g62
(dp303
g82
g83
ssg71
g297
sg64
(lp304
S'domain'
p305
asbag57
(g78
g59
NtRp306
(dp307
g62
(dp308
g89
g90
ssg71
g297
sg64
(lp309
S':'
asbag57
(g78
g59
NtRp310
(dp311
g62
(dp312
sg71
g297
sg64
(lp313
g57
(g58
g59
NtRp314
(dp315
g62
(dp316
g70
I3
ssg71
g310
sg64
(lp317
S''
asbasbasbag57
(g73
g59
NtRp318
(dp319
g62
(dp320
sg71
g272
sg64
(lp321
g57
(g78
g59
NtRp322
(dp323
g62
(dp324
g82
g83
ssg71
g318
sg64
(lp325
S'expires'
p326
asbag57
(g78
g59
NtRp327
(dp328
g62
(dp329
g89
g90
ssg71
g318
sg64
(lp330
S':'
asbag57
(g78
g59
NtRp331
(dp332
g62
(dp333
sg71
g318
sg64
(lp334
g57
(g58
g59
NtRp335
(dp336
g62
(dp337
g70
I3
ssg71
g331
sg64
(lp338
S''
asbasbasbag57
(g73
g59
NtRp339
(dp340
g62
(dp341
sg71
g272
sg64
(lp342
g57
(g78
g59
NtRp343
(dp344
g62
(dp345
g82
g83
ssg71
g339
sg64
(lp346
S'httponly'
p347
asbag57
(g78
g59
NtRp348
(dp349
g62
(dp350
g89
g90
ssg71
g339
sg64
(lp351
S':'
asbag57
(g78
g59
NtRp352
(dp353
g62
(dp354
sg71
g339
sg64
(lp355
g57
(g58
g59
NtRp356
(dp357
g62
(dp358
g70
I3
ssg71
g352
sg64
(lp359
S''
asbasbasbag57
(g73
g59
NtRp360
(dp361
g62
(dp362
sg71
g272
sg64
(lp363
g57
(g78
g59
NtRp364
(dp365
g62
(dp366
g82
g83
ssg71
g360
sg64
(lp367
S'max-age'
p368
asbag57
(g78
g59
NtRp369
(dp370
g62
(dp371
g89
g90
ssg71
g360
sg64
(lp372
S':'
asbag57
(g78
g59
NtRp373
(dp374
g62
(dp375
sg71
g360
sg64
(lp376
g57
(g58
g59
NtRp377
(dp378
g62
(dp379
g70
I3
ssg71
g373
sg64
(lp380
S''
asbasbasbag57
(g73
g59
NtRp381
(dp382
g62
(dp383
sg71
g272
sg64
(lp384
g57
(g78
g59
NtRp385
(dp386
g62
(dp387
g82
g83
ssg71
g381
sg64
(lp388
S'path'
p389
asbag57
(g78
g59
NtRp390
(dp391
g62
(dp392
g89
g90
ssg71
g381
sg64
(lp393
S':'
asbag57
(g78
g59
NtRp394
(dp395
g62
(dp396
sg71
g381
sg64
(lp397
g57
(g58
g59
NtRp398
(dp399
g62
(dp400
g70
I3
ssg71
g394
sg64
(lp401
S''
asbasbasbag57
(g73
g59
NtRp402
(dp403
g62
(dp404
sg71
g272
sg64
(lp405
g57
(g78
g59
NtRp406
(dp407
g62
(dp408
g82
g83
ssg71
g402
sg64
(lp409
S'secure'
p410
asbag57
(g78
g59
NtRp411
(dp412
g62
(dp413
g89
g90
ssg71
g402
sg64
(lp414
S':'
asbag57
(g78
g59
NtRp415
(dp416
g62
(dp417
sg71
g402
sg64
(lp418
g57
(g58
g59
NtRp419
(dp420
g62
(dp421
g70
I3
ssg71
g415
sg64
(lp422
S''
asbasbasbag57
(g73
g59
NtRp423
(dp424
g62
(dp425
sg71
g272
sg64
(lp426
g57
(g78
g59
NtRp427
(dp428
g62
(dp429
g82
g83
ssg71
g423
sg64
(lp430
S'version'
p431
asbag57
(g78
g59
NtRp432
(dp433
g62
(dp434
g89
g90
ssg71
g423
sg64
(lp435
S':'
asbag57
(g78
g59
NtRp436
(dp437
g62
(dp438
sg71
g423
sg64
(lp439
g57
(g58
g59
NtRp440
(dp441
g62
(dp442
g70
I3
ssg71
g436
sg64
(lp443
S''
asbasbasbasbasbasbasbag57
(g73
g59
NtRp444
(dp445
g62
(dp446
sg71
g247
sg64
(lp447
g57
(g78
g59
NtRp448
(dp449
g62
(dp450
g82
g83
ssg71
g444
sg64
(lp451
S'session_id_read_it'
p452
asbag57
(g78
g59
NtRp453
(dp454
g62
(dp455
g89
g90
ssg71
g444
sg64
(lp456
S':'
asbag57
(g78
g59
NtRp457
(dp458
g62
(dp459
sg71
g444
sg64
(lp460
g57
(g58
g59
NtRp461
(dp462
g62
(dp463
g70
I4
ssg71
g457
sg64
(lp464
g57
(g66
g59
NtRp465
(dp466
g62
(dp467
g70
I3
ssg71
Nsg64
(lp468
g57
(g73
g59
NtRp469
(dp470
g62
(dp471
sg71
g465
sg64
(lp472
g57
(g78
g59
NtRp473
(dp474
g62
(dp475
g82
g83
ssg71
g469
sg64
(lp476
g284
asbag57
(g78
g59
NtRp477
(dp478
g62
(dp479
g89
g90
ssg71
g469
sg64
(lp480
S':'
asbag57
(g78
g59
NtRp481
(dp482
g62
(dp483
sg71
g469
sg64
(lp484
g57
(g58
g59
NtRp485
(dp486
g62
(dp487
g70
I3
ssg71
g481
sg64
(lp488
S''
asbasbasbag57
(g73
g59
NtRp489
(dp490
g62
(dp491
sg71
g465
sg64
(lp492
g57
(g78
g59
NtRp493
(dp494
g62
(dp495
g82
g83
ssg71
g489
sg64
(lp496
g305
asbag57
(g78
g59
NtRp497
(dp498
g62
(dp499
g89
g90
ssg71
g489
sg64
(lp500
S':'
asbag57
(g78
g59
NtRp501
(dp502
g62
(dp503
sg71
g489
sg64
(lp504
g57
(g58
g59
NtRp505
(dp506
g62
(dp507
g70
I3
ssg71
g501
sg64
(lp508
S''
asbasbasbag57
(g73
g59
NtRp509
(dp510
g62
(dp511
sg71
g465
sg64
(lp512
g57
(g78
g59
NtRp513
(dp514
g62
(dp515
g82
g83
ssg71
g509
sg64
(lp516
g326
asbag57
(g78
g59
NtRp517
(dp518
g62
(dp519
g89
g90
ssg71
g509
sg64
(lp520
S':'
asbag57
(g78
g59
NtRp521
(dp522
g62
(dp523
sg71
g509
sg64
(lp524
g57
(g58
g59
NtRp525
(dp526
g62
(dp527
g70
I3
ssg71
g521
sg64
(lp528
S''
asbasbasbag57
(g73
g59
NtRp529
(dp530
g62
(dp531
sg71
g465
sg64
(lp532
g57
(g78
g59
NtRp533
(dp534
g62
(dp535
g82
g83
ssg71
g529
sg64
(lp536
g347
asbag57
(g78
g59
NtRp537
(dp538
g62
(dp539
g89
g90
ssg71
g529
sg64
(lp540
S':'
asbag57
(g78
g59
NtRp541
(dp542
g62
(dp543
sg71
g529
sg64
(lp544
g57
(g58
g59
NtRp545
(dp546
g62
(dp547
g70
I3
ssg71
g541
sg64
(lp548
S''
asbasbasbag57
(g73
g59
NtRp549
(dp550
g62
(dp551
sg71
g465
sg64
(lp552
g57
(g78
g59
NtRp553
(dp554
g62
(dp555
g82
g83
ssg71
g549
sg64
(lp556
g368
asbag57
(g78
g59
NtRp557
(dp558
g62
(dp559
g89
g90
ssg71
g549
sg64
(lp560
S':'
asbag57
(g78
g59
NtRp561
(dp562
g62
(dp563
sg71
g549
sg64
(lp564
g57
(g58
g59
NtRp565
(dp566
g62
(dp567
g70
I3
ssg71
g561
sg64
(lp568
S''
asbasbasbag57
(g73
g59
NtRp569
(dp570
g62
(dp571
sg71
g465
sg64
(lp572
g57
(g78
g59
NtRp573
(dp574
g62
(dp575
g82
g83
ssg71
g569
sg64
(lp576
g389
asbag57
(g78
g59
NtRp577
(dp578
g62
(dp579
g89
g90
ssg71
g569
sg64
(lp580
S':'
asbag57
(g78
g59
NtRp581
(dp582
g62
(dp583
sg71
g569
sg64
(lp584
g57
(g58
g59
NtRp585
(dp586
g62
(dp587
g70
I3
ssg71
g581
sg64
(lp588
S''
asbasbasbag57
(g73
g59
NtRp589
(dp590
g62
(dp591
sg71
g465
sg64
(lp592
g57
(g78
g59
NtRp593
(dp594
g62
(dp595
g82
g83
ssg71
g589
sg64
(lp596
g410
asbag57
(g78
g59
NtRp597
(dp598
g62
(dp599
g89
g90
ssg71
g589
sg64
(lp600
S':'
asbag57
(g78
g59
NtRp601
(dp602
g62
(dp603
sg71
g589
sg64
(lp604
g57
(g58
g59
NtRp605
(dp606
g62
(dp607
g70
I3
ssg71
g601
sg64
(lp608
S''
asbasbasbag57
(g73
g59
NtRp609
(dp610
g62
(dp611
sg71
g465
sg64
(lp612
g57
(g78
g59
NtRp613
(dp614
g62
(dp615
g82
g83
ssg71
g609
sg64
(lp616
g431
asbag57
(g78
g59
NtRp617
(dp618
g62
(dp619
g89
g90
ssg71
g609
sg64
(lp620
S':'
asbag57
(g78
g59
NtRp621
(dp622
g62
(dp623
sg71
g609
sg64
(lp624
g57
(g58
g59
NtRp625
(dp626
g62
(dp627
g70
I3
ssg71
g621
sg64
(lp628
S''
asbasbasbasbasbasbasbasbasbasbasbag57
(g73
g59
NtRp629
(dp630
g62
(dp631
sg71
g67
sg64
(lp632
g57
(g78
g59
NtRp633
(dp634
g62
(dp635
g82
g83
ssg71
g629
sg64
(lp636
S'env'
p637
asbag57
(g78
g59
NtRp638
(dp639
g62
(dp640
g89
g90
ssg71
g629
sg64
(lp641
S':'
asbag57
(g78
g59
NtRp642
(dp643
g62
(dp644
sg71
g629
sg64
(lp645
g57
(g58
g59
NtRp646
(dp647
g62
(dp648
g70
I5
ssg71
g642
sg64
(lp649
g57
(g66
g59
NtRp650
(dp651
g62
(dp652
g70
I4
ssg71
Nsg64
(lp653
g57
(g73
g59
NtRp654
(dp655
g62
(dp656
sg71
g650
sg64
(lp657
g57
(g78
g59
NtRp658
(dp659
g62
(dp660
g82
g83
ssg71
g654
sg64
(lp661
S'app_folders'
p662
asbag57
(g78
g59
NtRp663
(dp664
g62
(dp665
g89
g90
ssg71
g654
sg64
(lp666
S':'
asbag57
(g78
g59
NtRp667
(dp668
g62
(dp669
sg71
g654
sg64
(lp670
g57
(g58
g59
NtRp671
(dp672
g62
(dp673
g70
I4
ssg71
g667
sg64
(lp674
S"set(['/home/ds-iiit/web2py/applications/Read_it/', '/home/ds-iiit/web2py/applications/welcome/', '/home/ds-iiit/web2py/applications/admin/'])"
p675
asbasbasbag57
(g73
g59
NtRp676
(dp677
g62
(dp678
sg71
g650
sg64
(lp679
g57
(g78
g59
NtRp680
(dp681
g62
(dp682
g82
g83
ssg71
g676
sg64
(lp683
S'applications_parent'
p684
asbag57
(g78
g59
NtRp685
(dp686
g62
(dp687
g89
g90
ssg71
g676
sg64
(lp688
S':'
asbag57
(g78
g59
NtRp689
(dp690
g62
(dp691
sg71
g676
sg64
(lp692
g57
(g58
g59
NtRp693
(dp694
g62
(dp695
g70
I4
ssg71
g689
sg64
(lp696
S'/home/ds-iiit/web2py'
p697
asbasbasbag57
(g73
g59
NtRp698
(dp699
g62
(dp700
sg71
g650
sg64
(lp701
g57
(g78
g59
NtRp702
(dp703
g62
(dp704
g82
g83
ssg71
g698
sg64
(lp705
S'cmd_args'
p706
asbag57
(g78
g59
NtRp707
(dp708
g62
(dp709
g89
g90
ssg71
g698
sg64
(lp710
S':'
asbag57
(g78
g59
NtRp711
(dp712
g62
(dp713
sg71
g698
sg64
(lp714
g57
(g58
g59
NtRp715
(dp716
g62
(dp717
g70
I4
ssg71
g711
sg64
(lp718
g57
(g66
g59
NtRp719
(dp720
g62
(dp721
g70
I3
ssg71
Nsg64
(lp722
sbasbasbasbag57
(g73
g59
NtRp723
(dp724
g62
(dp725
sg71
g650
sg64
(lp726
g57
(g78
g59
NtRp727
(dp728
g62
(dp729
g82
g83
ssg71
g723
sg64
(lp730
S'cmd_options'
p731
asbag57
(g78
g59
NtRp732
(dp733
g62
(dp734
g89
g90
ssg71
g723
sg64
(lp735
S':'
asbag57
(g78
g59
NtRp736
(dp737
g62
(dp738
sg71
g723
sg64
(lp739
g57
(g58
g59
NtRp740
(dp741
g62
(dp742
g70
I4
ssg71
g736
sg64
(lp743
S"<Values at 0x2adbb00: {'verbose': False, 'ip': '127.0.0.1', 'shutdown_timeout': 5, 'taskbar': False, 'port': 8000, 'maxthreads': None, 'softcron': False, 'server_name': 'DS-IIIT', 'bpython': False, 'nogui': False, 'nocron': False, 'extcron': False, 'debuglevel': 30, 'test': None, 'folder': '/home/ds-iiit/web2py', 'config': '', 'import_models': False, 'winservice': '', 'shell': None, 'run': '', 'log_filename': 'httpserver.log', 'args': [''], 'socket_timeout': 1, 'profiler_filename': None, 'ssl_private_key': '', 'password': '<ask>', 'request_queue_size': 5, 'ssl_certificate': '', 'cronjob': False, 'plain': False, 'quiet': False, 'interfaces': None, 'minthreads': None, 'timeout': 10, 'numthreads': None, 'nobanner': False, 'pid_filename': 'httpserver.pid'}>"
p744
asbasbasbag57
(g73
g59
NtRp745
(dp746
g62
(dp747
sg71
g650
sg64
(lp748
g57
(g78
g59
NtRp749
(dp750
g62
(dp751
g82
g83
ssg71
g745
sg64
(lp752
S'db_sessions'
p753
asbag57
(g78
g59
NtRp754
(dp755
g62
(dp756
g89
g90
ssg71
g745
sg64
(lp757
S':'
asbag57
(g78
g59
NtRp758
(dp759
g62
(dp760
sg71
g745
sg64
(lp761
g57
(g58
g59
NtRp762
(dp763
g62
(dp764
g70
I4
ssg71
g758
sg64
(lp765
S'set([])'
p766
asbasbasbag57
(g73
g59
NtRp767
(dp768
g62
(dp769
sg71
g650
sg64
(lp770
g57
(g78
g59
NtRp771
(dp772
g62
(dp773
g82
g83
ssg71
g767
sg64
(lp774
S'debugging'
p775
asbag57
(g78
g59
NtRp776
(dp777
g62
(dp778
g89
g90
ssg71
g767
sg64
(lp779
S':'
asbag57
(g78
g59
NtRp780
(dp781
g62
(dp782
sg71
g767
sg64
(lp783
g57
(g58
g59
NtRp784
(dp785
g62
(dp786
g70
I4
ssg71
g780
sg64
(lp787
g100
asbasbasbag57
(g73
g59
NtRp788
(dp789
g62
(dp790
sg71
g650
sg64
(lp791
g57
(g78
g59
NtRp792
(dp793
g62
(dp794
g82
g83
ssg71
g788
sg64
(lp795
S'gluon_parent'
p796
asbag57
(g78
g59
NtRp797
(dp798
g62
(dp799
g89
g90
ssg71
g788
sg64
(lp800
S':'
asbag57
(g78
g59
NtRp801
(dp802
g62
(dp803
sg71
g788
sg64
(lp804
g57
(g58
g59
NtRp805
(dp806
g62
(dp807
g70
I4
ssg71
g801
sg64
(lp808
S'/usr/share/web2py'
p809
asbasbasbag57
(g73
g59
NtRp810
(dp811
g62
(dp812
sg71
g650
sg64
(lp813
g57
(g78
g59
NtRp814
(dp815
g62
(dp816
g82
g83
ssg71
g810
sg64
(lp817
S'http_accept'
p818
asbag57
(g78
g59
NtRp819
(dp820
g62
(dp821
g89
g90
ssg71
g810
sg64
(lp822
S':'
asbag57
(g78
g59
NtRp823
(dp824
g62
(dp825
sg71
g810
sg64
(lp826
g57
(g58
g59
NtRp827
(dp828
g62
(dp829
g70
I4
ssg71
g823
sg64
(lp830
S'text/html,application/xhtml+xml,application/xml;q=0.9,*/*;q=0.8'
p831
asbasbasbag57
(g73
g59
NtRp832
(dp833
g62
(dp834
sg71
g650
sg64
(lp835
g57
(g78
g59
NtRp836
(dp837
g62
(dp838
g82
g83
ssg71
g832
sg64
(lp839
S'http_accept_encoding'
p840
asbag57
(g78
g59
NtRp841
(dp842
g62
(dp843
g89
g90
ssg71
g832
sg64
(lp844
S':'
asbag57
(g78
g59
NtRp845
(dp846
g62
(dp847
sg71
g832
sg64
(lp848
g57
(g58
g59
NtRp849
(dp850
g62
(dp851
g70
I4
ssg71
g845
sg64
(lp852
S'gzip, deflate'
p853
asbasbasbag57
(g73
g59
NtRp854
(dp855
g62
(dp856
sg71
g650
sg64
(lp857
g57
(g78
g59
NtRp858
(dp859
g62
(dp860
g82
g83
ssg71
g854
sg64
(lp861
S'http_accept_language'
p862
asbag57
(g78
g59
NtRp863
(dp864
g62
(dp865
g89
g90
ssg71
g854
sg64
(lp866
S':'
asbag57
(g78
g59
NtRp867
(dp868
g62
(dp869
sg71
g854
sg64
(lp870
g57
(g58
g59
NtRp871
(dp872
g62
(dp873
g70
I4
ssg71
g867
sg64
(lp874
S'en-US,en;q=0.5'
p875
asbasbasbag57
(g73
g59
NtRp876
(dp877
g62
(dp878
sg71
g650
sg64
(lp879
g57
(g78
g59
NtRp880
(dp881
g62
(dp882
g82
g83
ssg71
g876
sg64
(lp883
S'http_connection'
p884
asbag57
(g78
g59
NtRp885
(dp886
g62
(dp887
g89
g90
ssg71
g876
sg64
(lp888
S':'
asbag57
(g78
g59
NtRp889
(dp890
g62
(dp891
sg71
g876
sg64
(lp892
g57
(g58
g59
NtRp893
(dp894
g62
(dp895
g70
I4
ssg71
g889
sg64
(lp896
S'keep-alive'
p897
asbasbasbag57
(g73
g59
NtRp898
(dp899
g62
(dp900
sg71
g650
sg64
(lp901
g57
(g78
g59
NtRp902
(dp903
g62
(dp904
g82
g83
ssg71
g898
sg64
(lp905
S'http_cookie'
p906
asbag57
(g78
g59
NtRp907
(dp908
g62
(dp909
g89
g90
ssg71
g898
sg64
(lp910
S':'
asbag57
(g78
g59
NtRp911
(dp912
g62
(dp913
sg71
g898
sg64
(lp914
g57
(g58
g59
NtRp915
(dp916
g62
(dp917
g70
I4
ssg71
g911
sg64
(lp918
S'session_id_read_it=127.0.0.1-3b306805-b0b8-4f0a-8f0e-2c710fd6d755; session_id_admin=127.0.0.1-b0d414bb-449e-4a00-b0e1-47ca5bec38b4'
p919
asbasbasbag57
(g73
g59
NtRp920
(dp921
g62
(dp922
sg71
g650
sg64
(lp923
g57
(g78
g59
NtRp924
(dp925
g62
(dp926
g82
g83
ssg71
g920
sg64
(lp927
S'http_host'
p928
asbag57
(g78
g59
NtRp929
(dp930
g62
(dp931
g89
g90
ssg71
g920
sg64
(lp932
S':'
asbag57
(g78
g59
NtRp933
(dp934
g62
(dp935
sg71
g920
sg64
(lp936
g57
(g58
g59
NtRp937
(dp938
g62
(dp939
g70
I4
ssg71
g933
sg64
(lp940
S'127.0.0.1:8001'
p941
asbasbasbag57
(g73
g59
NtRp942
(dp943
g62
(dp944
sg71
g650
sg64
(lp945
g57
(g78
g59
NtRp946
(dp947
g62
(dp948
g82
g83
ssg71
g942
sg64
(lp949
S'http_user_agent'
p950
asbag57
(g78
g59
NtRp951
(dp952
g62
(dp953
g89
g90
ssg71
g942
sg64
(lp954
S':'
asbag57
(g78
g59
NtRp955
(dp956
g62
(dp957
sg71
g942
sg64
(lp958
g57
(g58
g59
NtRp959
(dp960
g62
(dp961
g70
I4
ssg71
g955
sg64
(lp962
S'Mozilla/5.0 (X11; Ubuntu; Linux x86_64; rv:23.0) Gecko/20100101 Firefox/23.0'
p963
asbasbasbag57
(g73
g59
NtRp964
(dp965
g62
(dp966
sg71
g650
sg64
(lp967
g57
(g78
g59
NtRp968
(dp969
g62
(dp970
g82
g83
ssg71
g964
sg64
(lp971
S'is_jython'
p972
asbag57
(g78
g59
NtRp973
(dp974
g62
(dp975
g89
g90
ssg71
g964
sg64
(lp976
S':'
asbag57
(g78
g59
NtRp977
(dp978
g62
(dp979
sg71
g964
sg64
(lp980
g57
(g58
g59
NtRp981
(dp982
g62
(dp983
g70
I4
ssg71
g977
sg64
(lp984
g100
asbasbasbag57
(g73
g59
NtRp985
(dp986
g62
(dp987
sg71
g650
sg64
(lp988
g57
(g78
g59
NtRp989
(dp990
g62
(dp991
g82
g83
ssg71
g985
sg64
(lp992
S'is_pypy'
p993
asbag57
(g78
g59
NtRp994
(dp995
g62
(dp996
g89
g90
ssg71
g985
sg64
(lp997
S':'
asbag57
(g78
g59
NtRp998
(dp999
g62
(dp1000
sg71
g985
sg64
(lp1001
g57
(g58
g59
NtRp1002
(dp1003
g62
(dp1004
g70
I4
ssg71
g998
sg64
(lp1005
g100
asbasbasbag57
(g73
g59
NtRp1006
(dp1007
g62
(dp1008
sg71
g650
sg64
(lp1009
g57
(g78
g59
NtRp1010
(dp1011
g62
(dp1012
g82
g83
ssg71
g1006
sg64
(lp1013
S'path_info'
p1014
asbag57
(g78
g59
NtRp1015
(dp1016
g62
(dp1017
g89
g90
ssg71
g1006
sg64
(lp1018
S':'
asbag57
(g78
g59
NtRp1019
(dp1020
g62
(dp1021
sg71
g1006
sg64
(lp1022
g57
(g58
g59
NtRp1023
(dp1024
g62
(dp1025
g70
I4
ssg71
g1019
sg64
(lp1026
S'/Read_it/appadmin/select/db'
p1027
asbasbasbag57
(g73
g59
NtRp1028
(dp1029
g62
(dp1030
sg71
g650
sg64
(lp1031
g57
(g78
g59
NtRp1032
(dp1033
g62
(dp1034
g82
g83
ssg71
g1028
sg64
(lp1035
S'query_string'
p1036
asbag57
(g78
g59
NtRp1037
(dp1038
g62
(dp1039
g89
g90
ssg71
g1028
sg64
(lp1040
S':'
asbag57
(g78
g59
NtRp1041
(dp1042
g62
(dp1043
sg71
g1028
sg64
(lp1044
g57
(g58
g59
NtRp1045
(dp1046
g62
(dp1047
g70
I4
ssg71
g1041
sg64
(lp1048
S'query=db.Comment.id%3E0'
p1049
asbasbasbag57
(g73
g59
NtRp1050
(dp1051
g62
(dp1052
sg71
g650
sg64
(lp1053
g57
(g78
g59
NtRp1054
(dp1055
g62
(dp1056
g82
g83
ssg71
g1050
sg64
(lp1057
S'remote_addr'
p1058
asbag57
(g78
g59
NtRp1059
(dp1060
g62
(dp1061
g89
g90
ssg71
g1050
sg64
(lp1062
S':'
asbag57
(g78
g59
NtRp1063
(dp1064
g62
(dp1065
sg71
g1050
sg64
(lp1066
g57
(g58
g59
NtRp1067
(dp1068
g62
(dp1069
g70
I4
ssg71
g1063
sg64
(lp1070
g203
asbasbasbag57
(g73
g59
NtRp1071
(dp1072
g62
(dp1073
sg71
g650
sg64
(lp1074
g57
(g78
g59
NtRp1075
(dp1076
g62
(dp1077
g82
g83
ssg71
g1071
sg64
(lp1078
S'remote_port'
p1079
asbag57
(g78
g59
NtRp1080
(dp1081
g62
(dp1082
g89
g90
ssg71
g1071
sg64
(lp1083
S':'
asbag57
(g78
g59
NtRp1084
(dp1085
g62
(dp1086
sg71
g1071
sg64
(lp1087
g57
(g58
g59
NtRp1088
(dp1089
g62
(dp1090
g70
I4
ssg71
g1084
sg64
(lp1091
S'36558'
p1092
asbasbasbag57
(g73
g59
NtRp1093
(dp1094
g62
(dp1095
sg71
g650
sg64
(lp1096
g57
(g78
g59
NtRp1097
(dp1098
g62
(dp1099
g82
g83
ssg71
g1093
sg64
(lp1100
S'request_method'
p1101
asbag57
(g78
g59
NtRp1102
(dp1103
g62
(dp1104
g89
g90
ssg71
g1093
sg64
(lp1105
S':'
asbag57
(g78
g59
NtRp1106
(dp1107
g62
(dp1108
sg71
g1093
sg64
(lp1109
g57
(g58
g59
NtRp1110
(dp1111
g62
(dp1112
g70
I4
ssg71
g1106
sg64
(lp1113
S'GET'
p1114
asbasbasbag57
(g73
g59
NtRp1115
(dp1116
g62
(dp1117
sg71
g650
sg64
(lp1118
g57
(g78
g59
NtRp1119
(dp1120
g62
(dp1121
g82
g83
ssg71
g1115
sg64
(lp1122
S'script_name'
p1123
asbag57
(g78
g59
NtRp1124
(dp1125
g62
(dp1126
g89
g90
ssg71
g1115
sg64
(lp1127
S':'
asbag57
(g78
g59
NtRp1128
(dp1129
g62
(dp1130
sg71
g1115
sg64
(lp1131
g57
(g58
g59
NtRp1132
(dp1133
g62
(dp1134
g70
I4
ssg71
g1128
sg64
(lp1135
S''
asbasbasbag57
(g73
g59
NtRp1136
(dp1137
g62
(dp1138
sg71
g650
sg64
(lp1139
g57
(g78
g59
NtRp1140
(dp1141
g62
(dp1142
g82
g83
ssg71
g1136
sg64
(lp1143
S'server_name'
p1144
asbag57
(g78
g59
NtRp1145
(dp1146
g62
(dp1147
g89
g90
ssg71
g1136
sg64
(lp1148
S':'
asbag57
(g78
g59
NtRp1149
(dp1150
g62
(dp1151
sg71
g1136
sg64
(lp1152
g57
(g58
g59
NtRp1153
(dp1154
g62
(dp1155
g70
I4
ssg71
g1149
sg64
(lp1156
S'DS-IIIT'
p1157
asbasbasbag57
(g73
g59
NtRp1158
(dp1159
g62
(dp1160
sg71
g650
sg64
(lp1161
g57
(g78
g59
NtRp1162
(dp1163
g62
(dp1164
g82
g83
ssg71
g1158
sg64
(lp1165
S'server_port'
p1166
asbag57
(g78
g59
NtRp1167
(dp1168
g62
(dp1169
g89
g90
ssg71
g1158
sg64
(lp1170
S':'
asbag57
(g78
g59
NtRp1171
(dp1172
g62
(dp1173
sg71
g1158
sg64
(lp1174
g57
(g58
g59
NtRp1175
(dp1176
g62
(dp1177
g70
I4
ssg71
g1171
sg64
(lp1178
S'8001'
p1179
asbasbasbag57
(g73
g59
NtRp1180
(dp1181
g62
(dp1182
sg71
g650
sg64
(lp1183
g57
(g78
g59
NtRp1184
(dp1185
g62
(dp1186
g82
g83
ssg71
g1180
sg64
(lp1187
S'server_protocol'
p1188
asbag57
(g78
g59
NtRp1189
(dp1190
g62
(dp1191
g89
g90
ssg71
g1180
sg64
(lp1192
S':'
asbag57
(g78
g59
NtRp1193
(dp1194
g62
(dp1195
sg71
g1180
sg64
(lp1196
g57
(g58
g59
NtRp1197
(dp1198
g62
(dp1199
g70
I4
ssg71
g1193
sg64
(lp1200
S'HTTP/1.1'
p1201
asbasbasbag57
(g73
g59
NtRp1202
(dp1203
g62
(dp1204
sg71
g650
sg64
(lp1205
g57
(g78
g59
NtRp1206
(dp1207
g62
(dp1208
g82
g83
ssg71
g1202
sg64
(lp1209
S'server_software'
p1210
asbag57
(g78
g59
NtRp1211
(dp1212
g62
(dp1213
g89
g90
ssg71
g1202
sg64
(lp1214
S':'
asbag57
(g78
g59
NtRp1215
(dp1216
g62
(dp1217
sg71
g1202
sg64
(lp1218
g57
(g58
g59
NtRp1219
(dp1220
g62
(dp1221
g70
I4
ssg71
g1215
sg64
(lp1222
S'Rocket 1.2.4'
p1223
asbasbasbag57
(g73
g59
NtRp1224
(dp1225
g62
(dp1226
sg71
g650
sg64
(lp1227
g57
(g78
g59
NtRp1228
(dp1229
g62
(dp1230
g82
g83
ssg71
g1224
sg64
(lp1231
S'web2py_crontype'
p1232
asbag57
(g78
g59
NtRp1233
(dp1234
g62
(dp1235
g89
g90
ssg71
g1224
sg64
(lp1236
S':'
asbag57
(g78
g59
NtRp1237
(dp1238
g62
(dp1239
sg71
g1224
sg64
(lp1240
g57
(g58
g59
NtRp1241
(dp1242
g62
(dp1243
g70
I4
ssg71
g1237
sg64
(lp1244
S'hard'
p1245
asbasbasbag57
(g73
g59
NtRp1246
(dp1247
g62
(dp1248
sg71
g650
sg64
(lp1249
g57
(g78
g59
NtRp1250
(dp1251
g62
(dp1252
g82
g83
ssg71
g1246
sg64
(lp1253
S'web2py_path'
p1254
asbag57
(g78
g59
NtRp1255
(dp1256
g62
(dp1257
g89
g90
ssg71
g1246
sg64
(lp1258
S':'
asbag57
(g78
g59
NtRp1259
(dp1260
g62
(dp1261
sg71
g1246
sg64
(lp1262
g57
(g58
g59
NtRp1263
(dp1264
g62
(dp1265
g70
I4
ssg71
g1259
sg64
(lp1266
g697
asbasbasbag57
(g73
g59
NtRp1267
(dp1268
g62
(dp1269
sg71
g650
sg64
(lp1270
g57
(g78
g59
NtRp1271
(dp1272
g62
(dp1273
g82
g83
ssg71
g1267
sg64
(lp1274
S'web2py_version'
p1275
asbag57
(g78
g59
NtRp1276
(dp1277
g62
(dp1278
g89
g90
ssg71
g1267
sg64
(lp1279
S':'
asbag57
(g78
g59
NtRp1280
(dp1281
g62
(dp1282
sg71
g1267
sg64
(lp1283
g57
(g58
g59
NtRp1284
(dp1285
g62
(dp1286
g70
I4
ssg71
g1280
sg64
(lp1287
g57
(g66
g59
NtRp1288
(dp1289
g62
(dp1290
g70
I3
ssg71
Nsg64
(lp1291
g57
(g73
g59
NtRp1292
(dp1293
g62
(dp1294
sg71
g1288
sg64
(lp1295
g57
(g78
g59
NtRp1296
(dp1297
g62
(dp1298
sg71
g1292
sg64
(lp1299
g57
(g58
g59
NtRp1300
(dp1301
g62
(dp1302
g70
I3
ssg71
g1296
sg64
(lp1303
S'1'
asbasbasbag57
(g73
g59
NtRp1304
(dp1305
g62
(dp1306
sg71
g1288
sg64
(lp1307
g57
(g78
g59
NtRp1308
(dp1309
g62
(dp1310
sg71
g1304
sg64
(lp1311
g57
(g58
g59
NtRp1312
(dp1313
g62
(dp1314
g70
I3
ssg71
g1308
sg64
(lp1315
S'99'
p1316
asbasbasbag57
(g73
g59
NtRp1317
(dp1318
g62
(dp1319
sg71
g1288
sg64
(lp1320
g57
(g78
g59
NtRp1321
(dp1322
g62
(dp1323
sg71
g1317
sg64
(lp1324
g57
(g58
g59
NtRp1325
(dp1326
g62
(dp1327
g70
I3
ssg71
g1321
sg64
(lp1328
S'4'
asbasbasbag57
(g73
g59
NtRp1329
(dp1330
g62
(dp1331
sg71
g1288
sg64
(lp1332
g57
(g78
g59
NtRp1333
(dp1334
g62
(dp1335
sg71
g1329
sg64
(lp1336
g57
(g58
g59
NtRp1337
(dp1338
g62
(dp1339
g70
I3
ssg71
g1333
sg64
(lp1340
S'datetime.datetime(2011, 12, 14, 14, 46, 14)'
p1341
asbasbasbag57
(g73
g59
NtRp1342
(dp1343
g62
(dp1344
sg71
g1288
sg64
(lp1345
g57
(g78
g59
NtRp1346
(dp1347
g62
(dp1348
sg71
g1342
sg64
(lp1349
g57
(g58
g59
NtRp1350
(dp1351
g62
(dp1352
g70
I3
ssg71
g1346
sg64
(lp1353
S'stable'
p1354
asbasbasbasbasbasbasbag57
(g73
g59
NtRp1355
(dp1356
g62
(dp1357
sg71
g650
sg64
(lp1358
g57
(g78
g59
NtRp1359
(dp1360
g62
(dp1361
g82
g83
ssg71
g1355
sg64
(lp1362
S'wsgi_errors'
p1363
asbag57
(g78
g59
NtRp1364
(dp1365
g62
(dp1366
g89
g90
ssg71
g1355
sg64
(lp1367
S':'
asbag57
(g78
g59
NtRp1368
(dp1369
g62
(dp1370
sg71
g1355
sg64
(lp1371
g57
(g58
g59
NtRp1372
(dp1373
g62
(dp1374
g70
I4
ssg71
g1368
sg64
(lp1375
S"<open file '<stderr>', mode 'w' at 0x7fdd14f50270>"
p1376
asbasbasbag57
(g73
g59
NtRp1377
(dp1378
g62
(dp1379
sg71
g650
sg64
(lp1380
g57
(g78
g59
NtRp1381
(dp1382
g62
(dp1383
g82
g83
ssg71
g1377
sg64
(lp1384
S'wsgi_file_wrapper'
p1385
asbag57
(g78
g59
NtRp1386
(dp1387
g62
(dp1388
g89
g90
ssg71
g1377
sg64
(lp1389
S':'
asbag57
(g78
g59
NtRp1390
(dp1391
g62
(dp1392
sg71
g1377
sg64
(lp1393
g57
(g58
g59
NtRp1394
(dp1395
g62
(dp1396
g70
I4
ssg71
g1390
sg64
(lp1397
S'<class wsgiref.util.FileWrapper at 0x2a06530>'
p1398
asbasbasbag57
(g73
g59
NtRp1399
(dp1400
g62
(dp1401
sg71
g650
sg64
(lp1402
g57
(g78
g59
NtRp1403
(dp1404
g62
(dp1405
g82
g83
ssg71
g1399
sg64
(lp1406
S'wsgi_input'
p1407
asbag57
(g78
g59
NtRp1408
(dp1409
g62
(dp1410
g89
g90
ssg71
g1399
sg64
(lp1411
S':'
asbag57
(g78
g59
NtRp1412
(dp1413
g62
(dp1414
sg71
g1399
sg64
(lp1415
g57
(g58
g59
NtRp1416
(dp1417
g62
(dp1418
g70
I4
ssg71
g1412
sg64
(lp1419
S'<socket._fileobject object at 0x7fdcbc4254d0>'
p1420
asbasbasbag57
(g73
g59
NtRp1421
(dp1422
g62
(dp1423
sg71
g650
sg64
(lp1424
g57
(g78
g59
NtRp1425
(dp1426
g62
(dp1427
g82
g83
ssg71
g1421
sg64
(lp1428
S'wsgi_multiprocess'
p1429
asbag57
(g78
g59
NtRp1430
(dp1431
g62
(dp1432
g89
g90
ssg71
g1421
sg64
(lp1433
S':'
asbag57
(g78
g59
NtRp1434
(dp1435
g62
(dp1436
sg71
g1421
sg64
(lp1437
g57
(g58
g59
NtRp1438
(dp1439
g62
(dp1440
g70
I4
ssg71
g1434
sg64
(lp1441
g100
asbasbasbag57
(g73
g59
NtRp1442
(dp1443
g62
(dp1444
sg71
g650
sg64
(lp1445
g57
(g78
g59
NtRp1446
(dp1447
g62
(dp1448
g82
g83
ssg71
g1442
sg64
(lp1449
S'wsgi_multithread'
p1450
asbag57
(g78
g59
NtRp1451
(dp1452
g62
(dp1453
g89
g90
ssg71
g1442
sg64
(lp1454
S':'
asbag57
(g78
g59
NtRp1455
(dp1456
g62
(dp1457
sg71
g1442
sg64
(lp1458
g57
(g58
g59
NtRp1459
(dp1460
g62
(dp1461
g70
I4
ssg71
g1455
sg64
(lp1462
S'True'
p1463
asbasbasbag57
(g73
g59
NtRp1464
(dp1465
g62
(dp1466
sg71
g650
sg64
(lp1467
g57
(g78
g59
NtRp1468
(dp1469
g62
(dp1470
g82
g83
ssg71
g1464
sg64
(lp1471
S'wsgi_run_once'
p1472
asbag57
(g78
g59
NtRp1473
(dp1474
g62
(dp1475
g89
g90
ssg71
g1464
sg64
(lp1476
S':'
asbag57
(g78
g59
NtRp1477
(dp1478
g62
(dp1479
sg71
g1464
sg64
(lp1480
g57
(g58
g59
NtRp1481
(dp1482
g62
(dp1483
g70
I4
ssg71
g1477
sg64
(lp1484
g100
asbasbasbag57
(g73
g59
NtRp1485
(dp1486
g62
(dp1487
sg71
g650
sg64
(lp1488
g57
(g78
g59
NtRp1489
(dp1490
g62
(dp1491
g82
g83
ssg71
g1485
sg64
(lp1492
S'wsgi_url_scheme'
p1493
asbag57
(g78
g59
NtRp1494
(dp1495
g62
(dp1496
g89
g90
ssg71
g1485
sg64
(lp1497
S':'
asbag57
(g78
g59
NtRp1498
(dp1499
g62
(dp1500
sg71
g1485
sg64
(lp1501
g57
(g58
g59
NtRp1502
(dp1503
g62
(dp1504
g70
I4
ssg71
g1498
sg64
(lp1505
S'http'
p1506
asbasbasbag57
(g73
g59
NtRp1507
(dp1508
g62
(dp1509
sg71
g650
sg64
(lp1510
g57
(g78
g59
NtRp1511
(dp1512
g62
(dp1513
g82
g83
ssg71
g1507
sg64
(lp1514
S'wsgi_version'
p1515
asbag57
(g78
g59
NtRp1516
(dp1517
g62
(dp1518
g89
g90
ssg71
g1507
sg64
(lp1519
S':'
asbag57
(g78
g59
NtRp1520
(dp1521
g62
(dp1522
sg71
g1507
sg64
(lp1523
g57
(g58
g59
NtRp1524
(dp1525
g62
(dp1526
g70
I4
ssg71
g1520
sg64
(lp1527
g57
(g66
g59
NtRp1528
(dp1529
g62
(dp1530
g70
I3
ssg71
Nsg64
(lp1531
g57
(g73
g59
NtRp1532
(dp1533
g62
(dp1534
sg71
g1528
sg64
(lp1535
g57
(g78
g59
NtRp1536
(dp1537
g62
(dp1538
sg71
g1532
sg64
(lp1539
g57
(g58
g59
NtRp1540
(dp1541
g62
(dp1542
g70
I3
ssg71
g1536
sg64
(lp1543
S'1'
asbasbasbag57
(g73
g59
NtRp1544
(dp1545
g62
(dp1546
sg71
g1528
sg64
(lp1547
g57
(g78
g59
NtRp1548
(dp1549
g62
(dp1550
sg71
g1544
sg64
(lp1551
g57
(g58
g59
NtRp1552
(dp1553
g62
(dp1554
g70
I3
ssg71
g1548
sg64
(lp1555
S'0'
asbasbasbasbasbasbasbasbasbasbasbag57
(g73
g59
NtRp1556
(dp1557
g62
(dp1558
sg71
g67
sg64
(lp1559
g57
(g78
g59
NtRp1560
(dp1561
g62
(dp1562
g82
g83
ssg71
g1556
sg64
(lp1563
S'extension'
p1564
asbag57
(g78
g59
NtRp1565
(dp1566
g62
(dp1567
g89
g90
ssg71
g1556
sg64
(lp1568
S':'
asbag57
(g78
g59
NtRp1569
(dp1570
g62
(dp1571
sg71
g1556
sg64
(lp1572
g57
(g58
g59
NtRp1573
(dp1574
g62
(dp1575
g70
I5
ssg71
g1569
sg64
(lp1576
S'html'
p1577
asbasbasbag57
(g73
g59
NtRp1578
(dp1579
g62
(dp1580
sg71
g67
sg64
(lp1581
g57
(g78
g59
NtRp1582
(dp1583
g62
(dp1584
g82
g83
ssg71
g1578
sg64
(lp1585
S'folder'
p1586
asbag57
(g78
g59
NtRp1587
(dp1588
g62
(dp1589
g89
g90
ssg71
g1578
sg64
(lp1590
S':'
asbag57
(g78
g59
NtRp1591
(dp1592
g62
(dp1593
sg71
g1578
sg64
(lp1594
g57
(g58
g59
NtRp1595
(dp1596
g62
(dp1597
g70
I5
ssg71
g1591
sg64
(lp1598
S'/home/ds-iiit/web2py/applications/Read_it/'
p1599
asbasbasbag57
(g73
g59
NtRp1600
(dp1601
g62
(dp1602
sg71
g67
sg64
(lp1603
g57
(g78
g59
NtRp1604
(dp1605
g62
(dp1606
g82
g83
ssg71
g1600
sg64
(lp1607
S'function'
p1608
asbag57
(g78
g59
NtRp1609
(dp1610
g62
(dp1611
g89
g90
ssg71
g1600
sg64
(lp1612
S':'
asbag57
(g78
g59
NtRp1613
(dp1614
g62
(dp1615
sg71
g1600
sg64
(lp1616
g57
(g58
g59
NtRp1617
(dp1618
g62
(dp1619
g70
I5
ssg71
g1613
sg64
(lp1620
S'select'
p1621
asbasbasbag57
(g73
g59
NtRp1622
(dp1623
g62
(dp1624
sg71
g67
sg64
(lp1625
g57
(g78
g59
NtRp1626
(dp1627
g62
(dp1628
g82
g83
ssg71
g1622
sg64
(lp1629
S'get_vars'
p1630
asbag57
(g78
g59
NtRp1631
(dp1632
g62
(dp1633
g89
g90
ssg71
g1622
sg64
(lp1634
S':'
asbag57
(g78
g59
NtRp1635
(dp1636
g62
(dp1637
sg71
g1622
sg64
(lp1638
g57
(g58
g59
NtRp1639
(dp1640
g62
(dp1641
g70
I5
ssg71
g1635
sg64
(lp1642
g57
(g66
g59
NtRp1643
(dp1644
g62
(dp1645
g70
I4
ssg71
Nsg64
(lp1646
g57
(g73
g59
NtRp1647
(dp1648
g62
(dp1649
sg71
g1643
sg64
(lp1650
g57
(g78
g59
NtRp1651
(dp1652
g62
(dp1653
g82
g83
ssg71
g1647
sg64
(lp1654
S'query'
p1655
asbag57
(g78
g59
NtRp1656
(dp1657
g62
(dp1658
g89
g90
ssg71
g1647
sg64
(lp1659
S':'
asbag57
(g78
g59
NtRp1660
(dp1661
g62
(dp1662
sg71
g1647
sg64
(lp1663
g57
(g58
g59
NtRp1664
(dp1665
g62
(dp1666
g70
I4
ssg71
g1660
sg64
(lp1667
S'db.Comment.id>0'
p1668
asbasbasbasbasbasbasbag57
(g73
g59
NtRp1669
(dp1670
g62
(dp1671
sg71
g67
sg64
(lp1672
g57
(g78
g59
NtRp1673
(dp1674
g62
(dp1675
g82
g83
ssg71
g1669
sg64
(lp1676
S'global_settings'
p1677
asbag57
(g78
g59
NtRp1678
(dp1679
g62
(dp1680
g89
g90
ssg71
g1669
sg64
(lp1681
S':'
asbag57
(g78
g59
NtRp1682
(dp1683
g62
(dp1684
sg71
g1669
sg64
(lp1685
g57
(g58
g59
NtRp1686
(dp1687
g62
(dp1688
g70
I5
ssg71
g1682
sg64
(lp1689
g57
(g66
g59
NtRp1690
(dp1691
g62
(dp1692
g70
I4
ssg71
Nsg64
(lp1693
g57
(g73
g59
NtRp1694
(dp1695
g62
(dp1696
sg71
g1690
sg64
(lp1697
g57
(g78
g59
NtRp1698
(dp1699
g62
(dp1700
g82
g83
ssg71
g1694
sg64
(lp1701
g662
asbag57
(g78
g59
NtRp1702
(dp1703
g62
(dp1704
g89
g90
ssg71
g1694
sg64
(lp1705
S':'
asbag57
(g78
g59
NtRp1706
(dp1707
g62
(dp1708
sg71
g1694
sg64
(lp1709
g57
(g58
g59
NtRp1710
(dp1711
g62
(dp1712
g70
I4
ssg71
g1706
sg64
(lp1713
S"set(['/home/ds-iiit/web2py/applications/Read_it/', '/home/ds-iiit/web2py/applications/welcome/', '/home/ds-iiit/web2py/applications/admin/'])"
p1714
asbasbasbag57
(g73
g59
NtRp1715
(dp1716
g62
(dp1717
sg71
g1690
sg64
(lp1718
g57
(g78
g59
NtRp1719
(dp1720
g62
(dp1721
g82
g83
ssg71
g1715
sg64
(lp1722
g684
asbag57
(g78
g59
NtRp1723
(dp1724
g62
(dp1725
g89
g90
ssg71
g1715
sg64
(lp1726
S':'
asbag57
(g78
g59
NtRp1727
(dp1728
g62
(dp1729
sg71
g1715
sg64
(lp1730
g57
(g58
g59
NtRp1731
(dp1732
g62
(dp1733
g70
I4
ssg71
g1727
sg64
(lp1734
g697
asbasbasbag57
(g73
g59
NtRp1735
(dp1736
g62
(dp1737
sg71
g1690
sg64
(lp1738
g57
(g78
g59
NtRp1739
(dp1740
g62
(dp1741
g82
g83
ssg71
g1735
sg64
(lp1742
g706
asbag57
(g78
g59
NtRp1743
(dp1744
g62
(dp1745
g89
g90
ssg71
g1735
sg64
(lp1746
S':'
asbag57
(g78
g59
NtRp1747
(dp1748
g62
(dp1749
sg71
g1735
sg64
(lp1750
g57
(g58
g59
NtRp1751
(dp1752
g62
(dp1753
g70
I4
ssg71
g1747
sg64
(lp1754
g57
(g66
g59
NtRp1755
(dp1756
g62
(dp1757
g70
I3
ssg71
Nsg64
(lp1758
sbasbasbasbag57
(g73
g59
NtRp1759
(dp1760
g62
(dp1761
sg71
g1690
sg64
(lp1762
g57
(g78
g59
NtRp1763
(dp1764
g62
(dp1765
g82
g83
ssg71
g1759
sg64
(lp1766
g731
asbag57
(g78
g59
NtRp1767
(dp1768
g62
(dp1769
g89
g90
ssg71
g1759
sg64
(lp1770
S':'
asbag57
(g78
g59
NtRp1771
(dp1772
g62
(dp1773
sg71
g1759
sg64
(lp1774
g57
(g58
g59
NtRp1775
(dp1776
g62
(dp1777
g70
I4
ssg71
g1771
sg64
(lp1778
S"<Values at 0x2adbb00: {'verbose': False, 'ip': '127.0.0.1', 'shutdown_timeout': 5, 'taskbar': False, 'port': 8000, 'maxthreads': None, 'softcron': False, 'server_name': 'DS-IIIT', 'bpython': False, 'nogui': False, 'nocron': False, 'extcron': False, 'debuglevel': 30, 'test': None, 'folder': '/home/ds-iiit/web2py', 'config': '', 'import_models': False, 'winservice': '', 'shell': None, 'run': '', 'log_filename': 'httpserver.log', 'args': [''], 'socket_timeout': 1, 'profiler_filename': None, 'ssl_private_key': '', 'password': '<ask>', 'request_queue_size': 5, 'ssl_certificate': '', 'cronjob': False, 'plain': False, 'quiet': False, 'interfaces': None, 'minthreads': None, 'timeout': 10, 'numthreads': None, 'nobanner': False, 'pid_filename': 'httpserver.pid'}>"
p1779
asbasbasbag57
(g73
g59
NtRp1780
(dp1781
g62
(dp1782
sg71
g1690
sg64
(lp1783
g57
(g78
g59
NtRp1784
(dp1785
g62
(dp1786
g82
g83
ssg71
g1780
sg64
(lp1787
g753
asbag57
(g78
g59
NtRp1788
(dp1789
g62
(dp1790
g89
g90
ssg71
g1780
sg64
(lp1791
S':'
asbag57
(g78
g59
NtRp1792
(dp1793
g62
(dp1794
sg71
g1780
sg64
(lp1795
g57
(g58
g59
NtRp1796
(dp1797
g62
(dp1798
g70
I4
ssg71
g1792
sg64
(lp1799
S'set([])'
p1800
asbasbasbag57
(g73
g59
NtRp1801
(dp1802
g62
(dp1803
sg71
g1690
sg64
(lp1804
g57
(g78
g59
NtRp1805
(dp1806
g62
(dp1807
g82
g83
ssg71
g1801
sg64
(lp1808
g775
asbag57
(g78
g59
NtRp1809
(dp1810
g62
(dp1811
g89
g90
ssg71
g1801
sg64
(lp1812
S':'
asbag57
(g78
g59
NtRp1813
(dp1814
g62
(dp1815
sg71
g1801
sg64
(lp1816
g57
(g58
g59
NtRp1817
(dp1818
g62
(dp1819
g70
I4
ssg71
g1813
sg64
(lp1820
g100
asbasbasbag57
(g73
g59
NtRp1821
(dp1822
g62
(dp1823
sg71
g1690
sg64
(lp1824
g57
(g78
g59
NtRp1825
(dp1826
g62
(dp1827
g82
g83
ssg71
g1821
sg64
(lp1828
g796
asbag57
(g78
g59
NtRp1829
(dp1830
g62
(dp1831
g89
g90
ssg71
g1821
sg64
(lp1832
S':'
asbag57
(g78
g59
NtRp1833
(dp1834
g62
(dp1835
sg71
g1821
sg64
(lp1836
g57
(g58
g59
NtRp1837
(dp1838
g62
(dp1839
g70
I4
ssg71
g1833
sg64
(lp1840
g809
asbasbasbag57
(g73
g59
NtRp1841
(dp1842
g62
(dp1843
sg71
g1690
sg64
(lp1844
g57
(g78
g59
NtRp1845
(dp1846
g62
(dp1847
g82
g83
ssg71
g1841
sg64
(lp1848
g972
asbag57
(g78
g59
NtRp1849
(dp1850
g62
(dp1851
g89
g90
ssg71
g1841
sg64
(lp1852
S':'
asbag57
(g78
g59
NtRp1853
(dp1854
g62
(dp1855
sg71
g1841
sg64
(lp1856
g57
(g58
g59
NtRp1857
(dp1858
g62
(dp1859
g70
I4
ssg71
g1853
sg64
(lp1860
g100
asbasbasbag57
(g73
g59
NtRp1861
(dp1862
g62
(dp1863
sg71
g1690
sg64
(lp1864
g57
(g78
g59
NtRp1865
(dp1866
g62
(dp1867
g82
g83
ssg71
g1861
sg64
(lp1868
g993
asbag57
(g78
g59
NtRp1869
(dp1870
g62
(dp1871
g89
g90
ssg71
g1861
sg64
(lp1872
S':'
asbag57
(g78
g59
NtRp1873
(dp1874
g62
(dp1875
sg71
g1861
sg64
(lp1876
g57
(g58
g59
NtRp1877
(dp1878
g62
(dp1879
g70
I4
ssg71
g1873
sg64
(lp1880
g100
asbasbasbag57
(g73
g59
NtRp1881
(dp1882
g62
(dp1883
sg71
g1690
sg64
(lp1884
g57
(g78
g59
NtRp1885
(dp1886
g62
(dp1887
g82
g83
ssg71
g1881
sg64
(lp1888
g1232
asbag57
(g78
g59
NtRp1889
(dp1890
g62
(dp1891
g89
g90
ssg71
g1881
sg64
(lp1892
S':'
asbag57
(g78
g59
NtRp1893
(dp1894
g62
(dp1895
sg71
g1881
sg64
(lp1896
g57
(g58
g59
NtRp1897
(dp1898
g62
(dp1899
g70
I4
ssg71
g1893
sg64
(lp1900
g1245
asbasbasbag57
(g73
g59
NtRp1901
(dp1902
g62
(dp1903
sg71
g1690
sg64
(lp1904
g57
(g78
g59
NtRp1905
(dp1906
g62
(dp1907
g82
g83
ssg71
g1901
sg64
(lp1908
g1275
asbag57
(g78
g59
NtRp1909
(dp1910
g62
(dp1911
g89
g90
ssg71
g1901
sg64
(lp1912
S':'
asbag57
(g78
g59
NtRp1913
(dp1914
g62
(dp1915
sg71
g1901
sg64
(lp1916
g57
(g58
g59
NtRp1917
(dp1918
g62
(dp1919
g70
I4
ssg71
g1913
sg64
(lp1920
g57
(g66
g59
NtRp1921
(dp1922
g62
(dp1923
g70
I3
ssg71
Nsg64
(lp1924
g57
(g73
g59
NtRp1925
(dp1926
g62
(dp1927
sg71
g1921
sg64
(lp1928
g57
(g78
g59
NtRp1929
(dp1930
g62
(dp1931
sg71
g1925
sg64
(lp1932
g57
(g58
g59
NtRp1933
(dp1934
g62
(dp1935
g70
I3
ssg71
g1929
sg64
(lp1936
S'1'
asbasbasbag57
(g73
g59
NtRp1937
(dp1938
g62
(dp1939
sg71
g1921
sg64
(lp1940
g57
(g78
g59
NtRp1941
(dp1942
g62
(dp1943
sg71
g1937
sg64
(lp1944
g57
(g58
g59
NtRp1945
(dp1946
g62
(dp1947
g70
I3
ssg71
g1941
sg64
(lp1948
S'99'
p1949
asbasbasbag57
(g73
g59
NtRp1950
(dp1951
g62
(dp1952
sg71
g1921
sg64
(lp1953
g57
(g78
g59
NtRp1954
(dp1955
g62
(dp1956
sg71
g1950
sg64
(lp1957
g57
(g58
g59
NtRp1958
(dp1959
g62
(dp1960
g70
I3
ssg71
g1954
sg64
(lp1961
S'4'
asbasbasbag57
(g73
g59
NtRp1962
(dp1963
g62
(dp1964
sg71
g1921
sg64
(lp1965
g57
(g78
g59
NtRp1966
(dp1967
g62
(dp1968
sg71
g1962
sg64
(lp1969
g57
(g58
g59
NtRp1970
(dp1971
g62
(dp1972
g70
I3
ssg71
g1966
sg64
(lp1973
S'datetime.datetime(2011, 12, 14, 14, 46, 14)'
p1974
asbasbasbag57
(g73
g59
NtRp1975
(dp1976
g62
(dp1977
sg71
g1921
sg64
(lp1978
g57
(g78
g59
NtRp1979
(dp1980
g62
(dp1981
sg71
g1975
sg64
(lp1982
g57
(g58
g59
NtRp1983
(dp1984
g62
(dp1985
g70
I3
ssg71
g1979
sg64
(lp1986
g1354
asbasbasbasbasbasbasbasbasbasbasbag57
(g73
g59
NtRp1987
(dp1988
g62
(dp1989
sg71
g67
sg64
(lp1990
g57
(g78
g59
NtRp1991
(dp1992
g62
(dp1993
g82
g83
ssg71
g1987
sg64
(lp1994
S'is_https'
p1995
asbag57
(g78
g59
NtRp1996
(dp1997
g62
(dp1998
g89
g90
ssg71
g1987
sg64
(lp1999
S':'
asbag57
(g78
g59
NtRp2000
(dp2001
g62
(dp2002
sg71
g1987
sg64
(lp2003
g57
(g58
g59
NtRp2004
(dp2005
g62
(dp2006
g70
I5
ssg71
g2000
sg64
(lp2007
g100
asbasbasbag57
(g73
g59
NtRp2008
(dp2009
g62
(dp2010
sg71
g67
sg64
(lp2011
g57
(g78
g59
NtRp2012
(dp2013
g62
(dp2014
g82
g83
ssg71
g2008
sg64
(lp2015
S'is_local'
p2016
asbag57
(g78
g59
NtRp2017
(dp2018
g62
(dp2019
g89
g90
ssg71
g2008
sg64
(lp2020
S':'
asbag57
(g78
g59
NtRp2021
(dp2022
g62
(dp2023
sg71
g2008
sg64
(lp2024
g57
(g58
g59
NtRp2025
(dp2026
g62
(dp2027
g70
I5
ssg71
g2021
sg64
(lp2028
g1463
asbasbasbag57
(g73
g59
NtRp2029
(dp2030
g62
(dp2031
sg71
g67
sg64
(lp2032
g57
(g78
g59
NtRp2033
(dp2034
g62
(dp2035
g82
g83
ssg71
g2029
sg64
(lp2036
S'is_restful'
p2037
asbag57
(g78
g59
NtRp2038
(dp2039
g62
(dp2040
g89
g90
ssg71
g2029
sg64
(lp2041
S':'
asbag57
(g78
g59
NtRp2042
(dp2043
g62
(dp2044
sg71
g2029
sg64
(lp2045
g57
(g58
g59
NtRp2046
(dp2047
g62
(dp2048
g70
I5
ssg71
g2042
sg64
(lp2049
g100
asbasbasbag57
(g73
g59
NtRp2050
(dp2051
g62
(dp2052
sg71
g67
sg64
(lp2053
g57
(g78
g59
NtRp2054
(dp2055
g62
(dp2056
g82
g83
ssg71
g2050
sg64
(lp2057
S'now'
p2058
asbag57
(g78
g59
NtRp2059
(dp2060
g62
(dp2061
g89
g90
ssg71
g2050
sg64
(lp2062
S':'
asbag57
(g78
g59
NtRp2063
(dp2064
g62
(dp2065
sg71
g2050
sg64
(lp2066
g57
(g58
g59
NtRp2067
(dp2068
g62
(dp2069
g70
I5
ssg71
g2063
sg64
(lp2070
S'datetime.datetime(2013, 8, 30, 3, 13, 54, 149132)'
p2071
asbasbasbag57
(g73
g59
NtRp2072
(dp2073
g62
(dp2074
sg71
g67
sg64
(lp2075
g57
(g78
g59
NtRp2076
(dp2077
g62
(dp2078
g82
g83
ssg71
g2072
sg64
(lp2079
S'post_vars'
p2080
asbag57
(g78
g59
NtRp2081
(dp2082
g62
(dp2083
g89
g90
ssg71
g2072
sg64
(lp2084
S':'
asbag57
(g78
g59
NtRp2085
(dp2086
g62
(dp2087
sg71
g2072
sg64
(lp2088
g57
(g58
g59
NtRp2089
(dp2090
g62
(dp2091
g70
I5
ssg71
g2085
sg64
(lp2092
g57
(g66
g59
NtRp2093
(dp2094
g62
(dp2095
g70
I4
ssg71
Nsg64
(lp2096
sbasbasbasbag57
(g73
g59
NtRp2097
(dp2098
g62
(dp2099
sg71
g67
sg64
(lp2100
g57
(g78
g59
NtRp2101
(dp2102
g62
(dp2103
g82
g83
ssg71
g2097
sg64
(lp2104
S'raw_args'
p2105
asbag57
(g78
g59
NtRp2106
(dp2107
g62
(dp2108
g89
g90
ssg71
g2097
sg64
(lp2109
S':'
asbag57
(g78
g59
NtRp2110
(dp2111
g62
(dp2112
sg71
g2097
sg64
(lp2113
g57
(g58
g59
NtRp2114
(dp2115
g62
(dp2116
g70
I5
ssg71
g2110
sg64
(lp2117
g159
asbasbasbag57
(g73
g59
NtRp2118
(dp2119
g62
(dp2120
sg71
g67
sg64
(lp2121
g57
(g78
g59
NtRp2122
(dp2123
g62
(dp2124
g82
g83
ssg71
g2118
sg64
(lp2125
S'url'
p2126
asbag57
(g78
g59
NtRp2127
(dp2128
g62
(dp2129
g89
g90
ssg71
g2118
sg64
(lp2130
S':'
asbag57
(g78
g59
NtRp2131
(dp2132
g62
(dp2133
sg71
g2118
sg64
(lp2134
g57
(g58
g59
NtRp2135
(dp2136
g62
(dp2137
g70
I5
ssg71
g2131
sg64
(lp2138
S'/Read_it/appadmin/select/db'
p2139
asbasbasbag57
(g73
g59
NtRp2140
(dp2141
g62
(dp2142
sg71
g67
sg64
(lp2143
g57
(g78
g59
NtRp2144
(dp2145
g62
(dp2146
g82
g83
ssg71
g2140
sg64
(lp2147
S'utcnow'
p2148
asbag57
(g78
g59
NtRp2149
(dp2150
g62
(dp2151
g89
g90
ssg71
g2140
sg64
(lp2152
S':'
asbag57
(g78
g59
NtRp2153
(dp2154
g62
(dp2155
sg71
g2140
sg64
(lp2156
g57
(g58
g59
NtRp2157
(dp2158
g62
(dp2159
g70
I5
ssg71
g2153
sg64
(lp2160
S'datetime.datetime(2013, 8, 29, 21, 43, 54, 149172)'
p2161
asbasbasbag57
(g73
g59
NtRp2162
(dp2163
g62
(dp2164
sg71
g67
sg64
(lp2165
g57
(g78
g59
NtRp2166
(dp2167
g62
(dp2168
g82
g83
ssg71
g2162
sg64
(lp2169
S'uuid'
p2170
asbag57
(g78
g59
NtRp2171
(dp2172
g62
(dp2173
g89
g90
ssg71
g2162
sg64
(lp2174
S':'
asbag57
(g78
g59
NtRp2175
(dp2176
g62
(dp2177
sg71
g2162
sg64
(lp2178
g57
(g58
g59
NtRp2179
(dp2180
g62
(dp2181
g70
I5
ssg71
g2175
sg64
(lp2182
S'Read_it/127.0.0.1.2013-08-30.03-13-54.523a6c54-7526-49cc-a679-b98e2c68e272'
p2183
asbasbasbag57
(g73
g59
NtRp2184
(dp2185
g62
(dp2186
sg71
g67
sg64
(lp2187
g57
(g78
g59
NtRp2188
(dp2189
g62
(dp2190
g82
g83
ssg71
g2184
sg64
(lp2191
S'vars'
p2192
asbag57
(g78
g59
NtRp2193
(dp2194
g62
(dp2195
g89
g90
ssg71
g2184
sg64
(lp2196
S':'
asbag57
(g78
g59
NtRp2197
(dp2198
g62
(dp2199
sg71
g2184
sg64
(lp2200
g57
(g58
g59
NtRp2201
(dp2202
g62
(dp2203
g70
I5
ssg71
g2197
sg64
(lp2204
g57
(g66
g59
NtRp2205
(dp2206
g62
(dp2207
g70
I4
ssg71
Nsg64
(lp2208
g57
(g73
g59
NtRp2209
(dp2210
g62
(dp2211
sg71
g2205
sg64
(lp2212
g57
(g78
g59
NtRp2213
(dp2214
g62
(dp2215
g82
g83
ssg71
g2209
sg64
(lp2216
g1655
asbag57
(g78
g59
NtRp2217
(dp2218
g62
(dp2219
g89
g90
ssg71
g2209
sg64
(lp2220
S':'
asbag57
(g78
g59
NtRp2221
(dp2222
g62
(dp2223
sg71
g2209
sg64
(lp2224
g57
(g58
g59
NtRp2225
(dp2226
g62
(dp2227
g70
I4
ssg71
g2221
sg64
(lp2228
g1668
asbasbasbasbasbasbasbag57
(g73
g59
NtRp2229
(dp2230
g62
(dp2231
sg71
g67
sg64
(lp2232
g57
(g78
g59
NtRp2233
(dp2234
g62
(dp2235
g82
g83
ssg71
g2229
sg64
(lp2236
S'wsgi'
p2237
asbag57
(g78
g59
NtRp2238
(dp2239
g62
(dp2240
g89
g90
ssg71
g2229
sg64
(lp2241
S':'
asbag57
(g78
g59
NtRp2242
(dp2243
g62
(dp2244
sg71
g2229
sg64
(lp2245
g57
(g58
g59
NtRp2246
(dp2247
g62
(dp2248
g70
I5
ssg71
g2242
sg64
(lp2249
g57
(g66
g59
NtRp2250
(dp2251
g62
(dp2252
g70
I4
ssg71
Nsg64
(lp2253
g57
(g73
g59
NtRp2254
(dp2255
g62
(dp2256
sg71
g2250
sg64
(lp2257
g57
(g78
g59
NtRp2258
(dp2259
g62
(dp2260
g82
g83
ssg71
g2254
sg64
(lp2261
S'environ'
p2262
asbag57
(g78
g59
NtRp2263
(dp2264
g62
(dp2265
g89
g90
ssg71
g2254
sg64
(lp2266
S':'
asbag57
(g78
g59
NtRp2267
(dp2268
g62
(dp2269
sg71
g2254
sg64
(lp2270
g57
(g58
g59
NtRp2271
(dp2272
g62
(dp2273
g70
I4
ssg71
g2267
sg64
(lp2274
g57
(g66
g59
NtRp2275
(dp2276
g62
(dp2277
g70
I3
ssg71
Nsg64
(lp2278
g57
(g73
g59
NtRp2279
(dp2280
g62
(dp2281
sg71
g2275
sg64
(lp2282
g57
(g78
g59
NtRp2283
(dp2284
g62
(dp2285
g82
g83
ssg71
g2279
sg64
(lp2286
S'HTTP_ACCEPT'
p2287
asbag57
(g78
g59
NtRp2288
(dp2289
g62
(dp2290
g89
g90
ssg71
g2279
sg64
(lp2291
S':'
asbag57
(g78
g59
NtRp2292
(dp2293
g62
(dp2294
sg71
g2279
sg64
(lp2295
g57
(g58
g59
NtRp2296
(dp2297
g62
(dp2298
g70
I3
ssg71
g2292
sg64
(lp2299
g831
asbasbasbag57
(g73
g59
NtRp2300
(dp2301
g62
(dp2302
sg71
g2275
sg64
(lp2303
g57
(g78
g59
NtRp2304
(dp2305
g62
(dp2306
g82
g83
ssg71
g2300
sg64
(lp2307
S'HTTP_ACCEPT_ENCODING'
p2308
asbag57
(g78
g59
NtRp2309
(dp2310
g62
(dp2311
g89
g90
ssg71
g2300
sg64
(lp2312
S':'
asbag57
(g78
g59
NtRp2313
(dp2314
g62
(dp2315
sg71
g2300
sg64
(lp2316
g57
(g58
g59
NtRp2317
(dp2318
g62
(dp2319
g70
I3
ssg71
g2313
sg64
(lp2320
g853
asbasbasbag57
(g73
g59
NtRp2321
(dp2322
g62
(dp2323
sg71
g2275
sg64
(lp2324
g57
(g78
g59
NtRp2325
(dp2326
g62
(dp2327
g82
g83
ssg71
g2321
sg64
(lp2328
S'HTTP_ACCEPT_LANGUAGE'
p2329
asbag57
(g78
g59
NtRp2330
(dp2331
g62
(dp2332
g89
g90
ssg71
g2321
sg64
(lp2333
S':'
asbag57
(g78
g59
NtRp2334
(dp2335
g62
(dp2336
sg71
g2321
sg64
(lp2337
g57
(g58
g59
NtRp2338
(dp2339
g62
(dp2340
g70
I3
ssg71
g2334
sg64
(lp2341
g875
asbasbasbag57
(g73
g59
NtRp2342
(dp2343
g62
(dp2344
sg71
g2275
sg64
(lp2345
g57
(g78
g59
NtRp2346
(dp2347
g62
(dp2348
g82
g83
ssg71
g2342
sg64
(lp2349
S'HTTP_CONNECTION'
p2350
asbag57
(g78
g59
NtRp2351
(dp2352
g62
(dp2353
g89
g90
ssg71
g2342
sg64
(lp2354
S':'
asbag57
(g78
g59
NtRp2355
(dp2356
g62
(dp2357
sg71
g2342
sg64
(lp2358
g57
(g58
g59
NtRp2359
(dp2360
g62
(dp2361
g70
I3
ssg71
g2355
sg64
(lp2362
g897
asbasbasbag57
(g73
g59
NtRp2363
(dp2364
g62
(dp2365
sg71
g2275
sg64
(lp2366
g57
(g78
g59
NtRp2367
(dp2368
g62
(dp2369
g82
g83
ssg71
g2363
sg64
(lp2370
S'HTTP_COOKIE'
p2371
asbag57
(g78
g59
NtRp2372
(dp2373
g62
(dp2374
g89
g90
ssg71
g2363
sg64
(lp2375
S':'
asbag57
(g78
g59
NtRp2376
(dp2377
g62
(dp2378
sg71
g2363
sg64
(lp2379
g57
(g58
g59
NtRp2380
(dp2381
g62
(dp2382
g70
I3
ssg71
g2376
sg64
(lp2383
g919
asbasbasbag57
(g73
g59
NtRp2384
(dp2385
g62
(dp2386
sg71
g2275
sg64
(lp2387
g57
(g78
g59
NtRp2388
(dp2389
g62
(dp2390
g82
g83
ssg71
g2384
sg64
(lp2391
S'HTTP_HOST'
p2392
asbag57
(g78
g59
NtRp2393
(dp2394
g62
(dp2395
g89
g90
ssg71
g2384
sg64
(lp2396
S':'
asbag57
(g78
g59
NtRp2397
(dp2398
g62
(dp2399
sg71
g2384
sg64
(lp2400
g57
(g58
g59
NtRp2401
(dp2402
g62
(dp2403
g70
I3
ssg71
g2397
sg64
(lp2404
g941
asbasbasbag57
(g73
g59
NtRp2405
(dp2406
g62
(dp2407
sg71
g2275
sg64
(lp2408
g57
(g78
g59
NtRp2409
(dp2410
g62
(dp2411
g82
g83
ssg71
g2405
sg64
(lp2412
S'HTTP_USER_AGENT'
p2413
asbag57
(g78
g59
NtRp2414
(dp2415
g62
(dp2416
g89
g90
ssg71
g2405
sg64
(lp2417
S':'
asbag57
(g78
g59
NtRp2418
(dp2419
g62
(dp2420
sg71
g2405
sg64
(lp2421
g57
(g58
g59
NtRp2422
(dp2423
g62
(dp2424
g70
I3
ssg71
g2418
sg64
(lp2425
g963
asbasbasbag57
(g73
g59
NtRp2426
(dp2427
g62
(dp2428
sg71
g2275
sg64
(lp2429
g57
(g78
g59
NtRp2430
(dp2431
g62
(dp2432
g82
g83
ssg71
g2426
sg64
(lp2433
S'PATH_INFO'
p2434
asbag57
(g78
g59
NtRp2435
(dp2436
g62
(dp2437
g89
g90
ssg71
g2426
sg64
(lp2438
S':'
asbag57
(g78
g59
NtRp2439
(dp2440
g62
(dp2441
sg71
g2426
sg64
(lp2442
g57
(g58
g59
NtRp2443
(dp2444
g62
(dp2445
g70
I3
ssg71
g2439
sg64
(lp2446
g1027
asbasbasbag57
(g73
g59
NtRp2447
(dp2448
g62
(dp2449
sg71
g2275
sg64
(lp2450
g57
(g78
g59
NtRp2451
(dp2452
g62
(dp2453
g82
g83
ssg71
g2447
sg64
(lp2454
S'QUERY_STRING'
p2455
asbag57
(g78
g59
NtRp2456
(dp2457
g62
(dp2458
g89
g90
ssg71
g2447
sg64
(lp2459
S':'
asbag57
(g78
g59
NtRp2460
(dp2461
g62
(dp2462
sg71
g2447
sg64
(lp2463
g57
(g58
g59
NtRp2464
(dp2465
g62
(dp2466
g70
I3
ssg71
g2460
sg64
(lp2467
g1049
asbasbasbag57
(g73
g59
NtRp2468
(dp2469
g62
(dp2470
sg71
g2275
sg64
(lp2471
g57
(g78
g59
NtRp2472
(dp2473
g62
(dp2474
g82
g83
ssg71
g2468
sg64
(lp2475
S'REMOTE_ADDR'
p2476
asbag57
(g78
g59
NtRp2477
(dp2478
g62
(dp2479
g89
g90
ssg71
g2468
sg64
(lp2480
S':'
asbag57
(g78
g59
NtRp2481
(dp2482
g62
(dp2483
sg71
g2468
sg64
(lp2484
g57
(g58
g59
NtRp2485
(dp2486
g62
(dp2487
g70
I3
ssg71
g2481
sg64
(lp2488
g203
asbasbasbag57
(g73
g59
NtRp2489
(dp2490
g62
(dp2491
sg71
g2275
sg64
(lp2492
g57
(g78
g59
NtRp2493
(dp2494
g62
(dp2495
g82
g83
ssg71
g2489
sg64
(lp2496
S'REMOTE_PORT'
p2497
asbag57
(g78
g59
NtRp2498
(dp2499
g62
(dp2500
g89
g90
ssg71
g2489
sg64
(lp2501
S':'
asbag57
(g78
g59
NtRp2502
(dp2503
g62
(dp2504
sg71
g2489
sg64
(lp2505
g57
(g58
g59
NtRp2506
(dp2507
g62
(dp2508
g70
I3
ssg71
g2502
sg64
(lp2509
g1092
asbasbasbag57
(g73
g59
NtRp2510
(dp2511
g62
(dp2512
sg71
g2275
sg64
(lp2513
g57
(g78
g59
NtRp2514
(dp2515
g62
(dp2516
g82
g83
ssg71
g2510
sg64
(lp2517
S'REQUEST_METHOD'
p2518
asbag57
(g78
g59
NtRp2519
(dp2520
g62
(dp2521
g89
g90
ssg71
g2510
sg64
(lp2522
S':'
asbag57
(g78
g59
NtRp2523
(dp2524
g62
(dp2525
sg71
g2510
sg64
(lp2526
g57
(g58
g59
NtRp2527
(dp2528
g62
(dp2529
g70
I3
ssg71
g2523
sg64
(lp2530
g1114
asbasbasbag57
(g73
g59
NtRp2531
(dp2532
g62
(dp2533
sg71
g2275
sg64
(lp2534
g57
(g78
g59
NtRp2535
(dp2536
g62
(dp2537
g82
g83
ssg71
g2531
sg64
(lp2538
S'SCRIPT_NAME'
p2539
asbag57
(g78
g59
NtRp2540
(dp2541
g62
(dp2542
g89
g90
ssg71
g2531
sg64
(lp2543
S':'
asbag57
(g78
g59
NtRp2544
(dp2545
g62
(dp2546
sg71
g2531
sg64
(lp2547
g57
(g58
g59
NtRp2548
(dp2549
g62
(dp2550
g70
I3
ssg71
g2544
sg64
(lp2551
S''
asbasbasbag57
(g73
g59
NtRp2552
(dp2553
g62
(dp2554
sg71
g2275
sg64
(lp2555
g57
(g78
g59
NtRp2556
(dp2557
g62
(dp2558
g82
g83
ssg71
g2552
sg64
(lp2559
S'SERVER_NAME'
p2560
asbag57
(g78
g59
NtRp2561
(dp2562
g62
(dp2563
g89
g90
ssg71
g2552
sg64
(lp2564
S':'
asbag57
(g78
g59
NtRp2565
(dp2566
g62
(dp2567
sg71
g2552
sg64
(lp2568
g57
(g58
g59
NtRp2569
(dp2570
g62
(dp2571
g70
I3
ssg71
g2565
sg64
(lp2572
g1157
asbasbasbag57
(g73
g59
NtRp2573
(dp2574
g62
(dp2575
sg71
g2275
sg64
(lp2576
g57
(g78
g59
NtRp2577
(dp2578
g62
(dp2579
g82
g83
ssg71
g2573
sg64
(lp2580
S'SERVER_PORT'
p2581
asbag57
(g78
g59
NtRp2582
(dp2583
g62
(dp2584
g89
g90
ssg71
g2573
sg64
(lp2585
S':'
asbag57
(g78
g59
NtRp2586
(dp2587
g62
(dp2588
sg71
g2573
sg64
(lp2589
g57
(g58
g59
NtRp2590
(dp2591
g62
(dp2592
g70
I3
ssg71
g2586
sg64
(lp2593
g1179
asbasbasbag57
(g73
g59
NtRp2594
(dp2595
g62
(dp2596
sg71
g2275
sg64
(lp2597
g57
(g78
g59
NtRp2598
(dp2599
g62
(dp2600
g82
g83
ssg71
g2594
sg64
(lp2601
S'SERVER_PROTOCOL'
p2602
asbag57
(g78
g59
NtRp2603
(dp2604
g62
(dp2605
g89
g90
ssg71
g2594
sg64
(lp2606
S':'
asbag57
(g78
g59
NtRp2607
(dp2608
g62
(dp2609
sg71
g2594
sg64
(lp2610
g57
(g58
g59
NtRp2611
(dp2612
g62
(dp2613
g70
I3
ssg71
g2607
sg64
(lp2614
g1201
asbasbasbag57
(g73
g59
NtRp2615
(dp2616
g62
(dp2617
sg71
g2275
sg64
(lp2618
g57
(g78
g59
NtRp2619
(dp2620
g62
(dp2621
g82
g83
ssg71
g2615
sg64
(lp2622
S'SERVER_SOFTWARE'
p2623
asbag57
(g78
g59
NtRp2624
(dp2625
g62
(dp2626
g89
g90
ssg71
g2615
sg64
(lp2627
S':'
asbag57
(g78
g59
NtRp2628
(dp2629
g62
(dp2630
sg71
g2615
sg64
(lp2631
g57
(g58
g59
NtRp2632
(dp2633
g62
(dp2634
g70
I3
ssg71
g2628
sg64
(lp2635
g1223
asbasbasbag57
(g73
g59
NtRp2636
(dp2637
g62
(dp2638
sg71
g2275
sg64
(lp2639
g57
(g78
g59
NtRp2640
(dp2641
g62
(dp2642
g82
g83
ssg71
g2636
sg64
(lp2643
S'wsgi.errors'
p2644
asbag57
(g78
g59
NtRp2645
(dp2646
g62
(dp2647
g89
g90
ssg71
g2636
sg64
(lp2648
S':'
asbag57
(g78
g59
NtRp2649
(dp2650
g62
(dp2651
sg71
g2636
sg64
(lp2652
g57
(g58
g59
NtRp2653
(dp2654
g62
(dp2655
g70
I3
ssg71
g2649
sg64
(lp2656
S"<open file '<stderr>', mode 'w' at 0x7fdd14f50270>"
p2657
asbasbasbag57
(g73
g59
NtRp2658
(dp2659
g62
(dp2660
sg71
g2275
sg64
(lp2661
g57
(g78
g59
NtRp2662
(dp2663
g62
(dp2664
g82
g83
ssg71
g2658
sg64
(lp2665
S'wsgi.file_wrapper'
p2666
asbag57
(g78
g59
NtRp2667
(dp2668
g62
(dp2669
g89
g90
ssg71
g2658
sg64
(lp2670
S':'
asbag57
(g78
g59
NtRp2671
(dp2672
g62
(dp2673
sg71
g2658
sg64
(lp2674
g57
(g58
g59
NtRp2675
(dp2676
g62
(dp2677
g70
I3
ssg71
g2671
sg64
(lp2678
S'<class wsgiref.util.FileWrapper at 0x2a06530>'
p2679
asbasbasbag57
(g73
g59
NtRp2680
(dp2681
g62
(dp2682
sg71
g2275
sg64
(lp2683
g57
(g78
g59
NtRp2684
(dp2685
g62
(dp2686
g82
g83
ssg71
g2680
sg64
(lp2687
S'wsgi.input'
p2688
asbag57
(g78
g59
NtRp2689
(dp2690
g62
(dp2691
g89
g90
ssg71
g2680
sg64
(lp2692
S':'
asbag57
(g78
g59
NtRp2693
(dp2694
g62
(dp2695
sg71
g2680
sg64
(lp2696
g57
(g58
g59
NtRp2697
(dp2698
g62
(dp2699
g70
I3
ssg71
g2693
sg64
(lp2700
S'<cStringIO.StringO object at 0x7fdcbc64f9d0>'
p2701
asbasbasbag57
(g73
g59
NtRp2702
(dp2703
g62
(dp2704
sg71
g2275
sg64
(lp2705
g57
(g78
g59
NtRp2706
(dp2707
g62
(dp2708
g82
g83
ssg71
g2702
sg64
(lp2709
S'wsgi.multiprocess'
p2710
asbag57
(g78
g59
NtRp2711
(dp2712
g62
(dp2713
g89
g90
ssg71
g2702
sg64
(lp2714
S':'
asbag57
(g78
g59
NtRp2715
(dp2716
g62
(dp2717
sg71
g2702
sg64
(lp2718
g57
(g58
g59
NtRp2719
(dp2720
g62
(dp2721
g70
I3
ssg71
g2715
sg64
(lp2722
g100
asbasbasbag57
(g73
g59
NtRp2723
(dp2724
g62
(dp2725
sg71
g2275
sg64
(lp2726
g57
(g78
g59
NtRp2727
(dp2728
g62
(dp2729
g82
g83
ssg71
g2723
sg64
(lp2730
S'wsgi.multithread'
p2731
asbag57
(g78
g59
NtRp2732
(dp2733
g62
(dp2734
g89
g90
ssg71
g2723
sg64
(lp2735
S':'
asbag57
(g78
g59
NtRp2736
(dp2737
g62
(dp2738
sg71
g2723
sg64
(lp2739
g57
(g58
g59
NtRp2740
(dp2741
g62
(dp2742
g70
I3
ssg71
g2736
sg64
(lp2743
g1463
asbasbasbag57
(g73
g59
NtRp2744
(dp2745
g62
(dp2746
sg71
g2275
sg64
(lp2747
g57
(g78
g59
NtRp2748
(dp2749
g62
(dp2750
g82
g83
ssg71
g2744
sg64
(lp2751
S'wsgi.run_once'
p2752
asbag57
(g78
g59
NtRp2753
(dp2754
g62
(dp2755
g89
g90
ssg71
g2744
sg64
(lp2756
S':'
asbag57
(g78
g59
NtRp2757
(dp2758
g62
(dp2759
sg71
g2744
sg64
(lp2760
g57
(g58
g59
NtRp2761
(dp2762
g62
(dp2763
g70
I3
ssg71
g2757
sg64
(lp2764
g100
asbasbasbag57
(g73
g59
NtRp2765
(dp2766
g62
(dp2767
sg71
g2275
sg64
(lp2768
g57
(g78
g59
NtRp2769
(dp2770
g62
(dp2771
g82
g83
ssg71
g2765
sg64
(lp2772
S'wsgi.url_scheme'
p2773
asbag57
(g78
g59
NtRp2774
(dp2775
g62
(dp2776
g89
g90
ssg71
g2765
sg64
(lp2777
S':'
asbag57
(g78
g59
NtRp2778
(dp2779
g62
(dp2780
sg71
g2765
sg64
(lp2781
g57
(g58
g59
NtRp2782
(dp2783
g62
(dp2784
g70
I3
ssg71
g2778
sg64
(lp2785
g1506
asbasbasbag57
(g73
g59
NtRp2786
(dp2787
g62
(dp2788
sg71
g2275
sg64
(lp2789
g57
(g78
g59
NtRp2790
(dp2791
g62
(dp2792
g82
g83
ssg71
g2786
sg64
(lp2793
S'wsgi.version'
p2794
asbag57
(g78
g59
NtRp2795
(dp2796
g62
(dp2797
g89
g90
ssg71
g2786
sg64
(lp2798
S':'
asbag57
(g78
g59
NtRp2799
(dp2800
g62
(dp2801
sg71
g2786
sg64
(lp2802
g57
(g58
g59
NtRp2803
(dp2804
g62
(dp2805
g70
I3
ssg71
g2799
sg64
(lp2806
S'1'
asbasbasbasbasbasbasbasbasbasbasbasbasbsS'frames'
p2807
(lp2808
(dp2809
S'file'
p2810
S'/usr/lib/pymodules/python2.7/gluon/restricted.py'
p2811
sS'dump'
p2812
(dp2813
S'environment'
p2814
S"{'A': <class 'gluon.html.A'>, 'Auth': <class 'gluon.tools.Auth'>, 'B': <class 'gluon.html.B'>, 'BEAUTIFY': <class 'gluon.html.BEAUTIFY'>, 'BODY': <class 'gluon.html.BODY'>, 'BR': <class 'gluon.html.BR'>, 'BUTTON': <class 'gluon.html.BUTTON'>, 'CAT': <class 'gluon.html.CAT'>, 'CENTER': <class 'gluon.html.CENTER'>, 'CLEANUP': <class 'gluon.validators.CLEANUP'>, ...}"
p2815
sS'ccode'
p2816
S'<code object <module> at 0x7fdcd4305ab0, file "/...b2py/applications/Read_it/models/db.py", line 12>'
p2817
ssS'lnum'
p2818
I204
sS'lines'
p2819
(dp2820
I199
S'    try:'
p2821
sI200
S'        if type(code) == types.CodeType:'
p2822
sI201
S'            ccode = code'
p2823
sI202
S'        else:'
p2824
sI203
S'            ccode = compile2(code,layer)'
p2825
sI204
S'        exec ccode in environment'
p2826
sI205
S'    except HTTP:'
p2827
sI206
S'        raise'
p2828
sI207
S'    except RestrictedError:'
p2829
sI208
S'        # do not encapsulate (obfuscate) the original RestrictedError'
p2830
ssS'call'
p2831
S'(code="# -*- coding: utf-8 -*-\\n\\n#######################...S_IN_DB(db,\'Item.id\',\'Item.id\'),readable=False))\\n", environment={\'A\': <class \'gluon.html.A\'>, \'Auth\': <class \'gluon.tools.Auth\'>, \'B\': <class \'gluon.html.B\'>, \'BEAUTIFY\': <class \'gluon.html.BEAUTIFY\'>, \'BODY\': <class \'gluon.html.BODY\'>, \'BR\': <class \'gluon.html.BR\'>, \'BUTTON\': <class \'gluon.html.BUTTON\'>, \'CAT\': <class \'gluon.html.CAT\'>, \'CENTER\': <class \'gluon.html.CENTER\'>, \'CLEANUP\': <class \'gluon.validators.CLEANUP\'>, ...}, layer=\'/home/ds-iiit/web2py/applications/Read_it/models/db.py\')'
p2832
sS'func'
p2833
S'restricted'
p2834
sa(dp2835
g2810
S'/home/ds-iiit/web2py/applications/Read_it/models/db.py'
p2836
sg2812
(dp2837
S'Field'
p2838
S"<class 'gluon.dal.Field'>"
p2839
ssg2818
I108
sg2819
(dp2840
I103
S"\tField('User',db.auth_user,requires=IS_IN_DB(db,'auth_user.id','auth_user.name'),default=auth.user_id,writable=False,readable=False))"
p2841
sI104
S''
sI105
S"db.define_table('Comment',"
p2842
sI106
S"\tField('ItemID',db.Item,requires=IS_IN_DB(db,'Item.id','Item.id'),default=request.args(0),writable=False),"
p2843
sI107
S"\tField('AuthID',db.auth_user,requires=IS_IN_DB(db,'auth_user.id','auth_user.id'),writable=False),"
p2844
sI108
S"\tField('Comment','text'))"
p2845
sI109
S"db.define_table('Rated',"
p2846
sI110
S"\tField('UserID',db.auth_user,requires=IS_IN_DB(db,'auth_user.id','auth_user.id'),readable=False),"
p2847
sI111
S"\tField('Points','integer',requires=IS_IN_SET([5,-3])),"
p2848
sI112
S"\tField('ItemID',db.Item,requires=IS_IN_DB(db,'Item.id','Item.id'),readable=False))"
p2849
ssg2831
S'()'
p2850
sg2833
S'<module>'
p2851
sa(dp2852
g2810
S'/usr/lib/pymodules/python2.7/gluon/dal.py'
p2853
sg2812
(dp2854
S'polymodel'
p2855
S'None'
p2856
ssg2818
I5097
sg2819
(dp2857
I5092
S"        if migrate or self._adapter.dbengine=='google:datastore':"
p2858
sI5093
S'            try:'
p2859
sI5094
S'                sql_locker.acquire()'
p2860
sI5095
S'                self._adapter.create_table(t,migrate=migrate,'
p2861
sI5096
S'                                           fake_migrate=fake_migrate,'
p2862
sI5097
S'                                           polymodel=polymodel)'
p2863
sI5098
S'            finally:'
p2864
sI5099
S'                sql_locker.release()'
p2865
sI5100
S'        else:'
p2866
sI5101
S'            t._dbt = None'
p2867
ssg2831
S"(self=<DAL {'Category': <Table {'ALL': <gluon.dal.SQLA...': <gluon.dal.Field object at 0x7fdcc460ff90>}>}>, tablename='Comment', *fields=(<gluon.dal.Field object>, <gluon.dal.Field object>, <gluon.dal.Field object>), **args={})"
p2868
sg2833
S'define_table'
p2869
sa(dp2870
g2810
S'/usr/lib/pymodules/python2.7/gluon/dal.py'
p2871
sg2812
(dp2872
S'field'
p2873
S'<gluon.dal.Field object>'
p2874
sS'field.type'
p2875
S"'reference Item'"
p2876
sS'self'
p2877
S'<gluon.dal.SQLiteAdapter object>'
p2878
sS'self.NOT_NULL'
p2879
S'<bound method SQLiteAdapter.NOT_NULL of <gluon.dal.SQLiteAdapter object>>'
p2880
sS'not_null'
p2881
S'undefined'
p2882
sS'field.default'
p2883
S"'db'"
p2884
ssg2818
I647
sg2819
(dp2885
I642
S'                # Caveat: sql_fields and sql_fields_aux differ for default values.'
p2886
sI643
S'                # sql_fields is used to trigger migrations and sql_fields_aux'
p2887
sI644
S'                # is used for create tables.'
p2888
sI645
S'                # The reason is that we do not want to trigger a migration simply'
p2889
sI646
S'                # because a default value changes.'
p2890
sI647
S'                not_null = self.NOT_NULL(field.default, field.type)'
p2891
sI648
S"                ftype = ftype.replace('NOT NULL', not_null)"
p2892
sI649
S'            sql_fields_aux[field.name] = dict(sql=ftype)'
p2893
sI650
S"            fields.append('%s %s' % (field.name, ftype))"
p2894
sI651
S"        other = ';'"
p2895
ssg2831
S"(self=<gluon.dal.SQLiteAdapter object>, table=<Table {'ItemID': <gluon.dal.Field object at 0x7...id': <gluon.dal.Field object at 0x7fdcc461fad0>}>, migrate=True, fake_migrate=False, polymodel=None)"
p2896
sg2833
S'create_table'
p2897
sa(dp2898
g2810
S'/usr/lib/pymodules/python2.7/gluon/dal.py'
p2899
sg2812
(dp2900
S'default'
p2901
S"'db'"
p2902
sS'field_type'
p2903
S"'reference Item'"
p2904
sS'self'
p2905
S'<gluon.dal.SQLiteAdapter object>'
p2906
sS'self.represent'
p2907
S'<bound method SQLiteAdapter.represent of <gluon.dal.SQLiteAdapter object>>'
p2908
ssg2818
I862
sg2819
(dp2909
I864
S'    def COALESCE(self, first, second):'
p2910
sI865
S'        expressions = [self.expand(first)]+[self.expand(e) for e in second]'
p2911
sI866
S"        return 'COALESCE(%s)' % ','.join(expressions)"
p2912
sI857
S''
sI858
S'    def RANDOM(self):'
p2913
sI859
S"        return 'Random()'"
p2914
sI860
S''
sI861
S'    def NOT_NULL(self, default, field_type):'
p2915
sI862
S"        return 'NOT NULL DEFAULT %s' % self.represent(default,field_type)"
p2916
sI863
S''
ssg2831
S"(self=<gluon.dal.SQLiteAdapter object>, default='db', field_type='reference Item')"
p2917
sg2833
S'NOT_NULL'
p2918
sa(dp2919
g2810
S'/usr/lib/pymodules/python2.7/gluon/dal.py'
p2920
sg2812
(dp2921
S'builtinstr'
p2922
S"<type 'str'>"
p2923
sS'builtinint'
p2924
S"<type 'int'>"
p2925
sS'obj'
p2926
S"'db'"
p2927
ssg2818
I1396
sg2819
(dp2928
I1391
S"        elif fieldtype.startswith('reference'): # reference"
p2929
sI1392
S"            if fieldtype.find('.')>0:"
p2930
sI1393
S'                return repr(obj)'
p2931
sI1394
S'            elif isinstance(obj, (Row, Reference)):'
p2932
sI1395
S"                return str(obj['id'])"
p2933
sI1396
S'            return str(int(obj))'
p2934
sI1397
S"        elif fieldtype == 'double':"
p2935
sI1398
S'            return repr(float(obj))'
p2936
sI1399
S'        if isinstance(obj, unicode):'
p2937
sI1400
S'            obj = obj.encode(self.db_codec)'
p2938
ssg2831
S"(self=<gluon.dal.SQLiteAdapter object>, obj='db', fieldtype='reference Item')"
p2939
sg2833
S'represent'
p2940
sasS'pyver'
p2941
S'Python 2.7.3: /usr/bin/python'
p2942
sS'session'
p2943
g57
(g58
g59
NtRp2944
(dp2945
g62
(dp2946
sg64
(lp2947
g57
(g66
g59
NtRp2948
(dp2949
g62
(dp2950
g70
I5
ssg71
Nsg64
(lp2951
g57
(g73
g59
NtRp2952
(dp2953
g62
(dp2954
sg71
g2948
sg64
(lp2955
g57
(g78
g59
NtRp2956
(dp2957
g62
(dp2958
g82
g83
ssg71
g2952
sg64
(lp2959
S'auth'
p2960
asbag57
(g78
g59
NtRp2961
(dp2962
g62
(dp2963
g89
g90
ssg71
g2952
sg64
(lp2964
S':'
asbag57
(g78
g59
NtRp2965
(dp2966
g62
(dp2967
sg71
g2952
sg64
(lp2968
g57
(g58
g59
NtRp2969
(dp2970
g62
(dp2971
g70
I5
ssg71
g2965
sg64
(lp2972
g57
(g66
g59
NtRp2973
(dp2974
g62
(dp2975
g70
I4
ssg71
Nsg64
(lp2976
g57
(g73
g59
NtRp2977
(dp2978
g62
(dp2979
sg71
g2973
sg64
(lp2980
g57
(g78
g59
NtRp2981
(dp2982
g62
(dp2983
g82
g83
ssg71
g2977
sg64
(lp2984
S'expiration'
p2985
asbag57
(g78
g59
NtRp2986
(dp2987
g62
(dp2988
g89
g90
ssg71
g2977
sg64
(lp2989
S':'
asbag57
(g78
g59
NtRp2990
(dp2991
g62
(dp2992
sg71
g2977
sg64
(lp2993
g57
(g58
g59
NtRp2994
(dp2995
g62
(dp2996
g70
I4
ssg71
g2990
sg64
(lp2997
S'2592000'
p2998
asbasbasbag57
(g73
g59
NtRp2999
(dp3000
g62
(dp3001
sg71
g2973
sg64
(lp3002
g57
(g78
g59
NtRp3003
(dp3004
g62
(dp3005
g82
g83
ssg71
g2999
sg64
(lp3006
S'hmac_key'
p3007
asbag57
(g78
g59
NtRp3008
(dp3009
g62
(dp3010
g89
g90
ssg71
g2999
sg64
(lp3011
S':'
asbag57
(g78
g59
NtRp3012
(dp3013
g62
(dp3014
sg71
g2999
sg64
(lp3015
g57
(g58
g59
NtRp3016
(dp3017
g62
(dp3018
g70
I4
ssg71
g3012
sg64
(lp3019
S'7f4648de-69a9-4141-b374-831cb1577606'
p3020
asbasbasbag57
(g73
g59
NtRp3021
(dp3022
g62
(dp3023
sg71
g2973
sg64
(lp3024
g57
(g78
g59
NtRp3025
(dp3026
g62
(dp3027
g82
g83
ssg71
g3021
sg64
(lp3028
S'last_visit'
p3029
asbag57
(g78
g59
NtRp3030
(dp3031
g62
(dp3032
g89
g90
ssg71
g3021
sg64
(lp3033
S':'
asbag57
(g78
g59
NtRp3034
(dp3035
g62
(dp3036
sg71
g3021
sg64
(lp3037
g57
(g58
g59
NtRp3038
(dp3039
g62
(dp3040
g70
I4
ssg71
g3034
sg64
(lp3041
S'datetime.datetime(2013, 8, 30, 3, 11, 0, 721773)'
p3042
asbasbasbag57
(g73
g59
NtRp3043
(dp3044
g62
(dp3045
sg71
g2973
sg64
(lp3046
g57
(g78
g59
NtRp3047
(dp3048
g62
(dp3049
g82
g83
ssg71
g3043
sg64
(lp3050
S'remember'
p3051
asbag57
(g78
g59
NtRp3052
(dp3053
g62
(dp3054
g89
g90
ssg71
g3043
sg64
(lp3055
S':'
asbag57
(g78
g59
NtRp3056
(dp3057
g62
(dp3058
sg71
g3043
sg64
(lp3059
g57
(g58
g59
NtRp3060
(dp3061
g62
(dp3062
g70
I4
ssg71
g3056
sg64
(lp3063
g100
asbasbasbag57
(g73
g59
NtRp3064
(dp3065
g62
(dp3066
sg71
g2973
sg64
(lp3067
g57
(g78
g59
NtRp3068
(dp3069
g62
(dp3070
g82
g83
ssg71
g3064
sg64
(lp3071
S'user'
p3072
asbag57
(g78
g59
NtRp3073
(dp3074
g62
(dp3075
g89
g90
ssg71
g3064
sg64
(lp3076
S':'
asbag57
(g78
g59
NtRp3077
(dp3078
g62
(dp3079
sg71
g3064
sg64
(lp3080
g57
(g58
g59
NtRp3081
(dp3082
g62
(dp3083
g70
I4
ssg71
g3077
sg64
(lp3084
g57
(g66
g59
NtRp3085
(dp3086
g62
(dp3087
g70
I3
ssg71
Nsg64
(lp3088
g57
(g73
g59
NtRp3089
(dp3090
g62
(dp3091
sg71
g3085
sg64
(lp3092
g57
(g78
g59
NtRp3093
(dp3094
g62
(dp3095
g82
g83
ssg71
g3089
sg64
(lp3096
S'email'
p3097
asbag57
(g78
g59
NtRp3098
(dp3099
g62
(dp3100
g89
g90
ssg71
g3089
sg64
(lp3101
S':'
asbag57
(g78
g59
NtRp3102
(dp3103
g62
(dp3104
sg71
g3089
sg64
(lp3105
g57
(g58
g59
NtRp3106
(dp3107
g62
(dp3108
g70
I3
ssg71
g3102
sg64
(lp3109
S'sweetdevansh@gmail.com'
p3110
asbasbasbag57
(g73
g59
NtRp3111
(dp3112
g62
(dp3113
sg71
g3085
sg64
(lp3114
g57
(g78
g59
NtRp3115
(dp3116
g62
(dp3117
g82
g83
ssg71
g3111
sg64
(lp3118
S'first_name'
p3119
asbag57
(g78
g59
NtRp3120
(dp3121
g62
(dp3122
g89
g90
ssg71
g3111
sg64
(lp3123
S':'
asbag57
(g78
g59
NtRp3124
(dp3125
g62
(dp3126
sg71
g3111
sg64
(lp3127
g57
(g58
g59
NtRp3128
(dp3129
g62
(dp3130
g70
I3
ssg71
g3124
sg64
(lp3131
S'Devansh'
p3132
asbasbasbag57
(g73
g59
NtRp3133
(dp3134
g62
(dp3135
sg71
g3085
sg64
(lp3136
g57
(g78
g59
NtRp3137
(dp3138
g62
(dp3139
g82
g83
ssg71
g3133
sg64
(lp3140
S'id'
p3141
asbag57
(g78
g59
NtRp3142
(dp3143
g62
(dp3144
g89
g90
ssg71
g3133
sg64
(lp3145
S':'
asbag57
(g78
g59
NtRp3146
(dp3147
g62
(dp3148
sg71
g3133
sg64
(lp3149
g57
(g58
g59
NtRp3150
(dp3151
g62
(dp3152
g70
I3
ssg71
g3146
sg64
(lp3153
S'1'
asbasbasbag57
(g73
g59
NtRp3154
(dp3155
g62
(dp3156
sg71
g3085
sg64
(lp3157
g57
(g78
g59
NtRp3158
(dp3159
g62
(dp3160
g82
g83
ssg71
g3154
sg64
(lp3161
S'last_name'
p3162
asbag57
(g78
g59
NtRp3163
(dp3164
g62
(dp3165
g89
g90
ssg71
g3154
sg64
(lp3166
S':'
asbag57
(g78
g59
NtRp3167
(dp3168
g62
(dp3169
sg71
g3154
sg64
(lp3170
g57
(g58
g59
NtRp3171
(dp3172
g62
(dp3173
g70
I3
ssg71
g3167
sg64
(lp3174
S'Shah'
p3175
asbasbasbag57
(g73
g59
NtRp3176
(dp3177
g62
(dp3178
sg71
g3085
sg64
(lp3179
g57
(g78
g59
NtRp3180
(dp3181
g62
(dp3182
g82
g83
ssg71
g3176
sg64
(lp3183
S'password'
p3184
asbag57
(g78
g59
NtRp3185
(dp3186
g62
(dp3187
g89
g90
ssg71
g3176
sg64
(lp3188
S':'
asbag57
(g78
g59
NtRp3189
(dp3190
g62
(dp3191
sg71
g3176
sg64
(lp3192
g57
(g58
g59
NtRp3193
(dp3194
g62
(dp3195
g70
I3
ssg71
g3189
sg64
(lp3196
S'4fa78620b77f92c7faf768350dccbc8d'
p3197
asbasbasbag57
(g73
g59
NtRp3198
(dp3199
g62
(dp3200
sg71
g3085
sg64
(lp3201
g57
(g78
g59
NtRp3202
(dp3203
g62
(dp3204
g82
g83
ssg71
g3198
sg64
(lp3205
S'registration_id'
p3206
asbag57
(g78
g59
NtRp3207
(dp3208
g62
(dp3209
g89
g90
ssg71
g3198
sg64
(lp3210
S':'
asbag57
(g78
g59
NtRp3211
(dp3212
g62
(dp3213
sg71
g3198
sg64
(lp3214
g57
(g58
g59
NtRp3215
(dp3216
g62
(dp3217
g70
I3
ssg71
g3211
sg64
(lp3218
S''
asbasbasbag57
(g73
g59
NtRp3219
(dp3220
g62
(dp3221
sg71
g3085
sg64
(lp3222
g57
(g78
g59
NtRp3223
(dp3224
g62
(dp3225
g82
g83
ssg71
g3219
sg64
(lp3226
S'registration_key'
p3227
asbag57
(g78
g59
NtRp3228
(dp3229
g62
(dp3230
g89
g90
ssg71
g3219
sg64
(lp3231
S':'
asbag57
(g78
g59
NtRp3232
(dp3233
g62
(dp3234
sg71
g3219
sg64
(lp3235
g57
(g58
g59
NtRp3236
(dp3237
g62
(dp3238
g70
I3
ssg71
g3232
sg64
(lp3239
S''
asbasbasbag57
(g73
g59
NtRp3240
(dp3241
g62
(dp3242
sg71
g3085
sg64
(lp3243
g57
(g78
g59
NtRp3244
(dp3245
g62
(dp3246
g82
g83
ssg71
g3240
sg64
(lp3247
S'reset_password_key'
p3248
asbag57
(g78
g59
NtRp3249
(dp3250
g62
(dp3251
g89
g90
ssg71
g3240
sg64
(lp3252
S':'
asbag57
(g78
g59
NtRp3253
(dp3254
g62
(dp3255
sg71
g3240
sg64
(lp3256
g57
(g58
g59
NtRp3257
(dp3258
g62
(dp3259
g70
I3
ssg71
g3253
sg64
(lp3260
S''
asbasbasbasbasbasbasbasbasbasbasbasbasbsS'etype'
p3261
S"<type 'exceptions.ValueError'>"
p3262
sS'date'
p3263
S'Fri Aug 30 03:13:54 2013'
p3264
sS'response'
p3265
g57
(g58
g59
NtRp3266
(dp3267
g62
(dp3268
sg64
(lp3269
g57
(g66
g59
NtRp3270
(dp3271
g62
(dp3272
g70
I5
ssg71
Nsg64
(lp3273
g57
(g73
g59
NtRp3274
(dp3275
g62
(dp3276
sg71
g3270
sg64
(lp3277
g57
(g78
g59
NtRp3278
(dp3279
g62
(dp3280
g82
g83
ssg71
g3274
sg64
(lp3281
g168
asbag57
(g78
g59
NtRp3282
(dp3283
g62
(dp3284
g89
g90
ssg71
g3274
sg64
(lp3285
S':'
asbag57
(g78
g59
NtRp3286
(dp3287
g62
(dp3288
sg71
g3274
sg64
(lp3289
g57
(g58
g59
NtRp3290
(dp3291
g62
(dp3292
g70
I5
ssg71
g3286
sg64
(lp3293
S'<cStringIO.StringO object at 0x7fdcbc3e58f0>'
p3294
asbasbasbag57
(g73
g59
NtRp3295
(dp3296
g62
(dp3297
sg71
g3270
sg64
(lp3298
g57
(g78
g59
NtRp3299
(dp3300
g62
(dp3301
g82
g83
ssg71
g3295
sg64
(lp3302
g234
asbag57
(g78
g59
NtRp3303
(dp3304
g62
(dp3305
g89
g90
ssg71
g3295
sg64
(lp3306
S':'
asbag57
(g78
g59
NtRp3307
(dp3308
g62
(dp3309
sg71
g3295
sg64
(lp3310
g57
(g58
g59
NtRp3311
(dp3312
g62
(dp3313
g70
I5
ssg71
g3307
sg64
(lp3314
g57
(g66
g59
NtRp3315
(dp3316
g62
(dp3317
g70
I4
ssg71
Nsg64
(lp3318
g57
(g73
g59
NtRp3319
(dp3320
g62
(dp3321
sg71
g3315
sg64
(lp3322
g57
(g78
g59
NtRp3323
(dp3324
g62
(dp3325
g82
g83
ssg71
g3319
sg64
(lp3326
S'session_id_read_it'
p3327
asbag57
(g78
g59
NtRp3328
(dp3329
g62
(dp3330
g89
g90
ssg71
g3319
sg64
(lp3331
S':'
asbag57
(g78
g59
NtRp3332
(dp3333
g62
(dp3334
sg71
g3319
sg64
(lp3335
g57
(g58
g59
NtRp3336
(dp3337
g62
(dp3338
g70
I4
ssg71
g3332
sg64
(lp3339
g57
(g66
g59
NtRp3340
(dp3341
g62
(dp3342
g70
I3
ssg71
Nsg64
(lp3343
g57
(g73
g59
NtRp3344
(dp3345
g62
(dp3346
sg71
g3340
sg64
(lp3347
g57
(g78
g59
NtRp3348
(dp3349
g62
(dp3350
g82
g83
ssg71
g3344
sg64
(lp3351
g284
asbag57
(g78
g59
NtRp3352
(dp3353
g62
(dp3354
g89
g90
ssg71
g3344
sg64
(lp3355
S':'
asbag57
(g78
g59
NtRp3356
(dp3357
g62
(dp3358
sg71
g3344
sg64
(lp3359
g57
(g58
g59
NtRp3360
(dp3361
g62
(dp3362
g70
I3
ssg71
g3356
sg64
(lp3363
S''
asbasbasbag57
(g73
g59
NtRp3364
(dp3365
g62
(dp3366
sg71
g3340
sg64
(lp3367
g57
(g78
g59
NtRp3368
(dp3369
g62
(dp3370
g82
g83
ssg71
g3364
sg64
(lp3371
g305
asbag57
(g78
g59
NtRp3372
(dp3373
g62
(dp3374
g89
g90
ssg71
g3364
sg64
(lp3375
S':'
asbag57
(g78
g59
NtRp3376
(dp3377
g62
(dp3378
sg71
g3364
sg64
(lp3379
g57
(g58
g59
NtRp3380
(dp3381
g62
(dp3382
g70
I3
ssg71
g3376
sg64
(lp3383
S''
asbasbasbag57
(g73
g59
NtRp3384
(dp3385
g62
(dp3386
sg71
g3340
sg64
(lp3387
g57
(g78
g59
NtRp3388
(dp3389
g62
(dp3390
g82
g83
ssg71
g3384
sg64
(lp3391
g326
asbag57
(g78
g59
NtRp3392
(dp3393
g62
(dp3394
g89
g90
ssg71
g3384
sg64
(lp3395
S':'
asbag57
(g78
g59
NtRp3396
(dp3397
g62
(dp3398
sg71
g3384
sg64
(lp3399
g57
(g58
g59
NtRp3400
(dp3401
g62
(dp3402
g70
I3
ssg71
g3396
sg64
(lp3403
S''
asbasbasbag57
(g73
g59
NtRp3404
(dp3405
g62
(dp3406
sg71
g3340
sg64
(lp3407
g57
(g78
g59
NtRp3408
(dp3409
g62
(dp3410
g82
g83
ssg71
g3404
sg64
(lp3411
g347
asbag57
(g78
g59
NtRp3412
(dp3413
g62
(dp3414
g89
g90
ssg71
g3404
sg64
(lp3415
S':'
asbag57
(g78
g59
NtRp3416
(dp3417
g62
(dp3418
sg71
g3404
sg64
(lp3419
g57
(g58
g59
NtRp3420
(dp3421
g62
(dp3422
g70
I3
ssg71
g3416
sg64
(lp3423
S''
asbasbasbag57
(g73
g59
NtRp3424
(dp3425
g62
(dp3426
sg71
g3340
sg64
(lp3427
g57
(g78
g59
NtRp3428
(dp3429
g62
(dp3430
g82
g83
ssg71
g3424
sg64
(lp3431
g368
asbag57
(g78
g59
NtRp3432
(dp3433
g62
(dp3434
g89
g90
ssg71
g3424
sg64
(lp3435
S':'
asbag57
(g78
g59
NtRp3436
(dp3437
g62
(dp3438
sg71
g3424
sg64
(lp3439
g57
(g58
g59
NtRp3440
(dp3441
g62
(dp3442
g70
I3
ssg71
g3436
sg64
(lp3443
S''
asbasbasbag57
(g73
g59
NtRp3444
(dp3445
g62
(dp3446
sg71
g3340
sg64
(lp3447
g57
(g78
g59
NtRp3448
(dp3449
g62
(dp3450
g82
g83
ssg71
g3444
sg64
(lp3451
g389
asbag57
(g78
g59
NtRp3452
(dp3453
g62
(dp3454
g89
g90
ssg71
g3444
sg64
(lp3455
S':'
asbag57
(g78
g59
NtRp3456
(dp3457
g62
(dp3458
sg71
g3444
sg64
(lp3459
g57
(g58
g59
NtRp3460
(dp3461
g62
(dp3462
g70
I3
ssg71
g3456
sg64
(lp3463
S'/'
asbasbasbag57
(g73
g59
NtRp3464
(dp3465
g62
(dp3466
sg71
g3340
sg64
(lp3467
g57
(g78
g59
NtRp3468
(dp3469
g62
(dp3470
g82
g83
ssg71
g3464
sg64
(lp3471
g410
asbag57
(g78
g59
NtRp3472
(dp3473
g62
(dp3474
g89
g90
ssg71
g3464
sg64
(lp3475
S':'
asbag57
(g78
g59
NtRp3476
(dp3477
g62
(dp3478
sg71
g3464
sg64
(lp3479
g57
(g58
g59
NtRp3480
(dp3481
g62
(dp3482
g70
I3
ssg71
g3476
sg64
(lp3483
S''
asbasbasbag57
(g73
g59
NtRp3484
(dp3485
g62
(dp3486
sg71
g3340
sg64
(lp3487
g57
(g78
g59
NtRp3488
(dp3489
g62
(dp3490
g82
g83
ssg71
g3484
sg64
(lp3491
g431
asbag57
(g78
g59
NtRp3492
(dp3493
g62
(dp3494
g89
g90
ssg71
g3484
sg64
(lp3495
S':'
asbag57
(g78
g59
NtRp3496
(dp3497
g62
(dp3498
sg71
g3484
sg64
(lp3499
g57
(g58
g59
NtRp3500
(dp3501
g62
(dp3502
g70
I3
ssg71
g3496
sg64
(lp3503
S''
asbasbasbasbasbasbasbasbasbasbasbag57
(g73
g59
NtRp3504
(dp3505
g62
(dp3506
sg71
g3270
sg64
(lp3507
g57
(g78
g59
NtRp3508
(dp3509
g62
(dp3510
g82
g83
ssg71
g3504
sg64
(lp3511
S'files'
p3512
asbag57
(g78
g59
NtRp3513
(dp3514
g62
(dp3515
g89
g90
ssg71
g3504
sg64
(lp3516
S':'
asbag57
(g78
g59
NtRp3517
(dp3518
g62
(dp3519
sg71
g3504
sg64
(lp3520
g57
(g58
g59
NtRp3521
(dp3522
g62
(dp3523
g70
I5
ssg71
g3517
sg64
(lp3524
g57
(g66
g59
NtRp3525
(dp3526
g62
(dp3527
g70
I4
ssg71
Nsg64
(lp3528
sbasbasbasbag57
(g73
g59
NtRp3529
(dp3530
g62
(dp3531
sg71
g3270
sg64
(lp3532
g57
(g78
g59
NtRp3533
(dp3534
g62
(dp3535
g82
g83
ssg71
g3529
sg64
(lp3536
S'flash'
p3537
asbag57
(g78
g59
NtRp3538
(dp3539
g62
(dp3540
g89
g90
ssg71
g3529
sg64
(lp3541
S':'
asbag57
(g78
g59
NtRp3542
(dp3543
g62
(dp3544
sg71
g3529
sg64
(lp3545
g57
(g58
g59
NtRp3546
(dp3547
g62
(dp3548
g70
I5
ssg71
g3542
sg64
(lp3549
S''
asbasbasbag57
(g73
g59
NtRp3550
(dp3551
g62
(dp3552
sg71
g3270
sg64
(lp3553
g57
(g78
g59
NtRp3554
(dp3555
g62
(dp3556
g82
g83
ssg71
g3550
sg64
(lp3557
S'generic_patterns'
p3558
asbag57
(g78
g59
NtRp3559
(dp3560
g62
(dp3561
g89
g90
ssg71
g3550
sg64
(lp3562
S':'
asbag57
(g78
g59
NtRp3563
(dp3564
g62
(dp3565
sg71
g3550
sg64
(lp3566
g57
(g58
g59
NtRp3567
(dp3568
g62
(dp3569
g70
I5
ssg71
g3563
sg64
(lp3570
g57
(g66
g59
NtRp3571
(dp3572
g62
(dp3573
g70
I4
ssg71
Nsg64
(lp3574
g57
(g73
g59
NtRp3575
(dp3576
g62
(dp3577
sg71
g3571
sg64
(lp3578
g57
(g78
g59
NtRp3579
(dp3580
g62
(dp3581
sg71
g3575
sg64
(lp3582
g57
(g58
g59
NtRp3583
(dp3584
g62
(dp3585
g70
I4
ssg71
g3579
sg64
(lp3586
S'*'
asbasbasbasbasbasbasbag57
(g73
g59
NtRp3587
(dp3588
g62
(dp3589
sg71
g3270
sg64
(lp3590
g57
(g78
g59
NtRp3591
(dp3592
g62
(dp3593
g82
g83
ssg71
g3587
sg64
(lp3594
S'headers'
p3595
asbag57
(g78
g59
NtRp3596
(dp3597
g62
(dp3598
g89
g90
ssg71
g3587
sg64
(lp3599
S':'
asbag57
(g78
g59
NtRp3600
(dp3601
g62
(dp3602
sg71
g3587
sg64
(lp3603
g57
(g58
g59
NtRp3604
(dp3605
g62
(dp3606
g70
I5
ssg71
g3600
sg64
(lp3607
g57
(g66
g59
NtRp3608
(dp3609
g62
(dp3610
g70
I4
ssg71
Nsg64
(lp3611
g57
(g73
g59
NtRp3612
(dp3613
g62
(dp3614
sg71
g3608
sg64
(lp3615
g57
(g78
g59
NtRp3616
(dp3617
g62
(dp3618
g82
g83
ssg71
g3612
sg64
(lp3619
S'Cache-Control'
p3620
asbag57
(g78
g59
NtRp3621
(dp3622
g62
(dp3623
g89
g90
ssg71
g3612
sg64
(lp3624
S':'
asbag57
(g78
g59
NtRp3625
(dp3626
g62
(dp3627
sg71
g3612
sg64
(lp3628
g57
(g58
g59
NtRp3629
(dp3630
g62
(dp3631
g70
I4
ssg71
g3625
sg64
(lp3632
S'no-store, no-cache, must-revalidate, post-check=0, pre-check=0'
p3633
asbasbasbag57
(g73
g59
NtRp3634
(dp3635
g62
(dp3636
sg71
g3608
sg64
(lp3637
g57
(g78
g59
NtRp3638
(dp3639
g62
(dp3640
g82
g83
ssg71
g3634
sg64
(lp3641
S'Content-Type'
p3642
asbag57
(g78
g59
NtRp3643
(dp3644
g62
(dp3645
g89
g90
ssg71
g3634
sg64
(lp3646
S':'
asbag57
(g78
g59
NtRp3647
(dp3648
g62
(dp3649
sg71
g3634
sg64
(lp3650
g57
(g58
g59
NtRp3651
(dp3652
g62
(dp3653
g70
I4
ssg71
g3647
sg64
(lp3654
S'text/html; charset=utf-8'
p3655
asbasbasbag57
(g73
g59
NtRp3656
(dp3657
g62
(dp3658
sg71
g3608
sg64
(lp3659
g57
(g78
g59
NtRp3660
(dp3661
g62
(dp3662
g82
g83
ssg71
g3656
sg64
(lp3663
S'Expires'
p3664
asbag57
(g78
g59
NtRp3665
(dp3666
g62
(dp3667
g89
g90
ssg71
g3656
sg64
(lp3668
S':'
asbag57
(g78
g59
NtRp3669
(dp3670
g62
(dp3671
sg71
g3656
sg64
(lp3672
g57
(g58
g59
NtRp3673
(dp3674
g62
(dp3675
g70
I4
ssg71
g3669
sg64
(lp3676
S'Thu, 29 Aug 2013 21:43:54 GMT'
p3677
asbasbasbag57
(g73
g59
NtRp3678
(dp3679
g62
(dp3680
sg71
g3608
sg64
(lp3681
g57
(g78
g59
NtRp3682
(dp3683
g62
(dp3684
g82
g83
ssg71
g3678
sg64
(lp3685
S'Pragma'
p3686
asbag57
(g78
g59
NtRp3687
(dp3688
g62
(dp3689
g89
g90
ssg71
g3678
sg64
(lp3690
S':'
asbag57
(g78
g59
NtRp3691
(dp3692
g62
(dp3693
sg71
g3678
sg64
(lp3694
g57
(g58
g59
NtRp3695
(dp3696
g62
(dp3697
g70
I4
ssg71
g3691
sg64
(lp3698
S'no-cache'
p3699
asbasbasbag57
(g73
g59
NtRp3700
(dp3701
g62
(dp3702
sg71
g3608
sg64
(lp3703
g57
(g78
g59
NtRp3704
(dp3705
g62
(dp3706
g82
g83
ssg71
g3700
sg64
(lp3707
S'X-Powered-By'
p3708
asbag57
(g78
g59
NtRp3709
(dp3710
g62
(dp3711
g89
g90
ssg71
g3700
sg64
(lp3712
S':'
asbag57
(g78
g59
NtRp3713
(dp3714
g62
(dp3715
sg71
g3700
sg64
(lp3716
g57
(g58
g59
NtRp3717
(dp3718
g62
(dp3719
g70
I4
ssg71
g3713
sg64
(lp3720
S'web2py'
p3721
asbasbasbasbasbasbasbag57
(g73
g59
NtRp3722
(dp3723
g62
(dp3724
sg71
g3270
sg64
(lp3725
g57
(g78
g59
NtRp3726
(dp3727
g62
(dp3728
g82
g83
ssg71
g3722
sg64
(lp3729
S'menu'
p3730
asbag57
(g78
g59
NtRp3731
(dp3732
g62
(dp3733
g89
g90
ssg71
g3722
sg64
(lp3734
S':'
asbag57
(g78
g59
NtRp3735
(dp3736
g62
(dp3737
sg71
g3722
sg64
(lp3738
g57
(g58
g59
NtRp3739
(dp3740
g62
(dp3741
g70
I5
ssg71
g3735
sg64
(lp3742
g57
(g66
g59
NtRp3743
(dp3744
g62
(dp3745
g70
I4
ssg71
Nsg64
(lp3746
sbasbasbasbag57
(g73
g59
NtRp3747
(dp3748
g62
(dp3749
sg71
g3270
sg64
(lp3750
g57
(g78
g59
NtRp3751
(dp3752
g62
(dp3753
g82
g83
ssg71
g3747
sg64
(lp3754
S'meta'
p3755
asbag57
(g78
g59
NtRp3756
(dp3757
g62
(dp3758
g89
g90
ssg71
g3747
sg64
(lp3759
S':'
asbag57
(g78
g59
NtRp3760
(dp3761
g62
(dp3762
sg71
g3747
sg64
(lp3763
g57
(g58
g59
NtRp3764
(dp3765
g62
(dp3766
g70
I5
ssg71
g3760
sg64
(lp3767
g57
(g66
g59
NtRp3768
(dp3769
g62
(dp3770
g70
I4
ssg71
Nsg64
(lp3771
sbasbasbasbag57
(g73
g59
NtRp3772
(dp3773
g62
(dp3774
sg71
g3270
sg64
(lp3775
g57
(g78
g59
NtRp3776
(dp3777
g62
(dp3778
g82
g83
ssg71
g3772
sg64
(lp3779
S'postprocessing'
p3780
asbag57
(g78
g59
NtRp3781
(dp3782
g62
(dp3783
g89
g90
ssg71
g3772
sg64
(lp3784
S':'
asbag57
(g78
g59
NtRp3785
(dp3786
g62
(dp3787
sg71
g3772
sg64
(lp3788
g57
(g58
g59
NtRp3789
(dp3790
g62
(dp3791
g70
I5
ssg71
g3785
sg64
(lp3792
g57
(g66
g59
NtRp3793
(dp3794
g62
(dp3795
g70
I4
ssg71
Nsg64
(lp3796
sbasbasbasbag57
(g73
g59
NtRp3797
(dp3798
g62
(dp3799
sg71
g3270
sg64
(lp3800
g57
(g78
g59
NtRp3801
(dp3802
g62
(dp3803
g82
g83
ssg71
g3797
sg64
(lp3804
S'session_file'
p3805
asbag57
(g78
g59
NtRp3806
(dp3807
g62
(dp3808
g89
g90
ssg71
g3797
sg64
(lp3809
S':'
asbag57
(g78
g59
NtRp3810
(dp3811
g62
(dp3812
sg71
g3797
sg64
(lp3813
g57
(g58
g59
NtRp3814
(dp3815
g62
(dp3816
g70
I5
ssg71
g3810
sg64
(lp3817
S"<open file '/home/ds-iiit/web2py/applications/Read_it/sessions/127.0.0.1-3b306805-b0b8-4f0a-8f0e-2c710fd6d755', mode 'rb+' at 0x7fdcbc64e390>"
p3818
asbasbasbag57
(g73
g59
NtRp3819
(dp3820
g62
(dp3821
sg71
g3270
sg64
(lp3822
g57
(g78
g59
NtRp3823
(dp3824
g62
(dp3825
g82
g83
ssg71
g3819
sg64
(lp3826
S'session_filename'
p3827
asbag57
(g78
g59
NtRp3828
(dp3829
g62
(dp3830
g89
g90
ssg71
g3819
sg64
(lp3831
S':'
asbag57
(g78
g59
NtRp3832
(dp3833
g62
(dp3834
sg71
g3819
sg64
(lp3835
g57
(g58
g59
NtRp3836
(dp3837
g62
(dp3838
g70
I5
ssg71
g3832
sg64
(lp3839
S'/home/ds-iiit/web2py/applications/Read_it/sessions/127.0.0.1-3b306805-b0b8-4f0a-8f0e-2c710fd6d755'
p3840
asbasbasbag57
(g73
g59
NtRp3841
(dp3842
g62
(dp3843
sg71
g3270
sg64
(lp3844
g57
(g78
g59
NtRp3845
(dp3846
g62
(dp3847
g82
g83
ssg71
g3841
sg64
(lp3848
S'session_id'
p3849
asbag57
(g78
g59
NtRp3850
(dp3851
g62
(dp3852
g89
g90
ssg71
g3841
sg64
(lp3853
S':'
asbag57
(g78
g59
NtRp3854
(dp3855
g62
(dp3856
sg71
g3841
sg64
(lp3857
g57
(g58
g59
NtRp3858
(dp3859
g62
(dp3860
g70
I5
ssg71
g3854
sg64
(lp3861
S'127.0.0.1-3b306805-b0b8-4f0a-8f0e-2c710fd6d755'
p3862
asbasbasbag57
(g73
g59
NtRp3863
(dp3864
g62
(dp3865
sg71
g3270
sg64
(lp3866
g57
(g78
g59
NtRp3867
(dp3868
g62
(dp3869
g82
g83
ssg71
g3863
sg64
(lp3870
S'session_id_name'
p3871
asbag57
(g78
g59
NtRp3872
(dp3873
g62
(dp3874
g89
g90
ssg71
g3863
sg64
(lp3875
S':'
asbag57
(g78
g59
NtRp3876
(dp3877
g62
(dp3878
sg71
g3863
sg64
(lp3879
g57
(g58
g59
NtRp3880
(dp3881
g62
(dp3882
g70
I5
ssg71
g3876
sg64
(lp3883
g3327
asbasbasbag57
(g73
g59
NtRp3884
(dp3885
g62
(dp3886
sg71
g3270
sg64
(lp3887
g57
(g78
g59
NtRp3888
(dp3889
g62
(dp3890
g82
g83
ssg71
g3884
sg64
(lp3891
S'session_locked'
p3892
asbag57
(g78
g59
NtRp3893
(dp3894
g62
(dp3895
g89
g90
ssg71
g3884
sg64
(lp3896
S':'
asbag57
(g78
g59
NtRp3897
(dp3898
g62
(dp3899
sg71
g3884
sg64
(lp3900
g57
(g58
g59
NtRp3901
(dp3902
g62
(dp3903
g70
I5
ssg71
g3897
sg64
(lp3904
g1463
asbasbasbag57
(g73
g59
NtRp3905
(dp3906
g62
(dp3907
sg71
g3270
sg64
(lp3908
g57
(g78
g59
NtRp3909
(dp3910
g62
(dp3911
g82
g83
ssg71
g3905
sg64
(lp3912
S'session_new'
p3913
asbag57
(g78
g59
NtRp3914
(dp3915
g62
(dp3916
g89
g90
ssg71
g3905
sg64
(lp3917
S':'
asbag57
(g78
g59
NtRp3918
(dp3919
g62
(dp3920
sg71
g3905
sg64
(lp3921
g57
(g58
g59
NtRp3922
(dp3923
g62
(dp3924
g70
I5
ssg71
g3918
sg64
(lp3925
g100
asbasbasbag57
(g73
g59
NtRp3926
(dp3927
g62
(dp3928
sg71
g3270
sg64
(lp3929
g57
(g78
g59
NtRp3930
(dp3931
g62
(dp3932
g82
g83
ssg71
g3926
sg64
(lp3933
S'status'
p3934
asbag57
(g78
g59
NtRp3935
(dp3936
g62
(dp3937
g89
g90
ssg71
g3926
sg64
(lp3938
S':'
asbag57
(g78
g59
NtRp3939
(dp3940
g62
(dp3941
sg71
g3926
sg64
(lp3942
g57
(g58
g59
NtRp3943
(dp3944
g62
(dp3945
g70
I5
ssg71
g3939
sg64
(lp3946
S'200'
p3947
asbasbasbag57
(g73
g59
NtRp3948
(dp3949
g62
(dp3950
sg71
g3270
sg64
(lp3951
g57
(g78
g59
NtRp3952
(dp3953
g62
(dp3954
g82
g83
ssg71
g3948
sg64
(lp3955
g2170
asbag57
(g78
g59
NtRp3956
(dp3957
g62
(dp3958
g89
g90
ssg71
g3948
sg64
(lp3959
S':'
asbag57
(g78
g59
NtRp3960
(dp3961
g62
(dp3962
sg71
g3948
sg64
(lp3963
g57
(g58
g59
NtRp3964
(dp3965
g62
(dp3966
g70
I5
ssg71
g3960
sg64
(lp3967
g2183
asbasbasbag57
(g73
g59
NtRp3968
(dp3969
g62
(dp3970
sg71
g3270
sg64
(lp3971
g57
(g78
g59
NtRp3972
(dp3973
g62
(dp3974
g82
g83
ssg71
g3968
sg64
(lp3975
S'view'
p3976
asbag57
(g78
g59
NtRp3977
(dp3978
g62
(dp3979
g89
g90
ssg71
g3968
sg64
(lp3980
S':'
asbag57
(g78
g59
NtRp3981
(dp3982
g62
(dp3983
sg71
g3968
sg64
(lp3984
g57
(g58
g59
NtRp3985
(dp3986
g62
(dp3987
g70
I5
ssg71
g3981
sg64
(lp3988
S'appadmin/select.html'
p3989
asbasbasbasbasbsS'locals'
p3990
(dp3991
S'self'
p3992
S'<gluon.dal.SQLiteAdapter object>'
p3993
sS'r'
S'None'
p3994
sS'obj'
p3995
S"'db'"
p3996
sS'fieldtype'
p3997
S"'reference Item'"
p3998
sssS'traceback'
p3999
S'Traceback (most recent call last):\n  File "/usr/lib/pymodules/python2.7/gluon/restricted.py", line 204, in restricted\n    exec ccode in environment\n  File "/home/ds-iiit/web2py/applications/Read_it/models/db.py", line 108, in <module>\n    Field(\'Comment\',\'text\'))\n  File "/usr/lib/pymodules/python2.7/gluon/dal.py", line 5097, in define_table\n    polymodel=polymodel)\n  File "/usr/lib/pymodules/python2.7/gluon/dal.py", line 647, in create_table\n    not_null = self.NOT_NULL(field.default, field.type)\n  File "/usr/lib/pymodules/python2.7/gluon/dal.py", line 862, in NOT_NULL\n    return \'NOT NULL DEFAULT %s\' % self.represent(default,field_type)\n  File "/usr/lib/pymodules/python2.7/gluon/dal.py", line 1396, in represent\n    return str(int(obj))\nValueError: invalid literal for int() with base 10: \'db\'\n'
p4000
s.