(dp1
S'output'
p2
S"<type 'exceptions.ValueError'> invalid literal for int() with base 10: 'list_cat'"
p3
sS'layer'
p4
S'/home/ds-iiit/web2py/applications/Read_it/controllers/default.py'
p5
sS'code'
p6
S'# -*- coding: utf-8 -*-\n# this file is released under public domain and you can use without limitations\n\n#########################################################################\n## This is a samples controller\n## - index is the default action of any application\n## - user is required for authentication and authorization\n## - download is for downloading files uploaded in the db (does streaming)\n## - call exposes all registered services (none by default)\n#########################################################################\n\n@auth.requires_login()\ndef comments():\n\tx = request.args(0)\n\tform = SQLFORM(db.Comments,fields=[\'Comment\'],formstyle="divs",hidden=dict(ItemID=int(request.args(0))))\n\tform.vars.ItemID = int(x)\n\tresults=[]\n\tlink = db(db.Item.id == request.args(0)).select()\n\tif form.process().accepted:\n\t\tresponse.flash = "Comment posted"\n\telse:\n\t\tresponse.flash = "Please post"\n\tresults = db((db.Comments.ItemID == int(x)) & (db.Comments.AuthID == db.auth_user.id) & (db.Comments.ItemID==db.Item.id)).select(db.Comments.ALL,db.auth_user.ALL,db.Item.ALL)\n\treturn dict(form=form,results=results,link=link)\n\ndef search():\n\tresults=[]\n\tx=request.vars[\'s\']\n\tresults=db(db.Item.Heading.contains(x)).select()\n\treturn dict(results=results)\n\ndef listuser():\n\tusers = db(db.auth_user.id>1).select()\n\treturn dict(users=users)\n@auth.requires_membership(\'Admin\')\ndef addcat():\n\tform=SQLFORM(db.Category)\n\treturn dict(form=form)\n\n@auth.requires_membership(\'Admin\')\ndef removeuser():\n\tx = int(request.args(0))\n\tcrud.delete(db.auth_user,x)\n\tredirect(URL(listuser))\n\n@auth.requires_login()\ndef points():\n\tx=db((db.Rated.ItemID == request.args(0)) & (db.Rated.UserID == auth.user_id)).select()\n\tprev = 0\n\tif x:\n\t\tz=db((db.Item.id == request.args(0))).select()\n\t\tprev = x[0][\'Points\']\n\t\tz[0][\'Rating\'] = z[0][\'Rating\'] - x[0][\'Points\']\n\t\tdb((db.Rated.ItemID == request.args(0)) & (db.Rated.UserID == auth.user_id)).delete()\n\n\tx=db((db.Rated.ItemID == request.args(0)) & (db.Rated.UserID == auth.user_id)).select()\n\tprint prev\n\tif not x and (prev != int(request.args(1))):\n\t\tdb.Rated.insert(UserID=auth.user_id,ItemID=request.args(0),Points=int(request.args(1)))\n\t\tz=db((db.Item.id == request.args(0))).select()\n\t\ty = z.first()\n\t\tz[0][\'Rating\'] = z[0][\'Rating\'] + int(request.args(1))\n\t\t#db(db.Item.id == request.args(0)).update(Rating+=int(request.args(1)))\n\telse:\n\t\tredirect(URL(listall))\n\ndef listall():\n\tx = db(db.Item.id>=0).select(orderby=\'Item.Rating DESC\')\n\treturn dict(x=x)\n\n@auth.requires_login()\ndef new():\n\tform = crud.create(db.Item)\n\treturn dict(form=form)\n\n@auth.requires_login()\ndef update():\n\tform = []\n\tif db((request.args(0)==db.Item.id) & (db.Item.User == auth.user_id)).select():\n\t\tform = crud.update(db.Item,request.args(0))\n\telse:\n\t\tresponse.flash(\'Unauthorized access\')\n\t\tredirect(URL(listall))\n\treturn dict(form=form)\n\ndef delete():\n\tform = []\n\tif db((request.args(0)==db.Item.id) & (db.Item.User == auth.user_id) ).select():\n\t\tform = crud.delete(db.Item,request.args(0))\n\telse:\n\t\tredirect(URL(listall))\n\treturn dict(form=form)\n\ndef list_cat():\n\tx = db((request.args(0)==db.Category.id) & (db.Category.id == db.Item.Category)).select(orderby=db.Item.Rating)\n\treturn dict(x=x)\n\ndef check_access():\n    return True if auth.is_logged_in() else False\n\ndef index():\n    """\n    example action using the internationalization operator T and flash\n    rendered by views/default/index.html or views/generic.html\n    """\n    results = db(db.Category.id>0).select()\n    posts=[]\n    comments=[]\n    if check_access():\n    \tposts = db(db.Item.User == auth.user_id).select()\n#    redirect(URL("listall"))\n    return dict(posts=posts,comments=comments,results=results)\n\ndef user():\n    """\n    exposes:\n    http://..../[ap\n    \tprint "here"p]/default/user/login\n    http://..../[app]/default/user/logout\n    http://..../[app]/default/user/register\n    http://..../[app]/default/user/profile\n    http://..../[app]/default/user/retrieve_password\n    http://..../[app]/default/user/change_password\n    use @auth.requires_login()\n        @auth.requires_membership(\'group name\')\n        @auth.requires_permission(\'read\',\'table name\',record_id)\n    to decorate functions that need access control\n    """\n#    if form.process().accepted:\n#    \tdb.auth_membership.insert(user_id=auth.user_id,group_id=4)\n    return dict(form=auth())\n\n\ndef download():\n    """\n    allows downloading of uploaded files\n    http://..../[app]/default/download/[filename]\n    """\n    return response.download(request,db)\n\n\ndef call():\n    """\n    exposes services. for example:\n    http://..../[app]/default/call/jsonrpc\n    decorate with @services.jsonrpc the functions to expose\n    supports xml, json, xmlrpc, jsonrpc, amfrpc, rss, csv\n    """\n    return service()\n\n\n@auth.requires_signature()\ndef data():\n    """\n    http://..../[app]/default/data/tables\n    http://..../[app]/default/data/create/[table]\n    http://..../[app]/default/data/read/[table]/[id]\n    http://..../[app]/default/data/update/[table]/[id]\n    http://..../[app]/default/data/delete/[table]/[id]\n    http://..../[app]/default/data/select/[table]\n    http://..../[app]/default/data/search/[table]\n    but URLs must be signed, i.e. linked with\n      A(\'table\',_href=URL(\'data/tables\',user_signature=True))\n    or with the signed load operator\n      LOAD(\'default\',\'data.load\',args=\'tables\',ajax=True,user_signature=True)\n    """\n    return dict(form=crud())\n\n\nresponse._vars=response._caller(list_cat)\n'
p7
sS'snapshot'
p8
(dp9
S'exception'
p10
(dp11
S'__hash__'
p12
S"<method-wrapper '__hash__' of exceptions.ValueError object>"
p13
sS'__setattr__'
p14
S"<method-wrapper '__setattr__' of exceptions.ValueError object>"
p15
sS'__reduce_ex__'
p16
S'<built-in method __reduce_ex__ of exceptions.ValueError object>'
p17
sS'__getslice__'
p18
S"<method-wrapper '__getslice__' of exceptions.ValueError object>"
p19
sS'__getitem__'
p20
S"<method-wrapper '__getitem__' of exceptions.ValueError object>"
p21
sS'__setstate__'
p22
S'<built-in method __setstate__ of exceptions.ValueError object>'
p23
sS'args'
p24
S'("invalid literal for int() with base 10: \'list_cat\'",)'
p25
sS'__reduce__'
p26
S'<built-in method __reduce__ of exceptions.ValueError object>'
p27
sS'__str__'
p28
S"<method-wrapper '__str__' of exceptions.ValueError object>"
p29
sS'__format__'
p30
S'<built-in method __format__ of exceptions.ValueError object>'
p31
sS'__getattribute__'
p32
S"<method-wrapper '__getattribute__' of exceptions.ValueError object>"
p33
sS'__class__'
p34
S"<type 'exceptions.ValueError'>"
p35
sS'__unicode__'
p36
S'<built-in method __unicode__ of exceptions.ValueError object>'
p37
sS'__delattr__'
p38
S"<method-wrapper '__delattr__' of exceptions.ValueError object>"
p39
sS'__subclasshook__'
p40
S'<built-in method __subclasshook__ of type object>'
p41
sS'__repr__'
p42
S"<method-wrapper '__repr__' of exceptions.ValueError object>"
p43
sS'__dict__'
p44
S'{}'
p45
sS'__sizeof__'
p46
S'<built-in method __sizeof__ of exceptions.ValueError object>'
p47
sS'__doc__'
p48
S"'Inappropriate argument value (of correct type).'"
p49
sS'__init__'
p50
S"<method-wrapper '__init__' of exceptions.ValueError object>"
p51
sS'__new__'
p52
S'<built-in method __new__ of type object>'
p53
ssS'evalue'
p54
S"invalid literal for int() with base 10: 'list_cat'"
p55
sS'request'
p56
ccopy_reg
_reconstructor
p57
(cgluon.html
BEAUTIFY
p58
c__builtin__
object
p59
NtRp60
(dp61
S'attributes'
p62
(dp63
sS'components'
p64
(lp65
g57
(cgluon.html
TABLE
p66
g59
NtRp67
(dp68
g62
(dp69
S'level'
p70
I5
ssS'parent'
p71
Nsg64
(lp72
g57
(cgluon.html
TR
p73
g59
NtRp74
(dp75
g62
(dp76
sg71
g67
sg64
(lp77
g57
(cgluon.html
TD
p78
g59
NtRp79
(dp80
g62
(dp81
S'_style'
p82
S'font-weight:bold;vertical-align:top'
p83
ssg71
g74
sg64
(lp84
S'ajax'
p85
asbag57
(g78
g59
NtRp86
(dp87
g62
(dp88
S'_valign'
p89
S'top'
p90
ssg71
g74
sg64
(lp91
S':'
asbag57
(g78
g59
NtRp92
(dp93
g62
(dp94
sg71
g74
sg64
(lp95
g57
(g58
g59
NtRp96
(dp97
g62
(dp98
g70
I5
ssg71
g92
sg64
(lp99
S'False'
p100
asbasbasbag57
(g73
g59
NtRp101
(dp102
g62
(dp103
sg71
g67
sg64
(lp104
g57
(g78
g59
NtRp105
(dp106
g62
(dp107
g82
g83
ssg71
g101
sg64
(lp108
S'application'
p109
asbag57
(g78
g59
NtRp110
(dp111
g62
(dp112
g89
g90
ssg71
g101
sg64
(lp113
S':'
asbag57
(g78
g59
NtRp114
(dp115
g62
(dp116
sg71
g101
sg64
(lp117
g57
(g58
g59
NtRp118
(dp119
g62
(dp120
g70
I5
ssg71
g114
sg64
(lp121
S'Read_it'
p122
asbasbasbag57
(g73
g59
NtRp123
(dp124
g62
(dp125
sg71
g67
sg64
(lp126
g57
(g78
g59
NtRp127
(dp128
g62
(dp129
g82
g83
ssg71
g123
sg64
(lp130
g24
asbag57
(g78
g59
NtRp131
(dp132
g62
(dp133
g89
g90
ssg71
g123
sg64
(lp134
S':'
asbag57
(g78
g59
NtRp135
(dp136
g62
(dp137
sg71
g123
sg64
(lp138
g57
(g58
g59
NtRp139
(dp140
g62
(dp141
g70
I5
ssg71
g135
sg64
(lp142
g57
(g66
g59
NtRp143
(dp144
g62
(dp145
g70
I4
ssg71
Nsg64
(lp146
g57
(g73
g59
NtRp147
(dp148
g62
(dp149
sg71
g143
sg64
(lp150
g57
(g78
g59
NtRp151
(dp152
g62
(dp153
sg71
g147
sg64
(lp154
g57
(g58
g59
NtRp155
(dp156
g62
(dp157
g70
I4
ssg71
g151
sg64
(lp158
S'list_cat'
p159
asbasbasbag57
(g73
g59
NtRp160
(dp161
g62
(dp162
sg71
g143
sg64
(lp163
g57
(g78
g59
NtRp164
(dp165
g62
(dp166
sg71
g160
sg64
(lp167
g57
(g58
g59
NtRp168
(dp169
g62
(dp170
g70
I4
ssg71
g164
sg64
(lp171
S'list_cat'
p172
asbasbasbag57
(g73
g59
NtRp173
(dp174
g62
(dp175
sg71
g143
sg64
(lp176
g57
(g78
g59
NtRp177
(dp178
g62
(dp179
sg71
g173
sg64
(lp180
g57
(g58
g59
NtRp181
(dp182
g62
(dp183
g70
I4
ssg71
g177
sg64
(lp184
S'list_cat'
p185
asbasbasbag57
(g73
g59
NtRp186
(dp187
g62
(dp188
sg71
g143
sg64
(lp189
g57
(g78
g59
NtRp190
(dp191
g62
(dp192
sg71
g186
sg64
(lp193
g57
(g58
g59
NtRp194
(dp195
g62
(dp196
g70
I4
ssg71
g190
sg64
(lp197
S'list_cat'
p198
asbasbasbag57
(g73
g59
NtRp199
(dp200
g62
(dp201
sg71
g143
sg64
(lp202
g57
(g78
g59
NtRp203
(dp204
g62
(dp205
sg71
g199
sg64
(lp206
g57
(g58
g59
NtRp207
(dp208
g62
(dp209
g70
I4
ssg71
g203
sg64
(lp210
S'6'
asbasbasbasbasbasbasbag57
(g73
g59
NtRp211
(dp212
g62
(dp213
sg71
g67
sg64
(lp214
g57
(g78
g59
NtRp215
(dp216
g62
(dp217
g82
g83
ssg71
g211
sg64
(lp218
S'body'
p219
asbag57
(g78
g59
NtRp220
(dp221
g62
(dp222
g89
g90
ssg71
g211
sg64
(lp223
S':'
asbag57
(g78
g59
NtRp224
(dp225
g62
(dp226
sg71
g211
sg64
(lp227
g57
(g58
g59
NtRp228
(dp229
g62
(dp230
g70
I5
ssg71
g224
sg64
(lp231
S'<cStringIO.StringO object at 0x7f040c4042d0>'
p232
asbasbasbag57
(g73
g59
NtRp233
(dp234
g62
(dp235
sg71
g67
sg64
(lp236
g57
(g78
g59
NtRp237
(dp238
g62
(dp239
g82
g83
ssg71
g233
sg64
(lp240
S'client'
p241
asbag57
(g78
g59
NtRp242
(dp243
g62
(dp244
g89
g90
ssg71
g233
sg64
(lp245
S':'
asbag57
(g78
g59
NtRp246
(dp247
g62
(dp248
sg71
g233
sg64
(lp249
g57
(g58
g59
NtRp250
(dp251
g62
(dp252
g70
I5
ssg71
g246
sg64
(lp253
S'127.0.0.1'
p254
asbasbasbag57
(g73
g59
NtRp255
(dp256
g62
(dp257
sg71
g67
sg64
(lp258
g57
(g78
g59
NtRp259
(dp260
g62
(dp261
g82
g83
ssg71
g255
sg64
(lp262
S'controller'
p263
asbag57
(g78
g59
NtRp264
(dp265
g62
(dp266
g89
g90
ssg71
g255
sg64
(lp267
S':'
asbag57
(g78
g59
NtRp268
(dp269
g62
(dp270
sg71
g255
sg64
(lp271
g57
(g58
g59
NtRp272
(dp273
g62
(dp274
g70
I5
ssg71
g268
sg64
(lp275
S'default'
p276
asbasbasbag57
(g73
g59
NtRp277
(dp278
g62
(dp279
sg71
g67
sg64
(lp280
g57
(g78
g59
NtRp281
(dp282
g62
(dp283
g82
g83
ssg71
g277
sg64
(lp284
S'cookies'
p285
asbag57
(g78
g59
NtRp286
(dp287
g62
(dp288
g89
g90
ssg71
g277
sg64
(lp289
S':'
asbag57
(g78
g59
NtRp290
(dp291
g62
(dp292
sg71
g277
sg64
(lp293
g57
(g58
g59
NtRp294
(dp295
g62
(dp296
g70
I5
ssg71
g290
sg64
(lp297
g57
(g66
g59
NtRp298
(dp299
g62
(dp300
g70
I4
ssg71
Nsg64
(lp301
g57
(g73
g59
NtRp302
(dp303
g62
(dp304
sg71
g298
sg64
(lp305
g57
(g78
g59
NtRp306
(dp307
g62
(dp308
g82
g83
ssg71
g302
sg64
(lp309
S'session_id_admin'
p310
asbag57
(g78
g59
NtRp311
(dp312
g62
(dp313
g89
g90
ssg71
g302
sg64
(lp314
S':'
asbag57
(g78
g59
NtRp315
(dp316
g62
(dp317
sg71
g302
sg64
(lp318
g57
(g58
g59
NtRp319
(dp320
g62
(dp321
g70
I4
ssg71
g315
sg64
(lp322
g57
(g66
g59
NtRp323
(dp324
g62
(dp325
g70
I3
ssg71
Nsg64
(lp326
g57
(g73
g59
NtRp327
(dp328
g62
(dp329
sg71
g323
sg64
(lp330
g57
(g78
g59
NtRp331
(dp332
g62
(dp333
g82
g83
ssg71
g327
sg64
(lp334
S'comment'
p335
asbag57
(g78
g59
NtRp336
(dp337
g62
(dp338
g89
g90
ssg71
g327
sg64
(lp339
S':'
asbag57
(g78
g59
NtRp340
(dp341
g62
(dp342
sg71
g327
sg64
(lp343
g57
(g58
g59
NtRp344
(dp345
g62
(dp346
g70
I3
ssg71
g340
sg64
(lp347
S''
asbasbasbag57
(g73
g59
NtRp348
(dp349
g62
(dp350
sg71
g323
sg64
(lp351
g57
(g78
g59
NtRp352
(dp353
g62
(dp354
g82
g83
ssg71
g348
sg64
(lp355
S'domain'
p356
asbag57
(g78
g59
NtRp357
(dp358
g62
(dp359
g89
g90
ssg71
g348
sg64
(lp360
S':'
asbag57
(g78
g59
NtRp361
(dp362
g62
(dp363
sg71
g348
sg64
(lp364
g57
(g58
g59
NtRp365
(dp366
g62
(dp367
g70
I3
ssg71
g361
sg64
(lp368
S''
asbasbasbag57
(g73
g59
NtRp369
(dp370
g62
(dp371
sg71
g323
sg64
(lp372
g57
(g78
g59
NtRp373
(dp374
g62
(dp375
g82
g83
ssg71
g369
sg64
(lp376
S'expires'
p377
asbag57
(g78
g59
NtRp378
(dp379
g62
(dp380
g89
g90
ssg71
g369
sg64
(lp381
S':'
asbag57
(g78
g59
NtRp382
(dp383
g62
(dp384
sg71
g369
sg64
(lp385
g57
(g58
g59
NtRp386
(dp387
g62
(dp388
g70
I3
ssg71
g382
sg64
(lp389
S''
asbasbasbag57
(g73
g59
NtRp390
(dp391
g62
(dp392
sg71
g323
sg64
(lp393
g57
(g78
g59
NtRp394
(dp395
g62
(dp396
g82
g83
ssg71
g390
sg64
(lp397
S'httponly'
p398
asbag57
(g78
g59
NtRp399
(dp400
g62
(dp401
g89
g90
ssg71
g390
sg64
(lp402
S':'
asbag57
(g78
g59
NtRp403
(dp404
g62
(dp405
sg71
g390
sg64
(lp406
g57
(g58
g59
NtRp407
(dp408
g62
(dp409
g70
I3
ssg71
g403
sg64
(lp410
S''
asbasbasbag57
(g73
g59
NtRp411
(dp412
g62
(dp413
sg71
g323
sg64
(lp414
g57
(g78
g59
NtRp415
(dp416
g62
(dp417
g82
g83
ssg71
g411
sg64
(lp418
S'max-age'
p419
asbag57
(g78
g59
NtRp420
(dp421
g62
(dp422
g89
g90
ssg71
g411
sg64
(lp423
S':'
asbag57
(g78
g59
NtRp424
(dp425
g62
(dp426
sg71
g411
sg64
(lp427
g57
(g58
g59
NtRp428
(dp429
g62
(dp430
g70
I3
ssg71
g424
sg64
(lp431
S''
asbasbasbag57
(g73
g59
NtRp432
(dp433
g62
(dp434
sg71
g323
sg64
(lp435
g57
(g78
g59
NtRp436
(dp437
g62
(dp438
g82
g83
ssg71
g432
sg64
(lp439
S'path'
p440
asbag57
(g78
g59
NtRp441
(dp442
g62
(dp443
g89
g90
ssg71
g432
sg64
(lp444
S':'
asbag57
(g78
g59
NtRp445
(dp446
g62
(dp447
sg71
g432
sg64
(lp448
g57
(g58
g59
NtRp449
(dp450
g62
(dp451
g70
I3
ssg71
g445
sg64
(lp452
S''
asbasbasbag57
(g73
g59
NtRp453
(dp454
g62
(dp455
sg71
g323
sg64
(lp456
g57
(g78
g59
NtRp457
(dp458
g62
(dp459
g82
g83
ssg71
g453
sg64
(lp460
S'secure'
p461
asbag57
(g78
g59
NtRp462
(dp463
g62
(dp464
g89
g90
ssg71
g453
sg64
(lp465
S':'
asbag57
(g78
g59
NtRp466
(dp467
g62
(dp468
sg71
g453
sg64
(lp469
g57
(g58
g59
NtRp470
(dp471
g62
(dp472
g70
I3
ssg71
g466
sg64
(lp473
S''
asbasbasbag57
(g73
g59
NtRp474
(dp475
g62
(dp476
sg71
g323
sg64
(lp477
g57
(g78
g59
NtRp478
(dp479
g62
(dp480
g82
g83
ssg71
g474
sg64
(lp481
S'version'
p482
asbag57
(g78
g59
NtRp483
(dp484
g62
(dp485
g89
g90
ssg71
g474
sg64
(lp486
S':'
asbag57
(g78
g59
NtRp487
(dp488
g62
(dp489
sg71
g474
sg64
(lp490
g57
(g58
g59
NtRp491
(dp492
g62
(dp493
g70
I3
ssg71
g487
sg64
(lp494
S''
asbasbasbasbasbasbasbag57
(g73
g59
NtRp495
(dp496
g62
(dp497
sg71
g298
sg64
(lp498
g57
(g78
g59
NtRp499
(dp500
g62
(dp501
g82
g83
ssg71
g495
sg64
(lp502
S'session_id_read_it'
p503
asbag57
(g78
g59
NtRp504
(dp505
g62
(dp506
g89
g90
ssg71
g495
sg64
(lp507
S':'
asbag57
(g78
g59
NtRp508
(dp509
g62
(dp510
sg71
g495
sg64
(lp511
g57
(g58
g59
NtRp512
(dp513
g62
(dp514
g70
I4
ssg71
g508
sg64
(lp515
g57
(g66
g59
NtRp516
(dp517
g62
(dp518
g70
I3
ssg71
Nsg64
(lp519
g57
(g73
g59
NtRp520
(dp521
g62
(dp522
sg71
g516
sg64
(lp523
g57
(g78
g59
NtRp524
(dp525
g62
(dp526
g82
g83
ssg71
g520
sg64
(lp527
g335
asbag57
(g78
g59
NtRp528
(dp529
g62
(dp530
g89
g90
ssg71
g520
sg64
(lp531
S':'
asbag57
(g78
g59
NtRp532
(dp533
g62
(dp534
sg71
g520
sg64
(lp535
g57
(g58
g59
NtRp536
(dp537
g62
(dp538
g70
I3
ssg71
g532
sg64
(lp539
S''
asbasbasbag57
(g73
g59
NtRp540
(dp541
g62
(dp542
sg71
g516
sg64
(lp543
g57
(g78
g59
NtRp544
(dp545
g62
(dp546
g82
g83
ssg71
g540
sg64
(lp547
g356
asbag57
(g78
g59
NtRp548
(dp549
g62
(dp550
g89
g90
ssg71
g540
sg64
(lp551
S':'
asbag57
(g78
g59
NtRp552
(dp553
g62
(dp554
sg71
g540
sg64
(lp555
g57
(g58
g59
NtRp556
(dp557
g62
(dp558
g70
I3
ssg71
g552
sg64
(lp559
S''
asbasbasbag57
(g73
g59
NtRp560
(dp561
g62
(dp562
sg71
g516
sg64
(lp563
g57
(g78
g59
NtRp564
(dp565
g62
(dp566
g82
g83
ssg71
g560
sg64
(lp567
g377
asbag57
(g78
g59
NtRp568
(dp569
g62
(dp570
g89
g90
ssg71
g560
sg64
(lp571
S':'
asbag57
(g78
g59
NtRp572
(dp573
g62
(dp574
sg71
g560
sg64
(lp575
g57
(g58
g59
NtRp576
(dp577
g62
(dp578
g70
I3
ssg71
g572
sg64
(lp579
S''
asbasbasbag57
(g73
g59
NtRp580
(dp581
g62
(dp582
sg71
g516
sg64
(lp583
g57
(g78
g59
NtRp584
(dp585
g62
(dp586
g82
g83
ssg71
g580
sg64
(lp587
g398
asbag57
(g78
g59
NtRp588
(dp589
g62
(dp590
g89
g90
ssg71
g580
sg64
(lp591
S':'
asbag57
(g78
g59
NtRp592
(dp593
g62
(dp594
sg71
g580
sg64
(lp595
g57
(g58
g59
NtRp596
(dp597
g62
(dp598
g70
I3
ssg71
g592
sg64
(lp599
S''
asbasbasbag57
(g73
g59
NtRp600
(dp601
g62
(dp602
sg71
g516
sg64
(lp603
g57
(g78
g59
NtRp604
(dp605
g62
(dp606
g82
g83
ssg71
g600
sg64
(lp607
g419
asbag57
(g78
g59
NtRp608
(dp609
g62
(dp610
g89
g90
ssg71
g600
sg64
(lp611
S':'
asbag57
(g78
g59
NtRp612
(dp613
g62
(dp614
sg71
g600
sg64
(lp615
g57
(g58
g59
NtRp616
(dp617
g62
(dp618
g70
I3
ssg71
g612
sg64
(lp619
S''
asbasbasbag57
(g73
g59
NtRp620
(dp621
g62
(dp622
sg71
g516
sg64
(lp623
g57
(g78
g59
NtRp624
(dp625
g62
(dp626
g82
g83
ssg71
g620
sg64
(lp627
g440
asbag57
(g78
g59
NtRp628
(dp629
g62
(dp630
g89
g90
ssg71
g620
sg64
(lp631
S':'
asbag57
(g78
g59
NtRp632
(dp633
g62
(dp634
sg71
g620
sg64
(lp635
g57
(g58
g59
NtRp636
(dp637
g62
(dp638
g70
I3
ssg71
g632
sg64
(lp639
S''
asbasbasbag57
(g73
g59
NtRp640
(dp641
g62
(dp642
sg71
g516
sg64
(lp643
g57
(g78
g59
NtRp644
(dp645
g62
(dp646
g82
g83
ssg71
g640
sg64
(lp647
g461
asbag57
(g78
g59
NtRp648
(dp649
g62
(dp650
g89
g90
ssg71
g640
sg64
(lp651
S':'
asbag57
(g78
g59
NtRp652
(dp653
g62
(dp654
sg71
g640
sg64
(lp655
g57
(g58
g59
NtRp656
(dp657
g62
(dp658
g70
I3
ssg71
g652
sg64
(lp659
S''
asbasbasbag57
(g73
g59
NtRp660
(dp661
g62
(dp662
sg71
g516
sg64
(lp663
g57
(g78
g59
NtRp664
(dp665
g62
(dp666
g82
g83
ssg71
g660
sg64
(lp667
g482
asbag57
(g78
g59
NtRp668
(dp669
g62
(dp670
g89
g90
ssg71
g660
sg64
(lp671
S':'
asbag57
(g78
g59
NtRp672
(dp673
g62
(dp674
sg71
g660
sg64
(lp675
g57
(g58
g59
NtRp676
(dp677
g62
(dp678
g70
I3
ssg71
g672
sg64
(lp679
S''
asbasbasbasbasbasbasbag57
(g73
g59
NtRp680
(dp681
g62
(dp682
sg71
g298
sg64
(lp683
g57
(g78
g59
NtRp684
(dp685
g62
(dp686
g82
g83
ssg71
g680
sg64
(lp687
S'session_id_welcome'
p688
asbag57
(g78
g59
NtRp689
(dp690
g62
(dp691
g89
g90
ssg71
g680
sg64
(lp692
S':'
asbag57
(g78
g59
NtRp693
(dp694
g62
(dp695
sg71
g680
sg64
(lp696
g57
(g58
g59
NtRp697
(dp698
g62
(dp699
g70
I4
ssg71
g693
sg64
(lp700
g57
(g66
g59
NtRp701
(dp702
g62
(dp703
g70
I3
ssg71
Nsg64
(lp704
g57
(g73
g59
NtRp705
(dp706
g62
(dp707
sg71
g701
sg64
(lp708
g57
(g78
g59
NtRp709
(dp710
g62
(dp711
g82
g83
ssg71
g705
sg64
(lp712
g335
asbag57
(g78
g59
NtRp713
(dp714
g62
(dp715
g89
g90
ssg71
g705
sg64
(lp716
S':'
asbag57
(g78
g59
NtRp717
(dp718
g62
(dp719
sg71
g705
sg64
(lp720
g57
(g58
g59
NtRp721
(dp722
g62
(dp723
g70
I3
ssg71
g717
sg64
(lp724
S''
asbasbasbag57
(g73
g59
NtRp725
(dp726
g62
(dp727
sg71
g701
sg64
(lp728
g57
(g78
g59
NtRp729
(dp730
g62
(dp731
g82
g83
ssg71
g725
sg64
(lp732
g356
asbag57
(g78
g59
NtRp733
(dp734
g62
(dp735
g89
g90
ssg71
g725
sg64
(lp736
S':'
asbag57
(g78
g59
NtRp737
(dp738
g62
(dp739
sg71
g725
sg64
(lp740
g57
(g58
g59
NtRp741
(dp742
g62
(dp743
g70
I3
ssg71
g737
sg64
(lp744
S''
asbasbasbag57
(g73
g59
NtRp745
(dp746
g62
(dp747
sg71
g701
sg64
(lp748
g57
(g78
g59
NtRp749
(dp750
g62
(dp751
g82
g83
ssg71
g745
sg64
(lp752
g377
asbag57
(g78
g59
NtRp753
(dp754
g62
(dp755
g89
g90
ssg71
g745
sg64
(lp756
S':'
asbag57
(g78
g59
NtRp757
(dp758
g62
(dp759
sg71
g745
sg64
(lp760
g57
(g58
g59
NtRp761
(dp762
g62
(dp763
g70
I3
ssg71
g757
sg64
(lp764
S''
asbasbasbag57
(g73
g59
NtRp765
(dp766
g62
(dp767
sg71
g701
sg64
(lp768
g57
(g78
g59
NtRp769
(dp770
g62
(dp771
g82
g83
ssg71
g765
sg64
(lp772
g398
asbag57
(g78
g59
NtRp773
(dp774
g62
(dp775
g89
g90
ssg71
g765
sg64
(lp776
S':'
asbag57
(g78
g59
NtRp777
(dp778
g62
(dp779
sg71
g765
sg64
(lp780
g57
(g58
g59
NtRp781
(dp782
g62
(dp783
g70
I3
ssg71
g777
sg64
(lp784
S''
asbasbasbag57
(g73
g59
NtRp785
(dp786
g62
(dp787
sg71
g701
sg64
(lp788
g57
(g78
g59
NtRp789
(dp790
g62
(dp791
g82
g83
ssg71
g785
sg64
(lp792
g419
asbag57
(g78
g59
NtRp793
(dp794
g62
(dp795
g89
g90
ssg71
g785
sg64
(lp796
S':'
asbag57
(g78
g59
NtRp797
(dp798
g62
(dp799
sg71
g785
sg64
(lp800
g57
(g58
g59
NtRp801
(dp802
g62
(dp803
g70
I3
ssg71
g797
sg64
(lp804
S''
asbasbasbag57
(g73
g59
NtRp805
(dp806
g62
(dp807
sg71
g701
sg64
(lp808
g57
(g78
g59
NtRp809
(dp810
g62
(dp811
g82
g83
ssg71
g805
sg64
(lp812
g440
asbag57
(g78
g59
NtRp813
(dp814
g62
(dp815
g89
g90
ssg71
g805
sg64
(lp816
S':'
asbag57
(g78
g59
NtRp817
(dp818
g62
(dp819
sg71
g805
sg64
(lp820
g57
(g58
g59
NtRp821
(dp822
g62
(dp823
g70
I3
ssg71
g817
sg64
(lp824
S''
asbasbasbag57
(g73
g59
NtRp825
(dp826
g62
(dp827
sg71
g701
sg64
(lp828
g57
(g78
g59
NtRp829
(dp830
g62
(dp831
g82
g83
ssg71
g825
sg64
(lp832
g461
asbag57
(g78
g59
NtRp833
(dp834
g62
(dp835
g89
g90
ssg71
g825
sg64
(lp836
S':'
asbag57
(g78
g59
NtRp837
(dp838
g62
(dp839
sg71
g825
sg64
(lp840
g57
(g58
g59
NtRp841
(dp842
g62
(dp843
g70
I3
ssg71
g837
sg64
(lp844
S''
asbasbasbag57
(g73
g59
NtRp845
(dp846
g62
(dp847
sg71
g701
sg64
(lp848
g57
(g78
g59
NtRp849
(dp850
g62
(dp851
g82
g83
ssg71
g845
sg64
(lp852
g482
asbag57
(g78
g59
NtRp853
(dp854
g62
(dp855
g89
g90
ssg71
g845
sg64
(lp856
S':'
asbag57
(g78
g59
NtRp857
(dp858
g62
(dp859
sg71
g845
sg64
(lp860
g57
(g58
g59
NtRp861
(dp862
g62
(dp863
g70
I3
ssg71
g857
sg64
(lp864
S''
asbasbasbasbasbasbasbag57
(g73
g59
NtRp865
(dp866
g62
(dp867
sg71
g298
sg64
(lp868
g57
(g78
g59
NtRp869
(dp870
g62
(dp871
g82
g83
ssg71
g865
sg64
(lp872
S'session_id_xseed'
p873
asbag57
(g78
g59
NtRp874
(dp875
g62
(dp876
g89
g90
ssg71
g865
sg64
(lp877
S':'
asbag57
(g78
g59
NtRp878
(dp879
g62
(dp880
sg71
g865
sg64
(lp881
g57
(g58
g59
NtRp882
(dp883
g62
(dp884
g70
I4
ssg71
g878
sg64
(lp885
g57
(g66
g59
NtRp886
(dp887
g62
(dp888
g70
I3
ssg71
Nsg64
(lp889
g57
(g73
g59
NtRp890
(dp891
g62
(dp892
sg71
g886
sg64
(lp893
g57
(g78
g59
NtRp894
(dp895
g62
(dp896
g82
g83
ssg71
g890
sg64
(lp897
g335
asbag57
(g78
g59
NtRp898
(dp899
g62
(dp900
g89
g90
ssg71
g890
sg64
(lp901
S':'
asbag57
(g78
g59
NtRp902
(dp903
g62
(dp904
sg71
g890
sg64
(lp905
g57
(g58
g59
NtRp906
(dp907
g62
(dp908
g70
I3
ssg71
g902
sg64
(lp909
S''
asbasbasbag57
(g73
g59
NtRp910
(dp911
g62
(dp912
sg71
g886
sg64
(lp913
g57
(g78
g59
NtRp914
(dp915
g62
(dp916
g82
g83
ssg71
g910
sg64
(lp917
g356
asbag57
(g78
g59
NtRp918
(dp919
g62
(dp920
g89
g90
ssg71
g910
sg64
(lp921
S':'
asbag57
(g78
g59
NtRp922
(dp923
g62
(dp924
sg71
g910
sg64
(lp925
g57
(g58
g59
NtRp926
(dp927
g62
(dp928
g70
I3
ssg71
g922
sg64
(lp929
S''
asbasbasbag57
(g73
g59
NtRp930
(dp931
g62
(dp932
sg71
g886
sg64
(lp933
g57
(g78
g59
NtRp934
(dp935
g62
(dp936
g82
g83
ssg71
g930
sg64
(lp937
g377
asbag57
(g78
g59
NtRp938
(dp939
g62
(dp940
g89
g90
ssg71
g930
sg64
(lp941
S':'
asbag57
(g78
g59
NtRp942
(dp943
g62
(dp944
sg71
g930
sg64
(lp945
g57
(g58
g59
NtRp946
(dp947
g62
(dp948
g70
I3
ssg71
g942
sg64
(lp949
S''
asbasbasbag57
(g73
g59
NtRp950
(dp951
g62
(dp952
sg71
g886
sg64
(lp953
g57
(g78
g59
NtRp954
(dp955
g62
(dp956
g82
g83
ssg71
g950
sg64
(lp957
g398
asbag57
(g78
g59
NtRp958
(dp959
g62
(dp960
g89
g90
ssg71
g950
sg64
(lp961
S':'
asbag57
(g78
g59
NtRp962
(dp963
g62
(dp964
sg71
g950
sg64
(lp965
g57
(g58
g59
NtRp966
(dp967
g62
(dp968
g70
I3
ssg71
g962
sg64
(lp969
S''
asbasbasbag57
(g73
g59
NtRp970
(dp971
g62
(dp972
sg71
g886
sg64
(lp973
g57
(g78
g59
NtRp974
(dp975
g62
(dp976
g82
g83
ssg71
g970
sg64
(lp977
g419
asbag57
(g78
g59
NtRp978
(dp979
g62
(dp980
g89
g90
ssg71
g970
sg64
(lp981
S':'
asbag57
(g78
g59
NtRp982
(dp983
g62
(dp984
sg71
g970
sg64
(lp985
g57
(g58
g59
NtRp986
(dp987
g62
(dp988
g70
I3
ssg71
g982
sg64
(lp989
S''
asbasbasbag57
(g73
g59
NtRp990
(dp991
g62
(dp992
sg71
g886
sg64
(lp993
g57
(g78
g59
NtRp994
(dp995
g62
(dp996
g82
g83
ssg71
g990
sg64
(lp997
g440
asbag57
(g78
g59
NtRp998
(dp999
g62
(dp1000
g89
g90
ssg71
g990
sg64
(lp1001
S':'
asbag57
(g78
g59
NtRp1002
(dp1003
g62
(dp1004
sg71
g990
sg64
(lp1005
g57
(g58
g59
NtRp1006
(dp1007
g62
(dp1008
g70
I3
ssg71
g1002
sg64
(lp1009
S''
asbasbasbag57
(g73
g59
NtRp1010
(dp1011
g62
(dp1012
sg71
g886
sg64
(lp1013
g57
(g78
g59
NtRp1014
(dp1015
g62
(dp1016
g82
g83
ssg71
g1010
sg64
(lp1017
g461
asbag57
(g78
g59
NtRp1018
(dp1019
g62
(dp1020
g89
g90
ssg71
g1010
sg64
(lp1021
S':'
asbag57
(g78
g59
NtRp1022
(dp1023
g62
(dp1024
sg71
g1010
sg64
(lp1025
g57
(g58
g59
NtRp1026
(dp1027
g62
(dp1028
g70
I3
ssg71
g1022
sg64
(lp1029
S''
asbasbasbag57
(g73
g59
NtRp1030
(dp1031
g62
(dp1032
sg71
g886
sg64
(lp1033
g57
(g78
g59
NtRp1034
(dp1035
g62
(dp1036
g82
g83
ssg71
g1030
sg64
(lp1037
g482
asbag57
(g78
g59
NtRp1038
(dp1039
g62
(dp1040
g89
g90
ssg71
g1030
sg64
(lp1041
S':'
asbag57
(g78
g59
NtRp1042
(dp1043
g62
(dp1044
sg71
g1030
sg64
(lp1045
g57
(g58
g59
NtRp1046
(dp1047
g62
(dp1048
g70
I3
ssg71
g1042
sg64
(lp1049
S''
asbasbasbasbasbasbasbasbasbasbasbag57
(g73
g59
NtRp1050
(dp1051
g62
(dp1052
sg71
g67
sg64
(lp1053
g57
(g78
g59
NtRp1054
(dp1055
g62
(dp1056
g82
g83
ssg71
g1050
sg64
(lp1057
S'env'
p1058
asbag57
(g78
g59
NtRp1059
(dp1060
g62
(dp1061
g89
g90
ssg71
g1050
sg64
(lp1062
S':'
asbag57
(g78
g59
NtRp1063
(dp1064
g62
(dp1065
sg71
g1050
sg64
(lp1066
g57
(g58
g59
NtRp1067
(dp1068
g62
(dp1069
g70
I5
ssg71
g1063
sg64
(lp1070
g57
(g66
g59
NtRp1071
(dp1072
g62
(dp1073
g70
I4
ssg71
Nsg64
(lp1074
g57
(g73
g59
NtRp1075
(dp1076
g62
(dp1077
sg71
g1071
sg64
(lp1078
g57
(g78
g59
NtRp1079
(dp1080
g62
(dp1081
g82
g83
ssg71
g1075
sg64
(lp1082
S'app_folders'
p1083
asbag57
(g78
g59
NtRp1084
(dp1085
g62
(dp1086
g89
g90
ssg71
g1075
sg64
(lp1087
S':'
asbag57
(g78
g59
NtRp1088
(dp1089
g62
(dp1090
sg71
g1075
sg64
(lp1091
g57
(g58
g59
NtRp1092
(dp1093
g62
(dp1094
g70
I4
ssg71
g1088
sg64
(lp1095
S"set(['/home/ds-iiit/web2py/applications/Read_it/', '/home/ds-iiit/web2py/applications/welcome/', '/home/ds-iiit/web2py/applications/admin/', '/home/ds-iiit/web2py/applications/XSeed/'])"
p1096
asbasbasbag57
(g73
g59
NtRp1097
(dp1098
g62
(dp1099
sg71
g1071
sg64
(lp1100
g57
(g78
g59
NtRp1101
(dp1102
g62
(dp1103
g82
g83
ssg71
g1097
sg64
(lp1104
S'applications_parent'
p1105
asbag57
(g78
g59
NtRp1106
(dp1107
g62
(dp1108
g89
g90
ssg71
g1097
sg64
(lp1109
S':'
asbag57
(g78
g59
NtRp1110
(dp1111
g62
(dp1112
sg71
g1097
sg64
(lp1113
g57
(g58
g59
NtRp1114
(dp1115
g62
(dp1116
g70
I4
ssg71
g1110
sg64
(lp1117
S'/home/ds-iiit/web2py'
p1118
asbasbasbag57
(g73
g59
NtRp1119
(dp1120
g62
(dp1121
sg71
g1071
sg64
(lp1122
g57
(g78
g59
NtRp1123
(dp1124
g62
(dp1125
g82
g83
ssg71
g1119
sg64
(lp1126
S'cmd_args'
p1127
asbag57
(g78
g59
NtRp1128
(dp1129
g62
(dp1130
g89
g90
ssg71
g1119
sg64
(lp1131
S':'
asbag57
(g78
g59
NtRp1132
(dp1133
g62
(dp1134
sg71
g1119
sg64
(lp1135
g57
(g58
g59
NtRp1136
(dp1137
g62
(dp1138
g70
I4
ssg71
g1132
sg64
(lp1139
g57
(g66
g59
NtRp1140
(dp1141
g62
(dp1142
g70
I3
ssg71
Nsg64
(lp1143
sbasbasbasbag57
(g73
g59
NtRp1144
(dp1145
g62
(dp1146
sg71
g1071
sg64
(lp1147
g57
(g78
g59
NtRp1148
(dp1149
g62
(dp1150
g82
g83
ssg71
g1144
sg64
(lp1151
S'cmd_options'
p1152
asbag57
(g78
g59
NtRp1153
(dp1154
g62
(dp1155
g89
g90
ssg71
g1144
sg64
(lp1156
S':'
asbag57
(g78
g59
NtRp1157
(dp1158
g62
(dp1159
sg71
g1144
sg64
(lp1160
g57
(g58
g59
NtRp1161
(dp1162
g62
(dp1163
g70
I4
ssg71
g1157
sg64
(lp1164
S"<Values at 0x2259f80: {'verbose': False, 'ip': '127.0.0.1', 'shutdown_timeout': 5, 'taskbar': False, 'port': 8000, 'maxthreads': None, 'softcron': False, 'server_name': 'DS-IIIT', 'bpython': False, 'nogui': False, 'nocron': False, 'extcron': False, 'debuglevel': 30, 'test': None, 'folder': '/home/ds-iiit/web2py', 'config': '', 'import_models': False, 'winservice': '', 'shell': None, 'run': '', 'log_filename': 'httpserver.log', 'args': [''], 'socket_timeout': 1, 'profiler_filename': None, 'ssl_private_key': '', 'password': '<ask>', 'request_queue_size': 5, 'ssl_certificate': '', 'cronjob': False, 'plain': False, 'quiet': False, 'interfaces': None, 'minthreads': None, 'timeout': 10, 'numthreads': None, 'nobanner': False, 'pid_filename': 'httpserver.pid'}>"
p1165
asbasbasbag57
(g73
g59
NtRp1166
(dp1167
g62
(dp1168
sg71
g1071
sg64
(lp1169
g57
(g78
g59
NtRp1170
(dp1171
g62
(dp1172
g82
g83
ssg71
g1166
sg64
(lp1173
S'db_sessions'
p1174
asbag57
(g78
g59
NtRp1175
(dp1176
g62
(dp1177
g89
g90
ssg71
g1166
sg64
(lp1178
S':'
asbag57
(g78
g59
NtRp1179
(dp1180
g62
(dp1181
sg71
g1166
sg64
(lp1182
g57
(g58
g59
NtRp1183
(dp1184
g62
(dp1185
g70
I4
ssg71
g1179
sg64
(lp1186
S'set([])'
p1187
asbasbasbag57
(g73
g59
NtRp1188
(dp1189
g62
(dp1190
sg71
g1071
sg64
(lp1191
g57
(g78
g59
NtRp1192
(dp1193
g62
(dp1194
g82
g83
ssg71
g1188
sg64
(lp1195
S'debugging'
p1196
asbag57
(g78
g59
NtRp1197
(dp1198
g62
(dp1199
g89
g90
ssg71
g1188
sg64
(lp1200
S':'
asbag57
(g78
g59
NtRp1201
(dp1202
g62
(dp1203
sg71
g1188
sg64
(lp1204
g57
(g58
g59
NtRp1205
(dp1206
g62
(dp1207
g70
I4
ssg71
g1201
sg64
(lp1208
g100
asbasbasbag57
(g73
g59
NtRp1209
(dp1210
g62
(dp1211
sg71
g1071
sg64
(lp1212
g57
(g78
g59
NtRp1213
(dp1214
g62
(dp1215
g82
g83
ssg71
g1209
sg64
(lp1216
S'gluon_parent'
p1217
asbag57
(g78
g59
NtRp1218
(dp1219
g62
(dp1220
g89
g90
ssg71
g1209
sg64
(lp1221
S':'
asbag57
(g78
g59
NtRp1222
(dp1223
g62
(dp1224
sg71
g1209
sg64
(lp1225
g57
(g58
g59
NtRp1226
(dp1227
g62
(dp1228
g70
I4
ssg71
g1222
sg64
(lp1229
S'/usr/share/web2py'
p1230
asbasbasbag57
(g73
g59
NtRp1231
(dp1232
g62
(dp1233
sg71
g1071
sg64
(lp1234
g57
(g78
g59
NtRp1235
(dp1236
g62
(dp1237
g82
g83
ssg71
g1231
sg64
(lp1238
S'http_accept'
p1239
asbag57
(g78
g59
NtRp1240
(dp1241
g62
(dp1242
g89
g90
ssg71
g1231
sg64
(lp1243
S':'
asbag57
(g78
g59
NtRp1244
(dp1245
g62
(dp1246
sg71
g1231
sg64
(lp1247
g57
(g58
g59
NtRp1248
(dp1249
g62
(dp1250
g70
I4
ssg71
g1244
sg64
(lp1251
S'text/html,application/xhtml+xml,application/xml;q=0.9,*/*;q=0.8'
p1252
asbasbasbag57
(g73
g59
NtRp1253
(dp1254
g62
(dp1255
sg71
g1071
sg64
(lp1256
g57
(g78
g59
NtRp1257
(dp1258
g62
(dp1259
g82
g83
ssg71
g1253
sg64
(lp1260
S'http_accept_encoding'
p1261
asbag57
(g78
g59
NtRp1262
(dp1263
g62
(dp1264
g89
g90
ssg71
g1253
sg64
(lp1265
S':'
asbag57
(g78
g59
NtRp1266
(dp1267
g62
(dp1268
sg71
g1253
sg64
(lp1269
g57
(g58
g59
NtRp1270
(dp1271
g62
(dp1272
g70
I4
ssg71
g1266
sg64
(lp1273
S'gzip,deflate,sdch'
p1274
asbasbasbag57
(g73
g59
NtRp1275
(dp1276
g62
(dp1277
sg71
g1071
sg64
(lp1278
g57
(g78
g59
NtRp1279
(dp1280
g62
(dp1281
g82
g83
ssg71
g1275
sg64
(lp1282
S'http_accept_language'
p1283
asbag57
(g78
g59
NtRp1284
(dp1285
g62
(dp1286
g89
g90
ssg71
g1275
sg64
(lp1287
S':'
asbag57
(g78
g59
NtRp1288
(dp1289
g62
(dp1290
sg71
g1275
sg64
(lp1291
g57
(g58
g59
NtRp1292
(dp1293
g62
(dp1294
g70
I4
ssg71
g1288
sg64
(lp1295
S'en-US,en;q=0.8'
p1296
asbasbasbag57
(g73
g59
NtRp1297
(dp1298
g62
(dp1299
sg71
g1071
sg64
(lp1300
g57
(g78
g59
NtRp1301
(dp1302
g62
(dp1303
g82
g83
ssg71
g1297
sg64
(lp1304
S'http_connection'
p1305
asbag57
(g78
g59
NtRp1306
(dp1307
g62
(dp1308
g89
g90
ssg71
g1297
sg64
(lp1309
S':'
asbag57
(g78
g59
NtRp1310
(dp1311
g62
(dp1312
sg71
g1297
sg64
(lp1313
g57
(g58
g59
NtRp1314
(dp1315
g62
(dp1316
g70
I4
ssg71
g1310
sg64
(lp1317
S'keep-alive'
p1318
asbasbasbag57
(g73
g59
NtRp1319
(dp1320
g62
(dp1321
sg71
g1071
sg64
(lp1322
g57
(g78
g59
NtRp1323
(dp1324
g62
(dp1325
g82
g83
ssg71
g1319
sg64
(lp1326
S'http_cookie'
p1327
asbag57
(g78
g59
NtRp1328
(dp1329
g62
(dp1330
g89
g90
ssg71
g1319
sg64
(lp1331
S':'
asbag57
(g78
g59
NtRp1332
(dp1333
g62
(dp1334
sg71
g1319
sg64
(lp1335
g57
(g58
g59
NtRp1336
(dp1337
g62
(dp1338
g70
I4
ssg71
g1332
sg64
(lp1339
S'session_id_welcome=127.0.0.1-23ffab22-1574-4363-8af0-338cfe55b1a4; session_id_xseed=127.0.0.1-626c16e8-fd8a-46e2-84e3-308140809547; session_id_read_it=127.0.0.1-64ed602e-5699-4391-ae4f-88c77653edcf; session_id_admin=127.0.0.1-68b65693-061d-41a6-9d43-84d9af7cb743'
p1340
asbasbasbag57
(g73
g59
NtRp1341
(dp1342
g62
(dp1343
sg71
g1071
sg64
(lp1344
g57
(g78
g59
NtRp1345
(dp1346
g62
(dp1347
g82
g83
ssg71
g1341
sg64
(lp1348
S'http_host'
p1349
asbag57
(g78
g59
NtRp1350
(dp1351
g62
(dp1352
g89
g90
ssg71
g1341
sg64
(lp1353
S':'
asbag57
(g78
g59
NtRp1354
(dp1355
g62
(dp1356
sg71
g1341
sg64
(lp1357
g57
(g58
g59
NtRp1358
(dp1359
g62
(dp1360
g70
I4
ssg71
g1354
sg64
(lp1361
S'127.0.0.1:8001'
p1362
asbasbasbag57
(g73
g59
NtRp1363
(dp1364
g62
(dp1365
sg71
g1071
sg64
(lp1366
g57
(g78
g59
NtRp1367
(dp1368
g62
(dp1369
g82
g83
ssg71
g1363
sg64
(lp1370
S'http_referer'
p1371
asbag57
(g78
g59
NtRp1372
(dp1373
g62
(dp1374
g89
g90
ssg71
g1363
sg64
(lp1375
S':'
asbag57
(g78
g59
NtRp1376
(dp1377
g62
(dp1378
sg71
g1363
sg64
(lp1379
g57
(g58
g59
NtRp1380
(dp1381
g62
(dp1382
g70
I4
ssg71
g1376
sg64
(lp1383
S'http://127.0.0.1:8001/Read_it/default/list_cat/list_cat/list_cat/list_cat/5'
p1384
asbasbasbag57
(g73
g59
NtRp1385
(dp1386
g62
(dp1387
sg71
g1071
sg64
(lp1388
g57
(g78
g59
NtRp1389
(dp1390
g62
(dp1391
g82
g83
ssg71
g1385
sg64
(lp1392
S'http_user_agent'
p1393
asbag57
(g78
g59
NtRp1394
(dp1395
g62
(dp1396
g89
g90
ssg71
g1385
sg64
(lp1397
S':'
asbag57
(g78
g59
NtRp1398
(dp1399
g62
(dp1400
sg71
g1385
sg64
(lp1401
g57
(g58
g59
NtRp1402
(dp1403
g62
(dp1404
g70
I4
ssg71
g1398
sg64
(lp1405
S'Mozilla/5.0 (X11; Linux x86_64) AppleWebKit/537.36 (KHTML, like Gecko) Chrome/29.0.1547.57 Safari/537.36'
p1406
asbasbasbag57
(g73
g59
NtRp1407
(dp1408
g62
(dp1409
sg71
g1071
sg64
(lp1410
g57
(g78
g59
NtRp1411
(dp1412
g62
(dp1413
g82
g83
ssg71
g1407
sg64
(lp1414
S'is_jython'
p1415
asbag57
(g78
g59
NtRp1416
(dp1417
g62
(dp1418
g89
g90
ssg71
g1407
sg64
(lp1419
S':'
asbag57
(g78
g59
NtRp1420
(dp1421
g62
(dp1422
sg71
g1407
sg64
(lp1423
g57
(g58
g59
NtRp1424
(dp1425
g62
(dp1426
g70
I4
ssg71
g1420
sg64
(lp1427
g100
asbasbasbag57
(g73
g59
NtRp1428
(dp1429
g62
(dp1430
sg71
g1071
sg64
(lp1431
g57
(g78
g59
NtRp1432
(dp1433
g62
(dp1434
g82
g83
ssg71
g1428
sg64
(lp1435
S'is_pypy'
p1436
asbag57
(g78
g59
NtRp1437
(dp1438
g62
(dp1439
g89
g90
ssg71
g1428
sg64
(lp1440
S':'
asbag57
(g78
g59
NtRp1441
(dp1442
g62
(dp1443
sg71
g1428
sg64
(lp1444
g57
(g58
g59
NtRp1445
(dp1446
g62
(dp1447
g70
I4
ssg71
g1441
sg64
(lp1448
g100
asbasbasbag57
(g73
g59
NtRp1449
(dp1450
g62
(dp1451
sg71
g1071
sg64
(lp1452
g57
(g78
g59
NtRp1453
(dp1454
g62
(dp1455
g82
g83
ssg71
g1449
sg64
(lp1456
S'path_info'
p1457
asbag57
(g78
g59
NtRp1458
(dp1459
g62
(dp1460
g89
g90
ssg71
g1449
sg64
(lp1461
S':'
asbag57
(g78
g59
NtRp1462
(dp1463
g62
(dp1464
sg71
g1449
sg64
(lp1465
g57
(g58
g59
NtRp1466
(dp1467
g62
(dp1468
g70
I4
ssg71
g1462
sg64
(lp1469
S'/Read_it/default/list_cat/list_cat/list_cat/list_cat/list_cat/6'
p1470
asbasbasbag57
(g73
g59
NtRp1471
(dp1472
g62
(dp1473
sg71
g1071
sg64
(lp1474
g57
(g78
g59
NtRp1475
(dp1476
g62
(dp1477
g82
g83
ssg71
g1471
sg64
(lp1478
S'query_string'
p1479
asbag57
(g78
g59
NtRp1480
(dp1481
g62
(dp1482
g89
g90
ssg71
g1471
sg64
(lp1483
S':'
asbag57
(g78
g59
NtRp1484
(dp1485
g62
(dp1486
sg71
g1471
sg64
(lp1487
g57
(g58
g59
NtRp1488
(dp1489
g62
(dp1490
g70
I4
ssg71
g1484
sg64
(lp1491
S''
asbasbasbag57
(g73
g59
NtRp1492
(dp1493
g62
(dp1494
sg71
g1071
sg64
(lp1495
g57
(g78
g59
NtRp1496
(dp1497
g62
(dp1498
g82
g83
ssg71
g1492
sg64
(lp1499
S'remote_addr'
p1500
asbag57
(g78
g59
NtRp1501
(dp1502
g62
(dp1503
g89
g90
ssg71
g1492
sg64
(lp1504
S':'
asbag57
(g78
g59
NtRp1505
(dp1506
g62
(dp1507
sg71
g1492
sg64
(lp1508
g57
(g58
g59
NtRp1509
(dp1510
g62
(dp1511
g70
I4
ssg71
g1505
sg64
(lp1512
g254
asbasbasbag57
(g73
g59
NtRp1513
(dp1514
g62
(dp1515
sg71
g1071
sg64
(lp1516
g57
(g78
g59
NtRp1517
(dp1518
g62
(dp1519
g82
g83
ssg71
g1513
sg64
(lp1520
S'remote_port'
p1521
asbag57
(g78
g59
NtRp1522
(dp1523
g62
(dp1524
g89
g90
ssg71
g1513
sg64
(lp1525
S':'
asbag57
(g78
g59
NtRp1526
(dp1527
g62
(dp1528
sg71
g1513
sg64
(lp1529
g57
(g58
g59
NtRp1530
(dp1531
g62
(dp1532
g70
I4
ssg71
g1526
sg64
(lp1533
S'40771'
p1534
asbasbasbag57
(g73
g59
NtRp1535
(dp1536
g62
(dp1537
sg71
g1071
sg64
(lp1538
g57
(g78
g59
NtRp1539
(dp1540
g62
(dp1541
g82
g83
ssg71
g1535
sg64
(lp1542
S'request_method'
p1543
asbag57
(g78
g59
NtRp1544
(dp1545
g62
(dp1546
g89
g90
ssg71
g1535
sg64
(lp1547
S':'
asbag57
(g78
g59
NtRp1548
(dp1549
g62
(dp1550
sg71
g1535
sg64
(lp1551
g57
(g58
g59
NtRp1552
(dp1553
g62
(dp1554
g70
I4
ssg71
g1548
sg64
(lp1555
S'GET'
p1556
asbasbasbag57
(g73
g59
NtRp1557
(dp1558
g62
(dp1559
sg71
g1071
sg64
(lp1560
g57
(g78
g59
NtRp1561
(dp1562
g62
(dp1563
g82
g83
ssg71
g1557
sg64
(lp1564
S'script_name'
p1565
asbag57
(g78
g59
NtRp1566
(dp1567
g62
(dp1568
g89
g90
ssg71
g1557
sg64
(lp1569
S':'
asbag57
(g78
g59
NtRp1570
(dp1571
g62
(dp1572
sg71
g1557
sg64
(lp1573
g57
(g58
g59
NtRp1574
(dp1575
g62
(dp1576
g70
I4
ssg71
g1570
sg64
(lp1577
S''
asbasbasbag57
(g73
g59
NtRp1578
(dp1579
g62
(dp1580
sg71
g1071
sg64
(lp1581
g57
(g78
g59
NtRp1582
(dp1583
g62
(dp1584
g82
g83
ssg71
g1578
sg64
(lp1585
S'server_name'
p1586
asbag57
(g78
g59
NtRp1587
(dp1588
g62
(dp1589
g89
g90
ssg71
g1578
sg64
(lp1590
S':'
asbag57
(g78
g59
NtRp1591
(dp1592
g62
(dp1593
sg71
g1578
sg64
(lp1594
g57
(g58
g59
NtRp1595
(dp1596
g62
(dp1597
g70
I4
ssg71
g1591
sg64
(lp1598
S'DS-IIIT'
p1599
asbasbasbag57
(g73
g59
NtRp1600
(dp1601
g62
(dp1602
sg71
g1071
sg64
(lp1603
g57
(g78
g59
NtRp1604
(dp1605
g62
(dp1606
g82
g83
ssg71
g1600
sg64
(lp1607
S'server_port'
p1608
asbag57
(g78
g59
NtRp1609
(dp1610
g62
(dp1611
g89
g90
ssg71
g1600
sg64
(lp1612
S':'
asbag57
(g78
g59
NtRp1613
(dp1614
g62
(dp1615
sg71
g1600
sg64
(lp1616
g57
(g58
g59
NtRp1617
(dp1618
g62
(dp1619
g70
I4
ssg71
g1613
sg64
(lp1620
S'8001'
p1621
asbasbasbag57
(g73
g59
NtRp1622
(dp1623
g62
(dp1624
sg71
g1071
sg64
(lp1625
g57
(g78
g59
NtRp1626
(dp1627
g62
(dp1628
g82
g83
ssg71
g1622
sg64
(lp1629
S'server_protocol'
p1630
asbag57
(g78
g59
NtRp1631
(dp1632
g62
(dp1633
g89
g90
ssg71
g1622
sg64
(lp1634
S':'
asbag57
(g78
g59
NtRp1635
(dp1636
g62
(dp1637
sg71
g1622
sg64
(lp1638
g57
(g58
g59
NtRp1639
(dp1640
g62
(dp1641
g70
I4
ssg71
g1635
sg64
(lp1642
S'HTTP/1.1'
p1643
asbasbasbag57
(g73
g59
NtRp1644
(dp1645
g62
(dp1646
sg71
g1071
sg64
(lp1647
g57
(g78
g59
NtRp1648
(dp1649
g62
(dp1650
g82
g83
ssg71
g1644
sg64
(lp1651
S'server_software'
p1652
asbag57
(g78
g59
NtRp1653
(dp1654
g62
(dp1655
g89
g90
ssg71
g1644
sg64
(lp1656
S':'
asbag57
(g78
g59
NtRp1657
(dp1658
g62
(dp1659
sg71
g1644
sg64
(lp1660
g57
(g58
g59
NtRp1661
(dp1662
g62
(dp1663
g70
I4
ssg71
g1657
sg64
(lp1664
S'Rocket 1.2.4'
p1665
asbasbasbag57
(g73
g59
NtRp1666
(dp1667
g62
(dp1668
sg71
g1071
sg64
(lp1669
g57
(g78
g59
NtRp1670
(dp1671
g62
(dp1672
g82
g83
ssg71
g1666
sg64
(lp1673
S'web2py_crontype'
p1674
asbag57
(g78
g59
NtRp1675
(dp1676
g62
(dp1677
g89
g90
ssg71
g1666
sg64
(lp1678
S':'
asbag57
(g78
g59
NtRp1679
(dp1680
g62
(dp1681
sg71
g1666
sg64
(lp1682
g57
(g58
g59
NtRp1683
(dp1684
g62
(dp1685
g70
I4
ssg71
g1679
sg64
(lp1686
S'hard'
p1687
asbasbasbag57
(g73
g59
NtRp1688
(dp1689
g62
(dp1690
sg71
g1071
sg64
(lp1691
g57
(g78
g59
NtRp1692
(dp1693
g62
(dp1694
g82
g83
ssg71
g1688
sg64
(lp1695
S'web2py_path'
p1696
asbag57
(g78
g59
NtRp1697
(dp1698
g62
(dp1699
g89
g90
ssg71
g1688
sg64
(lp1700
S':'
asbag57
(g78
g59
NtRp1701
(dp1702
g62
(dp1703
sg71
g1688
sg64
(lp1704
g57
(g58
g59
NtRp1705
(dp1706
g62
(dp1707
g70
I4
ssg71
g1701
sg64
(lp1708
g1118
asbasbasbag57
(g73
g59
NtRp1709
(dp1710
g62
(dp1711
sg71
g1071
sg64
(lp1712
g57
(g78
g59
NtRp1713
(dp1714
g62
(dp1715
g82
g83
ssg71
g1709
sg64
(lp1716
S'web2py_version'
p1717
asbag57
(g78
g59
NtRp1718
(dp1719
g62
(dp1720
g89
g90
ssg71
g1709
sg64
(lp1721
S':'
asbag57
(g78
g59
NtRp1722
(dp1723
g62
(dp1724
sg71
g1709
sg64
(lp1725
g57
(g58
g59
NtRp1726
(dp1727
g62
(dp1728
g70
I4
ssg71
g1722
sg64
(lp1729
g57
(g66
g59
NtRp1730
(dp1731
g62
(dp1732
g70
I3
ssg71
Nsg64
(lp1733
g57
(g73
g59
NtRp1734
(dp1735
g62
(dp1736
sg71
g1730
sg64
(lp1737
g57
(g78
g59
NtRp1738
(dp1739
g62
(dp1740
sg71
g1734
sg64
(lp1741
g57
(g58
g59
NtRp1742
(dp1743
g62
(dp1744
g70
I3
ssg71
g1738
sg64
(lp1745
S'1'
asbasbasbag57
(g73
g59
NtRp1746
(dp1747
g62
(dp1748
sg71
g1730
sg64
(lp1749
g57
(g78
g59
NtRp1750
(dp1751
g62
(dp1752
sg71
g1746
sg64
(lp1753
g57
(g58
g59
NtRp1754
(dp1755
g62
(dp1756
g70
I3
ssg71
g1750
sg64
(lp1757
S'99'
p1758
asbasbasbag57
(g73
g59
NtRp1759
(dp1760
g62
(dp1761
sg71
g1730
sg64
(lp1762
g57
(g78
g59
NtRp1763
(dp1764
g62
(dp1765
sg71
g1759
sg64
(lp1766
g57
(g58
g59
NtRp1767
(dp1768
g62
(dp1769
g70
I3
ssg71
g1763
sg64
(lp1770
S'4'
asbasbasbag57
(g73
g59
NtRp1771
(dp1772
g62
(dp1773
sg71
g1730
sg64
(lp1774
g57
(g78
g59
NtRp1775
(dp1776
g62
(dp1777
sg71
g1771
sg64
(lp1778
g57
(g58
g59
NtRp1779
(dp1780
g62
(dp1781
g70
I3
ssg71
g1775
sg64
(lp1782
S'datetime.datetime(2011, 12, 14, 14, 46, 14)'
p1783
asbasbasbag57
(g73
g59
NtRp1784
(dp1785
g62
(dp1786
sg71
g1730
sg64
(lp1787
g57
(g78
g59
NtRp1788
(dp1789
g62
(dp1790
sg71
g1784
sg64
(lp1791
g57
(g58
g59
NtRp1792
(dp1793
g62
(dp1794
g70
I3
ssg71
g1788
sg64
(lp1795
S'stable'
p1796
asbasbasbasbasbasbasbag57
(g73
g59
NtRp1797
(dp1798
g62
(dp1799
sg71
g1071
sg64
(lp1800
g57
(g78
g59
NtRp1801
(dp1802
g62
(dp1803
g82
g83
ssg71
g1797
sg64
(lp1804
S'wsgi_errors'
p1805
asbag57
(g78
g59
NtRp1806
(dp1807
g62
(dp1808
g89
g90
ssg71
g1797
sg64
(lp1809
S':'
asbag57
(g78
g59
NtRp1810
(dp1811
g62
(dp1812
sg71
g1797
sg64
(lp1813
g57
(g58
g59
NtRp1814
(dp1815
g62
(dp1816
g70
I4
ssg71
g1810
sg64
(lp1817
S"<open file '<stderr>', mode 'w' at 0x7f044c779270>"
p1818
asbasbasbag57
(g73
g59
NtRp1819
(dp1820
g62
(dp1821
sg71
g1071
sg64
(lp1822
g57
(g78
g59
NtRp1823
(dp1824
g62
(dp1825
g82
g83
ssg71
g1819
sg64
(lp1826
S'wsgi_file_wrapper'
p1827
asbag57
(g78
g59
NtRp1828
(dp1829
g62
(dp1830
g89
g90
ssg71
g1819
sg64
(lp1831
S':'
asbag57
(g78
g59
NtRp1832
(dp1833
g62
(dp1834
sg71
g1819
sg64
(lp1835
g57
(g58
g59
NtRp1836
(dp1837
g62
(dp1838
g70
I4
ssg71
g1832
sg64
(lp1839
S'<class wsgiref.util.FileWrapper at 0x21cc668>'
p1840
asbasbasbag57
(g73
g59
NtRp1841
(dp1842
g62
(dp1843
sg71
g1071
sg64
(lp1844
g57
(g78
g59
NtRp1845
(dp1846
g62
(dp1847
g82
g83
ssg71
g1841
sg64
(lp1848
S'wsgi_input'
p1849
asbag57
(g78
g59
NtRp1850
(dp1851
g62
(dp1852
g89
g90
ssg71
g1841
sg64
(lp1853
S':'
asbag57
(g78
g59
NtRp1854
(dp1855
g62
(dp1856
sg71
g1841
sg64
(lp1857
g57
(g58
g59
NtRp1858
(dp1859
g62
(dp1860
g70
I4
ssg71
g1854
sg64
(lp1861
S'<socket._fileobject object at 0x7f03f427b150>'
p1862
asbasbasbag57
(g73
g59
NtRp1863
(dp1864
g62
(dp1865
sg71
g1071
sg64
(lp1866
g57
(g78
g59
NtRp1867
(dp1868
g62
(dp1869
g82
g83
ssg71
g1863
sg64
(lp1870
S'wsgi_multiprocess'
p1871
asbag57
(g78
g59
NtRp1872
(dp1873
g62
(dp1874
g89
g90
ssg71
g1863
sg64
(lp1875
S':'
asbag57
(g78
g59
NtRp1876
(dp1877
g62
(dp1878
sg71
g1863
sg64
(lp1879
g57
(g58
g59
NtRp1880
(dp1881
g62
(dp1882
g70
I4
ssg71
g1876
sg64
(lp1883
g100
asbasbasbag57
(g73
g59
NtRp1884
(dp1885
g62
(dp1886
sg71
g1071
sg64
(lp1887
g57
(g78
g59
NtRp1888
(dp1889
g62
(dp1890
g82
g83
ssg71
g1884
sg64
(lp1891
S'wsgi_multithread'
p1892
asbag57
(g78
g59
NtRp1893
(dp1894
g62
(dp1895
g89
g90
ssg71
g1884
sg64
(lp1896
S':'
asbag57
(g78
g59
NtRp1897
(dp1898
g62
(dp1899
sg71
g1884
sg64
(lp1900
g57
(g58
g59
NtRp1901
(dp1902
g62
(dp1903
g70
I4
ssg71
g1897
sg64
(lp1904
S'True'
p1905
asbasbasbag57
(g73
g59
NtRp1906
(dp1907
g62
(dp1908
sg71
g1071
sg64
(lp1909
g57
(g78
g59
NtRp1910
(dp1911
g62
(dp1912
g82
g83
ssg71
g1906
sg64
(lp1913
S'wsgi_run_once'
p1914
asbag57
(g78
g59
NtRp1915
(dp1916
g62
(dp1917
g89
g90
ssg71
g1906
sg64
(lp1918
S':'
asbag57
(g78
g59
NtRp1919
(dp1920
g62
(dp1921
sg71
g1906
sg64
(lp1922
g57
(g58
g59
NtRp1923
(dp1924
g62
(dp1925
g70
I4
ssg71
g1919
sg64
(lp1926
g100
asbasbasbag57
(g73
g59
NtRp1927
(dp1928
g62
(dp1929
sg71
g1071
sg64
(lp1930
g57
(g78
g59
NtRp1931
(dp1932
g62
(dp1933
g82
g83
ssg71
g1927
sg64
(lp1934
S'wsgi_url_scheme'
p1935
asbag57
(g78
g59
NtRp1936
(dp1937
g62
(dp1938
g89
g90
ssg71
g1927
sg64
(lp1939
S':'
asbag57
(g78
g59
NtRp1940
(dp1941
g62
(dp1942
sg71
g1927
sg64
(lp1943
g57
(g58
g59
NtRp1944
(dp1945
g62
(dp1946
g70
I4
ssg71
g1940
sg64
(lp1947
S'http'
p1948
asbasbasbag57
(g73
g59
NtRp1949
(dp1950
g62
(dp1951
sg71
g1071
sg64
(lp1952
g57
(g78
g59
NtRp1953
(dp1954
g62
(dp1955
g82
g83
ssg71
g1949
sg64
(lp1956
S'wsgi_version'
p1957
asbag57
(g78
g59
NtRp1958
(dp1959
g62
(dp1960
g89
g90
ssg71
g1949
sg64
(lp1961
S':'
asbag57
(g78
g59
NtRp1962
(dp1963
g62
(dp1964
sg71
g1949
sg64
(lp1965
g57
(g58
g59
NtRp1966
(dp1967
g62
(dp1968
g70
I4
ssg71
g1962
sg64
(lp1969
g57
(g66
g59
NtRp1970
(dp1971
g62
(dp1972
g70
I3
ssg71
Nsg64
(lp1973
g57
(g73
g59
NtRp1974
(dp1975
g62
(dp1976
sg71
g1970
sg64
(lp1977
g57
(g78
g59
NtRp1978
(dp1979
g62
(dp1980
sg71
g1974
sg64
(lp1981
g57
(g58
g59
NtRp1982
(dp1983
g62
(dp1984
g70
I3
ssg71
g1978
sg64
(lp1985
S'1'
asbasbasbag57
(g73
g59
NtRp1986
(dp1987
g62
(dp1988
sg71
g1970
sg64
(lp1989
g57
(g78
g59
NtRp1990
(dp1991
g62
(dp1992
sg71
g1986
sg64
(lp1993
g57
(g58
g59
NtRp1994
(dp1995
g62
(dp1996
g70
I3
ssg71
g1990
sg64
(lp1997
S'0'
asbasbasbasbasbasbasbasbasbasbasbag57
(g73
g59
NtRp1998
(dp1999
g62
(dp2000
sg71
g67
sg64
(lp2001
g57
(g78
g59
NtRp2002
(dp2003
g62
(dp2004
g82
g83
ssg71
g1998
sg64
(lp2005
S'extension'
p2006
asbag57
(g78
g59
NtRp2007
(dp2008
g62
(dp2009
g89
g90
ssg71
g1998
sg64
(lp2010
S':'
asbag57
(g78
g59
NtRp2011
(dp2012
g62
(dp2013
sg71
g1998
sg64
(lp2014
g57
(g58
g59
NtRp2015
(dp2016
g62
(dp2017
g70
I5
ssg71
g2011
sg64
(lp2018
S'html'
p2019
asbasbasbag57
(g73
g59
NtRp2020
(dp2021
g62
(dp2022
sg71
g67
sg64
(lp2023
g57
(g78
g59
NtRp2024
(dp2025
g62
(dp2026
g82
g83
ssg71
g2020
sg64
(lp2027
S'folder'
p2028
asbag57
(g78
g59
NtRp2029
(dp2030
g62
(dp2031
g89
g90
ssg71
g2020
sg64
(lp2032
S':'
asbag57
(g78
g59
NtRp2033
(dp2034
g62
(dp2035
sg71
g2020
sg64
(lp2036
g57
(g58
g59
NtRp2037
(dp2038
g62
(dp2039
g70
I5
ssg71
g2033
sg64
(lp2040
S'/home/ds-iiit/web2py/applications/Read_it/'
p2041
asbasbasbag57
(g73
g59
NtRp2042
(dp2043
g62
(dp2044
sg71
g67
sg64
(lp2045
g57
(g78
g59
NtRp2046
(dp2047
g62
(dp2048
g82
g83
ssg71
g2042
sg64
(lp2049
S'function'
p2050
asbag57
(g78
g59
NtRp2051
(dp2052
g62
(dp2053
g89
g90
ssg71
g2042
sg64
(lp2054
S':'
asbag57
(g78
g59
NtRp2055
(dp2056
g62
(dp2057
sg71
g2042
sg64
(lp2058
g57
(g58
g59
NtRp2059
(dp2060
g62
(dp2061
g70
I5
ssg71
g2055
sg64
(lp2062
S'list_cat'
p2063
asbasbasbag57
(g73
g59
NtRp2064
(dp2065
g62
(dp2066
sg71
g67
sg64
(lp2067
g57
(g78
g59
NtRp2068
(dp2069
g62
(dp2070
g82
g83
ssg71
g2064
sg64
(lp2071
S'get_vars'
p2072
asbag57
(g78
g59
NtRp2073
(dp2074
g62
(dp2075
g89
g90
ssg71
g2064
sg64
(lp2076
S':'
asbag57
(g78
g59
NtRp2077
(dp2078
g62
(dp2079
sg71
g2064
sg64
(lp2080
g57
(g58
g59
NtRp2081
(dp2082
g62
(dp2083
g70
I5
ssg71
g2077
sg64
(lp2084
g57
(g66
g59
NtRp2085
(dp2086
g62
(dp2087
g70
I4
ssg71
Nsg64
(lp2088
sbasbasbasbag57
(g73
g59
NtRp2089
(dp2090
g62
(dp2091
sg71
g67
sg64
(lp2092
g57
(g78
g59
NtRp2093
(dp2094
g62
(dp2095
g82
g83
ssg71
g2089
sg64
(lp2096
S'global_settings'
p2097
asbag57
(g78
g59
NtRp2098
(dp2099
g62
(dp2100
g89
g90
ssg71
g2089
sg64
(lp2101
S':'
asbag57
(g78
g59
NtRp2102
(dp2103
g62
(dp2104
sg71
g2089
sg64
(lp2105
g57
(g58
g59
NtRp2106
(dp2107
g62
(dp2108
g70
I5
ssg71
g2102
sg64
(lp2109
g57
(g66
g59
NtRp2110
(dp2111
g62
(dp2112
g70
I4
ssg71
Nsg64
(lp2113
g57
(g73
g59
NtRp2114
(dp2115
g62
(dp2116
sg71
g2110
sg64
(lp2117
g57
(g78
g59
NtRp2118
(dp2119
g62
(dp2120
g82
g83
ssg71
g2114
sg64
(lp2121
g1083
asbag57
(g78
g59
NtRp2122
(dp2123
g62
(dp2124
g89
g90
ssg71
g2114
sg64
(lp2125
S':'
asbag57
(g78
g59
NtRp2126
(dp2127
g62
(dp2128
sg71
g2114
sg64
(lp2129
g57
(g58
g59
NtRp2130
(dp2131
g62
(dp2132
g70
I4
ssg71
g2126
sg64
(lp2133
S"set(['/home/ds-iiit/web2py/applications/Read_it/', '/home/ds-iiit/web2py/applications/welcome/', '/home/ds-iiit/web2py/applications/admin/', '/home/ds-iiit/web2py/applications/XSeed/'])"
p2134
asbasbasbag57
(g73
g59
NtRp2135
(dp2136
g62
(dp2137
sg71
g2110
sg64
(lp2138
g57
(g78
g59
NtRp2139
(dp2140
g62
(dp2141
g82
g83
ssg71
g2135
sg64
(lp2142
g1105
asbag57
(g78
g59
NtRp2143
(dp2144
g62
(dp2145
g89
g90
ssg71
g2135
sg64
(lp2146
S':'
asbag57
(g78
g59
NtRp2147
(dp2148
g62
(dp2149
sg71
g2135
sg64
(lp2150
g57
(g58
g59
NtRp2151
(dp2152
g62
(dp2153
g70
I4
ssg71
g2147
sg64
(lp2154
g1118
asbasbasbag57
(g73
g59
NtRp2155
(dp2156
g62
(dp2157
sg71
g2110
sg64
(lp2158
g57
(g78
g59
NtRp2159
(dp2160
g62
(dp2161
g82
g83
ssg71
g2155
sg64
(lp2162
g1127
asbag57
(g78
g59
NtRp2163
(dp2164
g62
(dp2165
g89
g90
ssg71
g2155
sg64
(lp2166
S':'
asbag57
(g78
g59
NtRp2167
(dp2168
g62
(dp2169
sg71
g2155
sg64
(lp2170
g57
(g58
g59
NtRp2171
(dp2172
g62
(dp2173
g70
I4
ssg71
g2167
sg64
(lp2174
g57
(g66
g59
NtRp2175
(dp2176
g62
(dp2177
g70
I3
ssg71
Nsg64
(lp2178
sbasbasbasbag57
(g73
g59
NtRp2179
(dp2180
g62
(dp2181
sg71
g2110
sg64
(lp2182
g57
(g78
g59
NtRp2183
(dp2184
g62
(dp2185
g82
g83
ssg71
g2179
sg64
(lp2186
g1152
asbag57
(g78
g59
NtRp2187
(dp2188
g62
(dp2189
g89
g90
ssg71
g2179
sg64
(lp2190
S':'
asbag57
(g78
g59
NtRp2191
(dp2192
g62
(dp2193
sg71
g2179
sg64
(lp2194
g57
(g58
g59
NtRp2195
(dp2196
g62
(dp2197
g70
I4
ssg71
g2191
sg64
(lp2198
S"<Values at 0x2259f80: {'verbose': False, 'ip': '127.0.0.1', 'shutdown_timeout': 5, 'taskbar': False, 'port': 8000, 'maxthreads': None, 'softcron': False, 'server_name': 'DS-IIIT', 'bpython': False, 'nogui': False, 'nocron': False, 'extcron': False, 'debuglevel': 30, 'test': None, 'folder': '/home/ds-iiit/web2py', 'config': '', 'import_models': False, 'winservice': '', 'shell': None, 'run': '', 'log_filename': 'httpserver.log', 'args': [''], 'socket_timeout': 1, 'profiler_filename': None, 'ssl_private_key': '', 'password': '<ask>', 'request_queue_size': 5, 'ssl_certificate': '', 'cronjob': False, 'plain': False, 'quiet': False, 'interfaces': None, 'minthreads': None, 'timeout': 10, 'numthreads': None, 'nobanner': False, 'pid_filename': 'httpserver.pid'}>"
p2199
asbasbasbag57
(g73
g59
NtRp2200
(dp2201
g62
(dp2202
sg71
g2110
sg64
(lp2203
g57
(g78
g59
NtRp2204
(dp2205
g62
(dp2206
g82
g83
ssg71
g2200
sg64
(lp2207
g1174
asbag57
(g78
g59
NtRp2208
(dp2209
g62
(dp2210
g89
g90
ssg71
g2200
sg64
(lp2211
S':'
asbag57
(g78
g59
NtRp2212
(dp2213
g62
(dp2214
sg71
g2200
sg64
(lp2215
g57
(g58
g59
NtRp2216
(dp2217
g62
(dp2218
g70
I4
ssg71
g2212
sg64
(lp2219
S'set([])'
p2220
asbasbasbag57
(g73
g59
NtRp2221
(dp2222
g62
(dp2223
sg71
g2110
sg64
(lp2224
g57
(g78
g59
NtRp2225
(dp2226
g62
(dp2227
g82
g83
ssg71
g2221
sg64
(lp2228
g1196
asbag57
(g78
g59
NtRp2229
(dp2230
g62
(dp2231
g89
g90
ssg71
g2221
sg64
(lp2232
S':'
asbag57
(g78
g59
NtRp2233
(dp2234
g62
(dp2235
sg71
g2221
sg64
(lp2236
g57
(g58
g59
NtRp2237
(dp2238
g62
(dp2239
g70
I4
ssg71
g2233
sg64
(lp2240
g100
asbasbasbag57
(g73
g59
NtRp2241
(dp2242
g62
(dp2243
sg71
g2110
sg64
(lp2244
g57
(g78
g59
NtRp2245
(dp2246
g62
(dp2247
g82
g83
ssg71
g2241
sg64
(lp2248
g1217
asbag57
(g78
g59
NtRp2249
(dp2250
g62
(dp2251
g89
g90
ssg71
g2241
sg64
(lp2252
S':'
asbag57
(g78
g59
NtRp2253
(dp2254
g62
(dp2255
sg71
g2241
sg64
(lp2256
g57
(g58
g59
NtRp2257
(dp2258
g62
(dp2259
g70
I4
ssg71
g2253
sg64
(lp2260
g1230
asbasbasbag57
(g73
g59
NtRp2261
(dp2262
g62
(dp2263
sg71
g2110
sg64
(lp2264
g57
(g78
g59
NtRp2265
(dp2266
g62
(dp2267
g82
g83
ssg71
g2261
sg64
(lp2268
g1415
asbag57
(g78
g59
NtRp2269
(dp2270
g62
(dp2271
g89
g90
ssg71
g2261
sg64
(lp2272
S':'
asbag57
(g78
g59
NtRp2273
(dp2274
g62
(dp2275
sg71
g2261
sg64
(lp2276
g57
(g58
g59
NtRp2277
(dp2278
g62
(dp2279
g70
I4
ssg71
g2273
sg64
(lp2280
g100
asbasbasbag57
(g73
g59
NtRp2281
(dp2282
g62
(dp2283
sg71
g2110
sg64
(lp2284
g57
(g78
g59
NtRp2285
(dp2286
g62
(dp2287
g82
g83
ssg71
g2281
sg64
(lp2288
g1436
asbag57
(g78
g59
NtRp2289
(dp2290
g62
(dp2291
g89
g90
ssg71
g2281
sg64
(lp2292
S':'
asbag57
(g78
g59
NtRp2293
(dp2294
g62
(dp2295
sg71
g2281
sg64
(lp2296
g57
(g58
g59
NtRp2297
(dp2298
g62
(dp2299
g70
I4
ssg71
g2293
sg64
(lp2300
g100
asbasbasbag57
(g73
g59
NtRp2301
(dp2302
g62
(dp2303
sg71
g2110
sg64
(lp2304
g57
(g78
g59
NtRp2305
(dp2306
g62
(dp2307
g82
g83
ssg71
g2301
sg64
(lp2308
g1674
asbag57
(g78
g59
NtRp2309
(dp2310
g62
(dp2311
g89
g90
ssg71
g2301
sg64
(lp2312
S':'
asbag57
(g78
g59
NtRp2313
(dp2314
g62
(dp2315
sg71
g2301
sg64
(lp2316
g57
(g58
g59
NtRp2317
(dp2318
g62
(dp2319
g70
I4
ssg71
g2313
sg64
(lp2320
g1687
asbasbasbag57
(g73
g59
NtRp2321
(dp2322
g62
(dp2323
sg71
g2110
sg64
(lp2324
g57
(g78
g59
NtRp2325
(dp2326
g62
(dp2327
g82
g83
ssg71
g2321
sg64
(lp2328
g1717
asbag57
(g78
g59
NtRp2329
(dp2330
g62
(dp2331
g89
g90
ssg71
g2321
sg64
(lp2332
S':'
asbag57
(g78
g59
NtRp2333
(dp2334
g62
(dp2335
sg71
g2321
sg64
(lp2336
g57
(g58
g59
NtRp2337
(dp2338
g62
(dp2339
g70
I4
ssg71
g2333
sg64
(lp2340
g57
(g66
g59
NtRp2341
(dp2342
g62
(dp2343
g70
I3
ssg71
Nsg64
(lp2344
g57
(g73
g59
NtRp2345
(dp2346
g62
(dp2347
sg71
g2341
sg64
(lp2348
g57
(g78
g59
NtRp2349
(dp2350
g62
(dp2351
sg71
g2345
sg64
(lp2352
g57
(g58
g59
NtRp2353
(dp2354
g62
(dp2355
g70
I3
ssg71
g2349
sg64
(lp2356
S'1'
asbasbasbag57
(g73
g59
NtRp2357
(dp2358
g62
(dp2359
sg71
g2341
sg64
(lp2360
g57
(g78
g59
NtRp2361
(dp2362
g62
(dp2363
sg71
g2357
sg64
(lp2364
g57
(g58
g59
NtRp2365
(dp2366
g62
(dp2367
g70
I3
ssg71
g2361
sg64
(lp2368
S'99'
p2369
asbasbasbag57
(g73
g59
NtRp2370
(dp2371
g62
(dp2372
sg71
g2341
sg64
(lp2373
g57
(g78
g59
NtRp2374
(dp2375
g62
(dp2376
sg71
g2370
sg64
(lp2377
g57
(g58
g59
NtRp2378
(dp2379
g62
(dp2380
g70
I3
ssg71
g2374
sg64
(lp2381
S'4'
asbasbasbag57
(g73
g59
NtRp2382
(dp2383
g62
(dp2384
sg71
g2341
sg64
(lp2385
g57
(g78
g59
NtRp2386
(dp2387
g62
(dp2388
sg71
g2382
sg64
(lp2389
g57
(g58
g59
NtRp2390
(dp2391
g62
(dp2392
g70
I3
ssg71
g2386
sg64
(lp2393
S'datetime.datetime(2011, 12, 14, 14, 46, 14)'
p2394
asbasbasbag57
(g73
g59
NtRp2395
(dp2396
g62
(dp2397
sg71
g2341
sg64
(lp2398
g57
(g78
g59
NtRp2399
(dp2400
g62
(dp2401
sg71
g2395
sg64
(lp2402
g57
(g58
g59
NtRp2403
(dp2404
g62
(dp2405
g70
I3
ssg71
g2399
sg64
(lp2406
g1796
asbasbasbasbasbasbasbasbasbasbasbag57
(g73
g59
NtRp2407
(dp2408
g62
(dp2409
sg71
g67
sg64
(lp2410
g57
(g78
g59
NtRp2411
(dp2412
g62
(dp2413
g82
g83
ssg71
g2407
sg64
(lp2414
S'is_https'
p2415
asbag57
(g78
g59
NtRp2416
(dp2417
g62
(dp2418
g89
g90
ssg71
g2407
sg64
(lp2419
S':'
asbag57
(g78
g59
NtRp2420
(dp2421
g62
(dp2422
sg71
g2407
sg64
(lp2423
g57
(g58
g59
NtRp2424
(dp2425
g62
(dp2426
g70
I5
ssg71
g2420
sg64
(lp2427
g100
asbasbasbag57
(g73
g59
NtRp2428
(dp2429
g62
(dp2430
sg71
g67
sg64
(lp2431
g57
(g78
g59
NtRp2432
(dp2433
g62
(dp2434
g82
g83
ssg71
g2428
sg64
(lp2435
S'is_local'
p2436
asbag57
(g78
g59
NtRp2437
(dp2438
g62
(dp2439
g89
g90
ssg71
g2428
sg64
(lp2440
S':'
asbag57
(g78
g59
NtRp2441
(dp2442
g62
(dp2443
sg71
g2428
sg64
(lp2444
g57
(g58
g59
NtRp2445
(dp2446
g62
(dp2447
g70
I5
ssg71
g2441
sg64
(lp2448
g1905
asbasbasbag57
(g73
g59
NtRp2449
(dp2450
g62
(dp2451
sg71
g67
sg64
(lp2452
g57
(g78
g59
NtRp2453
(dp2454
g62
(dp2455
g82
g83
ssg71
g2449
sg64
(lp2456
S'is_restful'
p2457
asbag57
(g78
g59
NtRp2458
(dp2459
g62
(dp2460
g89
g90
ssg71
g2449
sg64
(lp2461
S':'
asbag57
(g78
g59
NtRp2462
(dp2463
g62
(dp2464
sg71
g2449
sg64
(lp2465
g57
(g58
g59
NtRp2466
(dp2467
g62
(dp2468
g70
I5
ssg71
g2462
sg64
(lp2469
g100
asbasbasbag57
(g73
g59
NtRp2470
(dp2471
g62
(dp2472
sg71
g67
sg64
(lp2473
g57
(g78
g59
NtRp2474
(dp2475
g62
(dp2476
g82
g83
ssg71
g2470
sg64
(lp2477
S'now'
p2478
asbag57
(g78
g59
NtRp2479
(dp2480
g62
(dp2481
g89
g90
ssg71
g2470
sg64
(lp2482
S':'
asbag57
(g78
g59
NtRp2483
(dp2484
g62
(dp2485
sg71
g2470
sg64
(lp2486
g57
(g58
g59
NtRp2487
(dp2488
g62
(dp2489
g70
I5
ssg71
g2483
sg64
(lp2490
S'datetime.datetime(2013, 9, 2, 0, 59, 53, 912297)'
p2491
asbasbasbag57
(g73
g59
NtRp2492
(dp2493
g62
(dp2494
sg71
g67
sg64
(lp2495
g57
(g78
g59
NtRp2496
(dp2497
g62
(dp2498
g82
g83
ssg71
g2492
sg64
(lp2499
S'post_vars'
p2500
asbag57
(g78
g59
NtRp2501
(dp2502
g62
(dp2503
g89
g90
ssg71
g2492
sg64
(lp2504
S':'
asbag57
(g78
g59
NtRp2505
(dp2506
g62
(dp2507
sg71
g2492
sg64
(lp2508
g57
(g58
g59
NtRp2509
(dp2510
g62
(dp2511
g70
I5
ssg71
g2505
sg64
(lp2512
g57
(g66
g59
NtRp2513
(dp2514
g62
(dp2515
g70
I4
ssg71
Nsg64
(lp2516
sbasbasbasbag57
(g73
g59
NtRp2517
(dp2518
g62
(dp2519
sg71
g67
sg64
(lp2520
g57
(g78
g59
NtRp2521
(dp2522
g62
(dp2523
g82
g83
ssg71
g2517
sg64
(lp2524
S'raw_args'
p2525
asbag57
(g78
g59
NtRp2526
(dp2527
g62
(dp2528
g89
g90
ssg71
g2517
sg64
(lp2529
S':'
asbag57
(g78
g59
NtRp2530
(dp2531
g62
(dp2532
sg71
g2517
sg64
(lp2533
g57
(g58
g59
NtRp2534
(dp2535
g62
(dp2536
g70
I5
ssg71
g2530
sg64
(lp2537
S'list_cat/list_cat/list_cat/list_cat/6'
p2538
asbasbasbag57
(g73
g59
NtRp2539
(dp2540
g62
(dp2541
sg71
g67
sg64
(lp2542
g57
(g78
g59
NtRp2543
(dp2544
g62
(dp2545
g82
g83
ssg71
g2539
sg64
(lp2546
S'url'
p2547
asbag57
(g78
g59
NtRp2548
(dp2549
g62
(dp2550
g89
g90
ssg71
g2539
sg64
(lp2551
S':'
asbag57
(g78
g59
NtRp2552
(dp2553
g62
(dp2554
sg71
g2539
sg64
(lp2555
g57
(g58
g59
NtRp2556
(dp2557
g62
(dp2558
g70
I5
ssg71
g2552
sg64
(lp2559
S'/Read_it/default/list_cat/list_cat/list_cat/list_cat/list_cat/6'
p2560
asbasbasbag57
(g73
g59
NtRp2561
(dp2562
g62
(dp2563
sg71
g67
sg64
(lp2564
g57
(g78
g59
NtRp2565
(dp2566
g62
(dp2567
g82
g83
ssg71
g2561
sg64
(lp2568
S'utcnow'
p2569
asbag57
(g78
g59
NtRp2570
(dp2571
g62
(dp2572
g89
g90
ssg71
g2561
sg64
(lp2573
S':'
asbag57
(g78
g59
NtRp2574
(dp2575
g62
(dp2576
sg71
g2561
sg64
(lp2577
g57
(g58
g59
NtRp2578
(dp2579
g62
(dp2580
g70
I5
ssg71
g2574
sg64
(lp2581
S'datetime.datetime(2013, 9, 1, 19, 29, 53, 912335)'
p2582
asbasbasbag57
(g73
g59
NtRp2583
(dp2584
g62
(dp2585
sg71
g67
sg64
(lp2586
g57
(g78
g59
NtRp2587
(dp2588
g62
(dp2589
g82
g83
ssg71
g2583
sg64
(lp2590
S'uuid'
p2591
asbag57
(g78
g59
NtRp2592
(dp2593
g62
(dp2594
g89
g90
ssg71
g2583
sg64
(lp2595
S':'
asbag57
(g78
g59
NtRp2596
(dp2597
g62
(dp2598
sg71
g2583
sg64
(lp2599
g57
(g58
g59
NtRp2600
(dp2601
g62
(dp2602
g70
I5
ssg71
g2596
sg64
(lp2603
S'Read_it/127.0.0.1.2013-09-02.00-59-53.ab16bbbd-657a-4a7a-81d7-c5fb2f286c2b'
p2604
asbasbasbag57
(g73
g59
NtRp2605
(dp2606
g62
(dp2607
sg71
g67
sg64
(lp2608
g57
(g78
g59
NtRp2609
(dp2610
g62
(dp2611
g82
g83
ssg71
g2605
sg64
(lp2612
S'vars'
p2613
asbag57
(g78
g59
NtRp2614
(dp2615
g62
(dp2616
g89
g90
ssg71
g2605
sg64
(lp2617
S':'
asbag57
(g78
g59
NtRp2618
(dp2619
g62
(dp2620
sg71
g2605
sg64
(lp2621
g57
(g58
g59
NtRp2622
(dp2623
g62
(dp2624
g70
I5
ssg71
g2618
sg64
(lp2625
g57
(g66
g59
NtRp2626
(dp2627
g62
(dp2628
g70
I4
ssg71
Nsg64
(lp2629
sbasbasbasbag57
(g73
g59
NtRp2630
(dp2631
g62
(dp2632
sg71
g67
sg64
(lp2633
g57
(g78
g59
NtRp2634
(dp2635
g62
(dp2636
g82
g83
ssg71
g2630
sg64
(lp2637
S'wsgi'
p2638
asbag57
(g78
g59
NtRp2639
(dp2640
g62
(dp2641
g89
g90
ssg71
g2630
sg64
(lp2642
S':'
asbag57
(g78
g59
NtRp2643
(dp2644
g62
(dp2645
sg71
g2630
sg64
(lp2646
g57
(g58
g59
NtRp2647
(dp2648
g62
(dp2649
g70
I5
ssg71
g2643
sg64
(lp2650
g57
(g66
g59
NtRp2651
(dp2652
g62
(dp2653
g70
I4
ssg71
Nsg64
(lp2654
g57
(g73
g59
NtRp2655
(dp2656
g62
(dp2657
sg71
g2651
sg64
(lp2658
g57
(g78
g59
NtRp2659
(dp2660
g62
(dp2661
g82
g83
ssg71
g2655
sg64
(lp2662
S'environ'
p2663
asbag57
(g78
g59
NtRp2664
(dp2665
g62
(dp2666
g89
g90
ssg71
g2655
sg64
(lp2667
S':'
asbag57
(g78
g59
NtRp2668
(dp2669
g62
(dp2670
sg71
g2655
sg64
(lp2671
g57
(g58
g59
NtRp2672
(dp2673
g62
(dp2674
g70
I4
ssg71
g2668
sg64
(lp2675
g57
(g66
g59
NtRp2676
(dp2677
g62
(dp2678
g70
I3
ssg71
Nsg64
(lp2679
g57
(g73
g59
NtRp2680
(dp2681
g62
(dp2682
sg71
g2676
sg64
(lp2683
g57
(g78
g59
NtRp2684
(dp2685
g62
(dp2686
g82
g83
ssg71
g2680
sg64
(lp2687
S'HTTP_ACCEPT'
p2688
asbag57
(g78
g59
NtRp2689
(dp2690
g62
(dp2691
g89
g90
ssg71
g2680
sg64
(lp2692
S':'
asbag57
(g78
g59
NtRp2693
(dp2694
g62
(dp2695
sg71
g2680
sg64
(lp2696
g57
(g58
g59
NtRp2697
(dp2698
g62
(dp2699
g70
I3
ssg71
g2693
sg64
(lp2700
g1252
asbasbasbag57
(g73
g59
NtRp2701
(dp2702
g62
(dp2703
sg71
g2676
sg64
(lp2704
g57
(g78
g59
NtRp2705
(dp2706
g62
(dp2707
g82
g83
ssg71
g2701
sg64
(lp2708
S'HTTP_ACCEPT_ENCODING'
p2709
asbag57
(g78
g59
NtRp2710
(dp2711
g62
(dp2712
g89
g90
ssg71
g2701
sg64
(lp2713
S':'
asbag57
(g78
g59
NtRp2714
(dp2715
g62
(dp2716
sg71
g2701
sg64
(lp2717
g57
(g58
g59
NtRp2718
(dp2719
g62
(dp2720
g70
I3
ssg71
g2714
sg64
(lp2721
g1274
asbasbasbag57
(g73
g59
NtRp2722
(dp2723
g62
(dp2724
sg71
g2676
sg64
(lp2725
g57
(g78
g59
NtRp2726
(dp2727
g62
(dp2728
g82
g83
ssg71
g2722
sg64
(lp2729
S'HTTP_ACCEPT_LANGUAGE'
p2730
asbag57
(g78
g59
NtRp2731
(dp2732
g62
(dp2733
g89
g90
ssg71
g2722
sg64
(lp2734
S':'
asbag57
(g78
g59
NtRp2735
(dp2736
g62
(dp2737
sg71
g2722
sg64
(lp2738
g57
(g58
g59
NtRp2739
(dp2740
g62
(dp2741
g70
I3
ssg71
g2735
sg64
(lp2742
g1296
asbasbasbag57
(g73
g59
NtRp2743
(dp2744
g62
(dp2745
sg71
g2676
sg64
(lp2746
g57
(g78
g59
NtRp2747
(dp2748
g62
(dp2749
g82
g83
ssg71
g2743
sg64
(lp2750
S'HTTP_CONNECTION'
p2751
asbag57
(g78
g59
NtRp2752
(dp2753
g62
(dp2754
g89
g90
ssg71
g2743
sg64
(lp2755
S':'
asbag57
(g78
g59
NtRp2756
(dp2757
g62
(dp2758
sg71
g2743
sg64
(lp2759
g57
(g58
g59
NtRp2760
(dp2761
g62
(dp2762
g70
I3
ssg71
g2756
sg64
(lp2763
g1318
asbasbasbag57
(g73
g59
NtRp2764
(dp2765
g62
(dp2766
sg71
g2676
sg64
(lp2767
g57
(g78
g59
NtRp2768
(dp2769
g62
(dp2770
g82
g83
ssg71
g2764
sg64
(lp2771
S'HTTP_COOKIE'
p2772
asbag57
(g78
g59
NtRp2773
(dp2774
g62
(dp2775
g89
g90
ssg71
g2764
sg64
(lp2776
S':'
asbag57
(g78
g59
NtRp2777
(dp2778
g62
(dp2779
sg71
g2764
sg64
(lp2780
g57
(g58
g59
NtRp2781
(dp2782
g62
(dp2783
g70
I3
ssg71
g2777
sg64
(lp2784
g1340
asbasbasbag57
(g73
g59
NtRp2785
(dp2786
g62
(dp2787
sg71
g2676
sg64
(lp2788
g57
(g78
g59
NtRp2789
(dp2790
g62
(dp2791
g82
g83
ssg71
g2785
sg64
(lp2792
S'HTTP_HOST'
p2793
asbag57
(g78
g59
NtRp2794
(dp2795
g62
(dp2796
g89
g90
ssg71
g2785
sg64
(lp2797
S':'
asbag57
(g78
g59
NtRp2798
(dp2799
g62
(dp2800
sg71
g2785
sg64
(lp2801
g57
(g58
g59
NtRp2802
(dp2803
g62
(dp2804
g70
I3
ssg71
g2798
sg64
(lp2805
g1362
asbasbasbag57
(g73
g59
NtRp2806
(dp2807
g62
(dp2808
sg71
g2676
sg64
(lp2809
g57
(g78
g59
NtRp2810
(dp2811
g62
(dp2812
g82
g83
ssg71
g2806
sg64
(lp2813
S'HTTP_REFERER'
p2814
asbag57
(g78
g59
NtRp2815
(dp2816
g62
(dp2817
g89
g90
ssg71
g2806
sg64
(lp2818
S':'
asbag57
(g78
g59
NtRp2819
(dp2820
g62
(dp2821
sg71
g2806
sg64
(lp2822
g57
(g58
g59
NtRp2823
(dp2824
g62
(dp2825
g70
I3
ssg71
g2819
sg64
(lp2826
g1384
asbasbasbag57
(g73
g59
NtRp2827
(dp2828
g62
(dp2829
sg71
g2676
sg64
(lp2830
g57
(g78
g59
NtRp2831
(dp2832
g62
(dp2833
g82
g83
ssg71
g2827
sg64
(lp2834
S'HTTP_USER_AGENT'
p2835
asbag57
(g78
g59
NtRp2836
(dp2837
g62
(dp2838
g89
g90
ssg71
g2827
sg64
(lp2839
S':'
asbag57
(g78
g59
NtRp2840
(dp2841
g62
(dp2842
sg71
g2827
sg64
(lp2843
g57
(g58
g59
NtRp2844
(dp2845
g62
(dp2846
g70
I3
ssg71
g2840
sg64
(lp2847
g1406
asbasbasbag57
(g73
g59
NtRp2848
(dp2849
g62
(dp2850
sg71
g2676
sg64
(lp2851
g57
(g78
g59
NtRp2852
(dp2853
g62
(dp2854
g82
g83
ssg71
g2848
sg64
(lp2855
S'PATH_INFO'
p2856
asbag57
(g78
g59
NtRp2857
(dp2858
g62
(dp2859
g89
g90
ssg71
g2848
sg64
(lp2860
S':'
asbag57
(g78
g59
NtRp2861
(dp2862
g62
(dp2863
sg71
g2848
sg64
(lp2864
g57
(g58
g59
NtRp2865
(dp2866
g62
(dp2867
g70
I3
ssg71
g2861
sg64
(lp2868
g1470
asbasbasbag57
(g73
g59
NtRp2869
(dp2870
g62
(dp2871
sg71
g2676
sg64
(lp2872
g57
(g78
g59
NtRp2873
(dp2874
g62
(dp2875
g82
g83
ssg71
g2869
sg64
(lp2876
S'QUERY_STRING'
p2877
asbag57
(g78
g59
NtRp2878
(dp2879
g62
(dp2880
g89
g90
ssg71
g2869
sg64
(lp2881
S':'
asbag57
(g78
g59
NtRp2882
(dp2883
g62
(dp2884
sg71
g2869
sg64
(lp2885
g57
(g58
g59
NtRp2886
(dp2887
g62
(dp2888
g70
I3
ssg71
g2882
sg64
(lp2889
S''
asbasbasbag57
(g73
g59
NtRp2890
(dp2891
g62
(dp2892
sg71
g2676
sg64
(lp2893
g57
(g78
g59
NtRp2894
(dp2895
g62
(dp2896
g82
g83
ssg71
g2890
sg64
(lp2897
S'REMOTE_ADDR'
p2898
asbag57
(g78
g59
NtRp2899
(dp2900
g62
(dp2901
g89
g90
ssg71
g2890
sg64
(lp2902
S':'
asbag57
(g78
g59
NtRp2903
(dp2904
g62
(dp2905
sg71
g2890
sg64
(lp2906
g57
(g58
g59
NtRp2907
(dp2908
g62
(dp2909
g70
I3
ssg71
g2903
sg64
(lp2910
g254
asbasbasbag57
(g73
g59
NtRp2911
(dp2912
g62
(dp2913
sg71
g2676
sg64
(lp2914
g57
(g78
g59
NtRp2915
(dp2916
g62
(dp2917
g82
g83
ssg71
g2911
sg64
(lp2918
S'REMOTE_PORT'
p2919
asbag57
(g78
g59
NtRp2920
(dp2921
g62
(dp2922
g89
g90
ssg71
g2911
sg64
(lp2923
S':'
asbag57
(g78
g59
NtRp2924
(dp2925
g62
(dp2926
sg71
g2911
sg64
(lp2927
g57
(g58
g59
NtRp2928
(dp2929
g62
(dp2930
g70
I3
ssg71
g2924
sg64
(lp2931
g1534
asbasbasbag57
(g73
g59
NtRp2932
(dp2933
g62
(dp2934
sg71
g2676
sg64
(lp2935
g57
(g78
g59
NtRp2936
(dp2937
g62
(dp2938
g82
g83
ssg71
g2932
sg64
(lp2939
S'REQUEST_METHOD'
p2940
asbag57
(g78
g59
NtRp2941
(dp2942
g62
(dp2943
g89
g90
ssg71
g2932
sg64
(lp2944
S':'
asbag57
(g78
g59
NtRp2945
(dp2946
g62
(dp2947
sg71
g2932
sg64
(lp2948
g57
(g58
g59
NtRp2949
(dp2950
g62
(dp2951
g70
I3
ssg71
g2945
sg64
(lp2952
g1556
asbasbasbag57
(g73
g59
NtRp2953
(dp2954
g62
(dp2955
sg71
g2676
sg64
(lp2956
g57
(g78
g59
NtRp2957
(dp2958
g62
(dp2959
g82
g83
ssg71
g2953
sg64
(lp2960
S'SCRIPT_NAME'
p2961
asbag57
(g78
g59
NtRp2962
(dp2963
g62
(dp2964
g89
g90
ssg71
g2953
sg64
(lp2965
S':'
asbag57
(g78
g59
NtRp2966
(dp2967
g62
(dp2968
sg71
g2953
sg64
(lp2969
g57
(g58
g59
NtRp2970
(dp2971
g62
(dp2972
g70
I3
ssg71
g2966
sg64
(lp2973
S''
asbasbasbag57
(g73
g59
NtRp2974
(dp2975
g62
(dp2976
sg71
g2676
sg64
(lp2977
g57
(g78
g59
NtRp2978
(dp2979
g62
(dp2980
g82
g83
ssg71
g2974
sg64
(lp2981
S'SERVER_NAME'
p2982
asbag57
(g78
g59
NtRp2983
(dp2984
g62
(dp2985
g89
g90
ssg71
g2974
sg64
(lp2986
S':'
asbag57
(g78
g59
NtRp2987
(dp2988
g62
(dp2989
sg71
g2974
sg64
(lp2990
g57
(g58
g59
NtRp2991
(dp2992
g62
(dp2993
g70
I3
ssg71
g2987
sg64
(lp2994
g1599
asbasbasbag57
(g73
g59
NtRp2995
(dp2996
g62
(dp2997
sg71
g2676
sg64
(lp2998
g57
(g78
g59
NtRp2999
(dp3000
g62
(dp3001
g82
g83
ssg71
g2995
sg64
(lp3002
S'SERVER_PORT'
p3003
asbag57
(g78
g59
NtRp3004
(dp3005
g62
(dp3006
g89
g90
ssg71
g2995
sg64
(lp3007
S':'
asbag57
(g78
g59
NtRp3008
(dp3009
g62
(dp3010
sg71
g2995
sg64
(lp3011
g57
(g58
g59
NtRp3012
(dp3013
g62
(dp3014
g70
I3
ssg71
g3008
sg64
(lp3015
g1621
asbasbasbag57
(g73
g59
NtRp3016
(dp3017
g62
(dp3018
sg71
g2676
sg64
(lp3019
g57
(g78
g59
NtRp3020
(dp3021
g62
(dp3022
g82
g83
ssg71
g3016
sg64
(lp3023
S'SERVER_PROTOCOL'
p3024
asbag57
(g78
g59
NtRp3025
(dp3026
g62
(dp3027
g89
g90
ssg71
g3016
sg64
(lp3028
S':'
asbag57
(g78
g59
NtRp3029
(dp3030
g62
(dp3031
sg71
g3016
sg64
(lp3032
g57
(g58
g59
NtRp3033
(dp3034
g62
(dp3035
g70
I3
ssg71
g3029
sg64
(lp3036
g1643
asbasbasbag57
(g73
g59
NtRp3037
(dp3038
g62
(dp3039
sg71
g2676
sg64
(lp3040
g57
(g78
g59
NtRp3041
(dp3042
g62
(dp3043
g82
g83
ssg71
g3037
sg64
(lp3044
S'SERVER_SOFTWARE'
p3045
asbag57
(g78
g59
NtRp3046
(dp3047
g62
(dp3048
g89
g90
ssg71
g3037
sg64
(lp3049
S':'
asbag57
(g78
g59
NtRp3050
(dp3051
g62
(dp3052
sg71
g3037
sg64
(lp3053
g57
(g58
g59
NtRp3054
(dp3055
g62
(dp3056
g70
I3
ssg71
g3050
sg64
(lp3057
g1665
asbasbasbag57
(g73
g59
NtRp3058
(dp3059
g62
(dp3060
sg71
g2676
sg64
(lp3061
g57
(g78
g59
NtRp3062
(dp3063
g62
(dp3064
g82
g83
ssg71
g3058
sg64
(lp3065
S'wsgi.errors'
p3066
asbag57
(g78
g59
NtRp3067
(dp3068
g62
(dp3069
g89
g90
ssg71
g3058
sg64
(lp3070
S':'
asbag57
(g78
g59
NtRp3071
(dp3072
g62
(dp3073
sg71
g3058
sg64
(lp3074
g57
(g58
g59
NtRp3075
(dp3076
g62
(dp3077
g70
I3
ssg71
g3071
sg64
(lp3078
S"<open file '<stderr>', mode 'w' at 0x7f044c779270>"
p3079
asbasbasbag57
(g73
g59
NtRp3080
(dp3081
g62
(dp3082
sg71
g2676
sg64
(lp3083
g57
(g78
g59
NtRp3084
(dp3085
g62
(dp3086
g82
g83
ssg71
g3080
sg64
(lp3087
S'wsgi.file_wrapper'
p3088
asbag57
(g78
g59
NtRp3089
(dp3090
g62
(dp3091
g89
g90
ssg71
g3080
sg64
(lp3092
S':'
asbag57
(g78
g59
NtRp3093
(dp3094
g62
(dp3095
sg71
g3080
sg64
(lp3096
g57
(g58
g59
NtRp3097
(dp3098
g62
(dp3099
g70
I3
ssg71
g3093
sg64
(lp3100
S'<class wsgiref.util.FileWrapper at 0x21cc668>'
p3101
asbasbasbag57
(g73
g59
NtRp3102
(dp3103
g62
(dp3104
sg71
g2676
sg64
(lp3105
g57
(g78
g59
NtRp3106
(dp3107
g62
(dp3108
g82
g83
ssg71
g3102
sg64
(lp3109
S'wsgi.input'
p3110
asbag57
(g78
g59
NtRp3111
(dp3112
g62
(dp3113
g89
g90
ssg71
g3102
sg64
(lp3114
S':'
asbag57
(g78
g59
NtRp3115
(dp3116
g62
(dp3117
sg71
g3102
sg64
(lp3118
g57
(g58
g59
NtRp3119
(dp3120
g62
(dp3121
g70
I3
ssg71
g3115
sg64
(lp3122
S'<cStringIO.StringO object at 0x7f040c4042d0>'
p3123
asbasbasbag57
(g73
g59
NtRp3124
(dp3125
g62
(dp3126
sg71
g2676
sg64
(lp3127
g57
(g78
g59
NtRp3128
(dp3129
g62
(dp3130
g82
g83
ssg71
g3124
sg64
(lp3131
S'wsgi.multiprocess'
p3132
asbag57
(g78
g59
NtRp3133
(dp3134
g62
(dp3135
g89
g90
ssg71
g3124
sg64
(lp3136
S':'
asbag57
(g78
g59
NtRp3137
(dp3138
g62
(dp3139
sg71
g3124
sg64
(lp3140
g57
(g58
g59
NtRp3141
(dp3142
g62
(dp3143
g70
I3
ssg71
g3137
sg64
(lp3144
g100
asbasbasbag57
(g73
g59
NtRp3145
(dp3146
g62
(dp3147
sg71
g2676
sg64
(lp3148
g57
(g78
g59
NtRp3149
(dp3150
g62
(dp3151
g82
g83
ssg71
g3145
sg64
(lp3152
S'wsgi.multithread'
p3153
asbag57
(g78
g59
NtRp3154
(dp3155
g62
(dp3156
g89
g90
ssg71
g3145
sg64
(lp3157
S':'
asbag57
(g78
g59
NtRp3158
(dp3159
g62
(dp3160
sg71
g3145
sg64
(lp3161
g57
(g58
g59
NtRp3162
(dp3163
g62
(dp3164
g70
I3
ssg71
g3158
sg64
(lp3165
g1905
asbasbasbag57
(g73
g59
NtRp3166
(dp3167
g62
(dp3168
sg71
g2676
sg64
(lp3169
g57
(g78
g59
NtRp3170
(dp3171
g62
(dp3172
g82
g83
ssg71
g3166
sg64
(lp3173
S'wsgi.run_once'
p3174
asbag57
(g78
g59
NtRp3175
(dp3176
g62
(dp3177
g89
g90
ssg71
g3166
sg64
(lp3178
S':'
asbag57
(g78
g59
NtRp3179
(dp3180
g62
(dp3181
sg71
g3166
sg64
(lp3182
g57
(g58
g59
NtRp3183
(dp3184
g62
(dp3185
g70
I3
ssg71
g3179
sg64
(lp3186
g100
asbasbasbag57
(g73
g59
NtRp3187
(dp3188
g62
(dp3189
sg71
g2676
sg64
(lp3190
g57
(g78
g59
NtRp3191
(dp3192
g62
(dp3193
g82
g83
ssg71
g3187
sg64
(lp3194
S'wsgi.url_scheme'
p3195
asbag57
(g78
g59
NtRp3196
(dp3197
g62
(dp3198
g89
g90
ssg71
g3187
sg64
(lp3199
S':'
asbag57
(g78
g59
NtRp3200
(dp3201
g62
(dp3202
sg71
g3187
sg64
(lp3203
g57
(g58
g59
NtRp3204
(dp3205
g62
(dp3206
g70
I3
ssg71
g3200
sg64
(lp3207
g1948
asbasbasbag57
(g73
g59
NtRp3208
(dp3209
g62
(dp3210
sg71
g2676
sg64
(lp3211
g57
(g78
g59
NtRp3212
(dp3213
g62
(dp3214
g82
g83
ssg71
g3208
sg64
(lp3215
S'wsgi.version'
p3216
asbag57
(g78
g59
NtRp3217
(dp3218
g62
(dp3219
g89
g90
ssg71
g3208
sg64
(lp3220
S':'
asbag57
(g78
g59
NtRp3221
(dp3222
g62
(dp3223
sg71
g3208
sg64
(lp3224
g57
(g58
g59
NtRp3225
(dp3226
g62
(dp3227
g70
I3
ssg71
g3221
sg64
(lp3228
S'1'
asbasbasbasbasbasbasbasbasbasbasbasbasbsS'frames'
p3229
(lp3230
(dp3231
S'file'
p3232
S'/usr/lib/pymodules/python2.7/gluon/restricted.py'
p3233
sS'dump'
p3234
(dp3235
S'environment'
p3236
S"{'A': <class 'gluon.html.A'>, 'Auth': <class 'gluon.tools.Auth'>, 'B': <class 'gluon.html.B'>, 'BEAUTIFY': <class 'gluon.html.BEAUTIFY'>, 'BODY': <class 'gluon.html.BODY'>, 'BR': <class 'gluon.html.BR'>, 'BUTTON': <class 'gluon.html.BUTTON'>, 'CAT': <class 'gluon.html.CAT'>, 'CENTER': <class 'gluon.html.CENTER'>, 'CLEANUP': <class 'gluon.validators.CLEANUP'>, ...}"
p3237
sS'ccode'
p3238
S'<code object <module> at 0x7f0404463ab0, file "/...cations/Read_it/controllers/default.py", line 12>'
p3239
ssS'lnum'
p3240
I204
sS'lines'
p3241
(dp3242
I199
S'    try:'
p3243
sI200
S'        if type(code) == types.CodeType:'
p3244
sI201
S'            ccode = code'
p3245
sI202
S'        else:'
p3246
sI203
S'            ccode = compile2(code,layer)'
p3247
sI204
S'        exec ccode in environment'
p3248
sI205
S'    except HTTP:'
p3249
sI206
S'        raise'
p3250
sI207
S'    except RestrictedError:'
p3251
sI208
S'        # do not encapsulate (obfuscate) the original RestrictedError'
p3252
ssS'call'
p3253
S"(code='# -*- coding: utf-8 -*-\\n# this file is released ...d())\\n\\n\\nresponse._vars=response._caller(list_cat)\\n', environment={'A': <class 'gluon.html.A'>, 'Auth': <class 'gluon.tools.Auth'>, 'B': <class 'gluon.html.B'>, 'BEAUTIFY': <class 'gluon.html.BEAUTIFY'>, 'BODY': <class 'gluon.html.BODY'>, 'BR': <class 'gluon.html.BR'>, 'BUTTON': <class 'gluon.html.BUTTON'>, 'CAT': <class 'gluon.html.CAT'>, 'CENTER': <class 'gluon.html.CENTER'>, 'CLEANUP': <class 'gluon.validators.CLEANUP'>, ...}, layer='/home/ds-iiit/web2py/applications/Read_it/controllers/default.py')"
p3254
sS'func'
p3255
S'restricted'
p3256
sa(dp3257
g3232
S'/home/ds-iiit/web2py/applications/Read_it/controllers/default.py'
p3258
sg3234
(dp3259
sg3240
I170
sg3241
(dp3260
I160
S'    http://..../[app]/default/data/select/[table]'
p3261
sI161
S'    http://..../[app]/default/data/search/[table]'
p3262
sI162
S'    but URLs must be signed, i.e. linked with'
p3263
sI163
S"      A('table',_href=URL('data/tables',user_signature=True))"
p3264
sI164
S'    or with the signed load operator'
p3265
sI165
S"      LOAD('default','data.load',args='tables',ajax=True,user_signature=True)"
p3266
sI166
S'    """'
p3267
sI167
S'    return dict(form=crud())'
p3268
sI168
S''
sI159
S'    http://..../[app]/default/data/delete/[table]/[id]'
p3269
ssg3253
S'()'
p3270
sg3255
S'<module>'
p3271
sa(dp3272
g3232
S'/usr/lib/pymodules/python2.7/gluon/globals.py'
p3273
sg3234
(dp3274
S'self'
p3275
S'undefined'
p3276
sS'f'
S'<function list_cat>'
p3277
ssg3240
I172
sg3241
(dp3278
I167
S'        self.meta = Storage()      # used by web2py_ajax.html'
p3279
sI168
S'        self.menu = []             # used by the default view layout'
p3280
sI169
S'        self.files = []            # used by web2py_ajax.html'
p3281
sI170
S'        self.generic_patterns = [] # patterns to allow generic views'
p3282
sI171
S'        self._vars = None'
p3283
sI172
S'        self._caller = lambda f: f()'
p3284
sI173
S'        self._view_environment = None'
p3285
sI174
S'        self._custom_commit = None'
p3286
sI175
S'        self._custom_rollback = None'
p3287
sI176
S''
ssg3253
S'(f=<function list_cat>)'
p3288
sg3255
S'<lambda>'
p3289
sa(dp3290
g3232
S'/home/ds-iiit/web2py/applications/Read_it/controllers/default.py'
p3291
sg3234
(dp3292
S'orderby'
p3293
g3276
sS'db.Category'
p3294
S"<Table {'ALL': <gluon.dal.SQLALL object at 0x7f0...id': <gluon.dal.Field object at 0x7f04182b5f50>}>"
p3295
sS'global request'
p3296
S"<Storage {'body': <cStringIO.StringO object at 0..._vars': <Storage {}>, 'post_vars': <Storage {}>}>"
p3297
sS'db.Item.Category'
p3298
S'<gluon.dal.Field object>'
p3299
sS'db.Item.Rating'
p3300
S'<gluon.dal.Field object>'
p3301
sS').select'
p3302
g3276
sS'db.Category.id'
p3303
S'<gluon.dal.Field object>'
p3304
sS'request.args'
p3305
S"['list_cat', 'list_cat', 'list_cat', 'list_cat', '6']"
p3306
sS'db.Item'
p3307
S"<Table {'Category': <gluon.dal.Field object at 0...id': <gluon.dal.Field object at 0x7f04182bc410>}>"
p3308
sS'global db'
p3309
S"<DAL {'Category': <Table {'ALL': <gluon.dal.SQLA...': <gluon.dal.Field object at 0x7f04184a1c10>}>}>"
p3310
sS'x'
g3276
ssg3240
I95
sg3241
(dp3311
I96
S'\treturn dict(x=x)'
p3312
sI97
S''
sI98
S'def check_access():'
p3313
sI99
S'    return True if auth.is_logged_in() else False'
p3314
sI90
S'\telse:'
p3315
sI91
S'\t\tredirect(URL(listall))'
p3316
sI92
S'\treturn dict(form=form)'
p3317
sI93
S''
sI94
S'def list_cat():'
p3318
sI95
S'\tx = db((request.args(0)==db.Category.id) & (db.Category.id == db.Item.Category)).select(orderby=db.Item.Rating)'
p3319
ssg3253
S'()'
p3320
sg3255
S'list_cat'
p3321
sa(dp3322
g3232
S'/usr/lib/pymodules/python2.7/gluon/dal.py'
p3323
sg3234
(dp3324
S'self.query'
p3325
S'<gluon.dal.Query object>'
p3326
sS'fields'
p3327
S'()'
p3328
sS'self'
p3329
S'<gluon.dal.Set object>'
p3330
sS'self.db._adapter.select'
p3331
S'<bound method SQLiteAdapter.select of <gluon.dal.SQLiteAdapter object>>'
p3332
sS'self.db._adapter'
p3333
S'<gluon.dal.SQLiteAdapter object>'
p3334
sS'attributes'
p3335
S"{'orderby': <gluon.dal.Field object>}"
p3336
sS'self.db'
p3337
S"<DAL {'Category': <Table {'ALL': <gluon.dal.SQLA...': <gluon.dal.Field object at 0x7f04184a1c10>}>}>"
p3338
ssg3240
I6333
sg3241
(dp3339
I6336
S'        tablename=self.db._adapter.get_table(self.query)'
p3340
sI6337
S'        self.delete_uploaded_files()'
p3341
sI6328
S''
sI6329
S'    def count(self,distinct=None):'
p3342
sI6330
S'        return self.db._adapter.count(self.query,distinct)'
p3343
sI6331
S''
sI6332
S'    def select(self, *fields, **attributes):'
p3344
sI6333
S'        return self.db._adapter.select(self.query,fields,attributes)'
p3345
sI6334
S''
sI6335
S'    def delete(self):'
p3346
ssg3253
S"(self=<gluon.dal.Set object>, *fields=(), **attributes={'orderby': <gluon.dal.Field object>})"
p3347
sg3255
S'select'
p3348
sa(dp3349
g3232
S'/usr/lib/pymodules/python2.7/gluon/dal.py'
p3350
sg3234
(dp3351
S'self._select'
p3352
S'<bound method SQLiteAdapter._select of <gluon.dal.SQLiteAdapter object>>'
p3353
sS'fields'
p3354
S'()'
p3355
sS'self'
p3356
S'<gluon.dal.SQLiteAdapter object>'
p3357
sS'sql'
p3358
g3276
sS'query'
p3359
S'<gluon.dal.Query object>'
p3360
sS'attributes'
p3361
S"{'orderby': <gluon.dal.Field object>}"
p3362
ssg3240
I1274
sg3241
(dp3363
I1269
S'        Always returns a Rows object, possibly empty.'
p3364
sI1270
S'        """'
p3365
sI1271
S'        def response(sql):'
p3366
sI1272
S'            self.execute(sql)'
p3367
sI1273
S'            return self.cursor.fetchall()'
p3368
sI1274
S'        sql = self._select(query, fields, attributes)'
p3369
sI1275
S"        if attributes.get('cache', None):"
p3370
sI1276
S"            (cache_model, time_expire) = attributes['cache']"
p3371
sI1277
S"            del attributes['cache']"
p3372
sI1278
S"            key = self.uri + '/' + sql"
p3373
ssg3253
S"(self=<gluon.dal.SQLiteAdapter object>, query=<gluon.dal.Query object>, fields=(), attributes={'orderby': <gluon.dal.Field object>})"
p3374
sg3255
g3348
sa(dp3375
g3232
S'/usr/lib/pymodules/python2.7/gluon/dal.py'
p3376
sg3234
(dp3377
S'fields'
p3378
S'()'
p3379
sS'self'
p3380
S'<gluon.dal.SQLiteAdapter object>'
p3381
sS')._select'
p3382
S'<bound method SQLiteAdapter._select of <gluon.dal.SQLiteAdapter object>>'
p3383
sS'sql'
p3384
g3276
sS'global SQLiteAdapter'
p3385
S"<class 'gluon.dal.SQLiteAdapter'>"
p3386
sS'query'
p3387
S'<gluon.dal.Query object>'
p3388
sS'builtinsuper'
p3389
S"<type 'super'>"
p3390
sS'attributes'
p3391
S"{'orderby': <gluon.dal.Field object>}"
p3392
ssg3240
I1672
sg3241
(dp3393
I1667
S'        """'
p3394
sI1668
S'        Simulate SELECT ... FOR UPDATE with BEGIN IMMEDIATE TRANSACTION.'
p3395
sI1669
S'        Note that the entire database, rather than one record, is locked'
p3396
sI1670
S'        (it will be locked eventually anyway by the following UPDATE).'
p3397
sI1671
S'        """'
p3398
sI1672
S'        sql = super(SQLiteAdapter, self)._select(query, fields, attributes)'
p3399
sI1673
S"        if attributes.get('for_update', False):"
p3400
sI1674
S"            sql = 'BEGIN IMMEDIATE TRANSACTION; ' + sql"
p3401
sI1675
S'        return sql'
p3402
sI1676
S''
ssg3253
S"(self=<gluon.dal.SQLiteAdapter object>, query=<gluon.dal.Query object>, fields=(), attributes={'orderby': <gluon.dal.Field object>})"
p3403
sg3255
S'_select'
p3404
sa(dp3405
g3232
S'/usr/lib/pymodules/python2.7/gluon/dal.py'
p3406
sg3234
(dp3407
S'query'
p3408
S'<gluon.dal.Query object>'
p3409
sS'self'
p3410
S'<gluon.dal.SQLiteAdapter object>'
p3411
sS'sql_w'
p3412
g3276
sS'self.expand'
p3413
S'<bound method SQLiteAdapter.expand of <gluon.dal.SQLiteAdapter object>>'
p3414
ssg3240
I1175
sg3241
(dp3415
I1170
S'        if len(tablenames) < 1:'
p3416
sI1171
S"            raise SyntaxError, 'Set: no tables selected'"
p3417
sI1172
S"        sql_f = ', '.join(map(self.expand, fields))"
p3418
sI1173
S"        self._colnames = [c.strip() for c in sql_f.split(', ')]"
p3419
sI1174
S'        if query:'
p3420
sI1175
S"            sql_w = ' WHERE ' + self.expand(query)"
p3421
sI1176
S'        else:'
p3422
sI1177
S"            sql_w = ''"
p3423
sI1178
S"        sql_o = ''"
p3424
sI1179
S"        sql_s = ''"
p3425
ssg3253
S"(self=<gluon.dal.SQLiteAdapter object>, query=<gluon.dal.Query object>, fields=[<gluon.dal.Field object>, <gluon.dal.Field object>, <gluon.dal.Field object>, <gluon.dal.Field object>, <gluon.dal.Field object>, <gluon.dal.Field object>, <gluon.dal.Field object>, <gluon.dal.Field object>, <gluon.dal.Field object>, <gluon.dal.Field object>, <gluon.dal.Field object>], attributes={'orderby': <gluon.dal.Field object>})"
p3426
sg3255
g3404
sa(dp3427
g3232
S'/usr/lib/pymodules/python2.7/gluon/dal.py'
p3428
sg3234
(dp3429
S'expression.op'
p3430
S'<bound method SQLiteAdapter.AND of <gluon.dal.SQLiteAdapter object>>'
p3431
sS'expression'
p3432
S'<gluon.dal.Query object>'
p3433
sS'expression.first'
p3434
S'<gluon.dal.Query object>'
p3435
sS'expression.second'
p3436
S'<gluon.dal.Query object>'
p3437
ssg3240
I1023
sg3241
(dp3438
I1024
S'            elif not expression.first is None:'
p3439
sI1025
S'                return expression.op(expression.first)'
p3440
sI1026
S'            elif not isinstance(expression.op, str):'
p3441
sI1027
S'                return expression.op()'
p3442
sI1018
S'    def expand(self, expression, field_type=None):'
p3443
sI1019
S'        if isinstance(expression, Field):'
p3444
sI1020
S'            return str(expression)'
p3445
sI1021
S'        elif isinstance(expression, (Expression, Query)):'
p3446
sI1022
S'            if not expression.second is None:'
p3447
sI1023
S'                return expression.op(expression.first, expression.second)'
p3448
ssg3253
S'(self=<gluon.dal.SQLiteAdapter object>, expression=<gluon.dal.Query object>, field_type=None)'
p3449
sg3255
S'expand'
p3450
sa(dp3451
g3232
S'/usr/lib/pymodules/python2.7/gluon/dal.py'
p3452
sg3234
(dp3453
S'self'
p3454
S'<gluon.dal.SQLiteAdapter object>'
p3455
sS'first'
p3456
S'<gluon.dal.Query object>'
p3457
sS'second'
p3458
S'<gluon.dal.Query object>'
p3459
sS'self.expand'
p3460
S'<bound method SQLiteAdapter.expand of <gluon.dal.SQLiteAdapter object>>'
p3461
ssg3240
I932
sg3241
(dp3462
I928
S'    def NOT(self, first):'
p3463
sI929
S"        return '(NOT %s)' % self.expand(first)"
p3464
sI930
S''
sI931
S'    def AND(self, first, second):'
p3465
sI932
S"        return '(%s AND %s)' % (self.expand(first), self.expand(second))"
p3466
sI933
S''
sI934
S'    def OR(self, first, second):'
p3467
sI935
S"        return '(%s OR %s)' % (self.expand(first), self.expand(second))"
p3468
sI936
S''
sI927
S''
ssg3253
S'(self=<gluon.dal.SQLiteAdapter object>, first=<gluon.dal.Query object>, second=<gluon.dal.Query object>)'
p3469
sg3255
S'AND'
p3470
sa(dp3471
g3232
S'/usr/lib/pymodules/python2.7/gluon/dal.py'
p3472
sg3234
(dp3473
S'expression.op'
p3474
S'<bound method SQLiteAdapter.EQ of <gluon.dal.SQLiteAdapter object>>'
p3475
sS'expression'
p3476
S'<gluon.dal.Query object>'
p3477
sS'expression.first'
p3478
S'<gluon.dal.Field object>'
p3479
sS'expression.second'
p3480
S"'list_cat'"
p3481
ssg3240
I1023
sg3241
(dp3482
I1024
S'            elif not expression.first is None:'
p3483
sI1025
S'                return expression.op(expression.first)'
p3484
sI1026
S'            elif not isinstance(expression.op, str):'
p3485
sI1027
S'                return expression.op()'
p3486
sI1018
S'    def expand(self, expression, field_type=None):'
p3487
sI1019
S'        if isinstance(expression, Field):'
p3488
sI1020
S'            return str(expression)'
p3489
sI1021
S'        elif isinstance(expression, (Expression, Query)):'
p3490
sI1022
S'            if not expression.second is None:'
p3491
sI1023
S'                return expression.op(expression.first, expression.second)'
p3492
ssg3253
S'(self=<gluon.dal.SQLiteAdapter object>, expression=<gluon.dal.Query object>, field_type=None)'
p3493
sg3255
g3450
sa(dp3494
g3232
S'/usr/lib/pymodules/python2.7/gluon/dal.py'
p3495
sg3234
(dp3496
S'first.type'
p3497
S"'id'"
p3498
sS'self'
p3499
S'<gluon.dal.SQLiteAdapter object>'
p3500
sS'first'
p3501
S'<gluon.dal.Field object>'
p3502
sS'second'
p3503
S"'list_cat'"
p3504
sS'self.expand'
p3505
S'<bound method SQLiteAdapter.expand of <gluon.dal.SQLiteAdapter object>>'
p3506
ssg3240
I964
sg3241
(dp3507
I960
S''
sI961
S'    def EQ(self, first, second=None):'
p3508
sI962
S'        if second is None:'
p3509
sI963
S"            return '(%s IS NULL)' % self.expand(first)"
p3510
sI964
S"        return '(%s = %s)' % (self.expand(first), self.expand(second, first.type))"
p3511
sI965
S''
sI966
S'    def NE(self, first, second=None):'
p3512
sI967
S'        if second is None:'
p3513
sI968
S"            return '(%s IS NOT NULL)' % self.expand(first)"
p3514
sI959
S"        return '(%s LIKE %s)' % (self.expand(first),self.expand(key,'string'))"
p3515
ssg3253
S"(self=<gluon.dal.SQLiteAdapter object>, first=<gluon.dal.Field object>, second='list_cat')"
p3516
sg3255
S'EQ'
p3517
sa(dp3518
g3232
S'/usr/lib/pymodules/python2.7/gluon/dal.py'
p3519
sg3234
(dp3520
S'builtinstr'
p3521
S"<type 'str'>"
p3522
sS'field_type'
p3523
S"'id'"
p3524
sS'self'
p3525
S'<gluon.dal.SQLiteAdapter object>'
p3526
sS'expression'
p3527
S"'list_cat'"
p3528
sS'self.represent'
p3529
S'<bound method SQLiteAdapter.represent of <gluon.dal.SQLiteAdapter object>>'
p3530
ssg3240
I1031
sg3241
(dp3531
I1026
S'            elif not isinstance(expression.op, str):'
p3532
sI1027
S'                return expression.op()'
p3533
sI1028
S'            else:'
p3534
sI1029
S"                return '(%s)' % expression.op"
p3535
sI1030
S'        elif field_type:'
p3536
sI1031
S'            return str(self.represent(expression,field_type))'
p3537
sI1032
S'        elif isinstance(expression,(list,tuple)):'
p3538
sI1033
S"            return ','.join(self.represent(item,field_type) for item in expression)"
p3539
sI1034
S'        else:'
p3540
sI1035
S'            return str(expression)'
p3541
ssg3253
S"(self=<gluon.dal.SQLiteAdapter object>, expression='list_cat', field_type='id')"
p3542
sg3255
g3450
sa(dp3543
g3232
S'/usr/lib/pymodules/python2.7/gluon/dal.py'
p3544
sg3234
(dp3545
S'builtinstr'
p3546
S"<type 'str'>"
p3547
sS'builtinint'
p3548
S"<type 'int'>"
p3549
sS'obj'
p3550
S"'list_cat'"
p3551
ssg3240
I1388
sg3241
(dp3552
I1383
S"            if obj and not str(obj)[:1].upper() in ['F', '0']:"
p3553
sI1384
S'                return "\'T\'"'
p3554
sI1385
S'            else:'
p3555
sI1386
S'                return "\'F\'"'
p3556
sI1387
S"        if fieldtype == 'id' or fieldtype == 'integer':"
p3557
sI1388
S'            return str(int(obj))'
p3558
sI1389
S"        if fieldtype.startswith('decimal'):"
p3559
sI1390
S'            return str(obj)'
p3560
sI1391
S"        elif fieldtype.startswith('reference'): # reference"
p3561
sI1392
S"            if fieldtype.find('.')>0:"
p3562
ssg3253
S"(self=<gluon.dal.SQLiteAdapter object>, obj='list_cat', fieldtype='id')"
p3563
sg3255
S'represent'
p3564
sasS'pyver'
p3565
S'Python 2.7.3: /usr/bin/python'
p3566
sS'session'
p3567
g57
(g58
g59
NtRp3568
(dp3569
g62
(dp3570
sg64
(lp3571
g57
(g66
g59
NtRp3572
(dp3573
g62
(dp3574
g70
I5
ssg71
Nsg64
(lp3575
g57
(g73
g59
NtRp3576
(dp3577
g62
(dp3578
sg71
g3572
sg64
(lp3579
g57
(g78
g59
NtRp3580
(dp3581
g62
(dp3582
g82
g83
ssg71
g3576
sg64
(lp3583
S'auth'
p3584
asbag57
(g78
g59
NtRp3585
(dp3586
g62
(dp3587
g89
g90
ssg71
g3576
sg64
(lp3588
S':'
asbag57
(g78
g59
NtRp3589
(dp3590
g62
(dp3591
sg71
g3576
sg64
(lp3592
g57
(g58
g59
NtRp3593
(dp3594
g62
(dp3595
g70
I5
ssg71
g3589
sg64
(lp3596
g57
(g66
g59
NtRp3597
(dp3598
g62
(dp3599
g70
I4
ssg71
Nsg64
(lp3600
g57
(g73
g59
NtRp3601
(dp3602
g62
(dp3603
sg71
g3597
sg64
(lp3604
g57
(g78
g59
NtRp3605
(dp3606
g62
(dp3607
g82
g83
ssg71
g3601
sg64
(lp3608
S'expiration'
p3609
asbag57
(g78
g59
NtRp3610
(dp3611
g62
(dp3612
g89
g90
ssg71
g3601
sg64
(lp3613
S':'
asbag57
(g78
g59
NtRp3614
(dp3615
g62
(dp3616
sg71
g3601
sg64
(lp3617
g57
(g58
g59
NtRp3618
(dp3619
g62
(dp3620
g70
I4
ssg71
g3614
sg64
(lp3621
S'2592000'
p3622
asbasbasbag57
(g73
g59
NtRp3623
(dp3624
g62
(dp3625
sg71
g3597
sg64
(lp3626
g57
(g78
g59
NtRp3627
(dp3628
g62
(dp3629
g82
g83
ssg71
g3623
sg64
(lp3630
S'hmac_key'
p3631
asbag57
(g78
g59
NtRp3632
(dp3633
g62
(dp3634
g89
g90
ssg71
g3623
sg64
(lp3635
S':'
asbag57
(g78
g59
NtRp3636
(dp3637
g62
(dp3638
sg71
g3623
sg64
(lp3639
g57
(g58
g59
NtRp3640
(dp3641
g62
(dp3642
g70
I4
ssg71
g3636
sg64
(lp3643
S'bef30485-d359-46e3-b60a-cb3c7ea7b50c'
p3644
asbasbasbag57
(g73
g59
NtRp3645
(dp3646
g62
(dp3647
sg71
g3597
sg64
(lp3648
g57
(g78
g59
NtRp3649
(dp3650
g62
(dp3651
g82
g83
ssg71
g3645
sg64
(lp3652
S'last_visit'
p3653
asbag57
(g78
g59
NtRp3654
(dp3655
g62
(dp3656
g89
g90
ssg71
g3645
sg64
(lp3657
S':'
asbag57
(g78
g59
NtRp3658
(dp3659
g62
(dp3660
sg71
g3645
sg64
(lp3661
g57
(g58
g59
NtRp3662
(dp3663
g62
(dp3664
g70
I4
ssg71
g3658
sg64
(lp3665
S'datetime.datetime(2013, 9, 1, 23, 54, 54, 976819)'
p3666
asbasbasbag57
(g73
g59
NtRp3667
(dp3668
g62
(dp3669
sg71
g3597
sg64
(lp3670
g57
(g78
g59
NtRp3671
(dp3672
g62
(dp3673
g82
g83
ssg71
g3667
sg64
(lp3674
S'remember'
p3675
asbag57
(g78
g59
NtRp3676
(dp3677
g62
(dp3678
g89
g90
ssg71
g3667
sg64
(lp3679
S':'
asbag57
(g78
g59
NtRp3680
(dp3681
g62
(dp3682
sg71
g3667
sg64
(lp3683
g57
(g58
g59
NtRp3684
(dp3685
g62
(dp3686
g70
I4
ssg71
g3680
sg64
(lp3687
g100
asbasbasbag57
(g73
g59
NtRp3688
(dp3689
g62
(dp3690
sg71
g3597
sg64
(lp3691
g57
(g78
g59
NtRp3692
(dp3693
g62
(dp3694
g82
g83
ssg71
g3688
sg64
(lp3695
S'user'
p3696
asbag57
(g78
g59
NtRp3697
(dp3698
g62
(dp3699
g89
g90
ssg71
g3688
sg64
(lp3700
S':'
asbag57
(g78
g59
NtRp3701
(dp3702
g62
(dp3703
sg71
g3688
sg64
(lp3704
g57
(g58
g59
NtRp3705
(dp3706
g62
(dp3707
g70
I4
ssg71
g3701
sg64
(lp3708
g57
(g66
g59
NtRp3709
(dp3710
g62
(dp3711
g70
I3
ssg71
Nsg64
(lp3712
g57
(g73
g59
NtRp3713
(dp3714
g62
(dp3715
sg71
g3709
sg64
(lp3716
g57
(g78
g59
NtRp3717
(dp3718
g62
(dp3719
g82
g83
ssg71
g3713
sg64
(lp3720
S'email'
p3721
asbag57
(g78
g59
NtRp3722
(dp3723
g62
(dp3724
g89
g90
ssg71
g3713
sg64
(lp3725
S':'
asbag57
(g78
g59
NtRp3726
(dp3727
g62
(dp3728
sg71
g3713
sg64
(lp3729
g57
(g58
g59
NtRp3730
(dp3731
g62
(dp3732
g70
I3
ssg71
g3726
sg64
(lp3733
S'sweetdevansh@gmail.com'
p3734
asbasbasbag57
(g73
g59
NtRp3735
(dp3736
g62
(dp3737
sg71
g3709
sg64
(lp3738
g57
(g78
g59
NtRp3739
(dp3740
g62
(dp3741
g82
g83
ssg71
g3735
sg64
(lp3742
S'first_name'
p3743
asbag57
(g78
g59
NtRp3744
(dp3745
g62
(dp3746
g89
g90
ssg71
g3735
sg64
(lp3747
S':'
asbag57
(g78
g59
NtRp3748
(dp3749
g62
(dp3750
sg71
g3735
sg64
(lp3751
g57
(g58
g59
NtRp3752
(dp3753
g62
(dp3754
g70
I3
ssg71
g3748
sg64
(lp3755
S'Devansh'
p3756
asbasbasbag57
(g73
g59
NtRp3757
(dp3758
g62
(dp3759
sg71
g3709
sg64
(lp3760
g57
(g78
g59
NtRp3761
(dp3762
g62
(dp3763
g82
g83
ssg71
g3757
sg64
(lp3764
S'id'
p3765
asbag57
(g78
g59
NtRp3766
(dp3767
g62
(dp3768
g89
g90
ssg71
g3757
sg64
(lp3769
S':'
asbag57
(g78
g59
NtRp3770
(dp3771
g62
(dp3772
sg71
g3757
sg64
(lp3773
g57
(g58
g59
NtRp3774
(dp3775
g62
(dp3776
g70
I3
ssg71
g3770
sg64
(lp3777
S'1'
asbasbasbag57
(g73
g59
NtRp3778
(dp3779
g62
(dp3780
sg71
g3709
sg64
(lp3781
g57
(g78
g59
NtRp3782
(dp3783
g62
(dp3784
g82
g83
ssg71
g3778
sg64
(lp3785
S'last_name'
p3786
asbag57
(g78
g59
NtRp3787
(dp3788
g62
(dp3789
g89
g90
ssg71
g3778
sg64
(lp3790
S':'
asbag57
(g78
g59
NtRp3791
(dp3792
g62
(dp3793
sg71
g3778
sg64
(lp3794
g57
(g58
g59
NtRp3795
(dp3796
g62
(dp3797
g70
I3
ssg71
g3791
sg64
(lp3798
S'Shah'
p3799
asbasbasbag57
(g73
g59
NtRp3800
(dp3801
g62
(dp3802
sg71
g3709
sg64
(lp3803
g57
(g78
g59
NtRp3804
(dp3805
g62
(dp3806
g82
g83
ssg71
g3800
sg64
(lp3807
S'password'
p3808
asbag57
(g78
g59
NtRp3809
(dp3810
g62
(dp3811
g89
g90
ssg71
g3800
sg64
(lp3812
S':'
asbag57
(g78
g59
NtRp3813
(dp3814
g62
(dp3815
sg71
g3800
sg64
(lp3816
g57
(g58
g59
NtRp3817
(dp3818
g62
(dp3819
g70
I3
ssg71
g3813
sg64
(lp3820
S'4fa78620b77f92c7faf768350dccbc8d'
p3821
asbasbasbag57
(g73
g59
NtRp3822
(dp3823
g62
(dp3824
sg71
g3709
sg64
(lp3825
g57
(g78
g59
NtRp3826
(dp3827
g62
(dp3828
g82
g83
ssg71
g3822
sg64
(lp3829
S'registration_id'
p3830
asbag57
(g78
g59
NtRp3831
(dp3832
g62
(dp3833
g89
g90
ssg71
g3822
sg64
(lp3834
S':'
asbag57
(g78
g59
NtRp3835
(dp3836
g62
(dp3837
sg71
g3822
sg64
(lp3838
g57
(g58
g59
NtRp3839
(dp3840
g62
(dp3841
g70
I3
ssg71
g3835
sg64
(lp3842
S''
asbasbasbag57
(g73
g59
NtRp3843
(dp3844
g62
(dp3845
sg71
g3709
sg64
(lp3846
g57
(g78
g59
NtRp3847
(dp3848
g62
(dp3849
g82
g83
ssg71
g3843
sg64
(lp3850
S'registration_key'
p3851
asbag57
(g78
g59
NtRp3852
(dp3853
g62
(dp3854
g89
g90
ssg71
g3843
sg64
(lp3855
S':'
asbag57
(g78
g59
NtRp3856
(dp3857
g62
(dp3858
sg71
g3843
sg64
(lp3859
g57
(g58
g59
NtRp3860
(dp3861
g62
(dp3862
g70
I3
ssg71
g3856
sg64
(lp3863
S''
asbasbasbag57
(g73
g59
NtRp3864
(dp3865
g62
(dp3866
sg71
g3709
sg64
(lp3867
g57
(g78
g59
NtRp3868
(dp3869
g62
(dp3870
g82
g83
ssg71
g3864
sg64
(lp3871
S'reset_password_key'
p3872
asbag57
(g78
g59
NtRp3873
(dp3874
g62
(dp3875
g89
g90
ssg71
g3864
sg64
(lp3876
S':'
asbag57
(g78
g59
NtRp3877
(dp3878
g62
(dp3879
sg71
g3864
sg64
(lp3880
g57
(g58
g59
NtRp3881
(dp3882
g62
(dp3883
g70
I3
ssg71
g3877
sg64
(lp3884
S''
asbasbasbasbasbasbasbasbasbasbasbag57
(g73
g59
NtRp3885
(dp3886
g62
(dp3887
sg71
g3572
sg64
(lp3888
g57
(g78
g59
NtRp3889
(dp3890
g62
(dp3891
g82
g83
ssg71
g3885
sg64
(lp3892
S'last_query'
p3893
asbag57
(g78
g59
NtRp3894
(dp3895
g62
(dp3896
g89
g90
ssg71
g3885
sg64
(lp3897
S':'
asbag57
(g78
g59
NtRp3898
(dp3899
g62
(dp3900
sg71
g3885
sg64
(lp3901
g57
(g58
g59
NtRp3902
(dp3903
g62
(dp3904
g70
I5
ssg71
g3898
sg64
(lp3905
S'db.Category.id>0'
p3906
asbasbasbasbasbsS'etype'
p3907
S"<type 'exceptions.ValueError'>"
p3908
sS'date'
p3909
S'Mon Sep  2 00:59:53 2013'
p3910
sS'response'
p3911
g57
(g58
g59
NtRp3912
(dp3913
g62
(dp3914
sg64
(lp3915
g57
(g66
g59
NtRp3916
(dp3917
g62
(dp3918
g70
I5
ssg71
Nsg64
(lp3919
g57
(g73
g59
NtRp3920
(dp3921
g62
(dp3922
sg71
g3916
sg64
(lp3923
g57
(g78
g59
NtRp3924
(dp3925
g62
(dp3926
g82
g83
ssg71
g3920
sg64
(lp3927
g219
asbag57
(g78
g59
NtRp3928
(dp3929
g62
(dp3930
g89
g90
ssg71
g3920
sg64
(lp3931
S':'
asbag57
(g78
g59
NtRp3932
(dp3933
g62
(dp3934
sg71
g3920
sg64
(lp3935
g57
(g58
g59
NtRp3936
(dp3937
g62
(dp3938
g70
I5
ssg71
g3932
sg64
(lp3939
S'<cStringIO.StringO object at 0x7f0404488928>'
p3940
asbasbasbag57
(g73
g59
NtRp3941
(dp3942
g62
(dp3943
sg71
g3916
sg64
(lp3944
g57
(g78
g59
NtRp3945
(dp3946
g62
(dp3947
g82
g83
ssg71
g3941
sg64
(lp3948
g285
asbag57
(g78
g59
NtRp3949
(dp3950
g62
(dp3951
g89
g90
ssg71
g3941
sg64
(lp3952
S':'
asbag57
(g78
g59
NtRp3953
(dp3954
g62
(dp3955
sg71
g3941
sg64
(lp3956
g57
(g58
g59
NtRp3957
(dp3958
g62
(dp3959
g70
I5
ssg71
g3953
sg64
(lp3960
g57
(g66
g59
NtRp3961
(dp3962
g62
(dp3963
g70
I4
ssg71
Nsg64
(lp3964
g57
(g73
g59
NtRp3965
(dp3966
g62
(dp3967
sg71
g3961
sg64
(lp3968
g57
(g78
g59
NtRp3969
(dp3970
g62
(dp3971
g82
g83
ssg71
g3965
sg64
(lp3972
S'session_id_read_it'
p3973
asbag57
(g78
g59
NtRp3974
(dp3975
g62
(dp3976
g89
g90
ssg71
g3965
sg64
(lp3977
S':'
asbag57
(g78
g59
NtRp3978
(dp3979
g62
(dp3980
sg71
g3965
sg64
(lp3981
g57
(g58
g59
NtRp3982
(dp3983
g62
(dp3984
g70
I4
ssg71
g3978
sg64
(lp3985
g57
(g66
g59
NtRp3986
(dp3987
g62
(dp3988
g70
I3
ssg71
Nsg64
(lp3989
g57
(g73
g59
NtRp3990
(dp3991
g62
(dp3992
sg71
g3986
sg64
(lp3993
g57
(g78
g59
NtRp3994
(dp3995
g62
(dp3996
g82
g83
ssg71
g3990
sg64
(lp3997
g335
asbag57
(g78
g59
NtRp3998
(dp3999
g62
(dp4000
g89
g90
ssg71
g3990
sg64
(lp4001
S':'
asbag57
(g78
g59
NtRp4002
(dp4003
g62
(dp4004
sg71
g3990
sg64
(lp4005
g57
(g58
g59
NtRp4006
(dp4007
g62
(dp4008
g70
I3
ssg71
g4002
sg64
(lp4009
S''
asbasbasbag57
(g73
g59
NtRp4010
(dp4011
g62
(dp4012
sg71
g3986
sg64
(lp4013
g57
(g78
g59
NtRp4014
(dp4015
g62
(dp4016
g82
g83
ssg71
g4010
sg64
(lp4017
g356
asbag57
(g78
g59
NtRp4018
(dp4019
g62
(dp4020
g89
g90
ssg71
g4010
sg64
(lp4021
S':'
asbag57
(g78
g59
NtRp4022
(dp4023
g62
(dp4024
sg71
g4010
sg64
(lp4025
g57
(g58
g59
NtRp4026
(dp4027
g62
(dp4028
g70
I3
ssg71
g4022
sg64
(lp4029
S''
asbasbasbag57
(g73
g59
NtRp4030
(dp4031
g62
(dp4032
sg71
g3986
sg64
(lp4033
g57
(g78
g59
NtRp4034
(dp4035
g62
(dp4036
g82
g83
ssg71
g4030
sg64
(lp4037
g377
asbag57
(g78
g59
NtRp4038
(dp4039
g62
(dp4040
g89
g90
ssg71
g4030
sg64
(lp4041
S':'
asbag57
(g78
g59
NtRp4042
(dp4043
g62
(dp4044
sg71
g4030
sg64
(lp4045
g57
(g58
g59
NtRp4046
(dp4047
g62
(dp4048
g70
I3
ssg71
g4042
sg64
(lp4049
S''
asbasbasbag57
(g73
g59
NtRp4050
(dp4051
g62
(dp4052
sg71
g3986
sg64
(lp4053
g57
(g78
g59
NtRp4054
(dp4055
g62
(dp4056
g82
g83
ssg71
g4050
sg64
(lp4057
g398
asbag57
(g78
g59
NtRp4058
(dp4059
g62
(dp4060
g89
g90
ssg71
g4050
sg64
(lp4061
S':'
asbag57
(g78
g59
NtRp4062
(dp4063
g62
(dp4064
sg71
g4050
sg64
(lp4065
g57
(g58
g59
NtRp4066
(dp4067
g62
(dp4068
g70
I3
ssg71
g4062
sg64
(lp4069
S''
asbasbasbag57
(g73
g59
NtRp4070
(dp4071
g62
(dp4072
sg71
g3986
sg64
(lp4073
g57
(g78
g59
NtRp4074
(dp4075
g62
(dp4076
g82
g83
ssg71
g4070
sg64
(lp4077
g419
asbag57
(g78
g59
NtRp4078
(dp4079
g62
(dp4080
g89
g90
ssg71
g4070
sg64
(lp4081
S':'
asbag57
(g78
g59
NtRp4082
(dp4083
g62
(dp4084
sg71
g4070
sg64
(lp4085
g57
(g58
g59
NtRp4086
(dp4087
g62
(dp4088
g70
I3
ssg71
g4082
sg64
(lp4089
S''
asbasbasbag57
(g73
g59
NtRp4090
(dp4091
g62
(dp4092
sg71
g3986
sg64
(lp4093
g57
(g78
g59
NtRp4094
(dp4095
g62
(dp4096
g82
g83
ssg71
g4090
sg64
(lp4097
g440
asbag57
(g78
g59
NtRp4098
(dp4099
g62
(dp4100
g89
g90
ssg71
g4090
sg64
(lp4101
S':'
asbag57
(g78
g59
NtRp4102
(dp4103
g62
(dp4104
sg71
g4090
sg64
(lp4105
g57
(g58
g59
NtRp4106
(dp4107
g62
(dp4108
g70
I3
ssg71
g4102
sg64
(lp4109
S'/'
asbasbasbag57
(g73
g59
NtRp4110
(dp4111
g62
(dp4112
sg71
g3986
sg64
(lp4113
g57
(g78
g59
NtRp4114
(dp4115
g62
(dp4116
g82
g83
ssg71
g4110
sg64
(lp4117
g461
asbag57
(g78
g59
NtRp4118
(dp4119
g62
(dp4120
g89
g90
ssg71
g4110
sg64
(lp4121
S':'
asbag57
(g78
g59
NtRp4122
(dp4123
g62
(dp4124
sg71
g4110
sg64
(lp4125
g57
(g58
g59
NtRp4126
(dp4127
g62
(dp4128
g70
I3
ssg71
g4122
sg64
(lp4129
S''
asbasbasbag57
(g73
g59
NtRp4130
(dp4131
g62
(dp4132
sg71
g3986
sg64
(lp4133
g57
(g78
g59
NtRp4134
(dp4135
g62
(dp4136
g82
g83
ssg71
g4130
sg64
(lp4137
g482
asbag57
(g78
g59
NtRp4138
(dp4139
g62
(dp4140
g89
g90
ssg71
g4130
sg64
(lp4141
S':'
asbag57
(g78
g59
NtRp4142
(dp4143
g62
(dp4144
sg71
g4130
sg64
(lp4145
g57
(g58
g59
NtRp4146
(dp4147
g62
(dp4148
g70
I3
ssg71
g4142
sg64
(lp4149
S''
asbasbasbasbasbasbasbasbasbasbasbag57
(g73
g59
NtRp4150
(dp4151
g62
(dp4152
sg71
g3916
sg64
(lp4153
g57
(g78
g59
NtRp4154
(dp4155
g62
(dp4156
g82
g83
ssg71
g4150
sg64
(lp4157
S'files'
p4158
asbag57
(g78
g59
NtRp4159
(dp4160
g62
(dp4161
g89
g90
ssg71
g4150
sg64
(lp4162
S':'
asbag57
(g78
g59
NtRp4163
(dp4164
g62
(dp4165
sg71
g4150
sg64
(lp4166
g57
(g58
g59
NtRp4167
(dp4168
g62
(dp4169
g70
I5
ssg71
g4163
sg64
(lp4170
g57
(g66
g59
NtRp4171
(dp4172
g62
(dp4173
g70
I4
ssg71
Nsg64
(lp4174
sbasbasbasbag57
(g73
g59
NtRp4175
(dp4176
g62
(dp4177
sg71
g3916
sg64
(lp4178
g57
(g78
g59
NtRp4179
(dp4180
g62
(dp4181
g82
g83
ssg71
g4175
sg64
(lp4182
S'flash'
p4183
asbag57
(g78
g59
NtRp4184
(dp4185
g62
(dp4186
g89
g90
ssg71
g4175
sg64
(lp4187
S':'
asbag57
(g78
g59
NtRp4188
(dp4189
g62
(dp4190
sg71
g4175
sg64
(lp4191
g57
(g58
g59
NtRp4192
(dp4193
g62
(dp4194
g70
I5
ssg71
g4188
sg64
(lp4195
S''
asbasbasbag57
(g73
g59
NtRp4196
(dp4197
g62
(dp4198
sg71
g3916
sg64
(lp4199
g57
(g78
g59
NtRp4200
(dp4201
g62
(dp4202
g82
g83
ssg71
g4196
sg64
(lp4203
S'generic_patterns'
p4204
asbag57
(g78
g59
NtRp4205
(dp4206
g62
(dp4207
g89
g90
ssg71
g4196
sg64
(lp4208
S':'
asbag57
(g78
g59
NtRp4209
(dp4210
g62
(dp4211
sg71
g4196
sg64
(lp4212
g57
(g58
g59
NtRp4213
(dp4214
g62
(dp4215
g70
I5
ssg71
g4209
sg64
(lp4216
g57
(g66
g59
NtRp4217
(dp4218
g62
(dp4219
g70
I4
ssg71
Nsg64
(lp4220
g57
(g73
g59
NtRp4221
(dp4222
g62
(dp4223
sg71
g4217
sg64
(lp4224
g57
(g78
g59
NtRp4225
(dp4226
g62
(dp4227
sg71
g4221
sg64
(lp4228
g57
(g58
g59
NtRp4229
(dp4230
g62
(dp4231
g70
I4
ssg71
g4225
sg64
(lp4232
S'*'
asbasbasbasbasbasbasbag57
(g73
g59
NtRp4233
(dp4234
g62
(dp4235
sg71
g3916
sg64
(lp4236
g57
(g78
g59
NtRp4237
(dp4238
g62
(dp4239
g82
g83
ssg71
g4233
sg64
(lp4240
S'headers'
p4241
asbag57
(g78
g59
NtRp4242
(dp4243
g62
(dp4244
g89
g90
ssg71
g4233
sg64
(lp4245
S':'
asbag57
(g78
g59
NtRp4246
(dp4247
g62
(dp4248
sg71
g4233
sg64
(lp4249
g57
(g58
g59
NtRp4250
(dp4251
g62
(dp4252
g70
I5
ssg71
g4246
sg64
(lp4253
g57
(g66
g59
NtRp4254
(dp4255
g62
(dp4256
g70
I4
ssg71
Nsg64
(lp4257
g57
(g73
g59
NtRp4258
(dp4259
g62
(dp4260
sg71
g4254
sg64
(lp4261
g57
(g78
g59
NtRp4262
(dp4263
g62
(dp4264
g82
g83
ssg71
g4258
sg64
(lp4265
S'Cache-Control'
p4266
asbag57
(g78
g59
NtRp4267
(dp4268
g62
(dp4269
g89
g90
ssg71
g4258
sg64
(lp4270
S':'
asbag57
(g78
g59
NtRp4271
(dp4272
g62
(dp4273
sg71
g4258
sg64
(lp4274
g57
(g58
g59
NtRp4275
(dp4276
g62
(dp4277
g70
I4
ssg71
g4271
sg64
(lp4278
S'no-store, no-cache, must-revalidate, post-check=0, pre-check=0'
p4279
asbasbasbag57
(g73
g59
NtRp4280
(dp4281
g62
(dp4282
sg71
g4254
sg64
(lp4283
g57
(g78
g59
NtRp4284
(dp4285
g62
(dp4286
g82
g83
ssg71
g4280
sg64
(lp4287
S'Content-Type'
p4288
asbag57
(g78
g59
NtRp4289
(dp4290
g62
(dp4291
g89
g90
ssg71
g4280
sg64
(lp4292
S':'
asbag57
(g78
g59
NtRp4293
(dp4294
g62
(dp4295
sg71
g4280
sg64
(lp4296
g57
(g58
g59
NtRp4297
(dp4298
g62
(dp4299
g70
I4
ssg71
g4293
sg64
(lp4300
S'text/html; charset=utf-8'
p4301
asbasbasbag57
(g73
g59
NtRp4302
(dp4303
g62
(dp4304
sg71
g4254
sg64
(lp4305
g57
(g78
g59
NtRp4306
(dp4307
g62
(dp4308
g82
g83
ssg71
g4302
sg64
(lp4309
S'Expires'
p4310
asbag57
(g78
g59
NtRp4311
(dp4312
g62
(dp4313
g89
g90
ssg71
g4302
sg64
(lp4314
S':'
asbag57
(g78
g59
NtRp4315
(dp4316
g62
(dp4317
sg71
g4302
sg64
(lp4318
g57
(g58
g59
NtRp4319
(dp4320
g62
(dp4321
g70
I4
ssg71
g4315
sg64
(lp4322
S'Sun, 01 Sep 2013 19:29:53 GMT'
p4323
asbasbasbag57
(g73
g59
NtRp4324
(dp4325
g62
(dp4326
sg71
g4254
sg64
(lp4327
g57
(g78
g59
NtRp4328
(dp4329
g62
(dp4330
g82
g83
ssg71
g4324
sg64
(lp4331
S'Pragma'
p4332
asbag57
(g78
g59
NtRp4333
(dp4334
g62
(dp4335
g89
g90
ssg71
g4324
sg64
(lp4336
S':'
asbag57
(g78
g59
NtRp4337
(dp4338
g62
(dp4339
sg71
g4324
sg64
(lp4340
g57
(g58
g59
NtRp4341
(dp4342
g62
(dp4343
g70
I4
ssg71
g4337
sg64
(lp4344
S'no-cache'
p4345
asbasbasbag57
(g73
g59
NtRp4346
(dp4347
g62
(dp4348
sg71
g4254
sg64
(lp4349
g57
(g78
g59
NtRp4350
(dp4351
g62
(dp4352
g82
g83
ssg71
g4346
sg64
(lp4353
S'X-Powered-By'
p4354
asbag57
(g78
g59
NtRp4355
(dp4356
g62
(dp4357
g89
g90
ssg71
g4346
sg64
(lp4358
S':'
asbag57
(g78
g59
NtRp4359
(dp4360
g62
(dp4361
sg71
g4346
sg64
(lp4362
g57
(g58
g59
NtRp4363
(dp4364
g62
(dp4365
g70
I4
ssg71
g4359
sg64
(lp4366
S'web2py'
p4367
asbasbasbasbasbasbasbag57
(g73
g59
NtRp4368
(dp4369
g62
(dp4370
sg71
g3916
sg64
(lp4371
g57
(g78
g59
NtRp4372
(dp4373
g62
(dp4374
g82
g83
ssg71
g4368
sg64
(lp4375
S'menu'
p4376
asbag57
(g78
g59
NtRp4377
(dp4378
g62
(dp4379
g89
g90
ssg71
g4368
sg64
(lp4380
S':'
asbag57
(g78
g59
NtRp4381
(dp4382
g62
(dp4383
sg71
g4368
sg64
(lp4384
g57
(g58
g59
NtRp4385
(dp4386
g62
(dp4387
g70
I5
ssg71
g4381
sg64
(lp4388
g57
(g66
g59
NtRp4389
(dp4390
g62
(dp4391
g70
I4
ssg71
Nsg64
(lp4392
g57
(g73
g59
NtRp4393
(dp4394
g62
(dp4395
sg71
g4389
sg64
(lp4396
g57
(g78
g59
NtRp4397
(dp4398
g62
(dp4399
sg71
g4393
sg64
(lp4400
g57
(g58
g59
NtRp4401
(dp4402
g62
(dp4403
g70
I4
ssg71
g4397
sg64
(lp4404
g57
(g66
g59
NtRp4405
(dp4406
g62
(dp4407
g70
I3
ssg71
Nsg64
(lp4408
g57
(g73
g59
NtRp4409
(dp4410
g62
(dp4411
sg71
g4405
sg64
(lp4412
g57
(g78
g59
NtRp4413
(dp4414
g62
(dp4415
sg71
g4409
sg64
(lp4416
g57
(g58
g59
NtRp4417
(dp4418
g62
(dp4419
g70
I3
ssg71
g4413
sg64
(lp4420
cgluon.languages
lazyT_unpickle
p4421
(S't\x04\x00\x00\x00Home'
tRp4422
asbasbasbag57
(g73
g59
NtRp4423
(dp4424
g62
(dp4425
sg71
g4405
sg64
(lp4426
g57
(g78
g59
NtRp4427
(dp4428
g62
(dp4429
sg71
g4423
sg64
(lp4430
g57
(g58
g59
NtRp4431
(dp4432
g62
(dp4433
g70
I3
ssg71
g4427
sg64
(lp4434
g100
asbasbasbag57
(g73
g59
NtRp4435
(dp4436
g62
(dp4437
sg71
g4405
sg64
(lp4438
g57
(g78
g59
NtRp4439
(dp4440
g62
(dp4441
sg71
g4435
sg64
(lp4442
g57
(g58
g59
NtRp4443
(dp4444
g62
(dp4445
g70
I3
ssg71
g4439
sg64
(lp4446
S'/Read_it/default/index'
p4447
asbasbasbag57
(g73
g59
NtRp4448
(dp4449
g62
(dp4450
sg71
g4405
sg64
(lp4451
g57
(g78
g59
NtRp4452
(dp4453
g62
(dp4454
sg71
g4448
sg64
(lp4455
g57
(g58
g59
NtRp4456
(dp4457
g62
(dp4458
g70
I3
ssg71
g4452
sg64
(lp4459
g57
(g66
g59
NtRp4460
(dp4461
g62
(dp4462
g70
I2
ssg71
Nsg64
(lp4463
sbasbasbasbasbasbasbasbag57
(g73
g59
NtRp4464
(dp4465
g62
(dp4466
sg71
g4389
sg64
(lp4467
g57
(g78
g59
NtRp4468
(dp4469
g62
(dp4470
sg71
g4464
sg64
(lp4471
g57
(g58
g59
NtRp4472
(dp4473
g62
(dp4474
g70
I4
ssg71
g4468
sg64
(lp4475
g57
(g66
g59
NtRp4476
(dp4477
g62
(dp4478
g70
I3
ssg71
Nsg64
(lp4479
g57
(g73
g59
NtRp4480
(dp4481
g62
(dp4482
sg71
g4476
sg64
(lp4483
g57
(g78
g59
NtRp4484
(dp4485
g62
(dp4486
sg71
g4480
sg64
(lp4487
g57
(g58
g59
NtRp4488
(dp4489
g62
(dp4490
g70
I3
ssg71
g4484
sg64
(lp4491
g57
(cgluon.html
SPAN
p4492
g59
NtRp4493
(dp4494
g62
(dp4495
g82
S'color:yellow'
p4496
ssg71
Nsg64
(lp4497
g4367
asbasbasbasbag57
(g73
g59
NtRp4498
(dp4499
g62
(dp4500
sg71
g4476
sg64
(lp4501
g57
(g78
g59
NtRp4502
(dp4503
g62
(dp4504
sg71
g4498
sg64
(lp4505
g57
(g58
g59
NtRp4506
(dp4507
g62
(dp4508
g70
I3
ssg71
g4502
sg64
(lp4509
g100
asbasbasbag57
(g73
g59
NtRp4510
(dp4511
g62
(dp4512
sg71
g4476
sg64
(lp4513
g57
(g78
g59
NtRp4514
(dp4515
g62
(dp4516
sg71
g4510
sg64
(lp4517
g57
(g58
g59
NtRp4518
(dp4519
g62
(dp4520
g70
I3
ssg71
g4514
sg64
(lp4521
S'None'
p4522
asbasbasbag57
(g73
g59
NtRp4523
(dp4524
g62
(dp4525
sg71
g4476
sg64
(lp4526
g57
(g78
g59
NtRp4527
(dp4528
g62
(dp4529
sg71
g4523
sg64
(lp4530
g57
(g58
g59
NtRp4531
(dp4532
g62
(dp4533
g70
I3
ssg71
g4527
sg64
(lp4534
g57
(g66
g59
NtRp4535
(dp4536
g62
(dp4537
g70
I2
ssg71
Nsg64
(lp4538
g57
(g73
g59
NtRp4539
(dp4540
g62
(dp4541
sg71
g4535
sg64
(lp4542
g57
(g78
g59
NtRp4543
(dp4544
g62
(dp4545
sg71
g4539
sg64
(lp4546
g57
(g58
g59
NtRp4547
(dp4548
g62
(dp4549
g70
I2
ssg71
g4543
sg64
(lp4550
g57
(g66
g59
NtRp4551
(dp4552
g62
(dp4553
g70
I1
ssg71
Nsg64
(lp4554
g57
(g73
g59
NtRp4555
(dp4556
g62
(dp4557
sg71
g4551
sg64
(lp4558
g57
(g78
g59
NtRp4559
(dp4560
g62
(dp4561
sg71
g4555
sg64
(lp4562
g57
(g58
g59
NtRp4563
(dp4564
g62
(dp4565
g70
I1
ssg71
g4559
sg64
(lp4566
g4421
(S's\x08\x00\x00\x00My Sites'
tRp4567
asbasbasbag57
(g73
g59
NtRp4568
(dp4569
g62
(dp4570
sg71
g4551
sg64
(lp4571
g57
(g78
g59
NtRp4572
(dp4573
g62
(dp4574
sg71
g4568
sg64
(lp4575
g57
(g58
g59
NtRp4576
(dp4577
g62
(dp4578
g70
I1
ssg71
g4572
sg64
(lp4579
I00
asbasbasbag57
(g73
g59
NtRp4580
(dp4581
g62
(dp4582
sg71
g4551
sg64
(lp4583
g57
(g78
g59
NtRp4584
(dp4585
g62
(dp4586
sg71
g4580
sg64
(lp4587
g57
(g58
g59
NtRp4588
(dp4589
g62
(dp4590
g70
I1
ssg71
g4584
sg64
(lp4591
S'/admin/default/site'
p4592
asbasbasbasbasbasbasbag57
(g73
g59
NtRp4593
(dp4594
g62
(dp4595
sg71
g4535
sg64
(lp4596
g57
(g78
g59
NtRp4597
(dp4598
g62
(dp4599
sg71
g4593
sg64
(lp4600
g57
(g58
g59
NtRp4601
(dp4602
g62
(dp4603
g70
I2
ssg71
g4597
sg64
(lp4604
g57
(g66
g59
NtRp4605
(dp4606
g62
(dp4607
g70
I1
ssg71
Nsg64
(lp4608
g57
(g73
g59
NtRp4609
(dp4610
g62
(dp4611
sg71
g4605
sg64
(lp4612
g57
(g78
g59
NtRp4613
(dp4614
g62
(dp4615
sg71
g4609
sg64
(lp4616
g57
(g58
g59
NtRp4617
(dp4618
g62
(dp4619
g70
I1
ssg71
g4613
sg64
(lp4620
g4421
(S's\x08\x00\x00\x00This App'
tRp4621
asbasbasbag57
(g73
g59
NtRp4622
(dp4623
g62
(dp4624
sg71
g4605
sg64
(lp4625
g57
(g78
g59
NtRp4626
(dp4627
g62
(dp4628
sg71
g4622
sg64
(lp4629
g57
(g58
g59
NtRp4630
(dp4631
g62
(dp4632
g70
I1
ssg71
g4626
sg64
(lp4633
I00
asbasbasbag57
(g73
g59
NtRp4634
(dp4635
g62
(dp4636
sg71
g4605
sg64
(lp4637
g57
(g78
g59
NtRp4638
(dp4639
g62
(dp4640
sg71
g4634
sg64
(lp4641
g57
(g58
g59
NtRp4642
(dp4643
g62
(dp4644
g70
I1
ssg71
g4638
sg64
(lp4645
S'/admin/default/design/Read_it'
p4646
asbasbasbag57
(g73
g59
NtRp4647
(dp4648
g62
(dp4649
sg71
g4605
sg64
(lp4650
g57
(g78
g59
NtRp4651
(dp4652
g62
(dp4653
sg71
g4647
sg64
(lp4654
g57
(g58
g59
NtRp4655
(dp4656
g62
(dp4657
g70
I1
ssg71
g4651
sg64
(lp4658
(lp4659
(g4421
(S't\n\x00\x00\x00Controller'
tRp4660
I00
S'/admin/default/edit/Read_it/controllers/default.py'
tp4661
a(g4421
(S't\x04\x00\x00\x00View'
tRp4662
I00
S'/admin/default/edit/Read_it/views/default/list_cat.html'
tp4663
a(g4421
(S't\x06\x00\x00\x00Layout'
tRp4664
I00
S'/admin/default/edit/Read_it/views/layout.html'
tp4665
a(g4421
(S't\n\x00\x00\x00Stylesheet'
tRp4666
I00
S'/admin/default/edit/Read_it/static/css/web2py.css'
tp4667
a(g4421
(S's\x08\x00\x00\x00DB Model'
tRp4668
I00
S'/admin/default/edit/Read_it/models/db.py'
tp4669
a(g4421
(S's\n\x00\x00\x00Menu Model'
tRp4670
I00
S'/admin/default/edit/Read_it/models/menu.py'
tp4671
a(g4421
(S't\x08\x00\x00\x00Database'
tRp4672
I00
S'/Read_it/appadmin/index'
tp4673
a(g4421
(S't\x06\x00\x00\x00Errors'
tRp4674
I00
S'/admin/default/errors/Read_it'
tp4675
a(g4421
(S't\x05\x00\x00\x00About'
tRp4676
I00
S'/admin/default/about/Read_it'
tp4677
aasbasbasbasbasbasbasbag57
(g73
g59
NtRp4678
(dp4679
g62
(dp4680
sg71
g4535
sg64
(lp4681
g57
(g78
g59
NtRp4682
(dp4683
g62
(dp4684
sg71
g4678
sg64
(lp4685
g57
(g58
g59
NtRp4686
(dp4687
g62
(dp4688
g70
I2
ssg71
g4682
sg64
(lp4689
g57
(g66
g59
NtRp4690
(dp4691
g62
(dp4692
g70
I1
ssg71
Nsg64
(lp4693
g57
(g73
g59
NtRp4694
(dp4695
g62
(dp4696
sg71
g4690
sg64
(lp4697
g57
(g78
g59
NtRp4698
(dp4699
g62
(dp4700
sg71
g4694
sg64
(lp4701
g57
(g58
g59
NtRp4702
(dp4703
g62
(dp4704
g70
I1
ssg71
g4698
sg64
(lp4705
S'web2py.com'
p4706
asbasbasbag57
(g73
g59
NtRp4707
(dp4708
g62
(dp4709
sg71
g4690
sg64
(lp4710
g57
(g78
g59
NtRp4711
(dp4712
g62
(dp4713
sg71
g4707
sg64
(lp4714
g57
(g58
g59
NtRp4715
(dp4716
g62
(dp4717
g70
I1
ssg71
g4711
sg64
(lp4718
I00
asbasbasbag57
(g73
g59
NtRp4719
(dp4720
g62
(dp4721
sg71
g4690
sg64
(lp4722
g57
(g78
g59
NtRp4723
(dp4724
g62
(dp4725
sg71
g4719
sg64
(lp4726
g57
(g58
g59
NtRp4727
(dp4728
g62
(dp4729
g70
I1
ssg71
g4723
sg64
(lp4730
S'http://www.web2py.com'
p4731
asbasbasbag57
(g73
g59
NtRp4732
(dp4733
g62
(dp4734
sg71
g4690
sg64
(lp4735
g57
(g78
g59
NtRp4736
(dp4737
g62
(dp4738
sg71
g4732
sg64
(lp4739
g57
(g58
g59
NtRp4740
(dp4741
g62
(dp4742
g70
I1
ssg71
g4736
sg64
(lp4743
(lp4744
(g4421
(S't\x08\x00\x00\x00Download'
tRp4745
I00
S'http://www.web2py.com/examples/default/download'
p4746
tp4747
a(g4421
(S't\x07\x00\x00\x00Support'
tRp4748
I00
S'http://www.web2py.com/examples/default/support'
p4749
tp4750
a(g4421
(S't\x04\x00\x00\x00Demo'
tRp4751
I00
S'http://web2py.com/demo_admin'
p4752
tp4753
a(g4421
(S's\x0e\x00\x00\x00Quick Examples'
tRp4754
I00
S'http://web2py.com/examples/default/examples'
p4755
tp4756
a(g4421
(S't\x03\x00\x00\x00FAQ'
tRp4757
I00
S'http://web2py.com/AlterEgo'
p4758
tp4759
a(g4421
(S't\x06\x00\x00\x00Videos'
tRp4760
I00
S'http://www.web2py.com/examples/default/videos/'
p4761
tp4762
a(g4421
(S's\x11\x00\x00\x00Free Applications'
tRp4763
I00
S'http://web2py.com/appliances'
p4764
tp4765
a(g4421
(S't\x07\x00\x00\x00Plugins'
tRp4766
I00
S'http://web2py.com/plugins'
p4767
tp4768
a(g4421
(S't\x07\x00\x00\x00Layouts'
tRp4769
I00
S'http://web2py.com/layouts'
p4770
tp4771
a(g4421
(S't\x07\x00\x00\x00Recipes'
tRp4772
I00
S'http://web2pyslices.com/'
p4773
tp4774
a(g4421
(S't\x08\x00\x00\x00Semantic'
tRp4775
I00
S'http://web2py.com/semantic'
p4776
tp4777
aasbasbasbasbasbasbasbag57
(g73
g59
NtRp4778
(dp4779
g62
(dp4780
sg71
g4535
sg64
(lp4781
g57
(g78
g59
NtRp4782
(dp4783
g62
(dp4784
sg71
g4778
sg64
(lp4785
g57
(g58
g59
NtRp4786
(dp4787
g62
(dp4788
g70
I2
ssg71
g4782
sg64
(lp4789
g57
(g66
g59
NtRp4790
(dp4791
g62
(dp4792
g70
I1
ssg71
Nsg64
(lp4793
g57
(g73
g59
NtRp4794
(dp4795
g62
(dp4796
sg71
g4790
sg64
(lp4797
g57
(g78
g59
NtRp4798
(dp4799
g62
(dp4800
sg71
g4794
sg64
(lp4801
g57
(g58
g59
NtRp4802
(dp4803
g62
(dp4804
g70
I1
ssg71
g4798
sg64
(lp4805
g4421
(S't\r\x00\x00\x00Documentation'
tRp4806
asbasbasbag57
(g73
g59
NtRp4807
(dp4808
g62
(dp4809
sg71
g4790
sg64
(lp4810
g57
(g78
g59
NtRp4811
(dp4812
g62
(dp4813
sg71
g4807
sg64
(lp4814
g57
(g58
g59
NtRp4815
(dp4816
g62
(dp4817
g70
I1
ssg71
g4811
sg64
(lp4818
I00
asbasbasbag57
(g73
g59
NtRp4819
(dp4820
g62
(dp4821
sg71
g4790
sg64
(lp4822
g57
(g78
g59
NtRp4823
(dp4824
g62
(dp4825
sg71
g4819
sg64
(lp4826
g57
(g58
g59
NtRp4827
(dp4828
g62
(dp4829
g70
I1
ssg71
g4823
sg64
(lp4830
S'http://www.web2py.com/book'
p4831
asbasbasbag57
(g73
g59
NtRp4832
(dp4833
g62
(dp4834
sg71
g4790
sg64
(lp4835
g57
(g78
g59
NtRp4836
(dp4837
g62
(dp4838
sg71
g4832
sg64
(lp4839
g57
(g58
g59
NtRp4840
(dp4841
g62
(dp4842
g70
I1
ssg71
g4836
sg64
(lp4843
(lp4844
(g4421
(S't\x07\x00\x00\x00Preface'
tRp4845
I00
S'http://www.web2py.com/book/default/chapter/00'
p4846
tp4847
a(g4421
(S't\x0c\x00\x00\x00Introduction'
tRp4848
I00
S'http://www.web2py.com/book/default/chapter/01'
p4849
tp4850
a(g4421
(S't\x06\x00\x00\x00Python'
tRp4851
I00
S'http://www.web2py.com/book/default/chapter/02'
p4852
tp4853
a(g4421
(S't\x08\x00\x00\x00Overview'
tRp4854
I00
S'http://www.web2py.com/book/default/chapter/03'
p4855
tp4856
a(g4421
(S's\x08\x00\x00\x00The Core'
tRp4857
I00
S'http://www.web2py.com/book/default/chapter/04'
p4858
tp4859
a(g4421
(S's\t\x00\x00\x00The Views'
tRp4860
I00
S'http://www.web2py.com/book/default/chapter/05'
p4861
tp4862
a(g4421
(S't\x08\x00\x00\x00Database'
tRp4863
I00
S'http://www.web2py.com/book/default/chapter/06'
p4864
tp4865
a(g4421
(S's\x14\x00\x00\x00Forms and Validators'
tRp4866
I00
S'http://www.web2py.com/book/default/chapter/07'
p4867
tp4868
a(g4421
(S's\r\x00\x00\x00Email and SMS'
tRp4869
I00
S'http://www.web2py.com/book/default/chapter/08'
p4870
tp4871
a(g4421
(S's\x0e\x00\x00\x00Access Control'
tRp4872
I00
S'http://www.web2py.com/book/default/chapter/09'
p4873
tp4874
a(g4421
(S't\x08\x00\x00\x00Services'
tRp4875
I00
S'http://www.web2py.com/book/default/chapter/10'
p4876
tp4877
a(g4421
(S's\x0c\x00\x00\x00Ajax Recipes'
tRp4878
I00
S'http://www.web2py.com/book/default/chapter/11'
p4879
tp4880
a(g4421
(S's\x16\x00\x00\x00Components and Plugins'
tRp4881
I00
S'http://www.web2py.com/book/default/chapter/12'
p4882
tp4883
a(g4421
(S's\x12\x00\x00\x00Deployment Recipes'
tRp4884
I00
S'http://www.web2py.com/book/default/chapter/13'
p4885
tp4886
a(g4421
(S's\r\x00\x00\x00Other Recipes'
tRp4887
I00
S'http://www.web2py.com/book/default/chapter/14'
p4888
tp4889
a(g4421
(S's\r\x00\x00\x00Buy this book'
tRp4890
I00
S'http://stores.lulu.com/web2py'
p4891
tp4892
aasbasbasbasbasbasbasbag57
(g73
g59
NtRp4893
(dp4894
g62
(dp4895
sg71
g4535
sg64
(lp4896
g57
(g78
g59
NtRp4897
(dp4898
g62
(dp4899
sg71
g4893
sg64
(lp4900
g57
(g58
g59
NtRp4901
(dp4902
g62
(dp4903
g70
I2
ssg71
g4897
sg64
(lp4904
g57
(g66
g59
NtRp4905
(dp4906
g62
(dp4907
g70
I1
ssg71
Nsg64
(lp4908
g57
(g73
g59
NtRp4909
(dp4910
g62
(dp4911
sg71
g4905
sg64
(lp4912
g57
(g78
g59
NtRp4913
(dp4914
g62
(dp4915
sg71
g4909
sg64
(lp4916
g57
(g58
g59
NtRp4917
(dp4918
g62
(dp4919
g70
I1
ssg71
g4913
sg64
(lp4920
g4421
(S't\t\x00\x00\x00Community'
tRp4921
asbasbasbag57
(g73
g59
NtRp4922
(dp4923
g62
(dp4924
sg71
g4905
sg64
(lp4925
g57
(g78
g59
NtRp4926
(dp4927
g62
(dp4928
sg71
g4922
sg64
(lp4929
g57
(g58
g59
NtRp4930
(dp4931
g62
(dp4932
g70
I1
ssg71
g4926
sg64
(lp4933
I00
asbasbasbag57
(g73
g59
NtRp4934
(dp4935
g62
(dp4936
sg71
g4905
sg64
(lp4937
g57
(g78
g59
NtRp4938
(dp4939
g62
(dp4940
sg71
g4934
sg64
(lp4941
g57
(g58
g59
NtRp4942
(dp4943
g62
(dp4944
g70
I1
ssg71
g4938
sg64
(lp4945
Nasbasbasbag57
(g73
g59
NtRp4946
(dp4947
g62
(dp4948
sg71
g4905
sg64
(lp4949
g57
(g78
g59
NtRp4950
(dp4951
g62
(dp4952
sg71
g4946
sg64
(lp4953
g57
(g58
g59
NtRp4954
(dp4955
g62
(dp4956
g70
I1
ssg71
g4950
sg64
(lp4957
(lp4958
(g4421
(S't\x06\x00\x00\x00Groups'
tRp4959
I00
S'http://www.web2py.com/examples/default/usergroups'
p4960
tp4961
a(g4421
(S't\x07\x00\x00\x00Twitter'
tRp4962
I00
S'http://twitter.com/web2py'
p4963
tp4964
a(g4421
(S's\t\x00\x00\x00Live Chat'
tRp4965
I00
S'http://webchat.freenode.net/?channels=web2py'
p4966
tp4967
aasbasbasbasbasbasbasbag57
(g73
g59
NtRp4968
(dp4969
g62
(dp4970
sg71
g4535
sg64
(lp4971
g57
(g78
g59
NtRp4972
(dp4973
g62
(dp4974
sg71
g4968
sg64
(lp4975
g57
(g58
g59
NtRp4976
(dp4977
g62
(dp4978
g70
I2
ssg71
g4972
sg64
(lp4979
g57
(g66
g59
NtRp4980
(dp4981
g62
(dp4982
g70
I1
ssg71
Nsg64
(lp4983
g57
(g73
g59
NtRp4984
(dp4985
g62
(dp4986
sg71
g4980
sg64
(lp4987
g57
(g78
g59
NtRp4988
(dp4989
g62
(dp4990
sg71
g4984
sg64
(lp4991
g57
(g58
g59
NtRp4992
(dp4993
g62
(dp4994
g70
I1
ssg71
g4988
sg64
(lp4995
g4421
(S't\x07\x00\x00\x00Plugins'
tRp4996
asbasbasbag57
(g73
g59
NtRp4997
(dp4998
g62
(dp4999
sg71
g4980
sg64
(lp5000
g57
(g78
g59
NtRp5001
(dp5002
g62
(dp5003
sg71
g4997
sg64
(lp5004
g57
(g58
g59
NtRp5005
(dp5006
g62
(dp5007
g70
I1
ssg71
g5001
sg64
(lp5008
I00
asbasbasbag57
(g73
g59
NtRp5009
(dp5010
g62
(dp5011
sg71
g4980
sg64
(lp5012
g57
(g78
g59
NtRp5013
(dp5014
g62
(dp5015
sg71
g5009
sg64
(lp5016
g57
(g58
g59
NtRp5017
(dp5018
g62
(dp5019
g70
I1
ssg71
g5013
sg64
(lp5020
Nasbasbasbag57
(g73
g59
NtRp5021
(dp5022
g62
(dp5023
sg71
g4980
sg64
(lp5024
g57
(g78
g59
NtRp5025
(dp5026
g62
(dp5027
sg71
g5021
sg64
(lp5028
g57
(g58
g59
NtRp5029
(dp5030
g62
(dp5031
g70
I1
ssg71
g5025
sg64
(lp5032
(lp5033
(S'plugin_wiki'
p5034
I00
S'http://web2py.com/examples/default/download'
p5035
tp5036
a(g4421
(S's\r\x00\x00\x00Other Plugins'
tRp5037
I00
g4767
tp5038
a(g4421
(S's\x0e\x00\x00\x00Layout Plugins'
tRp5039
I00
g4770
tp5040
aasbasbasbasbasbasbasbasbasbasbasbasbasbasbasbasbasbasbasbag57
(g73
g59
NtRp5041
(dp5042
g62
(dp5043
sg71
g3916
sg64
(lp5044
g57
(g78
g59
NtRp5045
(dp5046
g62
(dp5047
g82
g83
ssg71
g5041
sg64
(lp5048
S'meta'
p5049
asbag57
(g78
g59
NtRp5050
(dp5051
g62
(dp5052
g89
g90
ssg71
g5041
sg64
(lp5053
S':'
asbag57
(g78
g59
NtRp5054
(dp5055
g62
(dp5056
sg71
g5041
sg64
(lp5057
g57
(g58
g59
NtRp5058
(dp5059
g62
(dp5060
g70
I5
ssg71
g5054
sg64
(lp5061
g57
(g66
g59
NtRp5062
(dp5063
g62
(dp5064
g70
I4
ssg71
Nsg64
(lp5065
g57
(g73
g59
NtRp5066
(dp5067
g62
(dp5068
sg71
g5062
sg64
(lp5069
g57
(g78
g59
NtRp5070
(dp5071
g62
(dp5072
g82
g83
ssg71
g5066
sg64
(lp5073
S'author'
p5074
asbag57
(g78
g59
NtRp5075
(dp5076
g62
(dp5077
g89
g90
ssg71
g5066
sg64
(lp5078
S':'
asbag57
(g78
g59
NtRp5079
(dp5080
g62
(dp5081
sg71
g5066
sg64
(lp5082
g57
(g58
g59
NtRp5083
(dp5084
g62
(dp5085
g70
I4
ssg71
g5079
sg64
(lp5086
S'Your Name <you@example.com>'
p5087
asbasbasbag57
(g73
g59
NtRp5088
(dp5089
g62
(dp5090
sg71
g5062
sg64
(lp5091
g57
(g78
g59
NtRp5092
(dp5093
g62
(dp5094
g82
g83
ssg71
g5088
sg64
(lp5095
S'copyright'
p5096
asbag57
(g78
g59
NtRp5097
(dp5098
g62
(dp5099
g89
g90
ssg71
g5088
sg64
(lp5100
S':'
asbag57
(g78
g59
NtRp5101
(dp5102
g62
(dp5103
sg71
g5088
sg64
(lp5104
g57
(g58
g59
NtRp5105
(dp5106
g62
(dp5107
g70
I4
ssg71
g5101
sg64
(lp5108
S'Copyright 2011'
p5109
asbasbasbag57
(g73
g59
NtRp5110
(dp5111
g62
(dp5112
sg71
g5062
sg64
(lp5113
g57
(g78
g59
NtRp5114
(dp5115
g62
(dp5116
g82
g83
ssg71
g5110
sg64
(lp5117
S'description'
p5118
asbag57
(g78
g59
NtRp5119
(dp5120
g62
(dp5121
g89
g90
ssg71
g5110
sg64
(lp5122
S':'
asbag57
(g78
g59
NtRp5123
(dp5124
g62
(dp5125
sg71
g5110
sg64
(lp5126
g57
(g58
g59
NtRp5127
(dp5128
g62
(dp5129
g70
I4
ssg71
g5123
sg64
(lp5130
S'a cool new app'
p5131
asbasbasbag57
(g73
g59
NtRp5132
(dp5133
g62
(dp5134
sg71
g5062
sg64
(lp5135
g57
(g78
g59
NtRp5136
(dp5137
g62
(dp5138
g82
g83
ssg71
g5132
sg64
(lp5139
S'generator'
p5140
asbag57
(g78
g59
NtRp5141
(dp5142
g62
(dp5143
g89
g90
ssg71
g5132
sg64
(lp5144
S':'
asbag57
(g78
g59
NtRp5145
(dp5146
g62
(dp5147
sg71
g5132
sg64
(lp5148
g57
(g58
g59
NtRp5149
(dp5150
g62
(dp5151
g70
I4
ssg71
g5145
sg64
(lp5152
S'Web2py Web Framework'
p5153
asbasbasbag57
(g73
g59
NtRp5154
(dp5155
g62
(dp5156
sg71
g5062
sg64
(lp5157
g57
(g78
g59
NtRp5158
(dp5159
g62
(dp5160
g82
g83
ssg71
g5154
sg64
(lp5161
S'keywords'
p5162
asbag57
(g78
g59
NtRp5163
(dp5164
g62
(dp5165
g89
g90
ssg71
g5154
sg64
(lp5166
S':'
asbag57
(g78
g59
NtRp5167
(dp5168
g62
(dp5169
sg71
g5154
sg64
(lp5170
g57
(g58
g59
NtRp5171
(dp5172
g62
(dp5173
g70
I4
ssg71
g5167
sg64
(lp5174
S'web2py, python, framework'
p5175
asbasbasbasbasbasbasbag57
(g73
g59
NtRp5176
(dp5177
g62
(dp5178
sg71
g3916
sg64
(lp5179
g57
(g78
g59
NtRp5180
(dp5181
g62
(dp5182
g82
g83
ssg71
g5176
sg64
(lp5183
S'postprocessing'
p5184
asbag57
(g78
g59
NtRp5185
(dp5186
g62
(dp5187
g89
g90
ssg71
g5176
sg64
(lp5188
S':'
asbag57
(g78
g59
NtRp5189
(dp5190
g62
(dp5191
sg71
g5176
sg64
(lp5192
g57
(g58
g59
NtRp5193
(dp5194
g62
(dp5195
g70
I5
ssg71
g5189
sg64
(lp5196
g57
(g66
g59
NtRp5197
(dp5198
g62
(dp5199
g70
I4
ssg71
Nsg64
(lp5200
sbasbasbasbag57
(g73
g59
NtRp5201
(dp5202
g62
(dp5203
sg71
g3916
sg64
(lp5204
g57
(g78
g59
NtRp5205
(dp5206
g62
(dp5207
g82
g83
ssg71
g5201
sg64
(lp5208
S'session_file'
p5209
asbag57
(g78
g59
NtRp5210
(dp5211
g62
(dp5212
g89
g90
ssg71
g5201
sg64
(lp5213
S':'
asbag57
(g78
g59
NtRp5214
(dp5215
g62
(dp5216
sg71
g5201
sg64
(lp5217
g57
(g58
g59
NtRp5218
(dp5219
g62
(dp5220
g70
I5
ssg71
g5214
sg64
(lp5221
S"<open file '/home/ds-iiit/web2py/applications/Read_it/sessions/127.0.0.1-64ed602e-5699-4391-ae4f-88c77653edcf', mode 'rb+' at 0x7f03fc642e40>"
p5222
asbasbasbag57
(g73
g59
NtRp5223
(dp5224
g62
(dp5225
sg71
g3916
sg64
(lp5226
g57
(g78
g59
NtRp5227
(dp5228
g62
(dp5229
g82
g83
ssg71
g5223
sg64
(lp5230
S'session_filename'
p5231
asbag57
(g78
g59
NtRp5232
(dp5233
g62
(dp5234
g89
g90
ssg71
g5223
sg64
(lp5235
S':'
asbag57
(g78
g59
NtRp5236
(dp5237
g62
(dp5238
sg71
g5223
sg64
(lp5239
g57
(g58
g59
NtRp5240
(dp5241
g62
(dp5242
g70
I5
ssg71
g5236
sg64
(lp5243
S'/home/ds-iiit/web2py/applications/Read_it/sessions/127.0.0.1-64ed602e-5699-4391-ae4f-88c77653edcf'
p5244
asbasbasbag57
(g73
g59
NtRp5245
(dp5246
g62
(dp5247
sg71
g3916
sg64
(lp5248
g57
(g78
g59
NtRp5249
(dp5250
g62
(dp5251
g82
g83
ssg71
g5245
sg64
(lp5252
S'session_id'
p5253
asbag57
(g78
g59
NtRp5254
(dp5255
g62
(dp5256
g89
g90
ssg71
g5245
sg64
(lp5257
S':'
asbag57
(g78
g59
NtRp5258
(dp5259
g62
(dp5260
sg71
g5245
sg64
(lp5261
g57
(g58
g59
NtRp5262
(dp5263
g62
(dp5264
g70
I5
ssg71
g5258
sg64
(lp5265
S'127.0.0.1-64ed602e-5699-4391-ae4f-88c77653edcf'
p5266
asbasbasbag57
(g73
g59
NtRp5267
(dp5268
g62
(dp5269
sg71
g3916
sg64
(lp5270
g57
(g78
g59
NtRp5271
(dp5272
g62
(dp5273
g82
g83
ssg71
g5267
sg64
(lp5274
S'session_id_name'
p5275
asbag57
(g78
g59
NtRp5276
(dp5277
g62
(dp5278
g89
g90
ssg71
g5267
sg64
(lp5279
S':'
asbag57
(g78
g59
NtRp5280
(dp5281
g62
(dp5282
sg71
g5267
sg64
(lp5283
g57
(g58
g59
NtRp5284
(dp5285
g62
(dp5286
g70
I5
ssg71
g5280
sg64
(lp5287
g3973
asbasbasbag57
(g73
g59
NtRp5288
(dp5289
g62
(dp5290
sg71
g3916
sg64
(lp5291
g57
(g78
g59
NtRp5292
(dp5293
g62
(dp5294
g82
g83
ssg71
g5288
sg64
(lp5295
S'session_locked'
p5296
asbag57
(g78
g59
NtRp5297
(dp5298
g62
(dp5299
g89
g90
ssg71
g5288
sg64
(lp5300
S':'
asbag57
(g78
g59
NtRp5301
(dp5302
g62
(dp5303
sg71
g5288
sg64
(lp5304
g57
(g58
g59
NtRp5305
(dp5306
g62
(dp5307
g70
I5
ssg71
g5301
sg64
(lp5308
g1905
asbasbasbag57
(g73
g59
NtRp5309
(dp5310
g62
(dp5311
sg71
g3916
sg64
(lp5312
g57
(g78
g59
NtRp5313
(dp5314
g62
(dp5315
g82
g83
ssg71
g5309
sg64
(lp5316
S'session_new'
p5317
asbag57
(g78
g59
NtRp5318
(dp5319
g62
(dp5320
g89
g90
ssg71
g5309
sg64
(lp5321
S':'
asbag57
(g78
g59
NtRp5322
(dp5323
g62
(dp5324
sg71
g5309
sg64
(lp5325
g57
(g58
g59
NtRp5326
(dp5327
g62
(dp5328
g70
I5
ssg71
g5322
sg64
(lp5329
g100
asbasbasbag57
(g73
g59
NtRp5330
(dp5331
g62
(dp5332
sg71
g3916
sg64
(lp5333
g57
(g78
g59
NtRp5334
(dp5335
g62
(dp5336
g82
g83
ssg71
g5330
sg64
(lp5337
S'status'
p5338
asbag57
(g78
g59
NtRp5339
(dp5340
g62
(dp5341
g89
g90
ssg71
g5330
sg64
(lp5342
S':'
asbag57
(g78
g59
NtRp5343
(dp5344
g62
(dp5345
sg71
g5330
sg64
(lp5346
g57
(g58
g59
NtRp5347
(dp5348
g62
(dp5349
g70
I5
ssg71
g5343
sg64
(lp5350
S'200'
p5351
asbasbasbag57
(g73
g59
NtRp5352
(dp5353
g62
(dp5354
sg71
g3916
sg64
(lp5355
g57
(g78
g59
NtRp5356
(dp5357
g62
(dp5358
g82
g83
ssg71
g5352
sg64
(lp5359
S'subtitle'
p5360
asbag57
(g78
g59
NtRp5361
(dp5362
g62
(dp5363
g89
g90
ssg71
g5352
sg64
(lp5364
S':'
asbag57
(g78
g59
NtRp5365
(dp5366
g62
(dp5367
sg71
g5352
sg64
(lp5368
g57
(g58
g59
NtRp5369
(dp5370
g62
(dp5371
g70
I5
ssg71
g5365
sg64
(lp5372
g4421
(S's\r\x00\x00\x00customize me!'
tRp5373
asbasbasbag57
(g73
g59
NtRp5374
(dp5375
g62
(dp5376
sg71
g3916
sg64
(lp5377
g57
(g78
g59
NtRp5378
(dp5379
g62
(dp5380
g82
g83
ssg71
g5374
sg64
(lp5381
S'title'
p5382
asbag57
(g78
g59
NtRp5383
(dp5384
g62
(dp5385
g89
g90
ssg71
g5374
sg64
(lp5386
S':'
asbag57
(g78
g59
NtRp5387
(dp5388
g62
(dp5389
sg71
g5374
sg64
(lp5390
g57
(g58
g59
NtRp5391
(dp5392
g62
(dp5393
g70
I5
ssg71
g5387
sg64
(lp5394
S'Read It'
p5395
asbasbasbag57
(g73
g59
NtRp5396
(dp5397
g62
(dp5398
sg71
g3916
sg64
(lp5399
g57
(g78
g59
NtRp5400
(dp5401
g62
(dp5402
g82
g83
ssg71
g5396
sg64
(lp5403
g2591
asbag57
(g78
g59
NtRp5404
(dp5405
g62
(dp5406
g89
g90
ssg71
g5396
sg64
(lp5407
S':'
asbag57
(g78
g59
NtRp5408
(dp5409
g62
(dp5410
sg71
g5396
sg64
(lp5411
g57
(g58
g59
NtRp5412
(dp5413
g62
(dp5414
g70
I5
ssg71
g5408
sg64
(lp5415
g2604
asbasbasbag57
(g73
g59
NtRp5416
(dp5417
g62
(dp5418
sg71
g3916
sg64
(lp5419
g57
(g78
g59
NtRp5420
(dp5421
g62
(dp5422
g82
g83
ssg71
g5416
sg64
(lp5423
S'view'
p5424
asbag57
(g78
g59
NtRp5425
(dp5426
g62
(dp5427
g89
g90
ssg71
g5416
sg64
(lp5428
S':'
asbag57
(g78
g59
NtRp5429
(dp5430
g62
(dp5431
sg71
g5416
sg64
(lp5432
g57
(g58
g59
NtRp5433
(dp5434
g62
(dp5435
g70
I5
ssg71
g5429
sg64
(lp5436
S'default/list_cat.html'
p5437
asbasbasbasbasbsS'locals'
p5438
(dp5439
S'self'
p5440
S'<gluon.dal.SQLiteAdapter object>'
p5441
sS'r'
S'None'
p5442
sS'obj'
p5443
S"'list_cat'"
p5444
sS'fieldtype'
p5445
S"'id'"
p5446
sssS'traceback'
p5447
S'Traceback (most recent call last):\n  File "/usr/lib/pymodules/python2.7/gluon/restricted.py", line 204, in restricted\n    exec ccode in environment\n  File "/home/ds-iiit/web2py/applications/Read_it/controllers/default.py", line 170, in <module>\n  File "/usr/lib/pymodules/python2.7/gluon/globals.py", line 172, in <lambda>\n    self._caller = lambda f: f()\n  File "/home/ds-iiit/web2py/applications/Read_it/controllers/default.py", line 95, in list_cat\n    x = db((request.args(0)==db.Category.id) & (db.Category.id == db.Item.Category)).select(orderby=db.Item.Rating)\n  File "/usr/lib/pymodules/python2.7/gluon/dal.py", line 6333, in select\n    return self.db._adapter.select(self.query,fields,attributes)\n  File "/usr/lib/pymodules/python2.7/gluon/dal.py", line 1274, in select\n    sql = self._select(query, fields, attributes)\n  File "/usr/lib/pymodules/python2.7/gluon/dal.py", line 1672, in _select\n    sql = super(SQLiteAdapter, self)._select(query, fields, attributes)\n  File "/usr/lib/pymodules/python2.7/gluon/dal.py", line 1175, in _select\n    sql_w = \' WHERE \' + self.expand(query)\n  File "/usr/lib/pymodules/python2.7/gluon/dal.py", line 1023, in expand\n    return expression.op(expression.first, expression.second)\n  File "/usr/lib/pymodules/python2.7/gluon/dal.py", line 932, in AND\n    return \'(%s AND %s)\' % (self.expand(first), self.expand(second))\n  File "/usr/lib/pymodules/python2.7/gluon/dal.py", line 1023, in expand\n    return expression.op(expression.first, expression.second)\n  File "/usr/lib/pymodules/python2.7/gluon/dal.py", line 964, in EQ\n    return \'(%s = %s)\' % (self.expand(first), self.expand(second, first.type))\n  File "/usr/lib/pymodules/python2.7/gluon/dal.py", line 1031, in expand\n    return str(self.represent(expression,field_type))\n  File "/usr/lib/pymodules/python2.7/gluon/dal.py", line 1388, in represent\n    return str(int(obj))\nValueError: invalid literal for int() with base 10: \'list_cat\'\n'
p5448
s.