(dp1
S'output'
p2
S"<type 'exceptions.TypeError'> CONTAINS() takes exactly 3 arguments (2 given)"
p3
sS'layer'
p4
S'/home/ds-iiit/web2py/applications/Read_it/controllers/default.py'
p5
sS'code'
p6
S'# -*- coding: utf-8 -*-\n# this file is released under public domain and you can use without limitations\n\n#########################################################################\n## This is a samples controller\n## - index is the default action of any application\n## - user is required for authentication and authorization\n## - download is for downloading files uploaded in the db (does streaming)\n## - call exposes all registered services (none by default)\n#########################################################################\n\ndef comment():\n\tpass\t\n\ndef search():\n\tresults=[]\n\tx=request.args(0)\n\tresults=db(db.Item.Heading.contains(x)).select() \n#\tfor i in db().select(db.Item.ALL):\n#\t\tif re.search(x,i[\'Heading\']):\n#\t\t\tresults.append(i)\n\treturn dict(results=results)\n\n@auth.requires_login()\ndef points():\n\tx=db((db.Rated.ItemID == request.args(0)) & (db.Rated.UserID == auth.user_id)).select()\n\tif not x:\n\t\tdb.Rated.insert(UserID=auth.user_id,ItemID=request.args(0))\n\t\tx=db((db.Item.id == request.args(0))).select()\n\t\ty = x.first()\n\t\tx[0][\'Rating\'] = x[0][\'Rating\'] + int(request.args(1))\n\t\t#db(db.Item.id == request.args(0)).update(Rating+=int(request.args(1)))\n\t\tredirect(request.env.http_referrer)\n\telse:\n\t\tredirect("/Read_it/default/listall")\n\ndef listall():\n\tx = db(db.Item.id>=0).select(orderby=db.Item.Rating)\n\treturn dict(x=x)\n\n@auth.requires_login()\ndef new():\n\tform = crud.create(db.Item)\n\treturn dict(form=form)\n\n@auth.requires_login()\ndef update():\n\tform = []\n\tif db((request.args(0)==db.Item.id) & (db.Item.User == auth.user_id)).select():\n\t\tform = crud.update(db.Item,request.args(0))\n\telse:\n\t\tresponse.flash(\'Unauthorized access\')\n\t\tredirect(\'listall\')\n\treturn dict(form=form)\n\t\ndef delete():\n\tform = []\n\tif db((request.args(0)==db.Item.id) & (db.Item.User == auth.user_id)).select():\n\t\tform = crud.delete(db.Item,request.args(0))\n\telse:\n\t\tredirect(\'listall\')\n\treturn dict(form=form)\n\t\n\n@auth.requires_login()\ndef update():\n\tform = crud.update(db.Item,request.args(0))\n\treturn dict(form=form)\n\ndef list_cat():\n\tx = db(request.args(0)==db.Item.Category).select() or redirect(URL(\'listall\'))\n\treturn dict(x=x)\n\ndef index():\n    """\n    example action using the internationalization operator T and flash\n    rendered by views/default/index.html or views/generic.html\n    """\n    response.flash = "Welcome to web2py!"\n    return dict(message=T(\'Hello World\'))\n\ndef user():\n    """\n    exposes:\n    http://..../[app]/default/user/login\n    http://..../[app]/default/user/logout\n    http://..../[app]/default/user/register\n    http://..../[app]/default/user/profile\n    http://..../[app]/default/user/retrieve_password\n    http://..../[app]/default/user/change_password\n    use @auth.requires_login()\n        @auth.requires_membership(\'group name\')\n        @auth.requires_permission(\'read\',\'table name\',record_id)\n    to decorate functions that need access control\n    """\n    return dict(form=auth())\n\n\ndef download():\n    """\n    allows downloading of uploaded files\n    http://..../[app]/default/download/[filename]\n    """\n    return response.download(request,db)\n\n\ndef call():\n    """\n    exposes services. for example:\n    http://..../[app]/default/call/jsonrpc\n    decorate with @services.jsonrpc the functions to expose\n    supports xml, json, xmlrpc, jsonrpc, amfrpc, rss, csv\n    """\n    return service()\n\n\n@auth.requires_signature()\ndef data():\n    """\n    http://..../[app]/default/data/tables\n    http://..../[app]/default/data/create/[table]\n    http://..../[app]/default/data/read/[table]/[id]\n    http://..../[app]/default/data/update/[table]/[id]\n    http://..../[app]/default/data/delete/[table]/[id]\n    http://..../[app]/default/data/select/[table]\n    http://..../[app]/default/data/search/[table]\n    but URLs must be signed, i.e. linked with\n      A(\'table\',_href=URL(\'data/tables\',user_signature=True))\n    or with the signed load operator\n      LOAD(\'default\',\'data.load\',args=\'tables\',ajax=True,user_signature=True)\n    """\n    return dict(form=crud())\n\n\nresponse._vars=response._caller(search)\n'
p7
sS'snapshot'
p8
(dp9
S'exception'
p10
(dp11
S'__hash__'
p12
S"<method-wrapper '__hash__' of exceptions.TypeError object>"
p13
sS'__setattr__'
p14
S"<method-wrapper '__setattr__' of exceptions.TypeError object>"
p15
sS'__reduce_ex__'
p16
S'<built-in method __reduce_ex__ of exceptions.TypeError object>'
p17
sS'__getslice__'
p18
S"<method-wrapper '__getslice__' of exceptions.TypeError object>"
p19
sS'__getitem__'
p20
S"<method-wrapper '__getitem__' of exceptions.TypeError object>"
p21
sS'__setstate__'
p22
S'<built-in method __setstate__ of exceptions.TypeError object>'
p23
sS'args'
p24
S"('CONTAINS() takes exactly 3 arguments (2 given)',)"
p25
sS'__reduce__'
p26
S'<built-in method __reduce__ of exceptions.TypeError object>'
p27
sS'__str__'
p28
S"<method-wrapper '__str__' of exceptions.TypeError object>"
p29
sS'__format__'
p30
S'<built-in method __format__ of exceptions.TypeError object>'
p31
sS'__getattribute__'
p32
S"<method-wrapper '__getattribute__' of exceptions.TypeError object>"
p33
sS'__class__'
p34
S"<type 'exceptions.TypeError'>"
p35
sS'__unicode__'
p36
S'<built-in method __unicode__ of exceptions.TypeError object>'
p37
sS'__delattr__'
p38
S"<method-wrapper '__delattr__' of exceptions.TypeError object>"
p39
sS'__subclasshook__'
p40
S'<built-in method __subclasshook__ of type object>'
p41
sS'__repr__'
p42
S"<method-wrapper '__repr__' of exceptions.TypeError object>"
p43
sS'__dict__'
p44
S'{}'
p45
sS'__sizeof__'
p46
S'<built-in method __sizeof__ of exceptions.TypeError object>'
p47
sS'__doc__'
p48
S"'Inappropriate argument type.'"
p49
sS'__init__'
p50
S"<method-wrapper '__init__' of exceptions.TypeError object>"
p51
sS'__new__'
p52
S'<built-in method __new__ of type object>'
p53
ssS'evalue'
p54
S'CONTAINS() takes exactly 3 arguments (2 given)'
p55
sS'request'
p56
ccopy_reg
_reconstructor
p57
(cgluon.html
BEAUTIFY
p58
c__builtin__
object
p59
NtRp60
(dp61
S'attributes'
p62
(dp63
sS'components'
p64
(lp65
g57
(cgluon.html
TABLE
p66
g59
NtRp67
(dp68
g62
(dp69
S'level'
p70
I5
ssS'parent'
p71
Nsg64
(lp72
g57
(cgluon.html
TR
p73
g59
NtRp74
(dp75
g62
(dp76
sg71
g67
sg64
(lp77
g57
(cgluon.html
TD
p78
g59
NtRp79
(dp80
g62
(dp81
S'_style'
p82
S'font-weight:bold;vertical-align:top'
p83
ssg71
g74
sg64
(lp84
S'ajax'
p85
asbag57
(g78
g59
NtRp86
(dp87
g62
(dp88
S'_valign'
p89
S'top'
p90
ssg71
g74
sg64
(lp91
S':'
asbag57
(g78
g59
NtRp92
(dp93
g62
(dp94
sg71
g74
sg64
(lp95
g57
(g58
g59
NtRp96
(dp97
g62
(dp98
g70
I5
ssg71
g92
sg64
(lp99
S'False'
p100
asbasbasbag57
(g73
g59
NtRp101
(dp102
g62
(dp103
sg71
g67
sg64
(lp104
g57
(g78
g59
NtRp105
(dp106
g62
(dp107
g82
g83
ssg71
g101
sg64
(lp108
S'application'
p109
asbag57
(g78
g59
NtRp110
(dp111
g62
(dp112
g89
g90
ssg71
g101
sg64
(lp113
S':'
asbag57
(g78
g59
NtRp114
(dp115
g62
(dp116
sg71
g101
sg64
(lp117
g57
(g58
g59
NtRp118
(dp119
g62
(dp120
g70
I5
ssg71
g114
sg64
(lp121
S'Read_it'
p122
asbasbasbag57
(g73
g59
NtRp123
(dp124
g62
(dp125
sg71
g67
sg64
(lp126
g57
(g78
g59
NtRp127
(dp128
g62
(dp129
g82
g83
ssg71
g123
sg64
(lp130
g24
asbag57
(g78
g59
NtRp131
(dp132
g62
(dp133
g89
g90
ssg71
g123
sg64
(lp134
S':'
asbag57
(g78
g59
NtRp135
(dp136
g62
(dp137
sg71
g123
sg64
(lp138
g57
(g58
g59
NtRp139
(dp140
g62
(dp141
g70
I5
ssg71
g135
sg64
(lp142
g57
(g66
g59
NtRp143
(dp144
g62
(dp145
g70
I4
ssg71
Nsg64
(lp146
sbasbasbasbag57
(g73
g59
NtRp147
(dp148
g62
(dp149
sg71
g67
sg64
(lp150
g57
(g78
g59
NtRp151
(dp152
g62
(dp153
g82
g83
ssg71
g147
sg64
(lp154
S'body'
p155
asbag57
(g78
g59
NtRp156
(dp157
g62
(dp158
g89
g90
ssg71
g147
sg64
(lp159
S':'
asbag57
(g78
g59
NtRp160
(dp161
g62
(dp162
sg71
g147
sg64
(lp163
g57
(g58
g59
NtRp164
(dp165
g62
(dp166
g70
I5
ssg71
g160
sg64
(lp167
S'<cStringIO.StringO object at 0x7f2c444b7dc0>'
p168
asbasbasbag57
(g73
g59
NtRp169
(dp170
g62
(dp171
sg71
g67
sg64
(lp172
g57
(g78
g59
NtRp173
(dp174
g62
(dp175
g82
g83
ssg71
g169
sg64
(lp176
S'client'
p177
asbag57
(g78
g59
NtRp178
(dp179
g62
(dp180
g89
g90
ssg71
g169
sg64
(lp181
S':'
asbag57
(g78
g59
NtRp182
(dp183
g62
(dp184
sg71
g169
sg64
(lp185
g57
(g58
g59
NtRp186
(dp187
g62
(dp188
g70
I5
ssg71
g182
sg64
(lp189
S'127.0.0.1'
p190
asbasbasbag57
(g73
g59
NtRp191
(dp192
g62
(dp193
sg71
g67
sg64
(lp194
g57
(g78
g59
NtRp195
(dp196
g62
(dp197
g82
g83
ssg71
g191
sg64
(lp198
S'controller'
p199
asbag57
(g78
g59
NtRp200
(dp201
g62
(dp202
g89
g90
ssg71
g191
sg64
(lp203
S':'
asbag57
(g78
g59
NtRp204
(dp205
g62
(dp206
sg71
g191
sg64
(lp207
g57
(g58
g59
NtRp208
(dp209
g62
(dp210
g70
I5
ssg71
g204
sg64
(lp211
S'default'
p212
asbasbasbag57
(g73
g59
NtRp213
(dp214
g62
(dp215
sg71
g67
sg64
(lp216
g57
(g78
g59
NtRp217
(dp218
g62
(dp219
g82
g83
ssg71
g213
sg64
(lp220
S'cookies'
p221
asbag57
(g78
g59
NtRp222
(dp223
g62
(dp224
g89
g90
ssg71
g213
sg64
(lp225
S':'
asbag57
(g78
g59
NtRp226
(dp227
g62
(dp228
sg71
g213
sg64
(lp229
g57
(g58
g59
NtRp230
(dp231
g62
(dp232
g70
I5
ssg71
g226
sg64
(lp233
g57
(g66
g59
NtRp234
(dp235
g62
(dp236
g70
I4
ssg71
Nsg64
(lp237
g57
(g73
g59
NtRp238
(dp239
g62
(dp240
sg71
g234
sg64
(lp241
g57
(g78
g59
NtRp242
(dp243
g62
(dp244
g82
g83
ssg71
g238
sg64
(lp245
S'session_id_admin'
p246
asbag57
(g78
g59
NtRp247
(dp248
g62
(dp249
g89
g90
ssg71
g238
sg64
(lp250
S':'
asbag57
(g78
g59
NtRp251
(dp252
g62
(dp253
sg71
g238
sg64
(lp254
g57
(g58
g59
NtRp255
(dp256
g62
(dp257
g70
I4
ssg71
g251
sg64
(lp258
g57
(g66
g59
NtRp259
(dp260
g62
(dp261
g70
I3
ssg71
Nsg64
(lp262
g57
(g73
g59
NtRp263
(dp264
g62
(dp265
sg71
g259
sg64
(lp266
g57
(g78
g59
NtRp267
(dp268
g62
(dp269
g82
g83
ssg71
g263
sg64
(lp270
S'comment'
p271
asbag57
(g78
g59
NtRp272
(dp273
g62
(dp274
g89
g90
ssg71
g263
sg64
(lp275
S':'
asbag57
(g78
g59
NtRp276
(dp277
g62
(dp278
sg71
g263
sg64
(lp279
g57
(g58
g59
NtRp280
(dp281
g62
(dp282
g70
I3
ssg71
g276
sg64
(lp283
S''
asbasbasbag57
(g73
g59
NtRp284
(dp285
g62
(dp286
sg71
g259
sg64
(lp287
g57
(g78
g59
NtRp288
(dp289
g62
(dp290
g82
g83
ssg71
g284
sg64
(lp291
S'domain'
p292
asbag57
(g78
g59
NtRp293
(dp294
g62
(dp295
g89
g90
ssg71
g284
sg64
(lp296
S':'
asbag57
(g78
g59
NtRp297
(dp298
g62
(dp299
sg71
g284
sg64
(lp300
g57
(g58
g59
NtRp301
(dp302
g62
(dp303
g70
I3
ssg71
g297
sg64
(lp304
S''
asbasbasbag57
(g73
g59
NtRp305
(dp306
g62
(dp307
sg71
g259
sg64
(lp308
g57
(g78
g59
NtRp309
(dp310
g62
(dp311
g82
g83
ssg71
g305
sg64
(lp312
S'expires'
p313
asbag57
(g78
g59
NtRp314
(dp315
g62
(dp316
g89
g90
ssg71
g305
sg64
(lp317
S':'
asbag57
(g78
g59
NtRp318
(dp319
g62
(dp320
sg71
g305
sg64
(lp321
g57
(g58
g59
NtRp322
(dp323
g62
(dp324
g70
I3
ssg71
g318
sg64
(lp325
S''
asbasbasbag57
(g73
g59
NtRp326
(dp327
g62
(dp328
sg71
g259
sg64
(lp329
g57
(g78
g59
NtRp330
(dp331
g62
(dp332
g82
g83
ssg71
g326
sg64
(lp333
S'httponly'
p334
asbag57
(g78
g59
NtRp335
(dp336
g62
(dp337
g89
g90
ssg71
g326
sg64
(lp338
S':'
asbag57
(g78
g59
NtRp339
(dp340
g62
(dp341
sg71
g326
sg64
(lp342
g57
(g58
g59
NtRp343
(dp344
g62
(dp345
g70
I3
ssg71
g339
sg64
(lp346
S''
asbasbasbag57
(g73
g59
NtRp347
(dp348
g62
(dp349
sg71
g259
sg64
(lp350
g57
(g78
g59
NtRp351
(dp352
g62
(dp353
g82
g83
ssg71
g347
sg64
(lp354
S'max-age'
p355
asbag57
(g78
g59
NtRp356
(dp357
g62
(dp358
g89
g90
ssg71
g347
sg64
(lp359
S':'
asbag57
(g78
g59
NtRp360
(dp361
g62
(dp362
sg71
g347
sg64
(lp363
g57
(g58
g59
NtRp364
(dp365
g62
(dp366
g70
I3
ssg71
g360
sg64
(lp367
S''
asbasbasbag57
(g73
g59
NtRp368
(dp369
g62
(dp370
sg71
g259
sg64
(lp371
g57
(g78
g59
NtRp372
(dp373
g62
(dp374
g82
g83
ssg71
g368
sg64
(lp375
S'path'
p376
asbag57
(g78
g59
NtRp377
(dp378
g62
(dp379
g89
g90
ssg71
g368
sg64
(lp380
S':'
asbag57
(g78
g59
NtRp381
(dp382
g62
(dp383
sg71
g368
sg64
(lp384
g57
(g58
g59
NtRp385
(dp386
g62
(dp387
g70
I3
ssg71
g381
sg64
(lp388
S''
asbasbasbag57
(g73
g59
NtRp389
(dp390
g62
(dp391
sg71
g259
sg64
(lp392
g57
(g78
g59
NtRp393
(dp394
g62
(dp395
g82
g83
ssg71
g389
sg64
(lp396
S'secure'
p397
asbag57
(g78
g59
NtRp398
(dp399
g62
(dp400
g89
g90
ssg71
g389
sg64
(lp401
S':'
asbag57
(g78
g59
NtRp402
(dp403
g62
(dp404
sg71
g389
sg64
(lp405
g57
(g58
g59
NtRp406
(dp407
g62
(dp408
g70
I3
ssg71
g402
sg64
(lp409
S''
asbasbasbag57
(g73
g59
NtRp410
(dp411
g62
(dp412
sg71
g259
sg64
(lp413
g57
(g78
g59
NtRp414
(dp415
g62
(dp416
g82
g83
ssg71
g410
sg64
(lp417
S'version'
p418
asbag57
(g78
g59
NtRp419
(dp420
g62
(dp421
g89
g90
ssg71
g410
sg64
(lp422
S':'
asbag57
(g78
g59
NtRp423
(dp424
g62
(dp425
sg71
g410
sg64
(lp426
g57
(g58
g59
NtRp427
(dp428
g62
(dp429
g70
I3
ssg71
g423
sg64
(lp430
S''
asbasbasbasbasbasbasbag57
(g73
g59
NtRp431
(dp432
g62
(dp433
sg71
g234
sg64
(lp434
g57
(g78
g59
NtRp435
(dp436
g62
(dp437
g82
g83
ssg71
g431
sg64
(lp438
S'session_id_read_it'
p439
asbag57
(g78
g59
NtRp440
(dp441
g62
(dp442
g89
g90
ssg71
g431
sg64
(lp443
S':'
asbag57
(g78
g59
NtRp444
(dp445
g62
(dp446
sg71
g431
sg64
(lp447
g57
(g58
g59
NtRp448
(dp449
g62
(dp450
g70
I4
ssg71
g444
sg64
(lp451
g57
(g66
g59
NtRp452
(dp453
g62
(dp454
g70
I3
ssg71
Nsg64
(lp455
g57
(g73
g59
NtRp456
(dp457
g62
(dp458
sg71
g452
sg64
(lp459
g57
(g78
g59
NtRp460
(dp461
g62
(dp462
g82
g83
ssg71
g456
sg64
(lp463
g271
asbag57
(g78
g59
NtRp464
(dp465
g62
(dp466
g89
g90
ssg71
g456
sg64
(lp467
S':'
asbag57
(g78
g59
NtRp468
(dp469
g62
(dp470
sg71
g456
sg64
(lp471
g57
(g58
g59
NtRp472
(dp473
g62
(dp474
g70
I3
ssg71
g468
sg64
(lp475
S''
asbasbasbag57
(g73
g59
NtRp476
(dp477
g62
(dp478
sg71
g452
sg64
(lp479
g57
(g78
g59
NtRp480
(dp481
g62
(dp482
g82
g83
ssg71
g476
sg64
(lp483
g292
asbag57
(g78
g59
NtRp484
(dp485
g62
(dp486
g89
g90
ssg71
g476
sg64
(lp487
S':'
asbag57
(g78
g59
NtRp488
(dp489
g62
(dp490
sg71
g476
sg64
(lp491
g57
(g58
g59
NtRp492
(dp493
g62
(dp494
g70
I3
ssg71
g488
sg64
(lp495
S''
asbasbasbag57
(g73
g59
NtRp496
(dp497
g62
(dp498
sg71
g452
sg64
(lp499
g57
(g78
g59
NtRp500
(dp501
g62
(dp502
g82
g83
ssg71
g496
sg64
(lp503
g313
asbag57
(g78
g59
NtRp504
(dp505
g62
(dp506
g89
g90
ssg71
g496
sg64
(lp507
S':'
asbag57
(g78
g59
NtRp508
(dp509
g62
(dp510
sg71
g496
sg64
(lp511
g57
(g58
g59
NtRp512
(dp513
g62
(dp514
g70
I3
ssg71
g508
sg64
(lp515
S''
asbasbasbag57
(g73
g59
NtRp516
(dp517
g62
(dp518
sg71
g452
sg64
(lp519
g57
(g78
g59
NtRp520
(dp521
g62
(dp522
g82
g83
ssg71
g516
sg64
(lp523
g334
asbag57
(g78
g59
NtRp524
(dp525
g62
(dp526
g89
g90
ssg71
g516
sg64
(lp527
S':'
asbag57
(g78
g59
NtRp528
(dp529
g62
(dp530
sg71
g516
sg64
(lp531
g57
(g58
g59
NtRp532
(dp533
g62
(dp534
g70
I3
ssg71
g528
sg64
(lp535
S''
asbasbasbag57
(g73
g59
NtRp536
(dp537
g62
(dp538
sg71
g452
sg64
(lp539
g57
(g78
g59
NtRp540
(dp541
g62
(dp542
g82
g83
ssg71
g536
sg64
(lp543
g355
asbag57
(g78
g59
NtRp544
(dp545
g62
(dp546
g89
g90
ssg71
g536
sg64
(lp547
S':'
asbag57
(g78
g59
NtRp548
(dp549
g62
(dp550
sg71
g536
sg64
(lp551
g57
(g58
g59
NtRp552
(dp553
g62
(dp554
g70
I3
ssg71
g548
sg64
(lp555
S''
asbasbasbag57
(g73
g59
NtRp556
(dp557
g62
(dp558
sg71
g452
sg64
(lp559
g57
(g78
g59
NtRp560
(dp561
g62
(dp562
g82
g83
ssg71
g556
sg64
(lp563
g376
asbag57
(g78
g59
NtRp564
(dp565
g62
(dp566
g89
g90
ssg71
g556
sg64
(lp567
S':'
asbag57
(g78
g59
NtRp568
(dp569
g62
(dp570
sg71
g556
sg64
(lp571
g57
(g58
g59
NtRp572
(dp573
g62
(dp574
g70
I3
ssg71
g568
sg64
(lp575
S''
asbasbasbag57
(g73
g59
NtRp576
(dp577
g62
(dp578
sg71
g452
sg64
(lp579
g57
(g78
g59
NtRp580
(dp581
g62
(dp582
g82
g83
ssg71
g576
sg64
(lp583
g397
asbag57
(g78
g59
NtRp584
(dp585
g62
(dp586
g89
g90
ssg71
g576
sg64
(lp587
S':'
asbag57
(g78
g59
NtRp588
(dp589
g62
(dp590
sg71
g576
sg64
(lp591
g57
(g58
g59
NtRp592
(dp593
g62
(dp594
g70
I3
ssg71
g588
sg64
(lp595
S''
asbasbasbag57
(g73
g59
NtRp596
(dp597
g62
(dp598
sg71
g452
sg64
(lp599
g57
(g78
g59
NtRp600
(dp601
g62
(dp602
g82
g83
ssg71
g596
sg64
(lp603
g418
asbag57
(g78
g59
NtRp604
(dp605
g62
(dp606
g89
g90
ssg71
g596
sg64
(lp607
S':'
asbag57
(g78
g59
NtRp608
(dp609
g62
(dp610
sg71
g596
sg64
(lp611
g57
(g58
g59
NtRp612
(dp613
g62
(dp614
g70
I3
ssg71
g608
sg64
(lp615
S''
asbasbasbasbasbasbasbasbasbasbasbag57
(g73
g59
NtRp616
(dp617
g62
(dp618
sg71
g67
sg64
(lp619
g57
(g78
g59
NtRp620
(dp621
g62
(dp622
g82
g83
ssg71
g616
sg64
(lp623
S'env'
p624
asbag57
(g78
g59
NtRp625
(dp626
g62
(dp627
g89
g90
ssg71
g616
sg64
(lp628
S':'
asbag57
(g78
g59
NtRp629
(dp630
g62
(dp631
sg71
g616
sg64
(lp632
g57
(g58
g59
NtRp633
(dp634
g62
(dp635
g70
I5
ssg71
g629
sg64
(lp636
g57
(g66
g59
NtRp637
(dp638
g62
(dp639
g70
I4
ssg71
Nsg64
(lp640
g57
(g73
g59
NtRp641
(dp642
g62
(dp643
sg71
g637
sg64
(lp644
g57
(g78
g59
NtRp645
(dp646
g62
(dp647
g82
g83
ssg71
g641
sg64
(lp648
S'app_folders'
p649
asbag57
(g78
g59
NtRp650
(dp651
g62
(dp652
g89
g90
ssg71
g641
sg64
(lp653
S':'
asbag57
(g78
g59
NtRp654
(dp655
g62
(dp656
sg71
g641
sg64
(lp657
g57
(g58
g59
NtRp658
(dp659
g62
(dp660
g70
I4
ssg71
g654
sg64
(lp661
S"set(['/home/ds-iiit/web2py/applications/Read_it/', '/home/ds-iiit/web2py/applications/welcome/', '/home/ds-iiit/web2py/applications/admin/'])"
p662
asbasbasbag57
(g73
g59
NtRp663
(dp664
g62
(dp665
sg71
g637
sg64
(lp666
g57
(g78
g59
NtRp667
(dp668
g62
(dp669
g82
g83
ssg71
g663
sg64
(lp670
S'applications_parent'
p671
asbag57
(g78
g59
NtRp672
(dp673
g62
(dp674
g89
g90
ssg71
g663
sg64
(lp675
S':'
asbag57
(g78
g59
NtRp676
(dp677
g62
(dp678
sg71
g663
sg64
(lp679
g57
(g58
g59
NtRp680
(dp681
g62
(dp682
g70
I4
ssg71
g676
sg64
(lp683
S'/home/ds-iiit/web2py'
p684
asbasbasbag57
(g73
g59
NtRp685
(dp686
g62
(dp687
sg71
g637
sg64
(lp688
g57
(g78
g59
NtRp689
(dp690
g62
(dp691
g82
g83
ssg71
g685
sg64
(lp692
S'cmd_args'
p693
asbag57
(g78
g59
NtRp694
(dp695
g62
(dp696
g89
g90
ssg71
g685
sg64
(lp697
S':'
asbag57
(g78
g59
NtRp698
(dp699
g62
(dp700
sg71
g685
sg64
(lp701
g57
(g58
g59
NtRp702
(dp703
g62
(dp704
g70
I4
ssg71
g698
sg64
(lp705
g57
(g66
g59
NtRp706
(dp707
g62
(dp708
g70
I3
ssg71
Nsg64
(lp709
sbasbasbasbag57
(g73
g59
NtRp710
(dp711
g62
(dp712
sg71
g637
sg64
(lp713
g57
(g78
g59
NtRp714
(dp715
g62
(dp716
g82
g83
ssg71
g710
sg64
(lp717
S'cmd_options'
p718
asbag57
(g78
g59
NtRp719
(dp720
g62
(dp721
g89
g90
ssg71
g710
sg64
(lp722
S':'
asbag57
(g78
g59
NtRp723
(dp724
g62
(dp725
sg71
g710
sg64
(lp726
g57
(g58
g59
NtRp727
(dp728
g62
(dp729
g70
I4
ssg71
g723
sg64
(lp730
S"<Values at 0x2b9db00: {'verbose': False, 'ip': '127.0.0.1', 'shutdown_timeout': 5, 'taskbar': False, 'port': 8000, 'maxthreads': None, 'softcron': False, 'server_name': 'DS-IIIT', 'bpython': False, 'nogui': False, 'nocron': False, 'extcron': False, 'debuglevel': 30, 'test': None, 'folder': '/home/ds-iiit/web2py', 'config': '', 'import_models': False, 'winservice': '', 'shell': None, 'run': '', 'log_filename': 'httpserver.log', 'args': [''], 'socket_timeout': 1, 'profiler_filename': None, 'ssl_private_key': '', 'password': '<ask>', 'request_queue_size': 5, 'ssl_certificate': '', 'cronjob': False, 'plain': False, 'quiet': False, 'interfaces': None, 'minthreads': None, 'timeout': 10, 'numthreads': None, 'nobanner': False, 'pid_filename': 'httpserver.pid'}>"
p731
asbasbasbag57
(g73
g59
NtRp732
(dp733
g62
(dp734
sg71
g637
sg64
(lp735
g57
(g78
g59
NtRp736
(dp737
g62
(dp738
g82
g83
ssg71
g732
sg64
(lp739
S'db_sessions'
p740
asbag57
(g78
g59
NtRp741
(dp742
g62
(dp743
g89
g90
ssg71
g732
sg64
(lp744
S':'
asbag57
(g78
g59
NtRp745
(dp746
g62
(dp747
sg71
g732
sg64
(lp748
g57
(g58
g59
NtRp749
(dp750
g62
(dp751
g70
I4
ssg71
g745
sg64
(lp752
S'set([])'
p753
asbasbasbag57
(g73
g59
NtRp754
(dp755
g62
(dp756
sg71
g637
sg64
(lp757
g57
(g78
g59
NtRp758
(dp759
g62
(dp760
g82
g83
ssg71
g754
sg64
(lp761
S'debugging'
p762
asbag57
(g78
g59
NtRp763
(dp764
g62
(dp765
g89
g90
ssg71
g754
sg64
(lp766
S':'
asbag57
(g78
g59
NtRp767
(dp768
g62
(dp769
sg71
g754
sg64
(lp770
g57
(g58
g59
NtRp771
(dp772
g62
(dp773
g70
I4
ssg71
g767
sg64
(lp774
g100
asbasbasbag57
(g73
g59
NtRp775
(dp776
g62
(dp777
sg71
g637
sg64
(lp778
g57
(g78
g59
NtRp779
(dp780
g62
(dp781
g82
g83
ssg71
g775
sg64
(lp782
S'gluon_parent'
p783
asbag57
(g78
g59
NtRp784
(dp785
g62
(dp786
g89
g90
ssg71
g775
sg64
(lp787
S':'
asbag57
(g78
g59
NtRp788
(dp789
g62
(dp790
sg71
g775
sg64
(lp791
g57
(g58
g59
NtRp792
(dp793
g62
(dp794
g70
I4
ssg71
g788
sg64
(lp795
S'/usr/share/web2py'
p796
asbasbasbag57
(g73
g59
NtRp797
(dp798
g62
(dp799
sg71
g637
sg64
(lp800
g57
(g78
g59
NtRp801
(dp802
g62
(dp803
g82
g83
ssg71
g797
sg64
(lp804
S'http_accept'
p805
asbag57
(g78
g59
NtRp806
(dp807
g62
(dp808
g89
g90
ssg71
g797
sg64
(lp809
S':'
asbag57
(g78
g59
NtRp810
(dp811
g62
(dp812
sg71
g797
sg64
(lp813
g57
(g58
g59
NtRp814
(dp815
g62
(dp816
g70
I4
ssg71
g810
sg64
(lp817
S'text/html,application/xhtml+xml,application/xml;q=0.9,*/*;q=0.8'
p818
asbasbasbag57
(g73
g59
NtRp819
(dp820
g62
(dp821
sg71
g637
sg64
(lp822
g57
(g78
g59
NtRp823
(dp824
g62
(dp825
g82
g83
ssg71
g819
sg64
(lp826
S'http_accept_encoding'
p827
asbag57
(g78
g59
NtRp828
(dp829
g62
(dp830
g89
g90
ssg71
g819
sg64
(lp831
S':'
asbag57
(g78
g59
NtRp832
(dp833
g62
(dp834
sg71
g819
sg64
(lp835
g57
(g58
g59
NtRp836
(dp837
g62
(dp838
g70
I4
ssg71
g832
sg64
(lp839
S'gzip, deflate'
p840
asbasbasbag57
(g73
g59
NtRp841
(dp842
g62
(dp843
sg71
g637
sg64
(lp844
g57
(g78
g59
NtRp845
(dp846
g62
(dp847
g82
g83
ssg71
g841
sg64
(lp848
S'http_accept_language'
p849
asbag57
(g78
g59
NtRp850
(dp851
g62
(dp852
g89
g90
ssg71
g841
sg64
(lp853
S':'
asbag57
(g78
g59
NtRp854
(dp855
g62
(dp856
sg71
g841
sg64
(lp857
g57
(g58
g59
NtRp858
(dp859
g62
(dp860
g70
I4
ssg71
g854
sg64
(lp861
S'en-US,en;q=0.5'
p862
asbasbasbag57
(g73
g59
NtRp863
(dp864
g62
(dp865
sg71
g637
sg64
(lp866
g57
(g78
g59
NtRp867
(dp868
g62
(dp869
g82
g83
ssg71
g863
sg64
(lp870
S'http_connection'
p871
asbag57
(g78
g59
NtRp872
(dp873
g62
(dp874
g89
g90
ssg71
g863
sg64
(lp875
S':'
asbag57
(g78
g59
NtRp876
(dp877
g62
(dp878
sg71
g863
sg64
(lp879
g57
(g58
g59
NtRp880
(dp881
g62
(dp882
g70
I4
ssg71
g876
sg64
(lp883
S'keep-alive'
p884
asbasbasbag57
(g73
g59
NtRp885
(dp886
g62
(dp887
sg71
g637
sg64
(lp888
g57
(g78
g59
NtRp889
(dp890
g62
(dp891
g82
g83
ssg71
g885
sg64
(lp892
S'http_cookie'
p893
asbag57
(g78
g59
NtRp894
(dp895
g62
(dp896
g89
g90
ssg71
g885
sg64
(lp897
S':'
asbag57
(g78
g59
NtRp898
(dp899
g62
(dp900
sg71
g885
sg64
(lp901
g57
(g58
g59
NtRp902
(dp903
g62
(dp904
g70
I4
ssg71
g898
sg64
(lp905
S'session_id_read_it=127.0.0.1-303fb8c0-186d-491b-8fda-b7b2c8d34071; session_id_admin=127.0.0.1-60200880-540b-497f-9120-73501da22be2'
p906
asbasbasbag57
(g73
g59
NtRp907
(dp908
g62
(dp909
sg71
g637
sg64
(lp910
g57
(g78
g59
NtRp911
(dp912
g62
(dp913
g82
g83
ssg71
g907
sg64
(lp914
S'http_host'
p915
asbag57
(g78
g59
NtRp916
(dp917
g62
(dp918
g89
g90
ssg71
g907
sg64
(lp919
S':'
asbag57
(g78
g59
NtRp920
(dp921
g62
(dp922
sg71
g907
sg64
(lp923
g57
(g58
g59
NtRp924
(dp925
g62
(dp926
g70
I4
ssg71
g920
sg64
(lp927
S'127.0.0.1:8001'
p928
asbasbasbag57
(g73
g59
NtRp929
(dp930
g62
(dp931
sg71
g637
sg64
(lp932
g57
(g78
g59
NtRp933
(dp934
g62
(dp935
g82
g83
ssg71
g929
sg64
(lp936
S'http_user_agent'
p937
asbag57
(g78
g59
NtRp938
(dp939
g62
(dp940
g89
g90
ssg71
g929
sg64
(lp941
S':'
asbag57
(g78
g59
NtRp942
(dp943
g62
(dp944
sg71
g929
sg64
(lp945
g57
(g58
g59
NtRp946
(dp947
g62
(dp948
g70
I4
ssg71
g942
sg64
(lp949
S'Mozilla/5.0 (X11; Ubuntu; Linux x86_64; rv:23.0) Gecko/20100101 Firefox/23.0'
p950
asbasbasbag57
(g73
g59
NtRp951
(dp952
g62
(dp953
sg71
g637
sg64
(lp954
g57
(g78
g59
NtRp955
(dp956
g62
(dp957
g82
g83
ssg71
g951
sg64
(lp958
S'is_jython'
p959
asbag57
(g78
g59
NtRp960
(dp961
g62
(dp962
g89
g90
ssg71
g951
sg64
(lp963
S':'
asbag57
(g78
g59
NtRp964
(dp965
g62
(dp966
sg71
g951
sg64
(lp967
g57
(g58
g59
NtRp968
(dp969
g62
(dp970
g70
I4
ssg71
g964
sg64
(lp971
g100
asbasbasbag57
(g73
g59
NtRp972
(dp973
g62
(dp974
sg71
g637
sg64
(lp975
g57
(g78
g59
NtRp976
(dp977
g62
(dp978
g82
g83
ssg71
g972
sg64
(lp979
S'is_pypy'
p980
asbag57
(g78
g59
NtRp981
(dp982
g62
(dp983
g89
g90
ssg71
g972
sg64
(lp984
S':'
asbag57
(g78
g59
NtRp985
(dp986
g62
(dp987
sg71
g972
sg64
(lp988
g57
(g58
g59
NtRp989
(dp990
g62
(dp991
g70
I4
ssg71
g985
sg64
(lp992
g100
asbasbasbag57
(g73
g59
NtRp993
(dp994
g62
(dp995
sg71
g637
sg64
(lp996
g57
(g78
g59
NtRp997
(dp998
g62
(dp999
g82
g83
ssg71
g993
sg64
(lp1000
S'path_info'
p1001
asbag57
(g78
g59
NtRp1002
(dp1003
g62
(dp1004
g89
g90
ssg71
g993
sg64
(lp1005
S':'
asbag57
(g78
g59
NtRp1006
(dp1007
g62
(dp1008
sg71
g993
sg64
(lp1009
g57
(g58
g59
NtRp1010
(dp1011
g62
(dp1012
g70
I4
ssg71
g1006
sg64
(lp1013
S'/Read_it/default/search.html'
p1014
asbasbasbag57
(g73
g59
NtRp1015
(dp1016
g62
(dp1017
sg71
g637
sg64
(lp1018
g57
(g78
g59
NtRp1019
(dp1020
g62
(dp1021
g82
g83
ssg71
g1015
sg64
(lp1022
S'query_string'
p1023
asbag57
(g78
g59
NtRp1024
(dp1025
g62
(dp1026
g89
g90
ssg71
g1015
sg64
(lp1027
S':'
asbag57
(g78
g59
NtRp1028
(dp1029
g62
(dp1030
sg71
g1015
sg64
(lp1031
g57
(g58
g59
NtRp1032
(dp1033
g62
(dp1034
g70
I4
ssg71
g1028
sg64
(lp1035
S's=hello'
p1036
asbasbasbag57
(g73
g59
NtRp1037
(dp1038
g62
(dp1039
sg71
g637
sg64
(lp1040
g57
(g78
g59
NtRp1041
(dp1042
g62
(dp1043
g82
g83
ssg71
g1037
sg64
(lp1044
S'remote_addr'
p1045
asbag57
(g78
g59
NtRp1046
(dp1047
g62
(dp1048
g89
g90
ssg71
g1037
sg64
(lp1049
S':'
asbag57
(g78
g59
NtRp1050
(dp1051
g62
(dp1052
sg71
g1037
sg64
(lp1053
g57
(g58
g59
NtRp1054
(dp1055
g62
(dp1056
g70
I4
ssg71
g1050
sg64
(lp1057
g190
asbasbasbag57
(g73
g59
NtRp1058
(dp1059
g62
(dp1060
sg71
g637
sg64
(lp1061
g57
(g78
g59
NtRp1062
(dp1063
g62
(dp1064
g82
g83
ssg71
g1058
sg64
(lp1065
S'remote_port'
p1066
asbag57
(g78
g59
NtRp1067
(dp1068
g62
(dp1069
g89
g90
ssg71
g1058
sg64
(lp1070
S':'
asbag57
(g78
g59
NtRp1071
(dp1072
g62
(dp1073
sg71
g1058
sg64
(lp1074
g57
(g58
g59
NtRp1075
(dp1076
g62
(dp1077
g70
I4
ssg71
g1071
sg64
(lp1078
S'54899'
p1079
asbasbasbag57
(g73
g59
NtRp1080
(dp1081
g62
(dp1082
sg71
g637
sg64
(lp1083
g57
(g78
g59
NtRp1084
(dp1085
g62
(dp1086
g82
g83
ssg71
g1080
sg64
(lp1087
S'request_method'
p1088
asbag57
(g78
g59
NtRp1089
(dp1090
g62
(dp1091
g89
g90
ssg71
g1080
sg64
(lp1092
S':'
asbag57
(g78
g59
NtRp1093
(dp1094
g62
(dp1095
sg71
g1080
sg64
(lp1096
g57
(g58
g59
NtRp1097
(dp1098
g62
(dp1099
g70
I4
ssg71
g1093
sg64
(lp1100
S'GET'
p1101
asbasbasbag57
(g73
g59
NtRp1102
(dp1103
g62
(dp1104
sg71
g637
sg64
(lp1105
g57
(g78
g59
NtRp1106
(dp1107
g62
(dp1108
g82
g83
ssg71
g1102
sg64
(lp1109
S'script_name'
p1110
asbag57
(g78
g59
NtRp1111
(dp1112
g62
(dp1113
g89
g90
ssg71
g1102
sg64
(lp1114
S':'
asbag57
(g78
g59
NtRp1115
(dp1116
g62
(dp1117
sg71
g1102
sg64
(lp1118
g57
(g58
g59
NtRp1119
(dp1120
g62
(dp1121
g70
I4
ssg71
g1115
sg64
(lp1122
S''
asbasbasbag57
(g73
g59
NtRp1123
(dp1124
g62
(dp1125
sg71
g637
sg64
(lp1126
g57
(g78
g59
NtRp1127
(dp1128
g62
(dp1129
g82
g83
ssg71
g1123
sg64
(lp1130
S'server_name'
p1131
asbag57
(g78
g59
NtRp1132
(dp1133
g62
(dp1134
g89
g90
ssg71
g1123
sg64
(lp1135
S':'
asbag57
(g78
g59
NtRp1136
(dp1137
g62
(dp1138
sg71
g1123
sg64
(lp1139
g57
(g58
g59
NtRp1140
(dp1141
g62
(dp1142
g70
I4
ssg71
g1136
sg64
(lp1143
S'DS-IIIT'
p1144
asbasbasbag57
(g73
g59
NtRp1145
(dp1146
g62
(dp1147
sg71
g637
sg64
(lp1148
g57
(g78
g59
NtRp1149
(dp1150
g62
(dp1151
g82
g83
ssg71
g1145
sg64
(lp1152
S'server_port'
p1153
asbag57
(g78
g59
NtRp1154
(dp1155
g62
(dp1156
g89
g90
ssg71
g1145
sg64
(lp1157
S':'
asbag57
(g78
g59
NtRp1158
(dp1159
g62
(dp1160
sg71
g1145
sg64
(lp1161
g57
(g58
g59
NtRp1162
(dp1163
g62
(dp1164
g70
I4
ssg71
g1158
sg64
(lp1165
S'8001'
p1166
asbasbasbag57
(g73
g59
NtRp1167
(dp1168
g62
(dp1169
sg71
g637
sg64
(lp1170
g57
(g78
g59
NtRp1171
(dp1172
g62
(dp1173
g82
g83
ssg71
g1167
sg64
(lp1174
S'server_protocol'
p1175
asbag57
(g78
g59
NtRp1176
(dp1177
g62
(dp1178
g89
g90
ssg71
g1167
sg64
(lp1179
S':'
asbag57
(g78
g59
NtRp1180
(dp1181
g62
(dp1182
sg71
g1167
sg64
(lp1183
g57
(g58
g59
NtRp1184
(dp1185
g62
(dp1186
g70
I4
ssg71
g1180
sg64
(lp1187
S'HTTP/1.1'
p1188
asbasbasbag57
(g73
g59
NtRp1189
(dp1190
g62
(dp1191
sg71
g637
sg64
(lp1192
g57
(g78
g59
NtRp1193
(dp1194
g62
(dp1195
g82
g83
ssg71
g1189
sg64
(lp1196
S'server_software'
p1197
asbag57
(g78
g59
NtRp1198
(dp1199
g62
(dp1200
g89
g90
ssg71
g1189
sg64
(lp1201
S':'
asbag57
(g78
g59
NtRp1202
(dp1203
g62
(dp1204
sg71
g1189
sg64
(lp1205
g57
(g58
g59
NtRp1206
(dp1207
g62
(dp1208
g70
I4
ssg71
g1202
sg64
(lp1209
S'Rocket 1.2.4'
p1210
asbasbasbag57
(g73
g59
NtRp1211
(dp1212
g62
(dp1213
sg71
g637
sg64
(lp1214
g57
(g78
g59
NtRp1215
(dp1216
g62
(dp1217
g82
g83
ssg71
g1211
sg64
(lp1218
S'web2py_crontype'
p1219
asbag57
(g78
g59
NtRp1220
(dp1221
g62
(dp1222
g89
g90
ssg71
g1211
sg64
(lp1223
S':'
asbag57
(g78
g59
NtRp1224
(dp1225
g62
(dp1226
sg71
g1211
sg64
(lp1227
g57
(g58
g59
NtRp1228
(dp1229
g62
(dp1230
g70
I4
ssg71
g1224
sg64
(lp1231
S'hard'
p1232
asbasbasbag57
(g73
g59
NtRp1233
(dp1234
g62
(dp1235
sg71
g637
sg64
(lp1236
g57
(g78
g59
NtRp1237
(dp1238
g62
(dp1239
g82
g83
ssg71
g1233
sg64
(lp1240
S'web2py_path'
p1241
asbag57
(g78
g59
NtRp1242
(dp1243
g62
(dp1244
g89
g90
ssg71
g1233
sg64
(lp1245
S':'
asbag57
(g78
g59
NtRp1246
(dp1247
g62
(dp1248
sg71
g1233
sg64
(lp1249
g57
(g58
g59
NtRp1250
(dp1251
g62
(dp1252
g70
I4
ssg71
g1246
sg64
(lp1253
g684
asbasbasbag57
(g73
g59
NtRp1254
(dp1255
g62
(dp1256
sg71
g637
sg64
(lp1257
g57
(g78
g59
NtRp1258
(dp1259
g62
(dp1260
g82
g83
ssg71
g1254
sg64
(lp1261
S'web2py_version'
p1262
asbag57
(g78
g59
NtRp1263
(dp1264
g62
(dp1265
g89
g90
ssg71
g1254
sg64
(lp1266
S':'
asbag57
(g78
g59
NtRp1267
(dp1268
g62
(dp1269
sg71
g1254
sg64
(lp1270
g57
(g58
g59
NtRp1271
(dp1272
g62
(dp1273
g70
I4
ssg71
g1267
sg64
(lp1274
g57
(g66
g59
NtRp1275
(dp1276
g62
(dp1277
g70
I3
ssg71
Nsg64
(lp1278
g57
(g73
g59
NtRp1279
(dp1280
g62
(dp1281
sg71
g1275
sg64
(lp1282
g57
(g78
g59
NtRp1283
(dp1284
g62
(dp1285
sg71
g1279
sg64
(lp1286
g57
(g58
g59
NtRp1287
(dp1288
g62
(dp1289
g70
I3
ssg71
g1283
sg64
(lp1290
S'1'
asbasbasbag57
(g73
g59
NtRp1291
(dp1292
g62
(dp1293
sg71
g1275
sg64
(lp1294
g57
(g78
g59
NtRp1295
(dp1296
g62
(dp1297
sg71
g1291
sg64
(lp1298
g57
(g58
g59
NtRp1299
(dp1300
g62
(dp1301
g70
I3
ssg71
g1295
sg64
(lp1302
S'99'
p1303
asbasbasbag57
(g73
g59
NtRp1304
(dp1305
g62
(dp1306
sg71
g1275
sg64
(lp1307
g57
(g78
g59
NtRp1308
(dp1309
g62
(dp1310
sg71
g1304
sg64
(lp1311
g57
(g58
g59
NtRp1312
(dp1313
g62
(dp1314
g70
I3
ssg71
g1308
sg64
(lp1315
S'4'
asbasbasbag57
(g73
g59
NtRp1316
(dp1317
g62
(dp1318
sg71
g1275
sg64
(lp1319
g57
(g78
g59
NtRp1320
(dp1321
g62
(dp1322
sg71
g1316
sg64
(lp1323
g57
(g58
g59
NtRp1324
(dp1325
g62
(dp1326
g70
I3
ssg71
g1320
sg64
(lp1327
S'datetime.datetime(2011, 12, 14, 14, 46, 14)'
p1328
asbasbasbag57
(g73
g59
NtRp1329
(dp1330
g62
(dp1331
sg71
g1275
sg64
(lp1332
g57
(g78
g59
NtRp1333
(dp1334
g62
(dp1335
sg71
g1329
sg64
(lp1336
g57
(g58
g59
NtRp1337
(dp1338
g62
(dp1339
g70
I3
ssg71
g1333
sg64
(lp1340
S'stable'
p1341
asbasbasbasbasbasbasbag57
(g73
g59
NtRp1342
(dp1343
g62
(dp1344
sg71
g637
sg64
(lp1345
g57
(g78
g59
NtRp1346
(dp1347
g62
(dp1348
g82
g83
ssg71
g1342
sg64
(lp1349
S'wsgi_errors'
p1350
asbag57
(g78
g59
NtRp1351
(dp1352
g62
(dp1353
g89
g90
ssg71
g1342
sg64
(lp1354
S':'
asbag57
(g78
g59
NtRp1355
(dp1356
g62
(dp1357
sg71
g1342
sg64
(lp1358
g57
(g58
g59
NtRp1359
(dp1360
g62
(dp1361
g70
I4
ssg71
g1355
sg64
(lp1362
S"<open file '<stderr>', mode 'w' at 0x7f2c95a95270>"
p1363
asbasbasbag57
(g73
g59
NtRp1364
(dp1365
g62
(dp1366
sg71
g637
sg64
(lp1367
g57
(g78
g59
NtRp1368
(dp1369
g62
(dp1370
g82
g83
ssg71
g1364
sg64
(lp1371
S'wsgi_file_wrapper'
p1372
asbag57
(g78
g59
NtRp1373
(dp1374
g62
(dp1375
g89
g90
ssg71
g1364
sg64
(lp1376
S':'
asbag57
(g78
g59
NtRp1377
(dp1378
g62
(dp1379
sg71
g1364
sg64
(lp1380
g57
(g58
g59
NtRp1381
(dp1382
g62
(dp1383
g70
I4
ssg71
g1377
sg64
(lp1384
S'<class wsgiref.util.FileWrapper at 0x2ac8530>'
p1385
asbasbasbag57
(g73
g59
NtRp1386
(dp1387
g62
(dp1388
sg71
g637
sg64
(lp1389
g57
(g78
g59
NtRp1390
(dp1391
g62
(dp1392
g82
g83
ssg71
g1386
sg64
(lp1393
S'wsgi_input'
p1394
asbag57
(g78
g59
NtRp1395
(dp1396
g62
(dp1397
g89
g90
ssg71
g1386
sg64
(lp1398
S':'
asbag57
(g78
g59
NtRp1399
(dp1400
g62
(dp1401
sg71
g1386
sg64
(lp1402
g57
(g58
g59
NtRp1403
(dp1404
g62
(dp1405
g70
I4
ssg71
g1399
sg64
(lp1406
S'<socket._fileobject object at 0x7f2c44425450>'
p1407
asbasbasbag57
(g73
g59
NtRp1408
(dp1409
g62
(dp1410
sg71
g637
sg64
(lp1411
g57
(g78
g59
NtRp1412
(dp1413
g62
(dp1414
g82
g83
ssg71
g1408
sg64
(lp1415
S'wsgi_multiprocess'
p1416
asbag57
(g78
g59
NtRp1417
(dp1418
g62
(dp1419
g89
g90
ssg71
g1408
sg64
(lp1420
S':'
asbag57
(g78
g59
NtRp1421
(dp1422
g62
(dp1423
sg71
g1408
sg64
(lp1424
g57
(g58
g59
NtRp1425
(dp1426
g62
(dp1427
g70
I4
ssg71
g1421
sg64
(lp1428
g100
asbasbasbag57
(g73
g59
NtRp1429
(dp1430
g62
(dp1431
sg71
g637
sg64
(lp1432
g57
(g78
g59
NtRp1433
(dp1434
g62
(dp1435
g82
g83
ssg71
g1429
sg64
(lp1436
S'wsgi_multithread'
p1437
asbag57
(g78
g59
NtRp1438
(dp1439
g62
(dp1440
g89
g90
ssg71
g1429
sg64
(lp1441
S':'
asbag57
(g78
g59
NtRp1442
(dp1443
g62
(dp1444
sg71
g1429
sg64
(lp1445
g57
(g58
g59
NtRp1446
(dp1447
g62
(dp1448
g70
I4
ssg71
g1442
sg64
(lp1449
S'True'
p1450
asbasbasbag57
(g73
g59
NtRp1451
(dp1452
g62
(dp1453
sg71
g637
sg64
(lp1454
g57
(g78
g59
NtRp1455
(dp1456
g62
(dp1457
g82
g83
ssg71
g1451
sg64
(lp1458
S'wsgi_run_once'
p1459
asbag57
(g78
g59
NtRp1460
(dp1461
g62
(dp1462
g89
g90
ssg71
g1451
sg64
(lp1463
S':'
asbag57
(g78
g59
NtRp1464
(dp1465
g62
(dp1466
sg71
g1451
sg64
(lp1467
g57
(g58
g59
NtRp1468
(dp1469
g62
(dp1470
g70
I4
ssg71
g1464
sg64
(lp1471
g100
asbasbasbag57
(g73
g59
NtRp1472
(dp1473
g62
(dp1474
sg71
g637
sg64
(lp1475
g57
(g78
g59
NtRp1476
(dp1477
g62
(dp1478
g82
g83
ssg71
g1472
sg64
(lp1479
S'wsgi_url_scheme'
p1480
asbag57
(g78
g59
NtRp1481
(dp1482
g62
(dp1483
g89
g90
ssg71
g1472
sg64
(lp1484
S':'
asbag57
(g78
g59
NtRp1485
(dp1486
g62
(dp1487
sg71
g1472
sg64
(lp1488
g57
(g58
g59
NtRp1489
(dp1490
g62
(dp1491
g70
I4
ssg71
g1485
sg64
(lp1492
S'http'
p1493
asbasbasbag57
(g73
g59
NtRp1494
(dp1495
g62
(dp1496
sg71
g637
sg64
(lp1497
g57
(g78
g59
NtRp1498
(dp1499
g62
(dp1500
g82
g83
ssg71
g1494
sg64
(lp1501
S'wsgi_version'
p1502
asbag57
(g78
g59
NtRp1503
(dp1504
g62
(dp1505
g89
g90
ssg71
g1494
sg64
(lp1506
S':'
asbag57
(g78
g59
NtRp1507
(dp1508
g62
(dp1509
sg71
g1494
sg64
(lp1510
g57
(g58
g59
NtRp1511
(dp1512
g62
(dp1513
g70
I4
ssg71
g1507
sg64
(lp1514
g57
(g66
g59
NtRp1515
(dp1516
g62
(dp1517
g70
I3
ssg71
Nsg64
(lp1518
g57
(g73
g59
NtRp1519
(dp1520
g62
(dp1521
sg71
g1515
sg64
(lp1522
g57
(g78
g59
NtRp1523
(dp1524
g62
(dp1525
sg71
g1519
sg64
(lp1526
g57
(g58
g59
NtRp1527
(dp1528
g62
(dp1529
g70
I3
ssg71
g1523
sg64
(lp1530
S'1'
asbasbasbag57
(g73
g59
NtRp1531
(dp1532
g62
(dp1533
sg71
g1515
sg64
(lp1534
g57
(g78
g59
NtRp1535
(dp1536
g62
(dp1537
sg71
g1531
sg64
(lp1538
g57
(g58
g59
NtRp1539
(dp1540
g62
(dp1541
g70
I3
ssg71
g1535
sg64
(lp1542
S'0'
asbasbasbasbasbasbasbasbasbasbasbag57
(g73
g59
NtRp1543
(dp1544
g62
(dp1545
sg71
g67
sg64
(lp1546
g57
(g78
g59
NtRp1547
(dp1548
g62
(dp1549
g82
g83
ssg71
g1543
sg64
(lp1550
S'extension'
p1551
asbag57
(g78
g59
NtRp1552
(dp1553
g62
(dp1554
g89
g90
ssg71
g1543
sg64
(lp1555
S':'
asbag57
(g78
g59
NtRp1556
(dp1557
g62
(dp1558
sg71
g1543
sg64
(lp1559
g57
(g58
g59
NtRp1560
(dp1561
g62
(dp1562
g70
I5
ssg71
g1556
sg64
(lp1563
S'html'
p1564
asbasbasbag57
(g73
g59
NtRp1565
(dp1566
g62
(dp1567
sg71
g67
sg64
(lp1568
g57
(g78
g59
NtRp1569
(dp1570
g62
(dp1571
g82
g83
ssg71
g1565
sg64
(lp1572
S'folder'
p1573
asbag57
(g78
g59
NtRp1574
(dp1575
g62
(dp1576
g89
g90
ssg71
g1565
sg64
(lp1577
S':'
asbag57
(g78
g59
NtRp1578
(dp1579
g62
(dp1580
sg71
g1565
sg64
(lp1581
g57
(g58
g59
NtRp1582
(dp1583
g62
(dp1584
g70
I5
ssg71
g1578
sg64
(lp1585
S'/home/ds-iiit/web2py/applications/Read_it/'
p1586
asbasbasbag57
(g73
g59
NtRp1587
(dp1588
g62
(dp1589
sg71
g67
sg64
(lp1590
g57
(g78
g59
NtRp1591
(dp1592
g62
(dp1593
g82
g83
ssg71
g1587
sg64
(lp1594
S'function'
p1595
asbag57
(g78
g59
NtRp1596
(dp1597
g62
(dp1598
g89
g90
ssg71
g1587
sg64
(lp1599
S':'
asbag57
(g78
g59
NtRp1600
(dp1601
g62
(dp1602
sg71
g1587
sg64
(lp1603
g57
(g58
g59
NtRp1604
(dp1605
g62
(dp1606
g70
I5
ssg71
g1600
sg64
(lp1607
S'search'
p1608
asbasbasbag57
(g73
g59
NtRp1609
(dp1610
g62
(dp1611
sg71
g67
sg64
(lp1612
g57
(g78
g59
NtRp1613
(dp1614
g62
(dp1615
g82
g83
ssg71
g1609
sg64
(lp1616
S'get_vars'
p1617
asbag57
(g78
g59
NtRp1618
(dp1619
g62
(dp1620
g89
g90
ssg71
g1609
sg64
(lp1621
S':'
asbag57
(g78
g59
NtRp1622
(dp1623
g62
(dp1624
sg71
g1609
sg64
(lp1625
g57
(g58
g59
NtRp1626
(dp1627
g62
(dp1628
g70
I5
ssg71
g1622
sg64
(lp1629
g57
(g66
g59
NtRp1630
(dp1631
g62
(dp1632
g70
I4
ssg71
Nsg64
(lp1633
g57
(g73
g59
NtRp1634
(dp1635
g62
(dp1636
sg71
g1630
sg64
(lp1637
g57
(g78
g59
NtRp1638
(dp1639
g62
(dp1640
g82
g83
ssg71
g1634
sg64
(lp1641
S's'
asbag57
(g78
g59
NtRp1642
(dp1643
g62
(dp1644
g89
g90
ssg71
g1634
sg64
(lp1645
S':'
asbag57
(g78
g59
NtRp1646
(dp1647
g62
(dp1648
sg71
g1634
sg64
(lp1649
g57
(g58
g59
NtRp1650
(dp1651
g62
(dp1652
g70
I4
ssg71
g1646
sg64
(lp1653
S'hello'
p1654
asbasbasbasbasbasbasbag57
(g73
g59
NtRp1655
(dp1656
g62
(dp1657
sg71
g67
sg64
(lp1658
g57
(g78
g59
NtRp1659
(dp1660
g62
(dp1661
g82
g83
ssg71
g1655
sg64
(lp1662
S'global_settings'
p1663
asbag57
(g78
g59
NtRp1664
(dp1665
g62
(dp1666
g89
g90
ssg71
g1655
sg64
(lp1667
S':'
asbag57
(g78
g59
NtRp1668
(dp1669
g62
(dp1670
sg71
g1655
sg64
(lp1671
g57
(g58
g59
NtRp1672
(dp1673
g62
(dp1674
g70
I5
ssg71
g1668
sg64
(lp1675
g57
(g66
g59
NtRp1676
(dp1677
g62
(dp1678
g70
I4
ssg71
Nsg64
(lp1679
g57
(g73
g59
NtRp1680
(dp1681
g62
(dp1682
sg71
g1676
sg64
(lp1683
g57
(g78
g59
NtRp1684
(dp1685
g62
(dp1686
g82
g83
ssg71
g1680
sg64
(lp1687
g649
asbag57
(g78
g59
NtRp1688
(dp1689
g62
(dp1690
g89
g90
ssg71
g1680
sg64
(lp1691
S':'
asbag57
(g78
g59
NtRp1692
(dp1693
g62
(dp1694
sg71
g1680
sg64
(lp1695
g57
(g58
g59
NtRp1696
(dp1697
g62
(dp1698
g70
I4
ssg71
g1692
sg64
(lp1699
S"set(['/home/ds-iiit/web2py/applications/Read_it/', '/home/ds-iiit/web2py/applications/welcome/', '/home/ds-iiit/web2py/applications/admin/'])"
p1700
asbasbasbag57
(g73
g59
NtRp1701
(dp1702
g62
(dp1703
sg71
g1676
sg64
(lp1704
g57
(g78
g59
NtRp1705
(dp1706
g62
(dp1707
g82
g83
ssg71
g1701
sg64
(lp1708
g671
asbag57
(g78
g59
NtRp1709
(dp1710
g62
(dp1711
g89
g90
ssg71
g1701
sg64
(lp1712
S':'
asbag57
(g78
g59
NtRp1713
(dp1714
g62
(dp1715
sg71
g1701
sg64
(lp1716
g57
(g58
g59
NtRp1717
(dp1718
g62
(dp1719
g70
I4
ssg71
g1713
sg64
(lp1720
g684
asbasbasbag57
(g73
g59
NtRp1721
(dp1722
g62
(dp1723
sg71
g1676
sg64
(lp1724
g57
(g78
g59
NtRp1725
(dp1726
g62
(dp1727
g82
g83
ssg71
g1721
sg64
(lp1728
g693
asbag57
(g78
g59
NtRp1729
(dp1730
g62
(dp1731
g89
g90
ssg71
g1721
sg64
(lp1732
S':'
asbag57
(g78
g59
NtRp1733
(dp1734
g62
(dp1735
sg71
g1721
sg64
(lp1736
g57
(g58
g59
NtRp1737
(dp1738
g62
(dp1739
g70
I4
ssg71
g1733
sg64
(lp1740
g57
(g66
g59
NtRp1741
(dp1742
g62
(dp1743
g70
I3
ssg71
Nsg64
(lp1744
sbasbasbasbag57
(g73
g59
NtRp1745
(dp1746
g62
(dp1747
sg71
g1676
sg64
(lp1748
g57
(g78
g59
NtRp1749
(dp1750
g62
(dp1751
g82
g83
ssg71
g1745
sg64
(lp1752
g718
asbag57
(g78
g59
NtRp1753
(dp1754
g62
(dp1755
g89
g90
ssg71
g1745
sg64
(lp1756
S':'
asbag57
(g78
g59
NtRp1757
(dp1758
g62
(dp1759
sg71
g1745
sg64
(lp1760
g57
(g58
g59
NtRp1761
(dp1762
g62
(dp1763
g70
I4
ssg71
g1757
sg64
(lp1764
S"<Values at 0x2b9db00: {'verbose': False, 'ip': '127.0.0.1', 'shutdown_timeout': 5, 'taskbar': False, 'port': 8000, 'maxthreads': None, 'softcron': False, 'server_name': 'DS-IIIT', 'bpython': False, 'nogui': False, 'nocron': False, 'extcron': False, 'debuglevel': 30, 'test': None, 'folder': '/home/ds-iiit/web2py', 'config': '', 'import_models': False, 'winservice': '', 'shell': None, 'run': '', 'log_filename': 'httpserver.log', 'args': [''], 'socket_timeout': 1, 'profiler_filename': None, 'ssl_private_key': '', 'password': '<ask>', 'request_queue_size': 5, 'ssl_certificate': '', 'cronjob': False, 'plain': False, 'quiet': False, 'interfaces': None, 'minthreads': None, 'timeout': 10, 'numthreads': None, 'nobanner': False, 'pid_filename': 'httpserver.pid'}>"
p1765
asbasbasbag57
(g73
g59
NtRp1766
(dp1767
g62
(dp1768
sg71
g1676
sg64
(lp1769
g57
(g78
g59
NtRp1770
(dp1771
g62
(dp1772
g82
g83
ssg71
g1766
sg64
(lp1773
g740
asbag57
(g78
g59
NtRp1774
(dp1775
g62
(dp1776
g89
g90
ssg71
g1766
sg64
(lp1777
S':'
asbag57
(g78
g59
NtRp1778
(dp1779
g62
(dp1780
sg71
g1766
sg64
(lp1781
g57
(g58
g59
NtRp1782
(dp1783
g62
(dp1784
g70
I4
ssg71
g1778
sg64
(lp1785
S'set([])'
p1786
asbasbasbag57
(g73
g59
NtRp1787
(dp1788
g62
(dp1789
sg71
g1676
sg64
(lp1790
g57
(g78
g59
NtRp1791
(dp1792
g62
(dp1793
g82
g83
ssg71
g1787
sg64
(lp1794
g762
asbag57
(g78
g59
NtRp1795
(dp1796
g62
(dp1797
g89
g90
ssg71
g1787
sg64
(lp1798
S':'
asbag57
(g78
g59
NtRp1799
(dp1800
g62
(dp1801
sg71
g1787
sg64
(lp1802
g57
(g58
g59
NtRp1803
(dp1804
g62
(dp1805
g70
I4
ssg71
g1799
sg64
(lp1806
g100
asbasbasbag57
(g73
g59
NtRp1807
(dp1808
g62
(dp1809
sg71
g1676
sg64
(lp1810
g57
(g78
g59
NtRp1811
(dp1812
g62
(dp1813
g82
g83
ssg71
g1807
sg64
(lp1814
g783
asbag57
(g78
g59
NtRp1815
(dp1816
g62
(dp1817
g89
g90
ssg71
g1807
sg64
(lp1818
S':'
asbag57
(g78
g59
NtRp1819
(dp1820
g62
(dp1821
sg71
g1807
sg64
(lp1822
g57
(g58
g59
NtRp1823
(dp1824
g62
(dp1825
g70
I4
ssg71
g1819
sg64
(lp1826
g796
asbasbasbag57
(g73
g59
NtRp1827
(dp1828
g62
(dp1829
sg71
g1676
sg64
(lp1830
g57
(g78
g59
NtRp1831
(dp1832
g62
(dp1833
g82
g83
ssg71
g1827
sg64
(lp1834
g959
asbag57
(g78
g59
NtRp1835
(dp1836
g62
(dp1837
g89
g90
ssg71
g1827
sg64
(lp1838
S':'
asbag57
(g78
g59
NtRp1839
(dp1840
g62
(dp1841
sg71
g1827
sg64
(lp1842
g57
(g58
g59
NtRp1843
(dp1844
g62
(dp1845
g70
I4
ssg71
g1839
sg64
(lp1846
g100
asbasbasbag57
(g73
g59
NtRp1847
(dp1848
g62
(dp1849
sg71
g1676
sg64
(lp1850
g57
(g78
g59
NtRp1851
(dp1852
g62
(dp1853
g82
g83
ssg71
g1847
sg64
(lp1854
g980
asbag57
(g78
g59
NtRp1855
(dp1856
g62
(dp1857
g89
g90
ssg71
g1847
sg64
(lp1858
S':'
asbag57
(g78
g59
NtRp1859
(dp1860
g62
(dp1861
sg71
g1847
sg64
(lp1862
g57
(g58
g59
NtRp1863
(dp1864
g62
(dp1865
g70
I4
ssg71
g1859
sg64
(lp1866
g100
asbasbasbag57
(g73
g59
NtRp1867
(dp1868
g62
(dp1869
sg71
g1676
sg64
(lp1870
g57
(g78
g59
NtRp1871
(dp1872
g62
(dp1873
g82
g83
ssg71
g1867
sg64
(lp1874
g1219
asbag57
(g78
g59
NtRp1875
(dp1876
g62
(dp1877
g89
g90
ssg71
g1867
sg64
(lp1878
S':'
asbag57
(g78
g59
NtRp1879
(dp1880
g62
(dp1881
sg71
g1867
sg64
(lp1882
g57
(g58
g59
NtRp1883
(dp1884
g62
(dp1885
g70
I4
ssg71
g1879
sg64
(lp1886
g1232
asbasbasbag57
(g73
g59
NtRp1887
(dp1888
g62
(dp1889
sg71
g1676
sg64
(lp1890
g57
(g78
g59
NtRp1891
(dp1892
g62
(dp1893
g82
g83
ssg71
g1887
sg64
(lp1894
g1262
asbag57
(g78
g59
NtRp1895
(dp1896
g62
(dp1897
g89
g90
ssg71
g1887
sg64
(lp1898
S':'
asbag57
(g78
g59
NtRp1899
(dp1900
g62
(dp1901
sg71
g1887
sg64
(lp1902
g57
(g58
g59
NtRp1903
(dp1904
g62
(dp1905
g70
I4
ssg71
g1899
sg64
(lp1906
g57
(g66
g59
NtRp1907
(dp1908
g62
(dp1909
g70
I3
ssg71
Nsg64
(lp1910
g57
(g73
g59
NtRp1911
(dp1912
g62
(dp1913
sg71
g1907
sg64
(lp1914
g57
(g78
g59
NtRp1915
(dp1916
g62
(dp1917
sg71
g1911
sg64
(lp1918
g57
(g58
g59
NtRp1919
(dp1920
g62
(dp1921
g70
I3
ssg71
g1915
sg64
(lp1922
S'1'
asbasbasbag57
(g73
g59
NtRp1923
(dp1924
g62
(dp1925
sg71
g1907
sg64
(lp1926
g57
(g78
g59
NtRp1927
(dp1928
g62
(dp1929
sg71
g1923
sg64
(lp1930
g57
(g58
g59
NtRp1931
(dp1932
g62
(dp1933
g70
I3
ssg71
g1927
sg64
(lp1934
S'99'
p1935
asbasbasbag57
(g73
g59
NtRp1936
(dp1937
g62
(dp1938
sg71
g1907
sg64
(lp1939
g57
(g78
g59
NtRp1940
(dp1941
g62
(dp1942
sg71
g1936
sg64
(lp1943
g57
(g58
g59
NtRp1944
(dp1945
g62
(dp1946
g70
I3
ssg71
g1940
sg64
(lp1947
S'4'
asbasbasbag57
(g73
g59
NtRp1948
(dp1949
g62
(dp1950
sg71
g1907
sg64
(lp1951
g57
(g78
g59
NtRp1952
(dp1953
g62
(dp1954
sg71
g1948
sg64
(lp1955
g57
(g58
g59
NtRp1956
(dp1957
g62
(dp1958
g70
I3
ssg71
g1952
sg64
(lp1959
S'datetime.datetime(2011, 12, 14, 14, 46, 14)'
p1960
asbasbasbag57
(g73
g59
NtRp1961
(dp1962
g62
(dp1963
sg71
g1907
sg64
(lp1964
g57
(g78
g59
NtRp1965
(dp1966
g62
(dp1967
sg71
g1961
sg64
(lp1968
g57
(g58
g59
NtRp1969
(dp1970
g62
(dp1971
g70
I3
ssg71
g1965
sg64
(lp1972
g1341
asbasbasbasbasbasbasbasbasbasbasbag57
(g73
g59
NtRp1973
(dp1974
g62
(dp1975
sg71
g67
sg64
(lp1976
g57
(g78
g59
NtRp1977
(dp1978
g62
(dp1979
g82
g83
ssg71
g1973
sg64
(lp1980
S'is_https'
p1981
asbag57
(g78
g59
NtRp1982
(dp1983
g62
(dp1984
g89
g90
ssg71
g1973
sg64
(lp1985
S':'
asbag57
(g78
g59
NtRp1986
(dp1987
g62
(dp1988
sg71
g1973
sg64
(lp1989
g57
(g58
g59
NtRp1990
(dp1991
g62
(dp1992
g70
I5
ssg71
g1986
sg64
(lp1993
g100
asbasbasbag57
(g73
g59
NtRp1994
(dp1995
g62
(dp1996
sg71
g67
sg64
(lp1997
g57
(g78
g59
NtRp1998
(dp1999
g62
(dp2000
g82
g83
ssg71
g1994
sg64
(lp2001
S'is_local'
p2002
asbag57
(g78
g59
NtRp2003
(dp2004
g62
(dp2005
g89
g90
ssg71
g1994
sg64
(lp2006
S':'
asbag57
(g78
g59
NtRp2007
(dp2008
g62
(dp2009
sg71
g1994
sg64
(lp2010
g57
(g58
g59
NtRp2011
(dp2012
g62
(dp2013
g70
I5
ssg71
g2007
sg64
(lp2014
g1450
asbasbasbag57
(g73
g59
NtRp2015
(dp2016
g62
(dp2017
sg71
g67
sg64
(lp2018
g57
(g78
g59
NtRp2019
(dp2020
g62
(dp2021
g82
g83
ssg71
g2015
sg64
(lp2022
S'is_restful'
p2023
asbag57
(g78
g59
NtRp2024
(dp2025
g62
(dp2026
g89
g90
ssg71
g2015
sg64
(lp2027
S':'
asbag57
(g78
g59
NtRp2028
(dp2029
g62
(dp2030
sg71
g2015
sg64
(lp2031
g57
(g58
g59
NtRp2032
(dp2033
g62
(dp2034
g70
I5
ssg71
g2028
sg64
(lp2035
g100
asbasbasbag57
(g73
g59
NtRp2036
(dp2037
g62
(dp2038
sg71
g67
sg64
(lp2039
g57
(g78
g59
NtRp2040
(dp2041
g62
(dp2042
g82
g83
ssg71
g2036
sg64
(lp2043
S'now'
p2044
asbag57
(g78
g59
NtRp2045
(dp2046
g62
(dp2047
g89
g90
ssg71
g2036
sg64
(lp2048
S':'
asbag57
(g78
g59
NtRp2049
(dp2050
g62
(dp2051
sg71
g2036
sg64
(lp2052
g57
(g58
g59
NtRp2053
(dp2054
g62
(dp2055
g70
I5
ssg71
g2049
sg64
(lp2056
S'datetime.datetime(2013, 8, 29, 21, 13, 11, 871784)'
p2057
asbasbasbag57
(g73
g59
NtRp2058
(dp2059
g62
(dp2060
sg71
g67
sg64
(lp2061
g57
(g78
g59
NtRp2062
(dp2063
g62
(dp2064
g82
g83
ssg71
g2058
sg64
(lp2065
S'post_vars'
p2066
asbag57
(g78
g59
NtRp2067
(dp2068
g62
(dp2069
g89
g90
ssg71
g2058
sg64
(lp2070
S':'
asbag57
(g78
g59
NtRp2071
(dp2072
g62
(dp2073
sg71
g2058
sg64
(lp2074
g57
(g58
g59
NtRp2075
(dp2076
g62
(dp2077
g70
I5
ssg71
g2071
sg64
(lp2078
g57
(g66
g59
NtRp2079
(dp2080
g62
(dp2081
g70
I4
ssg71
Nsg64
(lp2082
sbasbasbasbag57
(g73
g59
NtRp2083
(dp2084
g62
(dp2085
sg71
g67
sg64
(lp2086
g57
(g78
g59
NtRp2087
(dp2088
g62
(dp2089
g82
g83
ssg71
g2083
sg64
(lp2090
S'raw_extension'
p2091
asbag57
(g78
g59
NtRp2092
(dp2093
g62
(dp2094
g89
g90
ssg71
g2083
sg64
(lp2095
S':'
asbag57
(g78
g59
NtRp2096
(dp2097
g62
(dp2098
sg71
g2083
sg64
(lp2099
g57
(g58
g59
NtRp2100
(dp2101
g62
(dp2102
g70
I5
ssg71
g2096
sg64
(lp2103
g1564
asbasbasbag57
(g73
g59
NtRp2104
(dp2105
g62
(dp2106
sg71
g67
sg64
(lp2107
g57
(g78
g59
NtRp2108
(dp2109
g62
(dp2110
g82
g83
ssg71
g2104
sg64
(lp2111
S'url'
p2112
asbag57
(g78
g59
NtRp2113
(dp2114
g62
(dp2115
g89
g90
ssg71
g2104
sg64
(lp2116
S':'
asbag57
(g78
g59
NtRp2117
(dp2118
g62
(dp2119
sg71
g2104
sg64
(lp2120
g57
(g58
g59
NtRp2121
(dp2122
g62
(dp2123
g70
I5
ssg71
g2117
sg64
(lp2124
S'/Read_it/default/search.html'
p2125
asbasbasbag57
(g73
g59
NtRp2126
(dp2127
g62
(dp2128
sg71
g67
sg64
(lp2129
g57
(g78
g59
NtRp2130
(dp2131
g62
(dp2132
g82
g83
ssg71
g2126
sg64
(lp2133
S'utcnow'
p2134
asbag57
(g78
g59
NtRp2135
(dp2136
g62
(dp2137
g89
g90
ssg71
g2126
sg64
(lp2138
S':'
asbag57
(g78
g59
NtRp2139
(dp2140
g62
(dp2141
sg71
g2126
sg64
(lp2142
g57
(g58
g59
NtRp2143
(dp2144
g62
(dp2145
g70
I5
ssg71
g2139
sg64
(lp2146
S'datetime.datetime(2013, 8, 29, 15, 43, 11, 871807)'
p2147
asbasbasbag57
(g73
g59
NtRp2148
(dp2149
g62
(dp2150
sg71
g67
sg64
(lp2151
g57
(g78
g59
NtRp2152
(dp2153
g62
(dp2154
g82
g83
ssg71
g2148
sg64
(lp2155
S'uuid'
p2156
asbag57
(g78
g59
NtRp2157
(dp2158
g62
(dp2159
g89
g90
ssg71
g2148
sg64
(lp2160
S':'
asbag57
(g78
g59
NtRp2161
(dp2162
g62
(dp2163
sg71
g2148
sg64
(lp2164
g57
(g58
g59
NtRp2165
(dp2166
g62
(dp2167
g70
I5
ssg71
g2161
sg64
(lp2168
S'Read_it/127.0.0.1.2013-08-29.21-13-11.d3392e51-0ee6-4f8e-9e1c-ffad8a28c431'
p2169
asbasbasbag57
(g73
g59
NtRp2170
(dp2171
g62
(dp2172
sg71
g67
sg64
(lp2173
g57
(g78
g59
NtRp2174
(dp2175
g62
(dp2176
g82
g83
ssg71
g2170
sg64
(lp2177
S'vars'
p2178
asbag57
(g78
g59
NtRp2179
(dp2180
g62
(dp2181
g89
g90
ssg71
g2170
sg64
(lp2182
S':'
asbag57
(g78
g59
NtRp2183
(dp2184
g62
(dp2185
sg71
g2170
sg64
(lp2186
g57
(g58
g59
NtRp2187
(dp2188
g62
(dp2189
g70
I5
ssg71
g2183
sg64
(lp2190
g57
(g66
g59
NtRp2191
(dp2192
g62
(dp2193
g70
I4
ssg71
Nsg64
(lp2194
g57
(g73
g59
NtRp2195
(dp2196
g62
(dp2197
sg71
g2191
sg64
(lp2198
g57
(g78
g59
NtRp2199
(dp2200
g62
(dp2201
g82
g83
ssg71
g2195
sg64
(lp2202
S's'
asbag57
(g78
g59
NtRp2203
(dp2204
g62
(dp2205
g89
g90
ssg71
g2195
sg64
(lp2206
S':'
asbag57
(g78
g59
NtRp2207
(dp2208
g62
(dp2209
sg71
g2195
sg64
(lp2210
g57
(g58
g59
NtRp2211
(dp2212
g62
(dp2213
g70
I4
ssg71
g2207
sg64
(lp2214
g1654
asbasbasbasbasbasbasbag57
(g73
g59
NtRp2215
(dp2216
g62
(dp2217
sg71
g67
sg64
(lp2218
g57
(g78
g59
NtRp2219
(dp2220
g62
(dp2221
g82
g83
ssg71
g2215
sg64
(lp2222
S'wsgi'
p2223
asbag57
(g78
g59
NtRp2224
(dp2225
g62
(dp2226
g89
g90
ssg71
g2215
sg64
(lp2227
S':'
asbag57
(g78
g59
NtRp2228
(dp2229
g62
(dp2230
sg71
g2215
sg64
(lp2231
g57
(g58
g59
NtRp2232
(dp2233
g62
(dp2234
g70
I5
ssg71
g2228
sg64
(lp2235
g57
(g66
g59
NtRp2236
(dp2237
g62
(dp2238
g70
I4
ssg71
Nsg64
(lp2239
g57
(g73
g59
NtRp2240
(dp2241
g62
(dp2242
sg71
g2236
sg64
(lp2243
g57
(g78
g59
NtRp2244
(dp2245
g62
(dp2246
g82
g83
ssg71
g2240
sg64
(lp2247
S'environ'
p2248
asbag57
(g78
g59
NtRp2249
(dp2250
g62
(dp2251
g89
g90
ssg71
g2240
sg64
(lp2252
S':'
asbag57
(g78
g59
NtRp2253
(dp2254
g62
(dp2255
sg71
g2240
sg64
(lp2256
g57
(g58
g59
NtRp2257
(dp2258
g62
(dp2259
g70
I4
ssg71
g2253
sg64
(lp2260
g57
(g66
g59
NtRp2261
(dp2262
g62
(dp2263
g70
I3
ssg71
Nsg64
(lp2264
g57
(g73
g59
NtRp2265
(dp2266
g62
(dp2267
sg71
g2261
sg64
(lp2268
g57
(g78
g59
NtRp2269
(dp2270
g62
(dp2271
g82
g83
ssg71
g2265
sg64
(lp2272
S'HTTP_ACCEPT'
p2273
asbag57
(g78
g59
NtRp2274
(dp2275
g62
(dp2276
g89
g90
ssg71
g2265
sg64
(lp2277
S':'
asbag57
(g78
g59
NtRp2278
(dp2279
g62
(dp2280
sg71
g2265
sg64
(lp2281
g57
(g58
g59
NtRp2282
(dp2283
g62
(dp2284
g70
I3
ssg71
g2278
sg64
(lp2285
g818
asbasbasbag57
(g73
g59
NtRp2286
(dp2287
g62
(dp2288
sg71
g2261
sg64
(lp2289
g57
(g78
g59
NtRp2290
(dp2291
g62
(dp2292
g82
g83
ssg71
g2286
sg64
(lp2293
S'HTTP_ACCEPT_ENCODING'
p2294
asbag57
(g78
g59
NtRp2295
(dp2296
g62
(dp2297
g89
g90
ssg71
g2286
sg64
(lp2298
S':'
asbag57
(g78
g59
NtRp2299
(dp2300
g62
(dp2301
sg71
g2286
sg64
(lp2302
g57
(g58
g59
NtRp2303
(dp2304
g62
(dp2305
g70
I3
ssg71
g2299
sg64
(lp2306
g840
asbasbasbag57
(g73
g59
NtRp2307
(dp2308
g62
(dp2309
sg71
g2261
sg64
(lp2310
g57
(g78
g59
NtRp2311
(dp2312
g62
(dp2313
g82
g83
ssg71
g2307
sg64
(lp2314
S'HTTP_ACCEPT_LANGUAGE'
p2315
asbag57
(g78
g59
NtRp2316
(dp2317
g62
(dp2318
g89
g90
ssg71
g2307
sg64
(lp2319
S':'
asbag57
(g78
g59
NtRp2320
(dp2321
g62
(dp2322
sg71
g2307
sg64
(lp2323
g57
(g58
g59
NtRp2324
(dp2325
g62
(dp2326
g70
I3
ssg71
g2320
sg64
(lp2327
g862
asbasbasbag57
(g73
g59
NtRp2328
(dp2329
g62
(dp2330
sg71
g2261
sg64
(lp2331
g57
(g78
g59
NtRp2332
(dp2333
g62
(dp2334
g82
g83
ssg71
g2328
sg64
(lp2335
S'HTTP_CONNECTION'
p2336
asbag57
(g78
g59
NtRp2337
(dp2338
g62
(dp2339
g89
g90
ssg71
g2328
sg64
(lp2340
S':'
asbag57
(g78
g59
NtRp2341
(dp2342
g62
(dp2343
sg71
g2328
sg64
(lp2344
g57
(g58
g59
NtRp2345
(dp2346
g62
(dp2347
g70
I3
ssg71
g2341
sg64
(lp2348
g884
asbasbasbag57
(g73
g59
NtRp2349
(dp2350
g62
(dp2351
sg71
g2261
sg64
(lp2352
g57
(g78
g59
NtRp2353
(dp2354
g62
(dp2355
g82
g83
ssg71
g2349
sg64
(lp2356
S'HTTP_COOKIE'
p2357
asbag57
(g78
g59
NtRp2358
(dp2359
g62
(dp2360
g89
g90
ssg71
g2349
sg64
(lp2361
S':'
asbag57
(g78
g59
NtRp2362
(dp2363
g62
(dp2364
sg71
g2349
sg64
(lp2365
g57
(g58
g59
NtRp2366
(dp2367
g62
(dp2368
g70
I3
ssg71
g2362
sg64
(lp2369
g906
asbasbasbag57
(g73
g59
NtRp2370
(dp2371
g62
(dp2372
sg71
g2261
sg64
(lp2373
g57
(g78
g59
NtRp2374
(dp2375
g62
(dp2376
g82
g83
ssg71
g2370
sg64
(lp2377
S'HTTP_HOST'
p2378
asbag57
(g78
g59
NtRp2379
(dp2380
g62
(dp2381
g89
g90
ssg71
g2370
sg64
(lp2382
S':'
asbag57
(g78
g59
NtRp2383
(dp2384
g62
(dp2385
sg71
g2370
sg64
(lp2386
g57
(g58
g59
NtRp2387
(dp2388
g62
(dp2389
g70
I3
ssg71
g2383
sg64
(lp2390
g928
asbasbasbag57
(g73
g59
NtRp2391
(dp2392
g62
(dp2393
sg71
g2261
sg64
(lp2394
g57
(g78
g59
NtRp2395
(dp2396
g62
(dp2397
g82
g83
ssg71
g2391
sg64
(lp2398
S'HTTP_USER_AGENT'
p2399
asbag57
(g78
g59
NtRp2400
(dp2401
g62
(dp2402
g89
g90
ssg71
g2391
sg64
(lp2403
S':'
asbag57
(g78
g59
NtRp2404
(dp2405
g62
(dp2406
sg71
g2391
sg64
(lp2407
g57
(g58
g59
NtRp2408
(dp2409
g62
(dp2410
g70
I3
ssg71
g2404
sg64
(lp2411
g950
asbasbasbag57
(g73
g59
NtRp2412
(dp2413
g62
(dp2414
sg71
g2261
sg64
(lp2415
g57
(g78
g59
NtRp2416
(dp2417
g62
(dp2418
g82
g83
ssg71
g2412
sg64
(lp2419
S'PATH_INFO'
p2420
asbag57
(g78
g59
NtRp2421
(dp2422
g62
(dp2423
g89
g90
ssg71
g2412
sg64
(lp2424
S':'
asbag57
(g78
g59
NtRp2425
(dp2426
g62
(dp2427
sg71
g2412
sg64
(lp2428
g57
(g58
g59
NtRp2429
(dp2430
g62
(dp2431
g70
I3
ssg71
g2425
sg64
(lp2432
g1014
asbasbasbag57
(g73
g59
NtRp2433
(dp2434
g62
(dp2435
sg71
g2261
sg64
(lp2436
g57
(g78
g59
NtRp2437
(dp2438
g62
(dp2439
g82
g83
ssg71
g2433
sg64
(lp2440
S'QUERY_STRING'
p2441
asbag57
(g78
g59
NtRp2442
(dp2443
g62
(dp2444
g89
g90
ssg71
g2433
sg64
(lp2445
S':'
asbag57
(g78
g59
NtRp2446
(dp2447
g62
(dp2448
sg71
g2433
sg64
(lp2449
g57
(g58
g59
NtRp2450
(dp2451
g62
(dp2452
g70
I3
ssg71
g2446
sg64
(lp2453
g1036
asbasbasbag57
(g73
g59
NtRp2454
(dp2455
g62
(dp2456
sg71
g2261
sg64
(lp2457
g57
(g78
g59
NtRp2458
(dp2459
g62
(dp2460
g82
g83
ssg71
g2454
sg64
(lp2461
S'REMOTE_ADDR'
p2462
asbag57
(g78
g59
NtRp2463
(dp2464
g62
(dp2465
g89
g90
ssg71
g2454
sg64
(lp2466
S':'
asbag57
(g78
g59
NtRp2467
(dp2468
g62
(dp2469
sg71
g2454
sg64
(lp2470
g57
(g58
g59
NtRp2471
(dp2472
g62
(dp2473
g70
I3
ssg71
g2467
sg64
(lp2474
g190
asbasbasbag57
(g73
g59
NtRp2475
(dp2476
g62
(dp2477
sg71
g2261
sg64
(lp2478
g57
(g78
g59
NtRp2479
(dp2480
g62
(dp2481
g82
g83
ssg71
g2475
sg64
(lp2482
S'REMOTE_PORT'
p2483
asbag57
(g78
g59
NtRp2484
(dp2485
g62
(dp2486
g89
g90
ssg71
g2475
sg64
(lp2487
S':'
asbag57
(g78
g59
NtRp2488
(dp2489
g62
(dp2490
sg71
g2475
sg64
(lp2491
g57
(g58
g59
NtRp2492
(dp2493
g62
(dp2494
g70
I3
ssg71
g2488
sg64
(lp2495
g1079
asbasbasbag57
(g73
g59
NtRp2496
(dp2497
g62
(dp2498
sg71
g2261
sg64
(lp2499
g57
(g78
g59
NtRp2500
(dp2501
g62
(dp2502
g82
g83
ssg71
g2496
sg64
(lp2503
S'REQUEST_METHOD'
p2504
asbag57
(g78
g59
NtRp2505
(dp2506
g62
(dp2507
g89
g90
ssg71
g2496
sg64
(lp2508
S':'
asbag57
(g78
g59
NtRp2509
(dp2510
g62
(dp2511
sg71
g2496
sg64
(lp2512
g57
(g58
g59
NtRp2513
(dp2514
g62
(dp2515
g70
I3
ssg71
g2509
sg64
(lp2516
g1101
asbasbasbag57
(g73
g59
NtRp2517
(dp2518
g62
(dp2519
sg71
g2261
sg64
(lp2520
g57
(g78
g59
NtRp2521
(dp2522
g62
(dp2523
g82
g83
ssg71
g2517
sg64
(lp2524
S'SCRIPT_NAME'
p2525
asbag57
(g78
g59
NtRp2526
(dp2527
g62
(dp2528
g89
g90
ssg71
g2517
sg64
(lp2529
S':'
asbag57
(g78
g59
NtRp2530
(dp2531
g62
(dp2532
sg71
g2517
sg64
(lp2533
g57
(g58
g59
NtRp2534
(dp2535
g62
(dp2536
g70
I3
ssg71
g2530
sg64
(lp2537
S''
asbasbasbag57
(g73
g59
NtRp2538
(dp2539
g62
(dp2540
sg71
g2261
sg64
(lp2541
g57
(g78
g59
NtRp2542
(dp2543
g62
(dp2544
g82
g83
ssg71
g2538
sg64
(lp2545
S'SERVER_NAME'
p2546
asbag57
(g78
g59
NtRp2547
(dp2548
g62
(dp2549
g89
g90
ssg71
g2538
sg64
(lp2550
S':'
asbag57
(g78
g59
NtRp2551
(dp2552
g62
(dp2553
sg71
g2538
sg64
(lp2554
g57
(g58
g59
NtRp2555
(dp2556
g62
(dp2557
g70
I3
ssg71
g2551
sg64
(lp2558
g1144
asbasbasbag57
(g73
g59
NtRp2559
(dp2560
g62
(dp2561
sg71
g2261
sg64
(lp2562
g57
(g78
g59
NtRp2563
(dp2564
g62
(dp2565
g82
g83
ssg71
g2559
sg64
(lp2566
S'SERVER_PORT'
p2567
asbag57
(g78
g59
NtRp2568
(dp2569
g62
(dp2570
g89
g90
ssg71
g2559
sg64
(lp2571
S':'
asbag57
(g78
g59
NtRp2572
(dp2573
g62
(dp2574
sg71
g2559
sg64
(lp2575
g57
(g58
g59
NtRp2576
(dp2577
g62
(dp2578
g70
I3
ssg71
g2572
sg64
(lp2579
g1166
asbasbasbag57
(g73
g59
NtRp2580
(dp2581
g62
(dp2582
sg71
g2261
sg64
(lp2583
g57
(g78
g59
NtRp2584
(dp2585
g62
(dp2586
g82
g83
ssg71
g2580
sg64
(lp2587
S'SERVER_PROTOCOL'
p2588
asbag57
(g78
g59
NtRp2589
(dp2590
g62
(dp2591
g89
g90
ssg71
g2580
sg64
(lp2592
S':'
asbag57
(g78
g59
NtRp2593
(dp2594
g62
(dp2595
sg71
g2580
sg64
(lp2596
g57
(g58
g59
NtRp2597
(dp2598
g62
(dp2599
g70
I3
ssg71
g2593
sg64
(lp2600
g1188
asbasbasbag57
(g73
g59
NtRp2601
(dp2602
g62
(dp2603
sg71
g2261
sg64
(lp2604
g57
(g78
g59
NtRp2605
(dp2606
g62
(dp2607
g82
g83
ssg71
g2601
sg64
(lp2608
S'SERVER_SOFTWARE'
p2609
asbag57
(g78
g59
NtRp2610
(dp2611
g62
(dp2612
g89
g90
ssg71
g2601
sg64
(lp2613
S':'
asbag57
(g78
g59
NtRp2614
(dp2615
g62
(dp2616
sg71
g2601
sg64
(lp2617
g57
(g58
g59
NtRp2618
(dp2619
g62
(dp2620
g70
I3
ssg71
g2614
sg64
(lp2621
g1210
asbasbasbag57
(g73
g59
NtRp2622
(dp2623
g62
(dp2624
sg71
g2261
sg64
(lp2625
g57
(g78
g59
NtRp2626
(dp2627
g62
(dp2628
g82
g83
ssg71
g2622
sg64
(lp2629
S'wsgi.errors'
p2630
asbag57
(g78
g59
NtRp2631
(dp2632
g62
(dp2633
g89
g90
ssg71
g2622
sg64
(lp2634
S':'
asbag57
(g78
g59
NtRp2635
(dp2636
g62
(dp2637
sg71
g2622
sg64
(lp2638
g57
(g58
g59
NtRp2639
(dp2640
g62
(dp2641
g70
I3
ssg71
g2635
sg64
(lp2642
S"<open file '<stderr>', mode 'w' at 0x7f2c95a95270>"
p2643
asbasbasbag57
(g73
g59
NtRp2644
(dp2645
g62
(dp2646
sg71
g2261
sg64
(lp2647
g57
(g78
g59
NtRp2648
(dp2649
g62
(dp2650
g82
g83
ssg71
g2644
sg64
(lp2651
S'wsgi.file_wrapper'
p2652
asbag57
(g78
g59
NtRp2653
(dp2654
g62
(dp2655
g89
g90
ssg71
g2644
sg64
(lp2656
S':'
asbag57
(g78
g59
NtRp2657
(dp2658
g62
(dp2659
sg71
g2644
sg64
(lp2660
g57
(g58
g59
NtRp2661
(dp2662
g62
(dp2663
g70
I3
ssg71
g2657
sg64
(lp2664
S'<class wsgiref.util.FileWrapper at 0x2ac8530>'
p2665
asbasbasbag57
(g73
g59
NtRp2666
(dp2667
g62
(dp2668
sg71
g2261
sg64
(lp2669
g57
(g78
g59
NtRp2670
(dp2671
g62
(dp2672
g82
g83
ssg71
g2666
sg64
(lp2673
S'wsgi.input'
p2674
asbag57
(g78
g59
NtRp2675
(dp2676
g62
(dp2677
g89
g90
ssg71
g2666
sg64
(lp2678
S':'
asbag57
(g78
g59
NtRp2679
(dp2680
g62
(dp2681
sg71
g2666
sg64
(lp2682
g57
(g58
g59
NtRp2683
(dp2684
g62
(dp2685
g70
I3
ssg71
g2679
sg64
(lp2686
S'<cStringIO.StringO object at 0x7f2c444b7dc0>'
p2687
asbasbasbag57
(g73
g59
NtRp2688
(dp2689
g62
(dp2690
sg71
g2261
sg64
(lp2691
g57
(g78
g59
NtRp2692
(dp2693
g62
(dp2694
g82
g83
ssg71
g2688
sg64
(lp2695
S'wsgi.multiprocess'
p2696
asbag57
(g78
g59
NtRp2697
(dp2698
g62
(dp2699
g89
g90
ssg71
g2688
sg64
(lp2700
S':'
asbag57
(g78
g59
NtRp2701
(dp2702
g62
(dp2703
sg71
g2688
sg64
(lp2704
g57
(g58
g59
NtRp2705
(dp2706
g62
(dp2707
g70
I3
ssg71
g2701
sg64
(lp2708
g100
asbasbasbag57
(g73
g59
NtRp2709
(dp2710
g62
(dp2711
sg71
g2261
sg64
(lp2712
g57
(g78
g59
NtRp2713
(dp2714
g62
(dp2715
g82
g83
ssg71
g2709
sg64
(lp2716
S'wsgi.multithread'
p2717
asbag57
(g78
g59
NtRp2718
(dp2719
g62
(dp2720
g89
g90
ssg71
g2709
sg64
(lp2721
S':'
asbag57
(g78
g59
NtRp2722
(dp2723
g62
(dp2724
sg71
g2709
sg64
(lp2725
g57
(g58
g59
NtRp2726
(dp2727
g62
(dp2728
g70
I3
ssg71
g2722
sg64
(lp2729
g1450
asbasbasbag57
(g73
g59
NtRp2730
(dp2731
g62
(dp2732
sg71
g2261
sg64
(lp2733
g57
(g78
g59
NtRp2734
(dp2735
g62
(dp2736
g82
g83
ssg71
g2730
sg64
(lp2737
S'wsgi.run_once'
p2738
asbag57
(g78
g59
NtRp2739
(dp2740
g62
(dp2741
g89
g90
ssg71
g2730
sg64
(lp2742
S':'
asbag57
(g78
g59
NtRp2743
(dp2744
g62
(dp2745
sg71
g2730
sg64
(lp2746
g57
(g58
g59
NtRp2747
(dp2748
g62
(dp2749
g70
I3
ssg71
g2743
sg64
(lp2750
g100
asbasbasbag57
(g73
g59
NtRp2751
(dp2752
g62
(dp2753
sg71
g2261
sg64
(lp2754
g57
(g78
g59
NtRp2755
(dp2756
g62
(dp2757
g82
g83
ssg71
g2751
sg64
(lp2758
S'wsgi.url_scheme'
p2759
asbag57
(g78
g59
NtRp2760
(dp2761
g62
(dp2762
g89
g90
ssg71
g2751
sg64
(lp2763
S':'
asbag57
(g78
g59
NtRp2764
(dp2765
g62
(dp2766
sg71
g2751
sg64
(lp2767
g57
(g58
g59
NtRp2768
(dp2769
g62
(dp2770
g70
I3
ssg71
g2764
sg64
(lp2771
g1493
asbasbasbag57
(g73
g59
NtRp2772
(dp2773
g62
(dp2774
sg71
g2261
sg64
(lp2775
g57
(g78
g59
NtRp2776
(dp2777
g62
(dp2778
g82
g83
ssg71
g2772
sg64
(lp2779
S'wsgi.version'
p2780
asbag57
(g78
g59
NtRp2781
(dp2782
g62
(dp2783
g89
g90
ssg71
g2772
sg64
(lp2784
S':'
asbag57
(g78
g59
NtRp2785
(dp2786
g62
(dp2787
sg71
g2772
sg64
(lp2788
g57
(g58
g59
NtRp2789
(dp2790
g62
(dp2791
g70
I3
ssg71
g2785
sg64
(lp2792
S'1'
asbasbasbasbasbasbasbasbasbasbasbasbasbsS'frames'
p2793
(lp2794
(dp2795
S'file'
p2796
S'/usr/lib/pymodules/python2.7/gluon/restricted.py'
p2797
sS'dump'
p2798
(dp2799
S'environment'
p2800
S"{'A': <class 'gluon.html.A'>, 'Auth': <class 'gluon.tools.Auth'>, 'B': <class 'gluon.html.B'>, 'BEAUTIFY': <class 'gluon.html.BEAUTIFY'>, 'BODY': <class 'gluon.html.BODY'>, 'BR': <class 'gluon.html.BR'>, 'BUTTON': <class 'gluon.html.BUTTON'>, 'CAT': <class 'gluon.html.CAT'>, 'CENTER': <class 'gluon.html.CENTER'>, 'CLEANUP': <class 'gluon.validators.CLEANUP'>, ...}"
p2801
sS'ccode'
p2802
S'<code object <module> at 0x7f2c604ac6b0, file "/...cations/Read_it/controllers/default.py", line 12>'
p2803
ssS'lnum'
p2804
I204
sS'lines'
p2805
(dp2806
I199
S'    try:'
p2807
sI200
S'        if type(code) == types.CodeType:'
p2808
sI201
S'            ccode = code'
p2809
sI202
S'        else:'
p2810
sI203
S'            ccode = compile2(code,layer)'
p2811
sI204
S'        exec ccode in environment'
p2812
sI205
S'    except HTTP:'
p2813
sI206
S'        raise'
p2814
sI207
S'    except RestrictedError:'
p2815
sI208
S'        # do not encapsulate (obfuscate) the original RestrictedError'
p2816
ssS'call'
p2817
S"(code='# -*- coding: utf-8 -*-\\n# this file is released ...rud())\\n\\n\\nresponse._vars=response._caller(search)\\n', environment={'A': <class 'gluon.html.A'>, 'Auth': <class 'gluon.tools.Auth'>, 'B': <class 'gluon.html.B'>, 'BEAUTIFY': <class 'gluon.html.BEAUTIFY'>, 'BODY': <class 'gluon.html.BODY'>, 'BR': <class 'gluon.html.BR'>, 'BUTTON': <class 'gluon.html.BUTTON'>, 'CAT': <class 'gluon.html.CAT'>, 'CENTER': <class 'gluon.html.CENTER'>, 'CLEANUP': <class 'gluon.validators.CLEANUP'>, ...}, layer='/home/ds-iiit/web2py/applications/Read_it/controllers/default.py')"
p2818
sS'func'
p2819
S'restricted'
p2820
sa(dp2821
g2796
S'/home/ds-iiit/web2py/applications/Read_it/controllers/default.py'
p2822
sg2798
(dp2823
sg2804
I135
sg2805
(dp2824
I128
S"      A('table',_href=URL('data/tables',user_signature=True))"
p2825
sI129
S'    or with the signed load operator'
p2826
sI130
S"      LOAD('default','data.load',args='tables',ajax=True,user_signature=True)"
p2827
sI131
S'    """'
p2828
sI132
S'    return dict(form=crud())'
p2829
sI133
S''
sI124
S'    http://..../[app]/default/data/delete/[table]/[id]'
p2830
sI125
S'    http://..../[app]/default/data/select/[table]'
p2831
sI126
S'    http://..../[app]/default/data/search/[table]'
p2832
sI127
S'    but URLs must be signed, i.e. linked with'
p2833
ssg2817
S'()'
p2834
sg2819
S'<module>'
p2835
sa(dp2836
g2796
S'/usr/lib/pymodules/python2.7/gluon/globals.py'
p2837
sg2798
(dp2838
S'self'
p2839
S'undefined'
p2840
sS'f'
S'<function search>'
p2841
ssg2804
I172
sg2805
(dp2842
I167
S'        self.meta = Storage()      # used by web2py_ajax.html'
p2843
sI168
S'        self.menu = []             # used by the default view layout'
p2844
sI169
S'        self.files = []            # used by web2py_ajax.html'
p2845
sI170
S'        self.generic_patterns = [] # patterns to allow generic views'
p2846
sI171
S'        self._vars = None'
p2847
sI172
S'        self._caller = lambda f: f()'
p2848
sI173
S'        self._view_environment = None'
p2849
sI174
S'        self._custom_commit = None'
p2850
sI175
S'        self._custom_rollback = None'
p2851
sI176
S''
ssg2817
S'(f=<function search>)'
p2852
sg2819
S'<lambda>'
p2853
sa(dp2854
g2796
S'/home/ds-iiit/web2py/applications/Read_it/controllers/default.py'
p2855
sg2798
(dp2856
S'results'
p2857
S'[]'
p2858
sS').select'
p2859
g2840
sS'db.Item.Heading.contains'
p2860
S'<bound method Field.contains of <gluon.dal.Field object>>'
p2861
sS'db.Item'
p2862
S"<Table {'Category': <gluon.dal.Field object at 0...id': <gluon.dal.Field object at 0x7f2c601bc790>}>"
p2863
sS'global db'
p2864
S"<DAL {'Category': <Table {'ALL': <gluon.dal.SQLA...': <gluon.dal.Field object at 0x7f2c5065af90>}>}>"
p2865
sS'x'
S'None'
p2866
sS'db.Item.Heading'
p2867
S'<gluon.dal.Field object>'
p2868
ssg2804
I18
sg2805
(dp2869
I13
S'\tpass'
p2870
sI14
S''
sI15
S'def search():'
p2871
sI16
S'\tresults=[]'
p2872
sI17
S'\tx=request.args(0)'
p2873
sI18
S'\tresults=db(db.Item.Heading.contains(x)).select()'
p2874
sI19
S'#\tfor i in db().select(db.Item.ALL):'
p2875
sI20
S"#\t\tif re.search(x,i['Heading']):"
p2876
sI21
S'#\t\t\tresults.append(i)'
p2877
sI22
S'\treturn dict(results=results)'
p2878
ssg2817
S'()'
p2879
sg2819
S'search'
p2880
sa(dp2881
g2796
S'/usr/lib/pymodules/python2.7/gluon/dal.py'
p2882
sg2798
(dp2883
S'self.query'
p2884
S'<gluon.dal.Query object>'
p2885
sS'fields'
p2886
S'()'
p2887
sS'self'
p2888
S'<gluon.dal.Set object>'
p2889
sS'self.db._adapter.select'
p2890
S'<bound method SQLiteAdapter.select of <gluon.dal.SQLiteAdapter object>>'
p2891
sS'self.db._adapter'
p2892
S'<gluon.dal.SQLiteAdapter object>'
p2893
sS'attributes'
p2894
g45
sS'self.db'
p2895
S"<DAL {'Category': <Table {'ALL': <gluon.dal.SQLA...': <gluon.dal.Field object at 0x7f2c5065af90>}>}>"
p2896
ssg2804
I6333
sg2805
(dp2897
I6336
S'        tablename=self.db._adapter.get_table(self.query)'
p2898
sI6337
S'        self.delete_uploaded_files()'
p2899
sI6328
S''
sI6329
S'    def count(self,distinct=None):'
p2900
sI6330
S'        return self.db._adapter.count(self.query,distinct)'
p2901
sI6331
S''
sI6332
S'    def select(self, *fields, **attributes):'
p2902
sI6333
S'        return self.db._adapter.select(self.query,fields,attributes)'
p2903
sI6334
S''
sI6335
S'    def delete(self):'
p2904
ssg2817
S'(self=<gluon.dal.Set object>, *fields=(), **attributes={})'
p2905
sg2819
S'select'
p2906
sa(dp2907
g2796
S'/usr/lib/pymodules/python2.7/gluon/dal.py'
p2908
sg2798
(dp2909
S'self._select'
p2910
S'<bound method SQLiteAdapter._select of <gluon.dal.SQLiteAdapter object>>'
p2911
sS'fields'
p2912
S'()'
p2913
sS'self'
p2914
S'<gluon.dal.SQLiteAdapter object>'
p2915
sS'sql'
p2916
g2840
sS'query'
p2917
S'<gluon.dal.Query object>'
p2918
sS'attributes'
p2919
g45
ssg2804
I1274
sg2805
(dp2920
I1269
S'        Always returns a Rows object, possibly empty.'
p2921
sI1270
S'        """'
p2922
sI1271
S'        def response(sql):'
p2923
sI1272
S'            self.execute(sql)'
p2924
sI1273
S'            return self.cursor.fetchall()'
p2925
sI1274
S'        sql = self._select(query, fields, attributes)'
p2926
sI1275
S"        if attributes.get('cache', None):"
p2927
sI1276
S"            (cache_model, time_expire) = attributes['cache']"
p2928
sI1277
S"            del attributes['cache']"
p2929
sI1278
S"            key = self.uri + '/' + sql"
p2930
ssg2817
S'(self=<gluon.dal.SQLiteAdapter object>, query=<gluon.dal.Query object>, fields=(), attributes={})'
p2931
sg2819
g2906
sa(dp2932
g2796
S'/usr/lib/pymodules/python2.7/gluon/dal.py'
p2933
sg2798
(dp2934
S'fields'
p2935
S'()'
p2936
sS'self'
p2937
S'<gluon.dal.SQLiteAdapter object>'
p2938
sS')._select'
p2939
S'<bound method SQLiteAdapter._select of <gluon.dal.SQLiteAdapter object>>'
p2940
sS'sql'
p2941
g2840
sS'global SQLiteAdapter'
p2942
S"<class 'gluon.dal.SQLiteAdapter'>"
p2943
sS'query'
p2944
S'<gluon.dal.Query object>'
p2945
sS'builtinsuper'
p2946
S"<type 'super'>"
p2947
sS'attributes'
p2948
g45
ssg2804
I1672
sg2805
(dp2949
I1667
S'        """'
p2950
sI1668
S'        Simulate SELECT ... FOR UPDATE with BEGIN IMMEDIATE TRANSACTION.'
p2951
sI1669
S'        Note that the entire database, rather than one record, is locked'
p2952
sI1670
S'        (it will be locked eventually anyway by the following UPDATE).'
p2953
sI1671
S'        """'
p2954
sI1672
S'        sql = super(SQLiteAdapter, self)._select(query, fields, attributes)'
p2955
sI1673
S"        if attributes.get('for_update', False):"
p2956
sI1674
S"            sql = 'BEGIN IMMEDIATE TRANSACTION; ' + sql"
p2957
sI1675
S'        return sql'
p2958
sI1676
S''
ssg2817
S'(self=<gluon.dal.SQLiteAdapter object>, query=<gluon.dal.Query object>, fields=(), attributes={})'
p2959
sg2819
S'_select'
p2960
sa(dp2961
g2796
S'/usr/lib/pymodules/python2.7/gluon/dal.py'
p2962
sg2798
(dp2963
S'query'
p2964
S'<gluon.dal.Query object>'
p2965
sS'self'
p2966
S'<gluon.dal.SQLiteAdapter object>'
p2967
sS'sql_w'
p2968
g2840
sS'self.expand'
p2969
S'<bound method SQLiteAdapter.expand of <gluon.dal.SQLiteAdapter object>>'
p2970
ssg2804
I1175
sg2805
(dp2971
I1170
S'        if len(tablenames) < 1:'
p2972
sI1171
S"            raise SyntaxError, 'Set: no tables selected'"
p2973
sI1172
S"        sql_f = ', '.join(map(self.expand, fields))"
p2974
sI1173
S"        self._colnames = [c.strip() for c in sql_f.split(', ')]"
p2975
sI1174
S'        if query:'
p2976
sI1175
S"            sql_w = ' WHERE ' + self.expand(query)"
p2977
sI1176
S'        else:'
p2978
sI1177
S"            sql_w = ''"
p2979
sI1178
S"        sql_o = ''"
p2980
sI1179
S"        sql_s = ''"
p2981
ssg2817
S'(self=<gluon.dal.SQLiteAdapter object>, query=<gluon.dal.Query object>, fields=[<gluon.dal.Field object>, <gluon.dal.Field object>, <gluon.dal.Field object>, <gluon.dal.Field object>, <gluon.dal.Field object>, <gluon.dal.Field object>, <gluon.dal.Field object>, <gluon.dal.Field object>, <gluon.dal.Field object>], attributes={})'
p2982
sg2819
g2960
sa(dp2983
g2796
S'/usr/lib/pymodules/python2.7/gluon/dal.py'
p2984
sg2798
(dp2985
S'expression.op'
p2986
S'<bound method SQLiteAdapter.CONTAINS of <gluon.dal.SQLiteAdapter object>>'
p2987
sS'expression'
p2988
S'<gluon.dal.Query object>'
p2989
sS'expression.first'
p2990
S'<gluon.dal.Field object>'
p2991
ssg2804
I1025
sg2805
(dp2992
I1024
S'            elif not expression.first is None:'
p2993
sI1025
S'                return expression.op(expression.first)'
p2994
sI1026
S'            elif not isinstance(expression.op, str):'
p2995
sI1027
S'                return expression.op()'
p2996
sI1028
S'            else:'
p2997
sI1029
S"                return '(%s)' % expression.op"
p2998
sI1020
S'            return str(expression)'
p2999
sI1021
S'        elif isinstance(expression, (Expression, Query)):'
p3000
sI1022
S'            if not expression.second is None:'
p3001
sI1023
S'                return expression.op(expression.first, expression.second)'
p3002
ssg2817
S'(self=<gluon.dal.SQLiteAdapter object>, expression=<gluon.dal.Query object>, field_type=None)'
p3003
sg2819
S'expand'
p3004
sasS'pyver'
p3005
S'Python 2.7.3: /usr/bin/python'
p3006
sS'session'
p3007
g57
(g58
g59
NtRp3008
(dp3009
g62
(dp3010
sg64
(lp3011
g57
(g66
g59
NtRp3012
(dp3013
g62
(dp3014
g70
I5
ssg71
Nsg64
(lp3015
g57
(g73
g59
NtRp3016
(dp3017
g62
(dp3018
sg71
g3012
sg64
(lp3019
g57
(g78
g59
NtRp3020
(dp3021
g62
(dp3022
g82
g83
ssg71
g3016
sg64
(lp3023
S'auth'
p3024
asbag57
(g78
g59
NtRp3025
(dp3026
g62
(dp3027
g89
g90
ssg71
g3016
sg64
(lp3028
S':'
asbag57
(g78
g59
NtRp3029
(dp3030
g62
(dp3031
sg71
g3016
sg64
(lp3032
g57
(g58
g59
NtRp3033
(dp3034
g62
(dp3035
g70
I5
ssg71
g3029
sg64
(lp3036
g57
(g66
g59
NtRp3037
(dp3038
g62
(dp3039
g70
I4
ssg71
Nsg64
(lp3040
g57
(g73
g59
NtRp3041
(dp3042
g62
(dp3043
sg71
g3037
sg64
(lp3044
g57
(g78
g59
NtRp3045
(dp3046
g62
(dp3047
g82
g83
ssg71
g3041
sg64
(lp3048
S'expiration'
p3049
asbag57
(g78
g59
NtRp3050
(dp3051
g62
(dp3052
g89
g90
ssg71
g3041
sg64
(lp3053
S':'
asbag57
(g78
g59
NtRp3054
(dp3055
g62
(dp3056
sg71
g3041
sg64
(lp3057
g57
(g58
g59
NtRp3058
(dp3059
g62
(dp3060
g70
I4
ssg71
g3054
sg64
(lp3061
S'2592000'
p3062
asbasbasbag57
(g73
g59
NtRp3063
(dp3064
g62
(dp3065
sg71
g3037
sg64
(lp3066
g57
(g78
g59
NtRp3067
(dp3068
g62
(dp3069
g82
g83
ssg71
g3063
sg64
(lp3070
S'hmac_key'
p3071
asbag57
(g78
g59
NtRp3072
(dp3073
g62
(dp3074
g89
g90
ssg71
g3063
sg64
(lp3075
S':'
asbag57
(g78
g59
NtRp3076
(dp3077
g62
(dp3078
sg71
g3063
sg64
(lp3079
g57
(g58
g59
NtRp3080
(dp3081
g62
(dp3082
g70
I4
ssg71
g3076
sg64
(lp3083
S'1bdc556c-efff-456a-89f8-5aab661d98de'
p3084
asbasbasbag57
(g73
g59
NtRp3085
(dp3086
g62
(dp3087
sg71
g3037
sg64
(lp3088
g57
(g78
g59
NtRp3089
(dp3090
g62
(dp3091
g82
g83
ssg71
g3085
sg64
(lp3092
S'last_visit'
p3093
asbag57
(g78
g59
NtRp3094
(dp3095
g62
(dp3096
g89
g90
ssg71
g3085
sg64
(lp3097
S':'
asbag57
(g78
g59
NtRp3098
(dp3099
g62
(dp3100
sg71
g3085
sg64
(lp3101
g57
(g58
g59
NtRp3102
(dp3103
g62
(dp3104
g70
I4
ssg71
g3098
sg64
(lp3105
S'datetime.datetime(2013, 8, 29, 21, 0, 32, 43356)'
p3106
asbasbasbag57
(g73
g59
NtRp3107
(dp3108
g62
(dp3109
sg71
g3037
sg64
(lp3110
g57
(g78
g59
NtRp3111
(dp3112
g62
(dp3113
g82
g83
ssg71
g3107
sg64
(lp3114
S'remember'
p3115
asbag57
(g78
g59
NtRp3116
(dp3117
g62
(dp3118
g89
g90
ssg71
g3107
sg64
(lp3119
S':'
asbag57
(g78
g59
NtRp3120
(dp3121
g62
(dp3122
sg71
g3107
sg64
(lp3123
g57
(g58
g59
NtRp3124
(dp3125
g62
(dp3126
g70
I4
ssg71
g3120
sg64
(lp3127
g100
asbasbasbag57
(g73
g59
NtRp3128
(dp3129
g62
(dp3130
sg71
g3037
sg64
(lp3131
g57
(g78
g59
NtRp3132
(dp3133
g62
(dp3134
g82
g83
ssg71
g3128
sg64
(lp3135
S'user'
p3136
asbag57
(g78
g59
NtRp3137
(dp3138
g62
(dp3139
g89
g90
ssg71
g3128
sg64
(lp3140
S':'
asbag57
(g78
g59
NtRp3141
(dp3142
g62
(dp3143
sg71
g3128
sg64
(lp3144
g57
(g58
g59
NtRp3145
(dp3146
g62
(dp3147
g70
I4
ssg71
g3141
sg64
(lp3148
g57
(g66
g59
NtRp3149
(dp3150
g62
(dp3151
g70
I3
ssg71
Nsg64
(lp3152
g57
(g73
g59
NtRp3153
(dp3154
g62
(dp3155
sg71
g3149
sg64
(lp3156
g57
(g78
g59
NtRp3157
(dp3158
g62
(dp3159
g82
g83
ssg71
g3153
sg64
(lp3160
S'email'
p3161
asbag57
(g78
g59
NtRp3162
(dp3163
g62
(dp3164
g89
g90
ssg71
g3153
sg64
(lp3165
S':'
asbag57
(g78
g59
NtRp3166
(dp3167
g62
(dp3168
sg71
g3153
sg64
(lp3169
g57
(g58
g59
NtRp3170
(dp3171
g62
(dp3172
g70
I3
ssg71
g3166
sg64
(lp3173
S'pj@gmail.com'
p3174
asbasbasbag57
(g73
g59
NtRp3175
(dp3176
g62
(dp3177
sg71
g3149
sg64
(lp3178
g57
(g78
g59
NtRp3179
(dp3180
g62
(dp3181
g82
g83
ssg71
g3175
sg64
(lp3182
S'first_name'
p3183
asbag57
(g78
g59
NtRp3184
(dp3185
g62
(dp3186
g89
g90
ssg71
g3175
sg64
(lp3187
S':'
asbag57
(g78
g59
NtRp3188
(dp3189
g62
(dp3190
sg71
g3175
sg64
(lp3191
g57
(g58
g59
NtRp3192
(dp3193
g62
(dp3194
g70
I3
ssg71
g3188
sg64
(lp3195
S'Princu'
p3196
asbasbasbag57
(g73
g59
NtRp3197
(dp3198
g62
(dp3199
sg71
g3149
sg64
(lp3200
g57
(g78
g59
NtRp3201
(dp3202
g62
(dp3203
g82
g83
ssg71
g3197
sg64
(lp3204
S'id'
p3205
asbag57
(g78
g59
NtRp3206
(dp3207
g62
(dp3208
g89
g90
ssg71
g3197
sg64
(lp3209
S':'
asbag57
(g78
g59
NtRp3210
(dp3211
g62
(dp3212
sg71
g3197
sg64
(lp3213
g57
(g58
g59
NtRp3214
(dp3215
g62
(dp3216
g70
I3
ssg71
g3210
sg64
(lp3217
S'2'
asbasbasbag57
(g73
g59
NtRp3218
(dp3219
g62
(dp3220
sg71
g3149
sg64
(lp3221
g57
(g78
g59
NtRp3222
(dp3223
g62
(dp3224
g82
g83
ssg71
g3218
sg64
(lp3225
S'last_name'
p3226
asbag57
(g78
g59
NtRp3227
(dp3228
g62
(dp3229
g89
g90
ssg71
g3218
sg64
(lp3230
S':'
asbag57
(g78
g59
NtRp3231
(dp3232
g62
(dp3233
sg71
g3218
sg64
(lp3234
g57
(g58
g59
NtRp3235
(dp3236
g62
(dp3237
g70
I3
ssg71
g3231
sg64
(lp3238
S'Jain'
p3239
asbasbasbag57
(g73
g59
NtRp3240
(dp3241
g62
(dp3242
sg71
g3149
sg64
(lp3243
g57
(g78
g59
NtRp3244
(dp3245
g62
(dp3246
g82
g83
ssg71
g3240
sg64
(lp3247
S'password'
p3248
asbag57
(g78
g59
NtRp3249
(dp3250
g62
(dp3251
g89
g90
ssg71
g3240
sg64
(lp3252
S':'
asbag57
(g78
g59
NtRp3253
(dp3254
g62
(dp3255
sg71
g3240
sg64
(lp3256
g57
(g58
g59
NtRp3257
(dp3258
g62
(dp3259
g70
I3
ssg71
g3253
sg64
(lp3260
S'3209dfeb866e06638d334e68055d777c'
p3261
asbasbasbag57
(g73
g59
NtRp3262
(dp3263
g62
(dp3264
sg71
g3149
sg64
(lp3265
g57
(g78
g59
NtRp3266
(dp3267
g62
(dp3268
g82
g83
ssg71
g3262
sg64
(lp3269
S'registration_id'
p3270
asbag57
(g78
g59
NtRp3271
(dp3272
g62
(dp3273
g89
g90
ssg71
g3262
sg64
(lp3274
S':'
asbag57
(g78
g59
NtRp3275
(dp3276
g62
(dp3277
sg71
g3262
sg64
(lp3278
g57
(g58
g59
NtRp3279
(dp3280
g62
(dp3281
g70
I3
ssg71
g3275
sg64
(lp3282
S''
asbasbasbag57
(g73
g59
NtRp3283
(dp3284
g62
(dp3285
sg71
g3149
sg64
(lp3286
g57
(g78
g59
NtRp3287
(dp3288
g62
(dp3289
g82
g83
ssg71
g3283
sg64
(lp3290
S'registration_key'
p3291
asbag57
(g78
g59
NtRp3292
(dp3293
g62
(dp3294
g89
g90
ssg71
g3283
sg64
(lp3295
S':'
asbag57
(g78
g59
NtRp3296
(dp3297
g62
(dp3298
sg71
g3283
sg64
(lp3299
g57
(g58
g59
NtRp3300
(dp3301
g62
(dp3302
g70
I3
ssg71
g3296
sg64
(lp3303
S''
asbasbasbag57
(g73
g59
NtRp3304
(dp3305
g62
(dp3306
sg71
g3149
sg64
(lp3307
g57
(g78
g59
NtRp3308
(dp3309
g62
(dp3310
g82
g83
ssg71
g3304
sg64
(lp3311
S'reset_password_key'
p3312
asbag57
(g78
g59
NtRp3313
(dp3314
g62
(dp3315
g89
g90
ssg71
g3304
sg64
(lp3316
S':'
asbag57
(g78
g59
NtRp3317
(dp3318
g62
(dp3319
sg71
g3304
sg64
(lp3320
g57
(g58
g59
NtRp3321
(dp3322
g62
(dp3323
g70
I3
ssg71
g3317
sg64
(lp3324
S''
asbasbasbasbasbasbasbasbasbasbasbasbasbsS'etype'
p3325
S"<type 'exceptions.TypeError'>"
p3326
sS'date'
p3327
S'Thu Aug 29 21:13:11 2013'
p3328
sS'response'
p3329
g57
(g58
g59
NtRp3330
(dp3331
g62
(dp3332
sg64
(lp3333
g57
(g66
g59
NtRp3334
(dp3335
g62
(dp3336
g70
I5
ssg71
Nsg64
(lp3337
g57
(g73
g59
NtRp3338
(dp3339
g62
(dp3340
sg71
g3334
sg64
(lp3341
g57
(g78
g59
NtRp3342
(dp3343
g62
(dp3344
g82
g83
ssg71
g3338
sg64
(lp3345
g155
asbag57
(g78
g59
NtRp3346
(dp3347
g62
(dp3348
g89
g90
ssg71
g3338
sg64
(lp3349
S':'
asbag57
(g78
g59
NtRp3350
(dp3351
g62
(dp3352
sg71
g3338
sg64
(lp3353
g57
(g58
g59
NtRp3354
(dp3355
g62
(dp3356
g70
I5
ssg71
g3350
sg64
(lp3357
S'<cStringIO.StringO object at 0x7f2c442a1688>'
p3358
asbasbasbag57
(g73
g59
NtRp3359
(dp3360
g62
(dp3361
sg71
g3334
sg64
(lp3362
g57
(g78
g59
NtRp3363
(dp3364
g62
(dp3365
g82
g83
ssg71
g3359
sg64
(lp3366
g221
asbag57
(g78
g59
NtRp3367
(dp3368
g62
(dp3369
g89
g90
ssg71
g3359
sg64
(lp3370
S':'
asbag57
(g78
g59
NtRp3371
(dp3372
g62
(dp3373
sg71
g3359
sg64
(lp3374
g57
(g58
g59
NtRp3375
(dp3376
g62
(dp3377
g70
I5
ssg71
g3371
sg64
(lp3378
g57
(g66
g59
NtRp3379
(dp3380
g62
(dp3381
g70
I4
ssg71
Nsg64
(lp3382
g57
(g73
g59
NtRp3383
(dp3384
g62
(dp3385
sg71
g3379
sg64
(lp3386
g57
(g78
g59
NtRp3387
(dp3388
g62
(dp3389
g82
g83
ssg71
g3383
sg64
(lp3390
S'session_id_read_it'
p3391
asbag57
(g78
g59
NtRp3392
(dp3393
g62
(dp3394
g89
g90
ssg71
g3383
sg64
(lp3395
S':'
asbag57
(g78
g59
NtRp3396
(dp3397
g62
(dp3398
sg71
g3383
sg64
(lp3399
g57
(g58
g59
NtRp3400
(dp3401
g62
(dp3402
g70
I4
ssg71
g3396
sg64
(lp3403
g57
(g66
g59
NtRp3404
(dp3405
g62
(dp3406
g70
I3
ssg71
Nsg64
(lp3407
g57
(g73
g59
NtRp3408
(dp3409
g62
(dp3410
sg71
g3404
sg64
(lp3411
g57
(g78
g59
NtRp3412
(dp3413
g62
(dp3414
g82
g83
ssg71
g3408
sg64
(lp3415
g271
asbag57
(g78
g59
NtRp3416
(dp3417
g62
(dp3418
g89
g90
ssg71
g3408
sg64
(lp3419
S':'
asbag57
(g78
g59
NtRp3420
(dp3421
g62
(dp3422
sg71
g3408
sg64
(lp3423
g57
(g58
g59
NtRp3424
(dp3425
g62
(dp3426
g70
I3
ssg71
g3420
sg64
(lp3427
S''
asbasbasbag57
(g73
g59
NtRp3428
(dp3429
g62
(dp3430
sg71
g3404
sg64
(lp3431
g57
(g78
g59
NtRp3432
(dp3433
g62
(dp3434
g82
g83
ssg71
g3428
sg64
(lp3435
g292
asbag57
(g78
g59
NtRp3436
(dp3437
g62
(dp3438
g89
g90
ssg71
g3428
sg64
(lp3439
S':'
asbag57
(g78
g59
NtRp3440
(dp3441
g62
(dp3442
sg71
g3428
sg64
(lp3443
g57
(g58
g59
NtRp3444
(dp3445
g62
(dp3446
g70
I3
ssg71
g3440
sg64
(lp3447
S''
asbasbasbag57
(g73
g59
NtRp3448
(dp3449
g62
(dp3450
sg71
g3404
sg64
(lp3451
g57
(g78
g59
NtRp3452
(dp3453
g62
(dp3454
g82
g83
ssg71
g3448
sg64
(lp3455
g313
asbag57
(g78
g59
NtRp3456
(dp3457
g62
(dp3458
g89
g90
ssg71
g3448
sg64
(lp3459
S':'
asbag57
(g78
g59
NtRp3460
(dp3461
g62
(dp3462
sg71
g3448
sg64
(lp3463
g57
(g58
g59
NtRp3464
(dp3465
g62
(dp3466
g70
I3
ssg71
g3460
sg64
(lp3467
S''
asbasbasbag57
(g73
g59
NtRp3468
(dp3469
g62
(dp3470
sg71
g3404
sg64
(lp3471
g57
(g78
g59
NtRp3472
(dp3473
g62
(dp3474
g82
g83
ssg71
g3468
sg64
(lp3475
g334
asbag57
(g78
g59
NtRp3476
(dp3477
g62
(dp3478
g89
g90
ssg71
g3468
sg64
(lp3479
S':'
asbag57
(g78
g59
NtRp3480
(dp3481
g62
(dp3482
sg71
g3468
sg64
(lp3483
g57
(g58
g59
NtRp3484
(dp3485
g62
(dp3486
g70
I3
ssg71
g3480
sg64
(lp3487
S''
asbasbasbag57
(g73
g59
NtRp3488
(dp3489
g62
(dp3490
sg71
g3404
sg64
(lp3491
g57
(g78
g59
NtRp3492
(dp3493
g62
(dp3494
g82
g83
ssg71
g3488
sg64
(lp3495
g355
asbag57
(g78
g59
NtRp3496
(dp3497
g62
(dp3498
g89
g90
ssg71
g3488
sg64
(lp3499
S':'
asbag57
(g78
g59
NtRp3500
(dp3501
g62
(dp3502
sg71
g3488
sg64
(lp3503
g57
(g58
g59
NtRp3504
(dp3505
g62
(dp3506
g70
I3
ssg71
g3500
sg64
(lp3507
S''
asbasbasbag57
(g73
g59
NtRp3508
(dp3509
g62
(dp3510
sg71
g3404
sg64
(lp3511
g57
(g78
g59
NtRp3512
(dp3513
g62
(dp3514
g82
g83
ssg71
g3508
sg64
(lp3515
g376
asbag57
(g78
g59
NtRp3516
(dp3517
g62
(dp3518
g89
g90
ssg71
g3508
sg64
(lp3519
S':'
asbag57
(g78
g59
NtRp3520
(dp3521
g62
(dp3522
sg71
g3508
sg64
(lp3523
g57
(g58
g59
NtRp3524
(dp3525
g62
(dp3526
g70
I3
ssg71
g3520
sg64
(lp3527
S'/'
asbasbasbag57
(g73
g59
NtRp3528
(dp3529
g62
(dp3530
sg71
g3404
sg64
(lp3531
g57
(g78
g59
NtRp3532
(dp3533
g62
(dp3534
g82
g83
ssg71
g3528
sg64
(lp3535
g397
asbag57
(g78
g59
NtRp3536
(dp3537
g62
(dp3538
g89
g90
ssg71
g3528
sg64
(lp3539
S':'
asbag57
(g78
g59
NtRp3540
(dp3541
g62
(dp3542
sg71
g3528
sg64
(lp3543
g57
(g58
g59
NtRp3544
(dp3545
g62
(dp3546
g70
I3
ssg71
g3540
sg64
(lp3547
S''
asbasbasbag57
(g73
g59
NtRp3548
(dp3549
g62
(dp3550
sg71
g3404
sg64
(lp3551
g57
(g78
g59
NtRp3552
(dp3553
g62
(dp3554
g82
g83
ssg71
g3548
sg64
(lp3555
g418
asbag57
(g78
g59
NtRp3556
(dp3557
g62
(dp3558
g89
g90
ssg71
g3548
sg64
(lp3559
S':'
asbag57
(g78
g59
NtRp3560
(dp3561
g62
(dp3562
sg71
g3548
sg64
(lp3563
g57
(g58
g59
NtRp3564
(dp3565
g62
(dp3566
g70
I3
ssg71
g3560
sg64
(lp3567
S''
asbasbasbasbasbasbasbasbasbasbasbag57
(g73
g59
NtRp3568
(dp3569
g62
(dp3570
sg71
g3334
sg64
(lp3571
g57
(g78
g59
NtRp3572
(dp3573
g62
(dp3574
g82
g83
ssg71
g3568
sg64
(lp3575
S'files'
p3576
asbag57
(g78
g59
NtRp3577
(dp3578
g62
(dp3579
g89
g90
ssg71
g3568
sg64
(lp3580
S':'
asbag57
(g78
g59
NtRp3581
(dp3582
g62
(dp3583
sg71
g3568
sg64
(lp3584
g57
(g58
g59
NtRp3585
(dp3586
g62
(dp3587
g70
I5
ssg71
g3581
sg64
(lp3588
g57
(g66
g59
NtRp3589
(dp3590
g62
(dp3591
g70
I4
ssg71
Nsg64
(lp3592
sbasbasbasbag57
(g73
g59
NtRp3593
(dp3594
g62
(dp3595
sg71
g3334
sg64
(lp3596
g57
(g78
g59
NtRp3597
(dp3598
g62
(dp3599
g82
g83
ssg71
g3593
sg64
(lp3600
S'flash'
p3601
asbag57
(g78
g59
NtRp3602
(dp3603
g62
(dp3604
g89
g90
ssg71
g3593
sg64
(lp3605
S':'
asbag57
(g78
g59
NtRp3606
(dp3607
g62
(dp3608
sg71
g3593
sg64
(lp3609
g57
(g58
g59
NtRp3610
(dp3611
g62
(dp3612
g70
I5
ssg71
g3606
sg64
(lp3613
S''
asbasbasbag57
(g73
g59
NtRp3614
(dp3615
g62
(dp3616
sg71
g3334
sg64
(lp3617
g57
(g78
g59
NtRp3618
(dp3619
g62
(dp3620
g82
g83
ssg71
g3614
sg64
(lp3621
S'generic_patterns'
p3622
asbag57
(g78
g59
NtRp3623
(dp3624
g62
(dp3625
g89
g90
ssg71
g3614
sg64
(lp3626
S':'
asbag57
(g78
g59
NtRp3627
(dp3628
g62
(dp3629
sg71
g3614
sg64
(lp3630
g57
(g58
g59
NtRp3631
(dp3632
g62
(dp3633
g70
I5
ssg71
g3627
sg64
(lp3634
g57
(g66
g59
NtRp3635
(dp3636
g62
(dp3637
g70
I4
ssg71
Nsg64
(lp3638
g57
(g73
g59
NtRp3639
(dp3640
g62
(dp3641
sg71
g3635
sg64
(lp3642
g57
(g78
g59
NtRp3643
(dp3644
g62
(dp3645
sg71
g3639
sg64
(lp3646
g57
(g58
g59
NtRp3647
(dp3648
g62
(dp3649
g70
I4
ssg71
g3643
sg64
(lp3650
S'*'
asbasbasbasbasbasbasbag57
(g73
g59
NtRp3651
(dp3652
g62
(dp3653
sg71
g3334
sg64
(lp3654
g57
(g78
g59
NtRp3655
(dp3656
g62
(dp3657
g82
g83
ssg71
g3651
sg64
(lp3658
S'headers'
p3659
asbag57
(g78
g59
NtRp3660
(dp3661
g62
(dp3662
g89
g90
ssg71
g3651
sg64
(lp3663
S':'
asbag57
(g78
g59
NtRp3664
(dp3665
g62
(dp3666
sg71
g3651
sg64
(lp3667
g57
(g58
g59
NtRp3668
(dp3669
g62
(dp3670
g70
I5
ssg71
g3664
sg64
(lp3671
g57
(g66
g59
NtRp3672
(dp3673
g62
(dp3674
g70
I4
ssg71
Nsg64
(lp3675
g57
(g73
g59
NtRp3676
(dp3677
g62
(dp3678
sg71
g3672
sg64
(lp3679
g57
(g78
g59
NtRp3680
(dp3681
g62
(dp3682
g82
g83
ssg71
g3676
sg64
(lp3683
S'Cache-Control'
p3684
asbag57
(g78
g59
NtRp3685
(dp3686
g62
(dp3687
g89
g90
ssg71
g3676
sg64
(lp3688
S':'
asbag57
(g78
g59
NtRp3689
(dp3690
g62
(dp3691
sg71
g3676
sg64
(lp3692
g57
(g58
g59
NtRp3693
(dp3694
g62
(dp3695
g70
I4
ssg71
g3689
sg64
(lp3696
S'no-store, no-cache, must-revalidate, post-check=0, pre-check=0'
p3697
asbasbasbag57
(g73
g59
NtRp3698
(dp3699
g62
(dp3700
sg71
g3672
sg64
(lp3701
g57
(g78
g59
NtRp3702
(dp3703
g62
(dp3704
g82
g83
ssg71
g3698
sg64
(lp3705
S'Content-Type'
p3706
asbag57
(g78
g59
NtRp3707
(dp3708
g62
(dp3709
g89
g90
ssg71
g3698
sg64
(lp3710
S':'
asbag57
(g78
g59
NtRp3711
(dp3712
g62
(dp3713
sg71
g3698
sg64
(lp3714
g57
(g58
g59
NtRp3715
(dp3716
g62
(dp3717
g70
I4
ssg71
g3711
sg64
(lp3718
S'text/html; charset=utf-8'
p3719
asbasbasbag57
(g73
g59
NtRp3720
(dp3721
g62
(dp3722
sg71
g3672
sg64
(lp3723
g57
(g78
g59
NtRp3724
(dp3725
g62
(dp3726
g82
g83
ssg71
g3720
sg64
(lp3727
S'Expires'
p3728
asbag57
(g78
g59
NtRp3729
(dp3730
g62
(dp3731
g89
g90
ssg71
g3720
sg64
(lp3732
S':'
asbag57
(g78
g59
NtRp3733
(dp3734
g62
(dp3735
sg71
g3720
sg64
(lp3736
g57
(g58
g59
NtRp3737
(dp3738
g62
(dp3739
g70
I4
ssg71
g3733
sg64
(lp3740
S'Thu, 29 Aug 2013 15:43:11 GMT'
p3741
asbasbasbag57
(g73
g59
NtRp3742
(dp3743
g62
(dp3744
sg71
g3672
sg64
(lp3745
g57
(g78
g59
NtRp3746
(dp3747
g62
(dp3748
g82
g83
ssg71
g3742
sg64
(lp3749
S'Pragma'
p3750
asbag57
(g78
g59
NtRp3751
(dp3752
g62
(dp3753
g89
g90
ssg71
g3742
sg64
(lp3754
S':'
asbag57
(g78
g59
NtRp3755
(dp3756
g62
(dp3757
sg71
g3742
sg64
(lp3758
g57
(g58
g59
NtRp3759
(dp3760
g62
(dp3761
g70
I4
ssg71
g3755
sg64
(lp3762
S'no-cache'
p3763
asbasbasbag57
(g73
g59
NtRp3764
(dp3765
g62
(dp3766
sg71
g3672
sg64
(lp3767
g57
(g78
g59
NtRp3768
(dp3769
g62
(dp3770
g82
g83
ssg71
g3764
sg64
(lp3771
S'X-Powered-By'
p3772
asbag57
(g78
g59
NtRp3773
(dp3774
g62
(dp3775
g89
g90
ssg71
g3764
sg64
(lp3776
S':'
asbag57
(g78
g59
NtRp3777
(dp3778
g62
(dp3779
sg71
g3764
sg64
(lp3780
g57
(g58
g59
NtRp3781
(dp3782
g62
(dp3783
g70
I4
ssg71
g3777
sg64
(lp3784
S'web2py'
p3785
asbasbasbasbasbasbasbag57
(g73
g59
NtRp3786
(dp3787
g62
(dp3788
sg71
g3334
sg64
(lp3789
g57
(g78
g59
NtRp3790
(dp3791
g62
(dp3792
g82
g83
ssg71
g3786
sg64
(lp3793
S'menu'
p3794
asbag57
(g78
g59
NtRp3795
(dp3796
g62
(dp3797
g89
g90
ssg71
g3786
sg64
(lp3798
S':'
asbag57
(g78
g59
NtRp3799
(dp3800
g62
(dp3801
sg71
g3786
sg64
(lp3802
g57
(g58
g59
NtRp3803
(dp3804
g62
(dp3805
g70
I5
ssg71
g3799
sg64
(lp3806
g57
(g66
g59
NtRp3807
(dp3808
g62
(dp3809
g70
I4
ssg71
Nsg64
(lp3810
g57
(g73
g59
NtRp3811
(dp3812
g62
(dp3813
sg71
g3807
sg64
(lp3814
g57
(g78
g59
NtRp3815
(dp3816
g62
(dp3817
sg71
g3811
sg64
(lp3818
g57
(g58
g59
NtRp3819
(dp3820
g62
(dp3821
g70
I4
ssg71
g3815
sg64
(lp3822
g57
(g66
g59
NtRp3823
(dp3824
g62
(dp3825
g70
I3
ssg71
Nsg64
(lp3826
g57
(g73
g59
NtRp3827
(dp3828
g62
(dp3829
sg71
g3823
sg64
(lp3830
g57
(g78
g59
NtRp3831
(dp3832
g62
(dp3833
sg71
g3827
sg64
(lp3834
g57
(g58
g59
NtRp3835
(dp3836
g62
(dp3837
g70
I3
ssg71
g3831
sg64
(lp3838
cgluon.languages
lazyT_unpickle
p3839
(S't\x04\x00\x00\x00Home'
tRp3840
asbasbasbag57
(g73
g59
NtRp3841
(dp3842
g62
(dp3843
sg71
g3823
sg64
(lp3844
g57
(g78
g59
NtRp3845
(dp3846
g62
(dp3847
sg71
g3841
sg64
(lp3848
g57
(g58
g59
NtRp3849
(dp3850
g62
(dp3851
g70
I3
ssg71
g3845
sg64
(lp3852
g100
asbasbasbag57
(g73
g59
NtRp3853
(dp3854
g62
(dp3855
sg71
g3823
sg64
(lp3856
g57
(g78
g59
NtRp3857
(dp3858
g62
(dp3859
sg71
g3853
sg64
(lp3860
g57
(g58
g59
NtRp3861
(dp3862
g62
(dp3863
g70
I3
ssg71
g3857
sg64
(lp3864
S'/Read_it/default/index'
p3865
asbasbasbag57
(g73
g59
NtRp3866
(dp3867
g62
(dp3868
sg71
g3823
sg64
(lp3869
g57
(g78
g59
NtRp3870
(dp3871
g62
(dp3872
sg71
g3866
sg64
(lp3873
g57
(g58
g59
NtRp3874
(dp3875
g62
(dp3876
g70
I3
ssg71
g3870
sg64
(lp3877
g57
(g66
g59
NtRp3878
(dp3879
g62
(dp3880
g70
I2
ssg71
Nsg64
(lp3881
sbasbasbasbasbasbasbasbag57
(g73
g59
NtRp3882
(dp3883
g62
(dp3884
sg71
g3807
sg64
(lp3885
g57
(g78
g59
NtRp3886
(dp3887
g62
(dp3888
sg71
g3882
sg64
(lp3889
g57
(g58
g59
NtRp3890
(dp3891
g62
(dp3892
g70
I4
ssg71
g3886
sg64
(lp3893
g57
(g66
g59
NtRp3894
(dp3895
g62
(dp3896
g70
I3
ssg71
Nsg64
(lp3897
g57
(g73
g59
NtRp3898
(dp3899
g62
(dp3900
sg71
g3894
sg64
(lp3901
g57
(g78
g59
NtRp3902
(dp3903
g62
(dp3904
sg71
g3898
sg64
(lp3905
g57
(g58
g59
NtRp3906
(dp3907
g62
(dp3908
g70
I3
ssg71
g3902
sg64
(lp3909
g57
(cgluon.html
SPAN
p3910
g59
NtRp3911
(dp3912
g62
(dp3913
g82
S'color:yellow'
p3914
ssg71
Nsg64
(lp3915
g3785
asbasbasbasbag57
(g73
g59
NtRp3916
(dp3917
g62
(dp3918
sg71
g3894
sg64
(lp3919
g57
(g78
g59
NtRp3920
(dp3921
g62
(dp3922
sg71
g3916
sg64
(lp3923
g57
(g58
g59
NtRp3924
(dp3925
g62
(dp3926
g70
I3
ssg71
g3920
sg64
(lp3927
g100
asbasbasbag57
(g73
g59
NtRp3928
(dp3929
g62
(dp3930
sg71
g3894
sg64
(lp3931
g57
(g78
g59
NtRp3932
(dp3933
g62
(dp3934
sg71
g3928
sg64
(lp3935
g57
(g58
g59
NtRp3936
(dp3937
g62
(dp3938
g70
I3
ssg71
g3932
sg64
(lp3939
S'None'
p3940
asbasbasbag57
(g73
g59
NtRp3941
(dp3942
g62
(dp3943
sg71
g3894
sg64
(lp3944
g57
(g78
g59
NtRp3945
(dp3946
g62
(dp3947
sg71
g3941
sg64
(lp3948
g57
(g58
g59
NtRp3949
(dp3950
g62
(dp3951
g70
I3
ssg71
g3945
sg64
(lp3952
g57
(g66
g59
NtRp3953
(dp3954
g62
(dp3955
g70
I2
ssg71
Nsg64
(lp3956
g57
(g73
g59
NtRp3957
(dp3958
g62
(dp3959
sg71
g3953
sg64
(lp3960
g57
(g78
g59
NtRp3961
(dp3962
g62
(dp3963
sg71
g3957
sg64
(lp3964
g57
(g58
g59
NtRp3965
(dp3966
g62
(dp3967
g70
I2
ssg71
g3961
sg64
(lp3968
g57
(g66
g59
NtRp3969
(dp3970
g62
(dp3971
g70
I1
ssg71
Nsg64
(lp3972
g57
(g73
g59
NtRp3973
(dp3974
g62
(dp3975
sg71
g3969
sg64
(lp3976
g57
(g78
g59
NtRp3977
(dp3978
g62
(dp3979
sg71
g3973
sg64
(lp3980
g57
(g58
g59
NtRp3981
(dp3982
g62
(dp3983
g70
I1
ssg71
g3977
sg64
(lp3984
g3839
(S's\x08\x00\x00\x00My Sites'
tRp3985
asbasbasbag57
(g73
g59
NtRp3986
(dp3987
g62
(dp3988
sg71
g3969
sg64
(lp3989
g57
(g78
g59
NtRp3990
(dp3991
g62
(dp3992
sg71
g3986
sg64
(lp3993
g57
(g58
g59
NtRp3994
(dp3995
g62
(dp3996
g70
I1
ssg71
g3990
sg64
(lp3997
I00
asbasbasbag57
(g73
g59
NtRp3998
(dp3999
g62
(dp4000
sg71
g3969
sg64
(lp4001
g57
(g78
g59
NtRp4002
(dp4003
g62
(dp4004
sg71
g3998
sg64
(lp4005
g57
(g58
g59
NtRp4006
(dp4007
g62
(dp4008
g70
I1
ssg71
g4002
sg64
(lp4009
S'/admin/default/site'
p4010
asbasbasbasbasbasbasbag57
(g73
g59
NtRp4011
(dp4012
g62
(dp4013
sg71
g3953
sg64
(lp4014
g57
(g78
g59
NtRp4015
(dp4016
g62
(dp4017
sg71
g4011
sg64
(lp4018
g57
(g58
g59
NtRp4019
(dp4020
g62
(dp4021
g70
I2
ssg71
g4015
sg64
(lp4022
g57
(g66
g59
NtRp4023
(dp4024
g62
(dp4025
g70
I1
ssg71
Nsg64
(lp4026
g57
(g73
g59
NtRp4027
(dp4028
g62
(dp4029
sg71
g4023
sg64
(lp4030
g57
(g78
g59
NtRp4031
(dp4032
g62
(dp4033
sg71
g4027
sg64
(lp4034
g57
(g58
g59
NtRp4035
(dp4036
g62
(dp4037
g70
I1
ssg71
g4031
sg64
(lp4038
g3839
(S's\x08\x00\x00\x00This App'
tRp4039
asbasbasbag57
(g73
g59
NtRp4040
(dp4041
g62
(dp4042
sg71
g4023
sg64
(lp4043
g57
(g78
g59
NtRp4044
(dp4045
g62
(dp4046
sg71
g4040
sg64
(lp4047
g57
(g58
g59
NtRp4048
(dp4049
g62
(dp4050
g70
I1
ssg71
g4044
sg64
(lp4051
I00
asbasbasbag57
(g73
g59
NtRp4052
(dp4053
g62
(dp4054
sg71
g4023
sg64
(lp4055
g57
(g78
g59
NtRp4056
(dp4057
g62
(dp4058
sg71
g4052
sg64
(lp4059
g57
(g58
g59
NtRp4060
(dp4061
g62
(dp4062
g70
I1
ssg71
g4056
sg64
(lp4063
S'/admin/default/design/Read_it'
p4064
asbasbasbag57
(g73
g59
NtRp4065
(dp4066
g62
(dp4067
sg71
g4023
sg64
(lp4068
g57
(g78
g59
NtRp4069
(dp4070
g62
(dp4071
sg71
g4065
sg64
(lp4072
g57
(g58
g59
NtRp4073
(dp4074
g62
(dp4075
g70
I1
ssg71
g4069
sg64
(lp4076
(lp4077
(g3839
(S't\n\x00\x00\x00Controller'
tRp4078
I00
S'/admin/default/edit/Read_it/controllers/default.py'
tp4079
a(g3839
(S't\x04\x00\x00\x00View'
tRp4080
I00
S'/admin/default/edit/Read_it/views/default/search.html'
tp4081
a(g3839
(S't\x06\x00\x00\x00Layout'
tRp4082
I00
S'/admin/default/edit/Read_it/views/layout.html'
tp4083
a(g3839
(S't\n\x00\x00\x00Stylesheet'
tRp4084
I00
S'/admin/default/edit/Read_it/static/css/web2py.css'
tp4085
a(g3839
(S's\x08\x00\x00\x00DB Model'
tRp4086
I00
S'/admin/default/edit/Read_it/models/db.py'
tp4087
a(g3839
(S's\n\x00\x00\x00Menu Model'
tRp4088
I00
S'/admin/default/edit/Read_it/models/menu.py'
tp4089
a(g3839
(S't\x08\x00\x00\x00Database'
tRp4090
I00
S'/Read_it/appadmin/index'
tp4091
a(g3839
(S't\x06\x00\x00\x00Errors'
tRp4092
I00
S'/admin/default/errors/Read_it'
tp4093
a(g3839
(S't\x05\x00\x00\x00About'
tRp4094
I00
S'/admin/default/about/Read_it'
tp4095
aasbasbasbasbasbasbasbag57
(g73
g59
NtRp4096
(dp4097
g62
(dp4098
sg71
g3953
sg64
(lp4099
g57
(g78
g59
NtRp4100
(dp4101
g62
(dp4102
sg71
g4096
sg64
(lp4103
g57
(g58
g59
NtRp4104
(dp4105
g62
(dp4106
g70
I2
ssg71
g4100
sg64
(lp4107
g57
(g66
g59
NtRp4108
(dp4109
g62
(dp4110
g70
I1
ssg71
Nsg64
(lp4111
g57
(g73
g59
NtRp4112
(dp4113
g62
(dp4114
sg71
g4108
sg64
(lp4115
g57
(g78
g59
NtRp4116
(dp4117
g62
(dp4118
sg71
g4112
sg64
(lp4119
g57
(g58
g59
NtRp4120
(dp4121
g62
(dp4122
g70
I1
ssg71
g4116
sg64
(lp4123
S'web2py.com'
p4124
asbasbasbag57
(g73
g59
NtRp4125
(dp4126
g62
(dp4127
sg71
g4108
sg64
(lp4128
g57
(g78
g59
NtRp4129
(dp4130
g62
(dp4131
sg71
g4125
sg64
(lp4132
g57
(g58
g59
NtRp4133
(dp4134
g62
(dp4135
g70
I1
ssg71
g4129
sg64
(lp4136
I00
asbasbasbag57
(g73
g59
NtRp4137
(dp4138
g62
(dp4139
sg71
g4108
sg64
(lp4140
g57
(g78
g59
NtRp4141
(dp4142
g62
(dp4143
sg71
g4137
sg64
(lp4144
g57
(g58
g59
NtRp4145
(dp4146
g62
(dp4147
g70
I1
ssg71
g4141
sg64
(lp4148
S'http://www.web2py.com'
p4149
asbasbasbag57
(g73
g59
NtRp4150
(dp4151
g62
(dp4152
sg71
g4108
sg64
(lp4153
g57
(g78
g59
NtRp4154
(dp4155
g62
(dp4156
sg71
g4150
sg64
(lp4157
g57
(g58
g59
NtRp4158
(dp4159
g62
(dp4160
g70
I1
ssg71
g4154
sg64
(lp4161
(lp4162
(g3839
(S't\x08\x00\x00\x00Download'
tRp4163
I00
S'http://www.web2py.com/examples/default/download'
p4164
tp4165
a(g3839
(S't\x07\x00\x00\x00Support'
tRp4166
I00
S'http://www.web2py.com/examples/default/support'
p4167
tp4168
a(g3839
(S't\x04\x00\x00\x00Demo'
tRp4169
I00
S'http://web2py.com/demo_admin'
p4170
tp4171
a(g3839
(S's\x0e\x00\x00\x00Quick Examples'
tRp4172
I00
S'http://web2py.com/examples/default/examples'
p4173
tp4174
a(g3839
(S't\x03\x00\x00\x00FAQ'
tRp4175
I00
S'http://web2py.com/AlterEgo'
p4176
tp4177
a(g3839
(S't\x06\x00\x00\x00Videos'
tRp4178
I00
S'http://www.web2py.com/examples/default/videos/'
p4179
tp4180
a(g3839
(S's\x11\x00\x00\x00Free Applications'
tRp4181
I00
S'http://web2py.com/appliances'
p4182
tp4183
a(g3839
(S't\x07\x00\x00\x00Plugins'
tRp4184
I00
S'http://web2py.com/plugins'
p4185
tp4186
a(g3839
(S't\x07\x00\x00\x00Layouts'
tRp4187
I00
S'http://web2py.com/layouts'
p4188
tp4189
a(g3839
(S't\x07\x00\x00\x00Recipes'
tRp4190
I00
S'http://web2pyslices.com/'
p4191
tp4192
a(g3839
(S't\x08\x00\x00\x00Semantic'
tRp4193
I00
S'http://web2py.com/semantic'
p4194
tp4195
aasbasbasbasbasbasbasbag57
(g73
g59
NtRp4196
(dp4197
g62
(dp4198
sg71
g3953
sg64
(lp4199
g57
(g78
g59
NtRp4200
(dp4201
g62
(dp4202
sg71
g4196
sg64
(lp4203
g57
(g58
g59
NtRp4204
(dp4205
g62
(dp4206
g70
I2
ssg71
g4200
sg64
(lp4207
g57
(g66
g59
NtRp4208
(dp4209
g62
(dp4210
g70
I1
ssg71
Nsg64
(lp4211
g57
(g73
g59
NtRp4212
(dp4213
g62
(dp4214
sg71
g4208
sg64
(lp4215
g57
(g78
g59
NtRp4216
(dp4217
g62
(dp4218
sg71
g4212
sg64
(lp4219
g57
(g58
g59
NtRp4220
(dp4221
g62
(dp4222
g70
I1
ssg71
g4216
sg64
(lp4223
g3839
(S't\r\x00\x00\x00Documentation'
tRp4224
asbasbasbag57
(g73
g59
NtRp4225
(dp4226
g62
(dp4227
sg71
g4208
sg64
(lp4228
g57
(g78
g59
NtRp4229
(dp4230
g62
(dp4231
sg71
g4225
sg64
(lp4232
g57
(g58
g59
NtRp4233
(dp4234
g62
(dp4235
g70
I1
ssg71
g4229
sg64
(lp4236
I00
asbasbasbag57
(g73
g59
NtRp4237
(dp4238
g62
(dp4239
sg71
g4208
sg64
(lp4240
g57
(g78
g59
NtRp4241
(dp4242
g62
(dp4243
sg71
g4237
sg64
(lp4244
g57
(g58
g59
NtRp4245
(dp4246
g62
(dp4247
g70
I1
ssg71
g4241
sg64
(lp4248
S'http://www.web2py.com/book'
p4249
asbasbasbag57
(g73
g59
NtRp4250
(dp4251
g62
(dp4252
sg71
g4208
sg64
(lp4253
g57
(g78
g59
NtRp4254
(dp4255
g62
(dp4256
sg71
g4250
sg64
(lp4257
g57
(g58
g59
NtRp4258
(dp4259
g62
(dp4260
g70
I1
ssg71
g4254
sg64
(lp4261
(lp4262
(g3839
(S't\x07\x00\x00\x00Preface'
tRp4263
I00
S'http://www.web2py.com/book/default/chapter/00'
p4264
tp4265
a(g3839
(S't\x0c\x00\x00\x00Introduction'
tRp4266
I00
S'http://www.web2py.com/book/default/chapter/01'
p4267
tp4268
a(g3839
(S't\x06\x00\x00\x00Python'
tRp4269
I00
S'http://www.web2py.com/book/default/chapter/02'
p4270
tp4271
a(g3839
(S't\x08\x00\x00\x00Overview'
tRp4272
I00
S'http://www.web2py.com/book/default/chapter/03'
p4273
tp4274
a(g3839
(S's\x08\x00\x00\x00The Core'
tRp4275
I00
S'http://www.web2py.com/book/default/chapter/04'
p4276
tp4277
a(g3839
(S's\t\x00\x00\x00The Views'
tRp4278
I00
S'http://www.web2py.com/book/default/chapter/05'
p4279
tp4280
a(g3839
(S't\x08\x00\x00\x00Database'
tRp4281
I00
S'http://www.web2py.com/book/default/chapter/06'
p4282
tp4283
a(g3839
(S's\x14\x00\x00\x00Forms and Validators'
tRp4284
I00
S'http://www.web2py.com/book/default/chapter/07'
p4285
tp4286
a(g3839
(S's\r\x00\x00\x00Email and SMS'
tRp4287
I00
S'http://www.web2py.com/book/default/chapter/08'
p4288
tp4289
a(g3839
(S's\x0e\x00\x00\x00Access Control'
tRp4290
I00
S'http://www.web2py.com/book/default/chapter/09'
p4291
tp4292
a(g3839
(S't\x08\x00\x00\x00Services'
tRp4293
I00
S'http://www.web2py.com/book/default/chapter/10'
p4294
tp4295
a(g3839
(S's\x0c\x00\x00\x00Ajax Recipes'
tRp4296
I00
S'http://www.web2py.com/book/default/chapter/11'
p4297
tp4298
a(g3839
(S's\x16\x00\x00\x00Components and Plugins'
tRp4299
I00
S'http://www.web2py.com/book/default/chapter/12'
p4300
tp4301
a(g3839
(S's\x12\x00\x00\x00Deployment Recipes'
tRp4302
I00
S'http://www.web2py.com/book/default/chapter/13'
p4303
tp4304
a(g3839
(S's\r\x00\x00\x00Other Recipes'
tRp4305
I00
S'http://www.web2py.com/book/default/chapter/14'
p4306
tp4307
a(g3839
(S's\r\x00\x00\x00Buy this book'
tRp4308
I00
S'http://stores.lulu.com/web2py'
p4309
tp4310
aasbasbasbasbasbasbasbag57
(g73
g59
NtRp4311
(dp4312
g62
(dp4313
sg71
g3953
sg64
(lp4314
g57
(g78
g59
NtRp4315
(dp4316
g62
(dp4317
sg71
g4311
sg64
(lp4318
g57
(g58
g59
NtRp4319
(dp4320
g62
(dp4321
g70
I2
ssg71
g4315
sg64
(lp4322
g57
(g66
g59
NtRp4323
(dp4324
g62
(dp4325
g70
I1
ssg71
Nsg64
(lp4326
g57
(g73
g59
NtRp4327
(dp4328
g62
(dp4329
sg71
g4323
sg64
(lp4330
g57
(g78
g59
NtRp4331
(dp4332
g62
(dp4333
sg71
g4327
sg64
(lp4334
g57
(g58
g59
NtRp4335
(dp4336
g62
(dp4337
g70
I1
ssg71
g4331
sg64
(lp4338
g3839
(S't\t\x00\x00\x00Community'
tRp4339
asbasbasbag57
(g73
g59
NtRp4340
(dp4341
g62
(dp4342
sg71
g4323
sg64
(lp4343
g57
(g78
g59
NtRp4344
(dp4345
g62
(dp4346
sg71
g4340
sg64
(lp4347
g57
(g58
g59
NtRp4348
(dp4349
g62
(dp4350
g70
I1
ssg71
g4344
sg64
(lp4351
I00
asbasbasbag57
(g73
g59
NtRp4352
(dp4353
g62
(dp4354
sg71
g4323
sg64
(lp4355
g57
(g78
g59
NtRp4356
(dp4357
g62
(dp4358
sg71
g4352
sg64
(lp4359
g57
(g58
g59
NtRp4360
(dp4361
g62
(dp4362
g70
I1
ssg71
g4356
sg64
(lp4363
Nasbasbasbag57
(g73
g59
NtRp4364
(dp4365
g62
(dp4366
sg71
g4323
sg64
(lp4367
g57
(g78
g59
NtRp4368
(dp4369
g62
(dp4370
sg71
g4364
sg64
(lp4371
g57
(g58
g59
NtRp4372
(dp4373
g62
(dp4374
g70
I1
ssg71
g4368
sg64
(lp4375
(lp4376
(g3839
(S't\x06\x00\x00\x00Groups'
tRp4377
I00
S'http://www.web2py.com/examples/default/usergroups'
p4378
tp4379
a(g3839
(S't\x07\x00\x00\x00Twitter'
tRp4380
I00
S'http://twitter.com/web2py'
p4381
tp4382
a(g3839
(S's\t\x00\x00\x00Live Chat'
tRp4383
I00
S'http://webchat.freenode.net/?channels=web2py'
p4384
tp4385
aasbasbasbasbasbasbasbag57
(g73
g59
NtRp4386
(dp4387
g62
(dp4388
sg71
g3953
sg64
(lp4389
g57
(g78
g59
NtRp4390
(dp4391
g62
(dp4392
sg71
g4386
sg64
(lp4393
g57
(g58
g59
NtRp4394
(dp4395
g62
(dp4396
g70
I2
ssg71
g4390
sg64
(lp4397
g57
(g66
g59
NtRp4398
(dp4399
g62
(dp4400
g70
I1
ssg71
Nsg64
(lp4401
g57
(g73
g59
NtRp4402
(dp4403
g62
(dp4404
sg71
g4398
sg64
(lp4405
g57
(g78
g59
NtRp4406
(dp4407
g62
(dp4408
sg71
g4402
sg64
(lp4409
g57
(g58
g59
NtRp4410
(dp4411
g62
(dp4412
g70
I1
ssg71
g4406
sg64
(lp4413
g3839
(S't\x07\x00\x00\x00Plugins'
tRp4414
asbasbasbag57
(g73
g59
NtRp4415
(dp4416
g62
(dp4417
sg71
g4398
sg64
(lp4418
g57
(g78
g59
NtRp4419
(dp4420
g62
(dp4421
sg71
g4415
sg64
(lp4422
g57
(g58
g59
NtRp4423
(dp4424
g62
(dp4425
g70
I1
ssg71
g4419
sg64
(lp4426
I00
asbasbasbag57
(g73
g59
NtRp4427
(dp4428
g62
(dp4429
sg71
g4398
sg64
(lp4430
g57
(g78
g59
NtRp4431
(dp4432
g62
(dp4433
sg71
g4427
sg64
(lp4434
g57
(g58
g59
NtRp4435
(dp4436
g62
(dp4437
g70
I1
ssg71
g4431
sg64
(lp4438
Nasbasbasbag57
(g73
g59
NtRp4439
(dp4440
g62
(dp4441
sg71
g4398
sg64
(lp4442
g57
(g78
g59
NtRp4443
(dp4444
g62
(dp4445
sg71
g4439
sg64
(lp4446
g57
(g58
g59
NtRp4447
(dp4448
g62
(dp4449
g70
I1
ssg71
g4443
sg64
(lp4450
(lp4451
(S'plugin_wiki'
p4452
I00
S'http://web2py.com/examples/default/download'
p4453
tp4454
a(g3839
(S's\r\x00\x00\x00Other Plugins'
tRp4455
I00
g4185
tp4456
a(g3839
(S's\x0e\x00\x00\x00Layout Plugins'
tRp4457
I00
g4188
tp4458
aasbasbasbasbasbasbasbasbasbasbasbasbasbasbasbasbasbasbasbag57
(g73
g59
NtRp4459
(dp4460
g62
(dp4461
sg71
g3334
sg64
(lp4462
g57
(g78
g59
NtRp4463
(dp4464
g62
(dp4465
g82
g83
ssg71
g4459
sg64
(lp4466
S'meta'
p4467
asbag57
(g78
g59
NtRp4468
(dp4469
g62
(dp4470
g89
g90
ssg71
g4459
sg64
(lp4471
S':'
asbag57
(g78
g59
NtRp4472
(dp4473
g62
(dp4474
sg71
g4459
sg64
(lp4475
g57
(g58
g59
NtRp4476
(dp4477
g62
(dp4478
g70
I5
ssg71
g4472
sg64
(lp4479
g57
(g66
g59
NtRp4480
(dp4481
g62
(dp4482
g70
I4
ssg71
Nsg64
(lp4483
g57
(g73
g59
NtRp4484
(dp4485
g62
(dp4486
sg71
g4480
sg64
(lp4487
g57
(g78
g59
NtRp4488
(dp4489
g62
(dp4490
g82
g83
ssg71
g4484
sg64
(lp4491
S'author'
p4492
asbag57
(g78
g59
NtRp4493
(dp4494
g62
(dp4495
g89
g90
ssg71
g4484
sg64
(lp4496
S':'
asbag57
(g78
g59
NtRp4497
(dp4498
g62
(dp4499
sg71
g4484
sg64
(lp4500
g57
(g58
g59
NtRp4501
(dp4502
g62
(dp4503
g70
I4
ssg71
g4497
sg64
(lp4504
S'Your Name <you@example.com>'
p4505
asbasbasbag57
(g73
g59
NtRp4506
(dp4507
g62
(dp4508
sg71
g4480
sg64
(lp4509
g57
(g78
g59
NtRp4510
(dp4511
g62
(dp4512
g82
g83
ssg71
g4506
sg64
(lp4513
S'copyright'
p4514
asbag57
(g78
g59
NtRp4515
(dp4516
g62
(dp4517
g89
g90
ssg71
g4506
sg64
(lp4518
S':'
asbag57
(g78
g59
NtRp4519
(dp4520
g62
(dp4521
sg71
g4506
sg64
(lp4522
g57
(g58
g59
NtRp4523
(dp4524
g62
(dp4525
g70
I4
ssg71
g4519
sg64
(lp4526
S'Copyright 2011'
p4527
asbasbasbag57
(g73
g59
NtRp4528
(dp4529
g62
(dp4530
sg71
g4480
sg64
(lp4531
g57
(g78
g59
NtRp4532
(dp4533
g62
(dp4534
g82
g83
ssg71
g4528
sg64
(lp4535
S'description'
p4536
asbag57
(g78
g59
NtRp4537
(dp4538
g62
(dp4539
g89
g90
ssg71
g4528
sg64
(lp4540
S':'
asbag57
(g78
g59
NtRp4541
(dp4542
g62
(dp4543
sg71
g4528
sg64
(lp4544
g57
(g58
g59
NtRp4545
(dp4546
g62
(dp4547
g70
I4
ssg71
g4541
sg64
(lp4548
S'a cool new app'
p4549
asbasbasbag57
(g73
g59
NtRp4550
(dp4551
g62
(dp4552
sg71
g4480
sg64
(lp4553
g57
(g78
g59
NtRp4554
(dp4555
g62
(dp4556
g82
g83
ssg71
g4550
sg64
(lp4557
S'generator'
p4558
asbag57
(g78
g59
NtRp4559
(dp4560
g62
(dp4561
g89
g90
ssg71
g4550
sg64
(lp4562
S':'
asbag57
(g78
g59
NtRp4563
(dp4564
g62
(dp4565
sg71
g4550
sg64
(lp4566
g57
(g58
g59
NtRp4567
(dp4568
g62
(dp4569
g70
I4
ssg71
g4563
sg64
(lp4570
S'Web2py Web Framework'
p4571
asbasbasbag57
(g73
g59
NtRp4572
(dp4573
g62
(dp4574
sg71
g4480
sg64
(lp4575
g57
(g78
g59
NtRp4576
(dp4577
g62
(dp4578
g82
g83
ssg71
g4572
sg64
(lp4579
S'keywords'
p4580
asbag57
(g78
g59
NtRp4581
(dp4582
g62
(dp4583
g89
g90
ssg71
g4572
sg64
(lp4584
S':'
asbag57
(g78
g59
NtRp4585
(dp4586
g62
(dp4587
sg71
g4572
sg64
(lp4588
g57
(g58
g59
NtRp4589
(dp4590
g62
(dp4591
g70
I4
ssg71
g4585
sg64
(lp4592
S'web2py, python, framework'
p4593
asbasbasbasbasbasbasbag57
(g73
g59
NtRp4594
(dp4595
g62
(dp4596
sg71
g3334
sg64
(lp4597
g57
(g78
g59
NtRp4598
(dp4599
g62
(dp4600
g82
g83
ssg71
g4594
sg64
(lp4601
S'postprocessing'
p4602
asbag57
(g78
g59
NtRp4603
(dp4604
g62
(dp4605
g89
g90
ssg71
g4594
sg64
(lp4606
S':'
asbag57
(g78
g59
NtRp4607
(dp4608
g62
(dp4609
sg71
g4594
sg64
(lp4610
g57
(g58
g59
NtRp4611
(dp4612
g62
(dp4613
g70
I5
ssg71
g4607
sg64
(lp4614
g57
(g66
g59
NtRp4615
(dp4616
g62
(dp4617
g70
I4
ssg71
Nsg64
(lp4618
sbasbasbasbag57
(g73
g59
NtRp4619
(dp4620
g62
(dp4621
sg71
g3334
sg64
(lp4622
g57
(g78
g59
NtRp4623
(dp4624
g62
(dp4625
g82
g83
ssg71
g4619
sg64
(lp4626
S'session_file'
p4627
asbag57
(g78
g59
NtRp4628
(dp4629
g62
(dp4630
g89
g90
ssg71
g4619
sg64
(lp4631
S':'
asbag57
(g78
g59
NtRp4632
(dp4633
g62
(dp4634
sg71
g4619
sg64
(lp4635
g57
(g58
g59
NtRp4636
(dp4637
g62
(dp4638
g70
I5
ssg71
g4632
sg64
(lp4639
S"<open file '/home/ds-iiit/web2py/applications/Read_it/sessions/127.0.0.1-303fb8c0-186d-491b-8fda-b7b2c8d34071', mode 'rb+' at 0x7f2c4441bd20>"
p4640
asbasbasbag57
(g73
g59
NtRp4641
(dp4642
g62
(dp4643
sg71
g3334
sg64
(lp4644
g57
(g78
g59
NtRp4645
(dp4646
g62
(dp4647
g82
g83
ssg71
g4641
sg64
(lp4648
S'session_filename'
p4649
asbag57
(g78
g59
NtRp4650
(dp4651
g62
(dp4652
g89
g90
ssg71
g4641
sg64
(lp4653
S':'
asbag57
(g78
g59
NtRp4654
(dp4655
g62
(dp4656
sg71
g4641
sg64
(lp4657
g57
(g58
g59
NtRp4658
(dp4659
g62
(dp4660
g70
I5
ssg71
g4654
sg64
(lp4661
S'/home/ds-iiit/web2py/applications/Read_it/sessions/127.0.0.1-303fb8c0-186d-491b-8fda-b7b2c8d34071'
p4662
asbasbasbag57
(g73
g59
NtRp4663
(dp4664
g62
(dp4665
sg71
g3334
sg64
(lp4666
g57
(g78
g59
NtRp4667
(dp4668
g62
(dp4669
g82
g83
ssg71
g4663
sg64
(lp4670
S'session_id'
p4671
asbag57
(g78
g59
NtRp4672
(dp4673
g62
(dp4674
g89
g90
ssg71
g4663
sg64
(lp4675
S':'
asbag57
(g78
g59
NtRp4676
(dp4677
g62
(dp4678
sg71
g4663
sg64
(lp4679
g57
(g58
g59
NtRp4680
(dp4681
g62
(dp4682
g70
I5
ssg71
g4676
sg64
(lp4683
S'127.0.0.1-303fb8c0-186d-491b-8fda-b7b2c8d34071'
p4684
asbasbasbag57
(g73
g59
NtRp4685
(dp4686
g62
(dp4687
sg71
g3334
sg64
(lp4688
g57
(g78
g59
NtRp4689
(dp4690
g62
(dp4691
g82
g83
ssg71
g4685
sg64
(lp4692
S'session_id_name'
p4693
asbag57
(g78
g59
NtRp4694
(dp4695
g62
(dp4696
g89
g90
ssg71
g4685
sg64
(lp4697
S':'
asbag57
(g78
g59
NtRp4698
(dp4699
g62
(dp4700
sg71
g4685
sg64
(lp4701
g57
(g58
g59
NtRp4702
(dp4703
g62
(dp4704
g70
I5
ssg71
g4698
sg64
(lp4705
g3391
asbasbasbag57
(g73
g59
NtRp4706
(dp4707
g62
(dp4708
sg71
g3334
sg64
(lp4709
g57
(g78
g59
NtRp4710
(dp4711
g62
(dp4712
g82
g83
ssg71
g4706
sg64
(lp4713
S'session_locked'
p4714
asbag57
(g78
g59
NtRp4715
(dp4716
g62
(dp4717
g89
g90
ssg71
g4706
sg64
(lp4718
S':'
asbag57
(g78
g59
NtRp4719
(dp4720
g62
(dp4721
sg71
g4706
sg64
(lp4722
g57
(g58
g59
NtRp4723
(dp4724
g62
(dp4725
g70
I5
ssg71
g4719
sg64
(lp4726
g1450
asbasbasbag57
(g73
g59
NtRp4727
(dp4728
g62
(dp4729
sg71
g3334
sg64
(lp4730
g57
(g78
g59
NtRp4731
(dp4732
g62
(dp4733
g82
g83
ssg71
g4727
sg64
(lp4734
S'session_new'
p4735
asbag57
(g78
g59
NtRp4736
(dp4737
g62
(dp4738
g89
g90
ssg71
g4727
sg64
(lp4739
S':'
asbag57
(g78
g59
NtRp4740
(dp4741
g62
(dp4742
sg71
g4727
sg64
(lp4743
g57
(g58
g59
NtRp4744
(dp4745
g62
(dp4746
g70
I5
ssg71
g4740
sg64
(lp4747
g100
asbasbasbag57
(g73
g59
NtRp4748
(dp4749
g62
(dp4750
sg71
g3334
sg64
(lp4751
g57
(g78
g59
NtRp4752
(dp4753
g62
(dp4754
g82
g83
ssg71
g4748
sg64
(lp4755
S'status'
p4756
asbag57
(g78
g59
NtRp4757
(dp4758
g62
(dp4759
g89
g90
ssg71
g4748
sg64
(lp4760
S':'
asbag57
(g78
g59
NtRp4761
(dp4762
g62
(dp4763
sg71
g4748
sg64
(lp4764
g57
(g58
g59
NtRp4765
(dp4766
g62
(dp4767
g70
I5
ssg71
g4761
sg64
(lp4768
S'200'
p4769
asbasbasbag57
(g73
g59
NtRp4770
(dp4771
g62
(dp4772
sg71
g3334
sg64
(lp4773
g57
(g78
g59
NtRp4774
(dp4775
g62
(dp4776
g82
g83
ssg71
g4770
sg64
(lp4777
S'subtitle'
p4778
asbag57
(g78
g59
NtRp4779
(dp4780
g62
(dp4781
g89
g90
ssg71
g4770
sg64
(lp4782
S':'
asbag57
(g78
g59
NtRp4783
(dp4784
g62
(dp4785
sg71
g4770
sg64
(lp4786
g57
(g58
g59
NtRp4787
(dp4788
g62
(dp4789
g70
I5
ssg71
g4783
sg64
(lp4790
g3839
(S's\r\x00\x00\x00customize me!'
tRp4791
asbasbasbag57
(g73
g59
NtRp4792
(dp4793
g62
(dp4794
sg71
g3334
sg64
(lp4795
g57
(g78
g59
NtRp4796
(dp4797
g62
(dp4798
g82
g83
ssg71
g4792
sg64
(lp4799
S'title'
p4800
asbag57
(g78
g59
NtRp4801
(dp4802
g62
(dp4803
g89
g90
ssg71
g4792
sg64
(lp4804
S':'
asbag57
(g78
g59
NtRp4805
(dp4806
g62
(dp4807
sg71
g4792
sg64
(lp4808
g57
(g58
g59
NtRp4809
(dp4810
g62
(dp4811
g70
I5
ssg71
g4805
sg64
(lp4812
S'Read It'
p4813
asbasbasbag57
(g73
g59
NtRp4814
(dp4815
g62
(dp4816
sg71
g3334
sg64
(lp4817
g57
(g78
g59
NtRp4818
(dp4819
g62
(dp4820
g82
g83
ssg71
g4814
sg64
(lp4821
g2156
asbag57
(g78
g59
NtRp4822
(dp4823
g62
(dp4824
g89
g90
ssg71
g4814
sg64
(lp4825
S':'
asbag57
(g78
g59
NtRp4826
(dp4827
g62
(dp4828
sg71
g4814
sg64
(lp4829
g57
(g58
g59
NtRp4830
(dp4831
g62
(dp4832
g70
I5
ssg71
g4826
sg64
(lp4833
g2169
asbasbasbag57
(g73
g59
NtRp4834
(dp4835
g62
(dp4836
sg71
g3334
sg64
(lp4837
g57
(g78
g59
NtRp4838
(dp4839
g62
(dp4840
g82
g83
ssg71
g4834
sg64
(lp4841
S'view'
p4842
asbag57
(g78
g59
NtRp4843
(dp4844
g62
(dp4845
g89
g90
ssg71
g4834
sg64
(lp4846
S':'
asbag57
(g78
g59
NtRp4847
(dp4848
g62
(dp4849
sg71
g4834
sg64
(lp4850
g57
(g58
g59
NtRp4851
(dp4852
g62
(dp4853
g70
I5
ssg71
g4847
sg64
(lp4854
S'default/search.html'
p4855
asbasbasbasbasbsS'locals'
p4856
(dp4857
S'field_type'
p4858
S'None'
p4859
sS'self'
p4860
S'<gluon.dal.SQLiteAdapter object>'
p4861
sS'expression'
p4862
S'<gluon.dal.Query object>'
p4863
sssS'traceback'
p4864
S'Traceback (most recent call last):\n  File "/usr/lib/pymodules/python2.7/gluon/restricted.py", line 204, in restricted\n    exec ccode in environment\n  File "/home/ds-iiit/web2py/applications/Read_it/controllers/default.py", line 135, in <module>\n  File "/usr/lib/pymodules/python2.7/gluon/globals.py", line 172, in <lambda>\n    self._caller = lambda f: f()\n  File "/home/ds-iiit/web2py/applications/Read_it/controllers/default.py", line 18, in search\n    results=db(db.Item.Heading.contains(x)).select()\n  File "/usr/lib/pymodules/python2.7/gluon/dal.py", line 6333, in select\n    return self.db._adapter.select(self.query,fields,attributes)\n  File "/usr/lib/pymodules/python2.7/gluon/dal.py", line 1274, in select\n    sql = self._select(query, fields, attributes)\n  File "/usr/lib/pymodules/python2.7/gluon/dal.py", line 1672, in _select\n    sql = super(SQLiteAdapter, self)._select(query, fields, attributes)\n  File "/usr/lib/pymodules/python2.7/gluon/dal.py", line 1175, in _select\n    sql_w = \' WHERE \' + self.expand(query)\n  File "/usr/lib/pymodules/python2.7/gluon/dal.py", line 1025, in expand\n    return expression.op(expression.first)\nTypeError: CONTAINS() takes exactly 3 arguments (2 given)\n'
p4865
s.