(dp1
S'output'
p2
S"<type 'exceptions.SyntaxError'> invalid syntax (default.py, line 95)"
p3
sS'layer'
p4
S'/home/ds-iiit/web2py/applications/Read_it/controllers/default.py'
p5
sS'code'
p6
S'# -*- coding: utf-8 -*-\n# this file is released under public domain and you can use without limitations\n\n#########################################################################\n## This is a samples controller\n## - index is the default action of any application\n## - user is required for authentication and authorization\n## - download is for downloading files uploaded in the db (does streaming)\n## - call exposes all registered services (none by default)\n#########################################################################\n\n@auth.requires_login()\ndef comments():\n\tx = request.args(0)\n\tform = SQLFORM(db.Comments,fields=[\'Comment\'],formstyle="divs",hidden=dict(ItemID=int(request.args(0))))\n\tform.vars.ItemID = int(x)\n\tresults=[]\n\tlink = db(db.Item.id == request.args(0)).select()\n\tif form.process().accepted:\n\t\tresponse.flash = "Comment posted"\n\telse:\n\t\tresponse.flash = "Please post"\n\tresults = db((db.Comments.ItemID == int(x)) & (db.Comments.AuthID == db.auth_user.id) & (db.Comments.ItemID==db.Item.id)).select(db.Comments.ALL,db.auth_user.ALL,db.Item.ALL)\n\treturn dict(form=form,results=results,link=link)\n\ndef search():\n\tresults=[]\n\tx=request.vars[\'s\']\n\tresults=db(db.Item.Heading.contains(x)).select()\n\treturn dict(results=results)\n\ndef listuser():\n\tusers = db(db.auth_user.id>1).select()\n\treturn dict(users=users)\n@auth.requires_membership(\'Admin\')\ndef addcat():\n\tform=SQLFORM(db.Category)\n\treturn dict(form=form)\n\n@auth.requires_membership(\'Admin\')\ndef removeuser():\n\tx = int(request.args(0))\n\tcrud.delete(db.auth_user,x)\n\tredirect(URL(listuser))\n\n@auth.requires_login()\ndef points():\n\tx=db((db.Rated.ItemID == request.args(0)) & (db.Rated.UserID == auth.user_id)).select()\n\tprev = 0\n\tif x:\n\t\tz=db((db.Item.id == request.args(0))).select()\n\t\tprev = x[0][\'Points\']\n\t\tz[0][\'Rating\'] = z[0][\'Rating\'] - x[0][\'Points\']\n\t\tdb((db.Rated.ItemID == request.args(0)) & (db.Rated.UserID == auth.user_id)).delete()\n\n\tx=db((db.Rated.ItemID == request.args(0)) & (db.Rated.UserID == auth.user_id)).select()\n\tprint prev\n\tif not x and (prev != int(request.args(1))):\n\t\tdb.Rated.insert(UserID=auth.user_id,ItemID=request.args(0),Points=int(request.args(1)))\n\t\tz=db((db.Item.id == request.args(0))).select()\n\t\ty = z.first()\n\t\tz[0][\'Rating\'] = z[0][\'Rating\'] + int(request.args(1))\n\t\t#db(db.Item.id == request.args(0)).update(Rating+=int(request.args(1)))\n\telse:\n\t\tredirect(URL(listall))\n\ndef listall():\n\tx = db(db.Item.id>=0).select(orderby=\'Item.Rating DESC\')\n\treturn dict(x=x)\n\n@auth.requires_login()\ndef new():\n\tform = crud.create(db.Item)\n\treturn dict(form=form)\n\n@auth.requires_login()\ndef update():\n\tform = []\n\tif db((request.args(0)==db.Item.id) & (db.Item.User == auth.user_id)).select():\n\t\tform = crud.update(db.Item,request.args(0))\n\telse:\n\t\tresponse.flash(\'Unauthorized access\')\n\t\tredirect(URL(listall))\n\treturn dict(form=form)\n\ndef delete():\n\tform = []\n\tif db((request.args(0)==db.Item.id) & (db.Item.User == auth.user_id) ).select():\n\t\tform = crud.delete(db.Item,request.args(0))\n\telse:\n\t\tredirect(URL(listall))\n\treturn dict(form=form)\n\ndef list_cat():\n\tx = db((request.args(0)==db.Category.id) & (db.Category.id == db.Item.Category)).select(db.Item.ALLdb.Item.ALL,,orderby=db.Item.Rating)\n\treturn dict(x=x)\n\ndef check_access():\n    return True if auth.is_logged_in() else False\n\ndef index():\n    """\n    example action using the internationalization operator T and flash\n    rendered by views/default/index.html or views/generic.html\n    """\n    results = db(db.Category.id>0).select()\n    posts=[]\n    comments=[]\n    if check_access():\n    \tposts = db(db.Item.User == auth.user_id).select()\n    \tcomments = db(db.Comments.AuthID == auth.user_id).select()\n#    redirect(URL("listall"))\n    return dict(posts=posts,comments=comments,results=results)\n\ndef user():\n    """\n    exposes:\n    http://..../[ap\n    \tprint "here"p]/default/user/login\n    http://..../[app]/default/user/logout\n    http://..../[app]/default/user/register\n    http://..../[app]/default/user/profile\n    http://..../[app]/default/user/retrieve_password\n    http://..../[app]/default/user/change_password\n    use @auth.requires_login()\n        @auth.requires_membership(\'group name\')\n        @auth.requires_permission(\'read\',\'table name\',record_id)\n    to decorate functions that need access control\n    """\n#    if form.process().accepted:\n#    \tdb.auth_membership.insert(user_id=auth.user_id,group_id=4)\n    return dict(form=auth())\n\n\ndef download():\n    """\n    allows downloading of uploaded files\n    http://..../[app]/default/download/[filename]\n    """\n    return response.download(request,db)\n\n\ndef call():\n    """\n    exposes services. for example:\n    http://..../[app]/default/call/jsonrpc\n    decorate with @services.jsonrpc the functions to expose\n    supports xml, json, xmlrpc, jsonrpc, amfrpc, rss, csv\n    """\n    return service()\n\n\n@auth.requires_signature()\ndef data():\n    """\n    http://..../[app]/default/data/tables\n    http://..../[app]/default/data/create/[table]\n    http://..../[app]/default/data/read/[table]/[id]\n    http://..../[app]/default/data/update/[table]/[id]\n    http://..../[app]/default/data/delete/[table]/[id]\n    http://..../[app]/default/data/select/[table]\n    http://..../[app]/default/data/search/[table]\n    but URLs must be signed, i.e. linked with\n      A(\'table\',_href=URL(\'data/tables\',user_signature=True))\n    or with the signed load operator\n      LOAD(\'default\',\'data.load\',args=\'tables\',ajax=True,user_signature=True)\n    """\n    return dict(form=crud())\n\n\nresponse._vars=response._caller(index)\n'
p7
sS'snapshot'
p8
(dp9
S'exception'
p10
(dp11
S'__getslice__'
p12
S"<method-wrapper '__getslice__' of exceptions.SyntaxError object>"
p13
sS'text'
p14
S"'\\tx = db((request.args(0)==db.Category.id) & (db....(db.Item.ALLdb.Item.ALL,,orderby=db.Item.Rating)\\n'"
p15
sS'__str__'
p16
S"<method-wrapper '__str__' of exceptions.SyntaxError object>"
p17
sS'__reduce__'
p18
S'<built-in method __reduce__ of exceptions.SyntaxError object>'
p19
sS'__dict__'
p20
S'{}'
p21
sS'__sizeof__'
p22
S'<built-in method __sizeof__ of exceptions.SyntaxError object>'
p23
sS'__init__'
p24
S"<method-wrapper '__init__' of exceptions.SyntaxError object>"
p25
sS'__setattr__'
p26
S"<method-wrapper '__setattr__' of exceptions.SyntaxError object>"
p27
sS'__reduce_ex__'
p28
S'<built-in method __reduce_ex__ of exceptions.SyntaxError object>'
p29
sS'__new__'
p30
S'<built-in method __new__ of type object>'
p31
sS'__format__'
p32
S'<built-in method __format__ of exceptions.SyntaxError object>'
p33
sS'__class__'
p34
S"<type 'exceptions.SyntaxError'>"
p35
sS'filename'
p36
S"'/home/ds-iiit/web2py/applications/Read_it/controllers/default.py'"
p37
sS'lineno'
p38
S'95'
p39
sS'msg'
p40
S"'invalid syntax'"
p41
sS'__doc__'
p42
S"'Invalid syntax.'"
p43
sS'__getitem__'
p44
S"<method-wrapper '__getitem__' of exceptions.SyntaxError object>"
p45
sS'__setstate__'
p46
S'<built-in method __setstate__ of exceptions.SyntaxError object>'
p47
sS'__getattribute__'
p48
S"<method-wrapper '__getattribute__' of exceptions.SyntaxError object>"
p49
sS'print_file_and_line'
p50
S'None'
p51
sS'args'
p52
S"('invalid syntax', ('/home/ds-iiit/web2py/applications/Read_it/controllers/default.py', 95, 113, '\\tx = db((request.args(0)==db.Category.id) & (db....(db.Item.ALLdb.Item.ALL,,orderby=db.Item.Rating)\\n'))"
p53
sS'__subclasshook__'
p54
S'<built-in method __subclasshook__ of type object>'
p55
sS'offset'
p56
S'113'
p57
sS'__unicode__'
p58
S'<built-in method __unicode__ of exceptions.SyntaxError object>'
p59
sS'__delattr__'
p60
S"<method-wrapper '__delattr__' of exceptions.SyntaxError object>"
p61
sS'__repr__'
p62
S"<method-wrapper '__repr__' of exceptions.SyntaxError object>"
p63
sS'__hash__'
p64
S"<method-wrapper '__hash__' of exceptions.SyntaxError object>"
p65
ssS'evalue'
p66
S'invalid syntax (default.py, line 95)'
p67
sS'request'
p68
ccopy_reg
_reconstructor
p69
(cgluon.html
BEAUTIFY
p70
c__builtin__
object
p71
NtRp72
(dp73
S'attributes'
p74
(dp75
sS'components'
p76
(lp77
g69
(cgluon.html
TABLE
p78
g71
NtRp79
(dp80
g74
(dp81
S'level'
p82
I5
ssS'parent'
p83
Nsg76
(lp84
g69
(cgluon.html
TR
p85
g71
NtRp86
(dp87
g74
(dp88
sg83
g79
sg76
(lp89
g69
(cgluon.html
TD
p90
g71
NtRp91
(dp92
g74
(dp93
S'_style'
p94
S'font-weight:bold;vertical-align:top'
p95
ssg83
g86
sg76
(lp96
S'ajax'
p97
asbag69
(g90
g71
NtRp98
(dp99
g74
(dp100
S'_valign'
p101
S'top'
p102
ssg83
g86
sg76
(lp103
S':'
asbag69
(g90
g71
NtRp104
(dp105
g74
(dp106
sg83
g86
sg76
(lp107
g69
(g70
g71
NtRp108
(dp109
g74
(dp110
g82
I5
ssg83
g104
sg76
(lp111
S'False'
p112
asbasbasbag69
(g85
g71
NtRp113
(dp114
g74
(dp115
sg83
g79
sg76
(lp116
g69
(g90
g71
NtRp117
(dp118
g74
(dp119
g94
g95
ssg83
g113
sg76
(lp120
S'application'
p121
asbag69
(g90
g71
NtRp122
(dp123
g74
(dp124
g101
g102
ssg83
g113
sg76
(lp125
S':'
asbag69
(g90
g71
NtRp126
(dp127
g74
(dp128
sg83
g113
sg76
(lp129
g69
(g70
g71
NtRp130
(dp131
g74
(dp132
g82
I5
ssg83
g126
sg76
(lp133
S'Read_it'
p134
asbasbasbag69
(g85
g71
NtRp135
(dp136
g74
(dp137
sg83
g79
sg76
(lp138
g69
(g90
g71
NtRp139
(dp140
g74
(dp141
g94
g95
ssg83
g135
sg76
(lp142
g52
asbag69
(g90
g71
NtRp143
(dp144
g74
(dp145
g101
g102
ssg83
g135
sg76
(lp146
S':'
asbag69
(g90
g71
NtRp147
(dp148
g74
(dp149
sg83
g135
sg76
(lp150
g69
(g70
g71
NtRp151
(dp152
g74
(dp153
g82
I5
ssg83
g147
sg76
(lp154
g69
(g78
g71
NtRp155
(dp156
g74
(dp157
g82
I4
ssg83
Nsg76
(lp158
sbasbasbasbag69
(g85
g71
NtRp159
(dp160
g74
(dp161
sg83
g79
sg76
(lp162
g69
(g90
g71
NtRp163
(dp164
g74
(dp165
g94
g95
ssg83
g159
sg76
(lp166
S'body'
p167
asbag69
(g90
g71
NtRp168
(dp169
g74
(dp170
g101
g102
ssg83
g159
sg76
(lp171
S':'
asbag69
(g90
g71
NtRp172
(dp173
g74
(dp174
sg83
g159
sg76
(lp175
g69
(g70
g71
NtRp176
(dp177
g74
(dp178
g82
I5
ssg83
g172
sg76
(lp179
S'<cStringIO.StringO object at 0x7f04201e1d50>'
p180
asbasbasbag69
(g85
g71
NtRp181
(dp182
g74
(dp183
sg83
g79
sg76
(lp184
g69
(g90
g71
NtRp185
(dp186
g74
(dp187
g94
g95
ssg83
g181
sg76
(lp188
S'client'
p189
asbag69
(g90
g71
NtRp190
(dp191
g74
(dp192
g101
g102
ssg83
g181
sg76
(lp193
S':'
asbag69
(g90
g71
NtRp194
(dp195
g74
(dp196
sg83
g181
sg76
(lp197
g69
(g70
g71
NtRp198
(dp199
g74
(dp200
g82
I5
ssg83
g194
sg76
(lp201
S'127.0.0.1'
p202
asbasbasbag69
(g85
g71
NtRp203
(dp204
g74
(dp205
sg83
g79
sg76
(lp206
g69
(g90
g71
NtRp207
(dp208
g74
(dp209
g94
g95
ssg83
g203
sg76
(lp210
S'controller'
p211
asbag69
(g90
g71
NtRp212
(dp213
g74
(dp214
g101
g102
ssg83
g203
sg76
(lp215
S':'
asbag69
(g90
g71
NtRp216
(dp217
g74
(dp218
sg83
g203
sg76
(lp219
g69
(g70
g71
NtRp220
(dp221
g74
(dp222
g82
I5
ssg83
g216
sg76
(lp223
S'default'
p224
asbasbasbag69
(g85
g71
NtRp225
(dp226
g74
(dp227
sg83
g79
sg76
(lp228
g69
(g90
g71
NtRp229
(dp230
g74
(dp231
g94
g95
ssg83
g225
sg76
(lp232
S'cookies'
p233
asbag69
(g90
g71
NtRp234
(dp235
g74
(dp236
g101
g102
ssg83
g225
sg76
(lp237
S':'
asbag69
(g90
g71
NtRp238
(dp239
g74
(dp240
sg83
g225
sg76
(lp241
g69
(g70
g71
NtRp242
(dp243
g74
(dp244
g82
I5
ssg83
g238
sg76
(lp245
g69
(g78
g71
NtRp246
(dp247
g74
(dp248
g82
I4
ssg83
Nsg76
(lp249
g69
(g85
g71
NtRp250
(dp251
g74
(dp252
sg83
g246
sg76
(lp253
g69
(g90
g71
NtRp254
(dp255
g74
(dp256
g94
g95
ssg83
g250
sg76
(lp257
S'session_id_admin'
p258
asbag69
(g90
g71
NtRp259
(dp260
g74
(dp261
g101
g102
ssg83
g250
sg76
(lp262
S':'
asbag69
(g90
g71
NtRp263
(dp264
g74
(dp265
sg83
g250
sg76
(lp266
g69
(g70
g71
NtRp267
(dp268
g74
(dp269
g82
I4
ssg83
g263
sg76
(lp270
g69
(g78
g71
NtRp271
(dp272
g74
(dp273
g82
I3
ssg83
Nsg76
(lp274
g69
(g85
g71
NtRp275
(dp276
g74
(dp277
sg83
g271
sg76
(lp278
g69
(g90
g71
NtRp279
(dp280
g74
(dp281
g94
g95
ssg83
g275
sg76
(lp282
S'comment'
p283
asbag69
(g90
g71
NtRp284
(dp285
g74
(dp286
g101
g102
ssg83
g275
sg76
(lp287
S':'
asbag69
(g90
g71
NtRp288
(dp289
g74
(dp290
sg83
g275
sg76
(lp291
g69
(g70
g71
NtRp292
(dp293
g74
(dp294
g82
I3
ssg83
g288
sg76
(lp295
S''
asbasbasbag69
(g85
g71
NtRp296
(dp297
g74
(dp298
sg83
g271
sg76
(lp299
g69
(g90
g71
NtRp300
(dp301
g74
(dp302
g94
g95
ssg83
g296
sg76
(lp303
S'domain'
p304
asbag69
(g90
g71
NtRp305
(dp306
g74
(dp307
g101
g102
ssg83
g296
sg76
(lp308
S':'
asbag69
(g90
g71
NtRp309
(dp310
g74
(dp311
sg83
g296
sg76
(lp312
g69
(g70
g71
NtRp313
(dp314
g74
(dp315
g82
I3
ssg83
g309
sg76
(lp316
S''
asbasbasbag69
(g85
g71
NtRp317
(dp318
g74
(dp319
sg83
g271
sg76
(lp320
g69
(g90
g71
NtRp321
(dp322
g74
(dp323
g94
g95
ssg83
g317
sg76
(lp324
S'expires'
p325
asbag69
(g90
g71
NtRp326
(dp327
g74
(dp328
g101
g102
ssg83
g317
sg76
(lp329
S':'
asbag69
(g90
g71
NtRp330
(dp331
g74
(dp332
sg83
g317
sg76
(lp333
g69
(g70
g71
NtRp334
(dp335
g74
(dp336
g82
I3
ssg83
g330
sg76
(lp337
S''
asbasbasbag69
(g85
g71
NtRp338
(dp339
g74
(dp340
sg83
g271
sg76
(lp341
g69
(g90
g71
NtRp342
(dp343
g74
(dp344
g94
g95
ssg83
g338
sg76
(lp345
S'httponly'
p346
asbag69
(g90
g71
NtRp347
(dp348
g74
(dp349
g101
g102
ssg83
g338
sg76
(lp350
S':'
asbag69
(g90
g71
NtRp351
(dp352
g74
(dp353
sg83
g338
sg76
(lp354
g69
(g70
g71
NtRp355
(dp356
g74
(dp357
g82
I3
ssg83
g351
sg76
(lp358
S''
asbasbasbag69
(g85
g71
NtRp359
(dp360
g74
(dp361
sg83
g271
sg76
(lp362
g69
(g90
g71
NtRp363
(dp364
g74
(dp365
g94
g95
ssg83
g359
sg76
(lp366
S'max-age'
p367
asbag69
(g90
g71
NtRp368
(dp369
g74
(dp370
g101
g102
ssg83
g359
sg76
(lp371
S':'
asbag69
(g90
g71
NtRp372
(dp373
g74
(dp374
sg83
g359
sg76
(lp375
g69
(g70
g71
NtRp376
(dp377
g74
(dp378
g82
I3
ssg83
g372
sg76
(lp379
S''
asbasbasbag69
(g85
g71
NtRp380
(dp381
g74
(dp382
sg83
g271
sg76
(lp383
g69
(g90
g71
NtRp384
(dp385
g74
(dp386
g94
g95
ssg83
g380
sg76
(lp387
S'path'
p388
asbag69
(g90
g71
NtRp389
(dp390
g74
(dp391
g101
g102
ssg83
g380
sg76
(lp392
S':'
asbag69
(g90
g71
NtRp393
(dp394
g74
(dp395
sg83
g380
sg76
(lp396
g69
(g70
g71
NtRp397
(dp398
g74
(dp399
g82
I3
ssg83
g393
sg76
(lp400
S''
asbasbasbag69
(g85
g71
NtRp401
(dp402
g74
(dp403
sg83
g271
sg76
(lp404
g69
(g90
g71
NtRp405
(dp406
g74
(dp407
g94
g95
ssg83
g401
sg76
(lp408
S'secure'
p409
asbag69
(g90
g71
NtRp410
(dp411
g74
(dp412
g101
g102
ssg83
g401
sg76
(lp413
S':'
asbag69
(g90
g71
NtRp414
(dp415
g74
(dp416
sg83
g401
sg76
(lp417
g69
(g70
g71
NtRp418
(dp419
g74
(dp420
g82
I3
ssg83
g414
sg76
(lp421
S''
asbasbasbag69
(g85
g71
NtRp422
(dp423
g74
(dp424
sg83
g271
sg76
(lp425
g69
(g90
g71
NtRp426
(dp427
g74
(dp428
g94
g95
ssg83
g422
sg76
(lp429
S'version'
p430
asbag69
(g90
g71
NtRp431
(dp432
g74
(dp433
g101
g102
ssg83
g422
sg76
(lp434
S':'
asbag69
(g90
g71
NtRp435
(dp436
g74
(dp437
sg83
g422
sg76
(lp438
g69
(g70
g71
NtRp439
(dp440
g74
(dp441
g82
I3
ssg83
g435
sg76
(lp442
S''
asbasbasbasbasbasbasbag69
(g85
g71
NtRp443
(dp444
g74
(dp445
sg83
g246
sg76
(lp446
g69
(g90
g71
NtRp447
(dp448
g74
(dp449
g94
g95
ssg83
g443
sg76
(lp450
S'session_id_read_it'
p451
asbag69
(g90
g71
NtRp452
(dp453
g74
(dp454
g101
g102
ssg83
g443
sg76
(lp455
S':'
asbag69
(g90
g71
NtRp456
(dp457
g74
(dp458
sg83
g443
sg76
(lp459
g69
(g70
g71
NtRp460
(dp461
g74
(dp462
g82
I4
ssg83
g456
sg76
(lp463
g69
(g78
g71
NtRp464
(dp465
g74
(dp466
g82
I3
ssg83
Nsg76
(lp467
g69
(g85
g71
NtRp468
(dp469
g74
(dp470
sg83
g464
sg76
(lp471
g69
(g90
g71
NtRp472
(dp473
g74
(dp474
g94
g95
ssg83
g468
sg76
(lp475
g283
asbag69
(g90
g71
NtRp476
(dp477
g74
(dp478
g101
g102
ssg83
g468
sg76
(lp479
S':'
asbag69
(g90
g71
NtRp480
(dp481
g74
(dp482
sg83
g468
sg76
(lp483
g69
(g70
g71
NtRp484
(dp485
g74
(dp486
g82
I3
ssg83
g480
sg76
(lp487
S''
asbasbasbag69
(g85
g71
NtRp488
(dp489
g74
(dp490
sg83
g464
sg76
(lp491
g69
(g90
g71
NtRp492
(dp493
g74
(dp494
g94
g95
ssg83
g488
sg76
(lp495
g304
asbag69
(g90
g71
NtRp496
(dp497
g74
(dp498
g101
g102
ssg83
g488
sg76
(lp499
S':'
asbag69
(g90
g71
NtRp500
(dp501
g74
(dp502
sg83
g488
sg76
(lp503
g69
(g70
g71
NtRp504
(dp505
g74
(dp506
g82
I3
ssg83
g500
sg76
(lp507
S''
asbasbasbag69
(g85
g71
NtRp508
(dp509
g74
(dp510
sg83
g464
sg76
(lp511
g69
(g90
g71
NtRp512
(dp513
g74
(dp514
g94
g95
ssg83
g508
sg76
(lp515
g325
asbag69
(g90
g71
NtRp516
(dp517
g74
(dp518
g101
g102
ssg83
g508
sg76
(lp519
S':'
asbag69
(g90
g71
NtRp520
(dp521
g74
(dp522
sg83
g508
sg76
(lp523
g69
(g70
g71
NtRp524
(dp525
g74
(dp526
g82
I3
ssg83
g520
sg76
(lp527
S''
asbasbasbag69
(g85
g71
NtRp528
(dp529
g74
(dp530
sg83
g464
sg76
(lp531
g69
(g90
g71
NtRp532
(dp533
g74
(dp534
g94
g95
ssg83
g528
sg76
(lp535
g346
asbag69
(g90
g71
NtRp536
(dp537
g74
(dp538
g101
g102
ssg83
g528
sg76
(lp539
S':'
asbag69
(g90
g71
NtRp540
(dp541
g74
(dp542
sg83
g528
sg76
(lp543
g69
(g70
g71
NtRp544
(dp545
g74
(dp546
g82
I3
ssg83
g540
sg76
(lp547
S''
asbasbasbag69
(g85
g71
NtRp548
(dp549
g74
(dp550
sg83
g464
sg76
(lp551
g69
(g90
g71
NtRp552
(dp553
g74
(dp554
g94
g95
ssg83
g548
sg76
(lp555
g367
asbag69
(g90
g71
NtRp556
(dp557
g74
(dp558
g101
g102
ssg83
g548
sg76
(lp559
S':'
asbag69
(g90
g71
NtRp560
(dp561
g74
(dp562
sg83
g548
sg76
(lp563
g69
(g70
g71
NtRp564
(dp565
g74
(dp566
g82
I3
ssg83
g560
sg76
(lp567
S''
asbasbasbag69
(g85
g71
NtRp568
(dp569
g74
(dp570
sg83
g464
sg76
(lp571
g69
(g90
g71
NtRp572
(dp573
g74
(dp574
g94
g95
ssg83
g568
sg76
(lp575
g388
asbag69
(g90
g71
NtRp576
(dp577
g74
(dp578
g101
g102
ssg83
g568
sg76
(lp579
S':'
asbag69
(g90
g71
NtRp580
(dp581
g74
(dp582
sg83
g568
sg76
(lp583
g69
(g70
g71
NtRp584
(dp585
g74
(dp586
g82
I3
ssg83
g580
sg76
(lp587
S''
asbasbasbag69
(g85
g71
NtRp588
(dp589
g74
(dp590
sg83
g464
sg76
(lp591
g69
(g90
g71
NtRp592
(dp593
g74
(dp594
g94
g95
ssg83
g588
sg76
(lp595
g409
asbag69
(g90
g71
NtRp596
(dp597
g74
(dp598
g101
g102
ssg83
g588
sg76
(lp599
S':'
asbag69
(g90
g71
NtRp600
(dp601
g74
(dp602
sg83
g588
sg76
(lp603
g69
(g70
g71
NtRp604
(dp605
g74
(dp606
g82
I3
ssg83
g600
sg76
(lp607
S''
asbasbasbag69
(g85
g71
NtRp608
(dp609
g74
(dp610
sg83
g464
sg76
(lp611
g69
(g90
g71
NtRp612
(dp613
g74
(dp614
g94
g95
ssg83
g608
sg76
(lp615
g430
asbag69
(g90
g71
NtRp616
(dp617
g74
(dp618
g101
g102
ssg83
g608
sg76
(lp619
S':'
asbag69
(g90
g71
NtRp620
(dp621
g74
(dp622
sg83
g608
sg76
(lp623
g69
(g70
g71
NtRp624
(dp625
g74
(dp626
g82
I3
ssg83
g620
sg76
(lp627
S''
asbasbasbasbasbasbasbag69
(g85
g71
NtRp628
(dp629
g74
(dp630
sg83
g246
sg76
(lp631
g69
(g90
g71
NtRp632
(dp633
g74
(dp634
g94
g95
ssg83
g628
sg76
(lp635
S'session_id_welcome'
p636
asbag69
(g90
g71
NtRp637
(dp638
g74
(dp639
g101
g102
ssg83
g628
sg76
(lp640
S':'
asbag69
(g90
g71
NtRp641
(dp642
g74
(dp643
sg83
g628
sg76
(lp644
g69
(g70
g71
NtRp645
(dp646
g74
(dp647
g82
I4
ssg83
g641
sg76
(lp648
g69
(g78
g71
NtRp649
(dp650
g74
(dp651
g82
I3
ssg83
Nsg76
(lp652
g69
(g85
g71
NtRp653
(dp654
g74
(dp655
sg83
g649
sg76
(lp656
g69
(g90
g71
NtRp657
(dp658
g74
(dp659
g94
g95
ssg83
g653
sg76
(lp660
g283
asbag69
(g90
g71
NtRp661
(dp662
g74
(dp663
g101
g102
ssg83
g653
sg76
(lp664
S':'
asbag69
(g90
g71
NtRp665
(dp666
g74
(dp667
sg83
g653
sg76
(lp668
g69
(g70
g71
NtRp669
(dp670
g74
(dp671
g82
I3
ssg83
g665
sg76
(lp672
S''
asbasbasbag69
(g85
g71
NtRp673
(dp674
g74
(dp675
sg83
g649
sg76
(lp676
g69
(g90
g71
NtRp677
(dp678
g74
(dp679
g94
g95
ssg83
g673
sg76
(lp680
g304
asbag69
(g90
g71
NtRp681
(dp682
g74
(dp683
g101
g102
ssg83
g673
sg76
(lp684
S':'
asbag69
(g90
g71
NtRp685
(dp686
g74
(dp687
sg83
g673
sg76
(lp688
g69
(g70
g71
NtRp689
(dp690
g74
(dp691
g82
I3
ssg83
g685
sg76
(lp692
S''
asbasbasbag69
(g85
g71
NtRp693
(dp694
g74
(dp695
sg83
g649
sg76
(lp696
g69
(g90
g71
NtRp697
(dp698
g74
(dp699
g94
g95
ssg83
g693
sg76
(lp700
g325
asbag69
(g90
g71
NtRp701
(dp702
g74
(dp703
g101
g102
ssg83
g693
sg76
(lp704
S':'
asbag69
(g90
g71
NtRp705
(dp706
g74
(dp707
sg83
g693
sg76
(lp708
g69
(g70
g71
NtRp709
(dp710
g74
(dp711
g82
I3
ssg83
g705
sg76
(lp712
S''
asbasbasbag69
(g85
g71
NtRp713
(dp714
g74
(dp715
sg83
g649
sg76
(lp716
g69
(g90
g71
NtRp717
(dp718
g74
(dp719
g94
g95
ssg83
g713
sg76
(lp720
g346
asbag69
(g90
g71
NtRp721
(dp722
g74
(dp723
g101
g102
ssg83
g713
sg76
(lp724
S':'
asbag69
(g90
g71
NtRp725
(dp726
g74
(dp727
sg83
g713
sg76
(lp728
g69
(g70
g71
NtRp729
(dp730
g74
(dp731
g82
I3
ssg83
g725
sg76
(lp732
S''
asbasbasbag69
(g85
g71
NtRp733
(dp734
g74
(dp735
sg83
g649
sg76
(lp736
g69
(g90
g71
NtRp737
(dp738
g74
(dp739
g94
g95
ssg83
g733
sg76
(lp740
g367
asbag69
(g90
g71
NtRp741
(dp742
g74
(dp743
g101
g102
ssg83
g733
sg76
(lp744
S':'
asbag69
(g90
g71
NtRp745
(dp746
g74
(dp747
sg83
g733
sg76
(lp748
g69
(g70
g71
NtRp749
(dp750
g74
(dp751
g82
I3
ssg83
g745
sg76
(lp752
S''
asbasbasbag69
(g85
g71
NtRp753
(dp754
g74
(dp755
sg83
g649
sg76
(lp756
g69
(g90
g71
NtRp757
(dp758
g74
(dp759
g94
g95
ssg83
g753
sg76
(lp760
g388
asbag69
(g90
g71
NtRp761
(dp762
g74
(dp763
g101
g102
ssg83
g753
sg76
(lp764
S':'
asbag69
(g90
g71
NtRp765
(dp766
g74
(dp767
sg83
g753
sg76
(lp768
g69
(g70
g71
NtRp769
(dp770
g74
(dp771
g82
I3
ssg83
g765
sg76
(lp772
S''
asbasbasbag69
(g85
g71
NtRp773
(dp774
g74
(dp775
sg83
g649
sg76
(lp776
g69
(g90
g71
NtRp777
(dp778
g74
(dp779
g94
g95
ssg83
g773
sg76
(lp780
g409
asbag69
(g90
g71
NtRp781
(dp782
g74
(dp783
g101
g102
ssg83
g773
sg76
(lp784
S':'
asbag69
(g90
g71
NtRp785
(dp786
g74
(dp787
sg83
g773
sg76
(lp788
g69
(g70
g71
NtRp789
(dp790
g74
(dp791
g82
I3
ssg83
g785
sg76
(lp792
S''
asbasbasbag69
(g85
g71
NtRp793
(dp794
g74
(dp795
sg83
g649
sg76
(lp796
g69
(g90
g71
NtRp797
(dp798
g74
(dp799
g94
g95
ssg83
g793
sg76
(lp800
g430
asbag69
(g90
g71
NtRp801
(dp802
g74
(dp803
g101
g102
ssg83
g793
sg76
(lp804
S':'
asbag69
(g90
g71
NtRp805
(dp806
g74
(dp807
sg83
g793
sg76
(lp808
g69
(g70
g71
NtRp809
(dp810
g74
(dp811
g82
I3
ssg83
g805
sg76
(lp812
S''
asbasbasbasbasbasbasbag69
(g85
g71
NtRp813
(dp814
g74
(dp815
sg83
g246
sg76
(lp816
g69
(g90
g71
NtRp817
(dp818
g74
(dp819
g94
g95
ssg83
g813
sg76
(lp820
S'session_id_xseed'
p821
asbag69
(g90
g71
NtRp822
(dp823
g74
(dp824
g101
g102
ssg83
g813
sg76
(lp825
S':'
asbag69
(g90
g71
NtRp826
(dp827
g74
(dp828
sg83
g813
sg76
(lp829
g69
(g70
g71
NtRp830
(dp831
g74
(dp832
g82
I4
ssg83
g826
sg76
(lp833
g69
(g78
g71
NtRp834
(dp835
g74
(dp836
g82
I3
ssg83
Nsg76
(lp837
g69
(g85
g71
NtRp838
(dp839
g74
(dp840
sg83
g834
sg76
(lp841
g69
(g90
g71
NtRp842
(dp843
g74
(dp844
g94
g95
ssg83
g838
sg76
(lp845
g283
asbag69
(g90
g71
NtRp846
(dp847
g74
(dp848
g101
g102
ssg83
g838
sg76
(lp849
S':'
asbag69
(g90
g71
NtRp850
(dp851
g74
(dp852
sg83
g838
sg76
(lp853
g69
(g70
g71
NtRp854
(dp855
g74
(dp856
g82
I3
ssg83
g850
sg76
(lp857
S''
asbasbasbag69
(g85
g71
NtRp858
(dp859
g74
(dp860
sg83
g834
sg76
(lp861
g69
(g90
g71
NtRp862
(dp863
g74
(dp864
g94
g95
ssg83
g858
sg76
(lp865
g304
asbag69
(g90
g71
NtRp866
(dp867
g74
(dp868
g101
g102
ssg83
g858
sg76
(lp869
S':'
asbag69
(g90
g71
NtRp870
(dp871
g74
(dp872
sg83
g858
sg76
(lp873
g69
(g70
g71
NtRp874
(dp875
g74
(dp876
g82
I3
ssg83
g870
sg76
(lp877
S''
asbasbasbag69
(g85
g71
NtRp878
(dp879
g74
(dp880
sg83
g834
sg76
(lp881
g69
(g90
g71
NtRp882
(dp883
g74
(dp884
g94
g95
ssg83
g878
sg76
(lp885
g325
asbag69
(g90
g71
NtRp886
(dp887
g74
(dp888
g101
g102
ssg83
g878
sg76
(lp889
S':'
asbag69
(g90
g71
NtRp890
(dp891
g74
(dp892
sg83
g878
sg76
(lp893
g69
(g70
g71
NtRp894
(dp895
g74
(dp896
g82
I3
ssg83
g890
sg76
(lp897
S''
asbasbasbag69
(g85
g71
NtRp898
(dp899
g74
(dp900
sg83
g834
sg76
(lp901
g69
(g90
g71
NtRp902
(dp903
g74
(dp904
g94
g95
ssg83
g898
sg76
(lp905
g346
asbag69
(g90
g71
NtRp906
(dp907
g74
(dp908
g101
g102
ssg83
g898
sg76
(lp909
S':'
asbag69
(g90
g71
NtRp910
(dp911
g74
(dp912
sg83
g898
sg76
(lp913
g69
(g70
g71
NtRp914
(dp915
g74
(dp916
g82
I3
ssg83
g910
sg76
(lp917
S''
asbasbasbag69
(g85
g71
NtRp918
(dp919
g74
(dp920
sg83
g834
sg76
(lp921
g69
(g90
g71
NtRp922
(dp923
g74
(dp924
g94
g95
ssg83
g918
sg76
(lp925
g367
asbag69
(g90
g71
NtRp926
(dp927
g74
(dp928
g101
g102
ssg83
g918
sg76
(lp929
S':'
asbag69
(g90
g71
NtRp930
(dp931
g74
(dp932
sg83
g918
sg76
(lp933
g69
(g70
g71
NtRp934
(dp935
g74
(dp936
g82
I3
ssg83
g930
sg76
(lp937
S''
asbasbasbag69
(g85
g71
NtRp938
(dp939
g74
(dp940
sg83
g834
sg76
(lp941
g69
(g90
g71
NtRp942
(dp943
g74
(dp944
g94
g95
ssg83
g938
sg76
(lp945
g388
asbag69
(g90
g71
NtRp946
(dp947
g74
(dp948
g101
g102
ssg83
g938
sg76
(lp949
S':'
asbag69
(g90
g71
NtRp950
(dp951
g74
(dp952
sg83
g938
sg76
(lp953
g69
(g70
g71
NtRp954
(dp955
g74
(dp956
g82
I3
ssg83
g950
sg76
(lp957
S''
asbasbasbag69
(g85
g71
NtRp958
(dp959
g74
(dp960
sg83
g834
sg76
(lp961
g69
(g90
g71
NtRp962
(dp963
g74
(dp964
g94
g95
ssg83
g958
sg76
(lp965
g409
asbag69
(g90
g71
NtRp966
(dp967
g74
(dp968
g101
g102
ssg83
g958
sg76
(lp969
S':'
asbag69
(g90
g71
NtRp970
(dp971
g74
(dp972
sg83
g958
sg76
(lp973
g69
(g70
g71
NtRp974
(dp975
g74
(dp976
g82
I3
ssg83
g970
sg76
(lp977
S''
asbasbasbag69
(g85
g71
NtRp978
(dp979
g74
(dp980
sg83
g834
sg76
(lp981
g69
(g90
g71
NtRp982
(dp983
g74
(dp984
g94
g95
ssg83
g978
sg76
(lp985
g430
asbag69
(g90
g71
NtRp986
(dp987
g74
(dp988
g101
g102
ssg83
g978
sg76
(lp989
S':'
asbag69
(g90
g71
NtRp990
(dp991
g74
(dp992
sg83
g978
sg76
(lp993
g69
(g70
g71
NtRp994
(dp995
g74
(dp996
g82
I3
ssg83
g990
sg76
(lp997
S''
asbasbasbasbasbasbasbasbasbasbasbag69
(g85
g71
NtRp998
(dp999
g74
(dp1000
sg83
g79
sg76
(lp1001
g69
(g90
g71
NtRp1002
(dp1003
g74
(dp1004
g94
g95
ssg83
g998
sg76
(lp1005
S'env'
p1006
asbag69
(g90
g71
NtRp1007
(dp1008
g74
(dp1009
g101
g102
ssg83
g998
sg76
(lp1010
S':'
asbag69
(g90
g71
NtRp1011
(dp1012
g74
(dp1013
sg83
g998
sg76
(lp1014
g69
(g70
g71
NtRp1015
(dp1016
g74
(dp1017
g82
I5
ssg83
g1011
sg76
(lp1018
g69
(g78
g71
NtRp1019
(dp1020
g74
(dp1021
g82
I4
ssg83
Nsg76
(lp1022
g69
(g85
g71
NtRp1023
(dp1024
g74
(dp1025
sg83
g1019
sg76
(lp1026
g69
(g90
g71
NtRp1027
(dp1028
g74
(dp1029
g94
g95
ssg83
g1023
sg76
(lp1030
S'app_folders'
p1031
asbag69
(g90
g71
NtRp1032
(dp1033
g74
(dp1034
g101
g102
ssg83
g1023
sg76
(lp1035
S':'
asbag69
(g90
g71
NtRp1036
(dp1037
g74
(dp1038
sg83
g1023
sg76
(lp1039
g69
(g70
g71
NtRp1040
(dp1041
g74
(dp1042
g82
I4
ssg83
g1036
sg76
(lp1043
S"set(['/home/ds-iiit/web2py/applications/Read_it/', '/home/ds-iiit/web2py/applications/welcome/', '/home/ds-iiit/web2py/applications/admin/', '/home/ds-iiit/web2py/applications/XSeed/'])"
p1044
asbasbasbag69
(g85
g71
NtRp1045
(dp1046
g74
(dp1047
sg83
g1019
sg76
(lp1048
g69
(g90
g71
NtRp1049
(dp1050
g74
(dp1051
g94
g95
ssg83
g1045
sg76
(lp1052
S'applications_parent'
p1053
asbag69
(g90
g71
NtRp1054
(dp1055
g74
(dp1056
g101
g102
ssg83
g1045
sg76
(lp1057
S':'
asbag69
(g90
g71
NtRp1058
(dp1059
g74
(dp1060
sg83
g1045
sg76
(lp1061
g69
(g70
g71
NtRp1062
(dp1063
g74
(dp1064
g82
I4
ssg83
g1058
sg76
(lp1065
S'/home/ds-iiit/web2py'
p1066
asbasbasbag69
(g85
g71
NtRp1067
(dp1068
g74
(dp1069
sg83
g1019
sg76
(lp1070
g69
(g90
g71
NtRp1071
(dp1072
g74
(dp1073
g94
g95
ssg83
g1067
sg76
(lp1074
S'cmd_args'
p1075
asbag69
(g90
g71
NtRp1076
(dp1077
g74
(dp1078
g101
g102
ssg83
g1067
sg76
(lp1079
S':'
asbag69
(g90
g71
NtRp1080
(dp1081
g74
(dp1082
sg83
g1067
sg76
(lp1083
g69
(g70
g71
NtRp1084
(dp1085
g74
(dp1086
g82
I4
ssg83
g1080
sg76
(lp1087
g69
(g78
g71
NtRp1088
(dp1089
g74
(dp1090
g82
I3
ssg83
Nsg76
(lp1091
sbasbasbasbag69
(g85
g71
NtRp1092
(dp1093
g74
(dp1094
sg83
g1019
sg76
(lp1095
g69
(g90
g71
NtRp1096
(dp1097
g74
(dp1098
g94
g95
ssg83
g1092
sg76
(lp1099
S'cmd_options'
p1100
asbag69
(g90
g71
NtRp1101
(dp1102
g74
(dp1103
g101
g102
ssg83
g1092
sg76
(lp1104
S':'
asbag69
(g90
g71
NtRp1105
(dp1106
g74
(dp1107
sg83
g1092
sg76
(lp1108
g69
(g70
g71
NtRp1109
(dp1110
g74
(dp1111
g82
I4
ssg83
g1105
sg76
(lp1112
S"<Values at 0x2259f80: {'verbose': False, 'ip': '127.0.0.1', 'shutdown_timeout': 5, 'taskbar': False, 'port': 8000, 'maxthreads': None, 'softcron': False, 'server_name': 'DS-IIIT', 'bpython': False, 'nogui': False, 'nocron': False, 'extcron': False, 'debuglevel': 30, 'test': None, 'folder': '/home/ds-iiit/web2py', 'config': '', 'import_models': False, 'winservice': '', 'shell': None, 'run': '', 'log_filename': 'httpserver.log', 'args': [''], 'socket_timeout': 1, 'profiler_filename': None, 'ssl_private_key': '', 'password': '<ask>', 'request_queue_size': 5, 'ssl_certificate': '', 'cronjob': False, 'plain': False, 'quiet': False, 'interfaces': None, 'minthreads': None, 'timeout': 10, 'numthreads': None, 'nobanner': False, 'pid_filename': 'httpserver.pid'}>"
p1113
asbasbasbag69
(g85
g71
NtRp1114
(dp1115
g74
(dp1116
sg83
g1019
sg76
(lp1117
g69
(g90
g71
NtRp1118
(dp1119
g74
(dp1120
g94
g95
ssg83
g1114
sg76
(lp1121
S'db_sessions'
p1122
asbag69
(g90
g71
NtRp1123
(dp1124
g74
(dp1125
g101
g102
ssg83
g1114
sg76
(lp1126
S':'
asbag69
(g90
g71
NtRp1127
(dp1128
g74
(dp1129
sg83
g1114
sg76
(lp1130
g69
(g70
g71
NtRp1131
(dp1132
g74
(dp1133
g82
I4
ssg83
g1127
sg76
(lp1134
S'set([])'
p1135
asbasbasbag69
(g85
g71
NtRp1136
(dp1137
g74
(dp1138
sg83
g1019
sg76
(lp1139
g69
(g90
g71
NtRp1140
(dp1141
g74
(dp1142
g94
g95
ssg83
g1136
sg76
(lp1143
S'debugging'
p1144
asbag69
(g90
g71
NtRp1145
(dp1146
g74
(dp1147
g101
g102
ssg83
g1136
sg76
(lp1148
S':'
asbag69
(g90
g71
NtRp1149
(dp1150
g74
(dp1151
sg83
g1136
sg76
(lp1152
g69
(g70
g71
NtRp1153
(dp1154
g74
(dp1155
g82
I4
ssg83
g1149
sg76
(lp1156
g112
asbasbasbag69
(g85
g71
NtRp1157
(dp1158
g74
(dp1159
sg83
g1019
sg76
(lp1160
g69
(g90
g71
NtRp1161
(dp1162
g74
(dp1163
g94
g95
ssg83
g1157
sg76
(lp1164
S'gluon_parent'
p1165
asbag69
(g90
g71
NtRp1166
(dp1167
g74
(dp1168
g101
g102
ssg83
g1157
sg76
(lp1169
S':'
asbag69
(g90
g71
NtRp1170
(dp1171
g74
(dp1172
sg83
g1157
sg76
(lp1173
g69
(g70
g71
NtRp1174
(dp1175
g74
(dp1176
g82
I4
ssg83
g1170
sg76
(lp1177
S'/usr/share/web2py'
p1178
asbasbasbag69
(g85
g71
NtRp1179
(dp1180
g74
(dp1181
sg83
g1019
sg76
(lp1182
g69
(g90
g71
NtRp1183
(dp1184
g74
(dp1185
g94
g95
ssg83
g1179
sg76
(lp1186
S'http_accept'
p1187
asbag69
(g90
g71
NtRp1188
(dp1189
g74
(dp1190
g101
g102
ssg83
g1179
sg76
(lp1191
S':'
asbag69
(g90
g71
NtRp1192
(dp1193
g74
(dp1194
sg83
g1179
sg76
(lp1195
g69
(g70
g71
NtRp1196
(dp1197
g74
(dp1198
g82
I4
ssg83
g1192
sg76
(lp1199
S'text/html,application/xhtml+xml,application/xml;q=0.9,*/*;q=0.8'
p1200
asbasbasbag69
(g85
g71
NtRp1201
(dp1202
g74
(dp1203
sg83
g1019
sg76
(lp1204
g69
(g90
g71
NtRp1205
(dp1206
g74
(dp1207
g94
g95
ssg83
g1201
sg76
(lp1208
S'http_accept_encoding'
p1209
asbag69
(g90
g71
NtRp1210
(dp1211
g74
(dp1212
g101
g102
ssg83
g1201
sg76
(lp1213
S':'
asbag69
(g90
g71
NtRp1214
(dp1215
g74
(dp1216
sg83
g1201
sg76
(lp1217
g69
(g70
g71
NtRp1218
(dp1219
g74
(dp1220
g82
I4
ssg83
g1214
sg76
(lp1221
S'gzip,deflate,sdch'
p1222
asbasbasbag69
(g85
g71
NtRp1223
(dp1224
g74
(dp1225
sg83
g1019
sg76
(lp1226
g69
(g90
g71
NtRp1227
(dp1228
g74
(dp1229
g94
g95
ssg83
g1223
sg76
(lp1230
S'http_accept_language'
p1231
asbag69
(g90
g71
NtRp1232
(dp1233
g74
(dp1234
g101
g102
ssg83
g1223
sg76
(lp1235
S':'
asbag69
(g90
g71
NtRp1236
(dp1237
g74
(dp1238
sg83
g1223
sg76
(lp1239
g69
(g70
g71
NtRp1240
(dp1241
g74
(dp1242
g82
I4
ssg83
g1236
sg76
(lp1243
S'en-US,en;q=0.8'
p1244
asbasbasbag69
(g85
g71
NtRp1245
(dp1246
g74
(dp1247
sg83
g1019
sg76
(lp1248
g69
(g90
g71
NtRp1249
(dp1250
g74
(dp1251
g94
g95
ssg83
g1245
sg76
(lp1252
S'http_cache_control'
p1253
asbag69
(g90
g71
NtRp1254
(dp1255
g74
(dp1256
g101
g102
ssg83
g1245
sg76
(lp1257
S':'
asbag69
(g90
g71
NtRp1258
(dp1259
g74
(dp1260
sg83
g1245
sg76
(lp1261
g69
(g70
g71
NtRp1262
(dp1263
g74
(dp1264
g82
I4
ssg83
g1258
sg76
(lp1265
S'max-age=0'
p1266
asbasbasbag69
(g85
g71
NtRp1267
(dp1268
g74
(dp1269
sg83
g1019
sg76
(lp1270
g69
(g90
g71
NtRp1271
(dp1272
g74
(dp1273
g94
g95
ssg83
g1267
sg76
(lp1274
S'http_connection'
p1275
asbag69
(g90
g71
NtRp1276
(dp1277
g74
(dp1278
g101
g102
ssg83
g1267
sg76
(lp1279
S':'
asbag69
(g90
g71
NtRp1280
(dp1281
g74
(dp1282
sg83
g1267
sg76
(lp1283
g69
(g70
g71
NtRp1284
(dp1285
g74
(dp1286
g82
I4
ssg83
g1280
sg76
(lp1287
S'keep-alive'
p1288
asbasbasbag69
(g85
g71
NtRp1289
(dp1290
g74
(dp1291
sg83
g1019
sg76
(lp1292
g69
(g90
g71
NtRp1293
(dp1294
g74
(dp1295
g94
g95
ssg83
g1289
sg76
(lp1296
S'http_cookie'
p1297
asbag69
(g90
g71
NtRp1298
(dp1299
g74
(dp1300
g101
g102
ssg83
g1289
sg76
(lp1301
S':'
asbag69
(g90
g71
NtRp1302
(dp1303
g74
(dp1304
sg83
g1289
sg76
(lp1305
g69
(g70
g71
NtRp1306
(dp1307
g74
(dp1308
g82
I4
ssg83
g1302
sg76
(lp1309
S'session_id_welcome=127.0.0.1-23ffab22-1574-4363-8af0-338cfe55b1a4; session_id_xseed=127.0.0.1-626c16e8-fd8a-46e2-84e3-308140809547; session_id_admin=127.0.0.1-68b65693-061d-41a6-9d43-84d9af7cb743; session_id_read_it=127.0.0.1-64ed602e-5699-4391-ae4f-88c77653edcf'
p1310
asbasbasbag69
(g85
g71
NtRp1311
(dp1312
g74
(dp1313
sg83
g1019
sg76
(lp1314
g69
(g90
g71
NtRp1315
(dp1316
g74
(dp1317
g94
g95
ssg83
g1311
sg76
(lp1318
S'http_host'
p1319
asbag69
(g90
g71
NtRp1320
(dp1321
g74
(dp1322
g101
g102
ssg83
g1311
sg76
(lp1323
S':'
asbag69
(g90
g71
NtRp1324
(dp1325
g74
(dp1326
sg83
g1311
sg76
(lp1327
g69
(g70
g71
NtRp1328
(dp1329
g74
(dp1330
g82
I4
ssg83
g1324
sg76
(lp1331
S'127.0.0.1:8001'
p1332
asbasbasbag69
(g85
g71
NtRp1333
(dp1334
g74
(dp1335
sg83
g1019
sg76
(lp1336
g69
(g90
g71
NtRp1337
(dp1338
g74
(dp1339
g94
g95
ssg83
g1333
sg76
(lp1340
S'http_user_agent'
p1341
asbag69
(g90
g71
NtRp1342
(dp1343
g74
(dp1344
g101
g102
ssg83
g1333
sg76
(lp1345
S':'
asbag69
(g90
g71
NtRp1346
(dp1347
g74
(dp1348
sg83
g1333
sg76
(lp1349
g69
(g70
g71
NtRp1350
(dp1351
g74
(dp1352
g82
I4
ssg83
g1346
sg76
(lp1353
S'Mozilla/5.0 (X11; Linux x86_64) AppleWebKit/537.36 (KHTML, like Gecko) Chrome/29.0.1547.57 Safari/537.36'
p1354
asbasbasbag69
(g85
g71
NtRp1355
(dp1356
g74
(dp1357
sg83
g1019
sg76
(lp1358
g69
(g90
g71
NtRp1359
(dp1360
g74
(dp1361
g94
g95
ssg83
g1355
sg76
(lp1362
S'is_jython'
p1363
asbag69
(g90
g71
NtRp1364
(dp1365
g74
(dp1366
g101
g102
ssg83
g1355
sg76
(lp1367
S':'
asbag69
(g90
g71
NtRp1368
(dp1369
g74
(dp1370
sg83
g1355
sg76
(lp1371
g69
(g70
g71
NtRp1372
(dp1373
g74
(dp1374
g82
I4
ssg83
g1368
sg76
(lp1375
g112
asbasbasbag69
(g85
g71
NtRp1376
(dp1377
g74
(dp1378
sg83
g1019
sg76
(lp1379
g69
(g90
g71
NtRp1380
(dp1381
g74
(dp1382
g94
g95
ssg83
g1376
sg76
(lp1383
S'is_pypy'
p1384
asbag69
(g90
g71
NtRp1385
(dp1386
g74
(dp1387
g101
g102
ssg83
g1376
sg76
(lp1388
S':'
asbag69
(g90
g71
NtRp1389
(dp1390
g74
(dp1391
sg83
g1376
sg76
(lp1392
g69
(g70
g71
NtRp1393
(dp1394
g74
(dp1395
g82
I4
ssg83
g1389
sg76
(lp1396
g112
asbasbasbag69
(g85
g71
NtRp1397
(dp1398
g74
(dp1399
sg83
g1019
sg76
(lp1400
g69
(g90
g71
NtRp1401
(dp1402
g74
(dp1403
g94
g95
ssg83
g1397
sg76
(lp1404
S'path_info'
p1405
asbag69
(g90
g71
NtRp1406
(dp1407
g74
(dp1408
g101
g102
ssg83
g1397
sg76
(lp1409
S':'
asbag69
(g90
g71
NtRp1410
(dp1411
g74
(dp1412
sg83
g1397
sg76
(lp1413
g69
(g70
g71
NtRp1414
(dp1415
g74
(dp1416
g82
I4
ssg83
g1410
sg76
(lp1417
S'/Read_it/default/index'
p1418
asbasbasbag69
(g85
g71
NtRp1419
(dp1420
g74
(dp1421
sg83
g1019
sg76
(lp1422
g69
(g90
g71
NtRp1423
(dp1424
g74
(dp1425
g94
g95
ssg83
g1419
sg76
(lp1426
S'query_string'
p1427
asbag69
(g90
g71
NtRp1428
(dp1429
g74
(dp1430
g101
g102
ssg83
g1419
sg76
(lp1431
S':'
asbag69
(g90
g71
NtRp1432
(dp1433
g74
(dp1434
sg83
g1419
sg76
(lp1435
g69
(g70
g71
NtRp1436
(dp1437
g74
(dp1438
g82
I4
ssg83
g1432
sg76
(lp1439
S''
asbasbasbag69
(g85
g71
NtRp1440
(dp1441
g74
(dp1442
sg83
g1019
sg76
(lp1443
g69
(g90
g71
NtRp1444
(dp1445
g74
(dp1446
g94
g95
ssg83
g1440
sg76
(lp1447
S'remote_addr'
p1448
asbag69
(g90
g71
NtRp1449
(dp1450
g74
(dp1451
g101
g102
ssg83
g1440
sg76
(lp1452
S':'
asbag69
(g90
g71
NtRp1453
(dp1454
g74
(dp1455
sg83
g1440
sg76
(lp1456
g69
(g70
g71
NtRp1457
(dp1458
g74
(dp1459
g82
I4
ssg83
g1453
sg76
(lp1460
g202
asbasbasbag69
(g85
g71
NtRp1461
(dp1462
g74
(dp1463
sg83
g1019
sg76
(lp1464
g69
(g90
g71
NtRp1465
(dp1466
g74
(dp1467
g94
g95
ssg83
g1461
sg76
(lp1468
S'remote_port'
p1469
asbag69
(g90
g71
NtRp1470
(dp1471
g74
(dp1472
g101
g102
ssg83
g1461
sg76
(lp1473
S':'
asbag69
(g90
g71
NtRp1474
(dp1475
g74
(dp1476
sg83
g1461
sg76
(lp1477
g69
(g70
g71
NtRp1478
(dp1479
g74
(dp1480
g82
I4
ssg83
g1474
sg76
(lp1481
S'40844'
p1482
asbasbasbag69
(g85
g71
NtRp1483
(dp1484
g74
(dp1485
sg83
g1019
sg76
(lp1486
g69
(g90
g71
NtRp1487
(dp1488
g74
(dp1489
g94
g95
ssg83
g1483
sg76
(lp1490
S'request_method'
p1491
asbag69
(g90
g71
NtRp1492
(dp1493
g74
(dp1494
g101
g102
ssg83
g1483
sg76
(lp1495
S':'
asbag69
(g90
g71
NtRp1496
(dp1497
g74
(dp1498
sg83
g1483
sg76
(lp1499
g69
(g70
g71
NtRp1500
(dp1501
g74
(dp1502
g82
I4
ssg83
g1496
sg76
(lp1503
S'GET'
p1504
asbasbasbag69
(g85
g71
NtRp1505
(dp1506
g74
(dp1507
sg83
g1019
sg76
(lp1508
g69
(g90
g71
NtRp1509
(dp1510
g74
(dp1511
g94
g95
ssg83
g1505
sg76
(lp1512
S'script_name'
p1513
asbag69
(g90
g71
NtRp1514
(dp1515
g74
(dp1516
g101
g102
ssg83
g1505
sg76
(lp1517
S':'
asbag69
(g90
g71
NtRp1518
(dp1519
g74
(dp1520
sg83
g1505
sg76
(lp1521
g69
(g70
g71
NtRp1522
(dp1523
g74
(dp1524
g82
I4
ssg83
g1518
sg76
(lp1525
S''
asbasbasbag69
(g85
g71
NtRp1526
(dp1527
g74
(dp1528
sg83
g1019
sg76
(lp1529
g69
(g90
g71
NtRp1530
(dp1531
g74
(dp1532
g94
g95
ssg83
g1526
sg76
(lp1533
S'server_name'
p1534
asbag69
(g90
g71
NtRp1535
(dp1536
g74
(dp1537
g101
g102
ssg83
g1526
sg76
(lp1538
S':'
asbag69
(g90
g71
NtRp1539
(dp1540
g74
(dp1541
sg83
g1526
sg76
(lp1542
g69
(g70
g71
NtRp1543
(dp1544
g74
(dp1545
g82
I4
ssg83
g1539
sg76
(lp1546
S'DS-IIIT'
p1547
asbasbasbag69
(g85
g71
NtRp1548
(dp1549
g74
(dp1550
sg83
g1019
sg76
(lp1551
g69
(g90
g71
NtRp1552
(dp1553
g74
(dp1554
g94
g95
ssg83
g1548
sg76
(lp1555
S'server_port'
p1556
asbag69
(g90
g71
NtRp1557
(dp1558
g74
(dp1559
g101
g102
ssg83
g1548
sg76
(lp1560
S':'
asbag69
(g90
g71
NtRp1561
(dp1562
g74
(dp1563
sg83
g1548
sg76
(lp1564
g69
(g70
g71
NtRp1565
(dp1566
g74
(dp1567
g82
I4
ssg83
g1561
sg76
(lp1568
S'8001'
p1569
asbasbasbag69
(g85
g71
NtRp1570
(dp1571
g74
(dp1572
sg83
g1019
sg76
(lp1573
g69
(g90
g71
NtRp1574
(dp1575
g74
(dp1576
g94
g95
ssg83
g1570
sg76
(lp1577
S'server_protocol'
p1578
asbag69
(g90
g71
NtRp1579
(dp1580
g74
(dp1581
g101
g102
ssg83
g1570
sg76
(lp1582
S':'
asbag69
(g90
g71
NtRp1583
(dp1584
g74
(dp1585
sg83
g1570
sg76
(lp1586
g69
(g70
g71
NtRp1587
(dp1588
g74
(dp1589
g82
I4
ssg83
g1583
sg76
(lp1590
S'HTTP/1.1'
p1591
asbasbasbag69
(g85
g71
NtRp1592
(dp1593
g74
(dp1594
sg83
g1019
sg76
(lp1595
g69
(g90
g71
NtRp1596
(dp1597
g74
(dp1598
g94
g95
ssg83
g1592
sg76
(lp1599
S'server_software'
p1600
asbag69
(g90
g71
NtRp1601
(dp1602
g74
(dp1603
g101
g102
ssg83
g1592
sg76
(lp1604
S':'
asbag69
(g90
g71
NtRp1605
(dp1606
g74
(dp1607
sg83
g1592
sg76
(lp1608
g69
(g70
g71
NtRp1609
(dp1610
g74
(dp1611
g82
I4
ssg83
g1605
sg76
(lp1612
S'Rocket 1.2.4'
p1613
asbasbasbag69
(g85
g71
NtRp1614
(dp1615
g74
(dp1616
sg83
g1019
sg76
(lp1617
g69
(g90
g71
NtRp1618
(dp1619
g74
(dp1620
g94
g95
ssg83
g1614
sg76
(lp1621
S'web2py_crontype'
p1622
asbag69
(g90
g71
NtRp1623
(dp1624
g74
(dp1625
g101
g102
ssg83
g1614
sg76
(lp1626
S':'
asbag69
(g90
g71
NtRp1627
(dp1628
g74
(dp1629
sg83
g1614
sg76
(lp1630
g69
(g70
g71
NtRp1631
(dp1632
g74
(dp1633
g82
I4
ssg83
g1627
sg76
(lp1634
S'hard'
p1635
asbasbasbag69
(g85
g71
NtRp1636
(dp1637
g74
(dp1638
sg83
g1019
sg76
(lp1639
g69
(g90
g71
NtRp1640
(dp1641
g74
(dp1642
g94
g95
ssg83
g1636
sg76
(lp1643
S'web2py_path'
p1644
asbag69
(g90
g71
NtRp1645
(dp1646
g74
(dp1647
g101
g102
ssg83
g1636
sg76
(lp1648
S':'
asbag69
(g90
g71
NtRp1649
(dp1650
g74
(dp1651
sg83
g1636
sg76
(lp1652
g69
(g70
g71
NtRp1653
(dp1654
g74
(dp1655
g82
I4
ssg83
g1649
sg76
(lp1656
g1066
asbasbasbag69
(g85
g71
NtRp1657
(dp1658
g74
(dp1659
sg83
g1019
sg76
(lp1660
g69
(g90
g71
NtRp1661
(dp1662
g74
(dp1663
g94
g95
ssg83
g1657
sg76
(lp1664
S'web2py_version'
p1665
asbag69
(g90
g71
NtRp1666
(dp1667
g74
(dp1668
g101
g102
ssg83
g1657
sg76
(lp1669
S':'
asbag69
(g90
g71
NtRp1670
(dp1671
g74
(dp1672
sg83
g1657
sg76
(lp1673
g69
(g70
g71
NtRp1674
(dp1675
g74
(dp1676
g82
I4
ssg83
g1670
sg76
(lp1677
g69
(g78
g71
NtRp1678
(dp1679
g74
(dp1680
g82
I3
ssg83
Nsg76
(lp1681
g69
(g85
g71
NtRp1682
(dp1683
g74
(dp1684
sg83
g1678
sg76
(lp1685
g69
(g90
g71
NtRp1686
(dp1687
g74
(dp1688
sg83
g1682
sg76
(lp1689
g69
(g70
g71
NtRp1690
(dp1691
g74
(dp1692
g82
I3
ssg83
g1686
sg76
(lp1693
S'1'
asbasbasbag69
(g85
g71
NtRp1694
(dp1695
g74
(dp1696
sg83
g1678
sg76
(lp1697
g69
(g90
g71
NtRp1698
(dp1699
g74
(dp1700
sg83
g1694
sg76
(lp1701
g69
(g70
g71
NtRp1702
(dp1703
g74
(dp1704
g82
I3
ssg83
g1698
sg76
(lp1705
S'99'
p1706
asbasbasbag69
(g85
g71
NtRp1707
(dp1708
g74
(dp1709
sg83
g1678
sg76
(lp1710
g69
(g90
g71
NtRp1711
(dp1712
g74
(dp1713
sg83
g1707
sg76
(lp1714
g69
(g70
g71
NtRp1715
(dp1716
g74
(dp1717
g82
I3
ssg83
g1711
sg76
(lp1718
S'4'
asbasbasbag69
(g85
g71
NtRp1719
(dp1720
g74
(dp1721
sg83
g1678
sg76
(lp1722
g69
(g90
g71
NtRp1723
(dp1724
g74
(dp1725
sg83
g1719
sg76
(lp1726
g69
(g70
g71
NtRp1727
(dp1728
g74
(dp1729
g82
I3
ssg83
g1723
sg76
(lp1730
S'datetime.datetime(2011, 12, 14, 14, 46, 14)'
p1731
asbasbasbag69
(g85
g71
NtRp1732
(dp1733
g74
(dp1734
sg83
g1678
sg76
(lp1735
g69
(g90
g71
NtRp1736
(dp1737
g74
(dp1738
sg83
g1732
sg76
(lp1739
g69
(g70
g71
NtRp1740
(dp1741
g74
(dp1742
g82
I3
ssg83
g1736
sg76
(lp1743
S'stable'
p1744
asbasbasbasbasbasbasbag69
(g85
g71
NtRp1745
(dp1746
g74
(dp1747
sg83
g1019
sg76
(lp1748
g69
(g90
g71
NtRp1749
(dp1750
g74
(dp1751
g94
g95
ssg83
g1745
sg76
(lp1752
S'wsgi_errors'
p1753
asbag69
(g90
g71
NtRp1754
(dp1755
g74
(dp1756
g101
g102
ssg83
g1745
sg76
(lp1757
S':'
asbag69
(g90
g71
NtRp1758
(dp1759
g74
(dp1760
sg83
g1745
sg76
(lp1761
g69
(g70
g71
NtRp1762
(dp1763
g74
(dp1764
g82
I4
ssg83
g1758
sg76
(lp1765
S"<open file '<stderr>', mode 'w' at 0x7f044c779270>"
p1766
asbasbasbag69
(g85
g71
NtRp1767
(dp1768
g74
(dp1769
sg83
g1019
sg76
(lp1770
g69
(g90
g71
NtRp1771
(dp1772
g74
(dp1773
g94
g95
ssg83
g1767
sg76
(lp1774
S'wsgi_file_wrapper'
p1775
asbag69
(g90
g71
NtRp1776
(dp1777
g74
(dp1778
g101
g102
ssg83
g1767
sg76
(lp1779
S':'
asbag69
(g90
g71
NtRp1780
(dp1781
g74
(dp1782
sg83
g1767
sg76
(lp1783
g69
(g70
g71
NtRp1784
(dp1785
g74
(dp1786
g82
I4
ssg83
g1780
sg76
(lp1787
S'<class wsgiref.util.FileWrapper at 0x21cc668>'
p1788
asbasbasbag69
(g85
g71
NtRp1789
(dp1790
g74
(dp1791
sg83
g1019
sg76
(lp1792
g69
(g90
g71
NtRp1793
(dp1794
g74
(dp1795
g94
g95
ssg83
g1789
sg76
(lp1796
S'wsgi_input'
p1797
asbag69
(g90
g71
NtRp1798
(dp1799
g74
(dp1800
g101
g102
ssg83
g1789
sg76
(lp1801
S':'
asbag69
(g90
g71
NtRp1802
(dp1803
g74
(dp1804
sg83
g1789
sg76
(lp1805
g69
(g70
g71
NtRp1806
(dp1807
g74
(dp1808
g82
I4
ssg83
g1802
sg76
(lp1809
S'<socket._fileobject object at 0x7f040c435850>'
p1810
asbasbasbag69
(g85
g71
NtRp1811
(dp1812
g74
(dp1813
sg83
g1019
sg76
(lp1814
g69
(g90
g71
NtRp1815
(dp1816
g74
(dp1817
g94
g95
ssg83
g1811
sg76
(lp1818
S'wsgi_multiprocess'
p1819
asbag69
(g90
g71
NtRp1820
(dp1821
g74
(dp1822
g101
g102
ssg83
g1811
sg76
(lp1823
S':'
asbag69
(g90
g71
NtRp1824
(dp1825
g74
(dp1826
sg83
g1811
sg76
(lp1827
g69
(g70
g71
NtRp1828
(dp1829
g74
(dp1830
g82
I4
ssg83
g1824
sg76
(lp1831
g112
asbasbasbag69
(g85
g71
NtRp1832
(dp1833
g74
(dp1834
sg83
g1019
sg76
(lp1835
g69
(g90
g71
NtRp1836
(dp1837
g74
(dp1838
g94
g95
ssg83
g1832
sg76
(lp1839
S'wsgi_multithread'
p1840
asbag69
(g90
g71
NtRp1841
(dp1842
g74
(dp1843
g101
g102
ssg83
g1832
sg76
(lp1844
S':'
asbag69
(g90
g71
NtRp1845
(dp1846
g74
(dp1847
sg83
g1832
sg76
(lp1848
g69
(g70
g71
NtRp1849
(dp1850
g74
(dp1851
g82
I4
ssg83
g1845
sg76
(lp1852
S'True'
p1853
asbasbasbag69
(g85
g71
NtRp1854
(dp1855
g74
(dp1856
sg83
g1019
sg76
(lp1857
g69
(g90
g71
NtRp1858
(dp1859
g74
(dp1860
g94
g95
ssg83
g1854
sg76
(lp1861
S'wsgi_run_once'
p1862
asbag69
(g90
g71
NtRp1863
(dp1864
g74
(dp1865
g101
g102
ssg83
g1854
sg76
(lp1866
S':'
asbag69
(g90
g71
NtRp1867
(dp1868
g74
(dp1869
sg83
g1854
sg76
(lp1870
g69
(g70
g71
NtRp1871
(dp1872
g74
(dp1873
g82
I4
ssg83
g1867
sg76
(lp1874
g112
asbasbasbag69
(g85
g71
NtRp1875
(dp1876
g74
(dp1877
sg83
g1019
sg76
(lp1878
g69
(g90
g71
NtRp1879
(dp1880
g74
(dp1881
g94
g95
ssg83
g1875
sg76
(lp1882
S'wsgi_url_scheme'
p1883
asbag69
(g90
g71
NtRp1884
(dp1885
g74
(dp1886
g101
g102
ssg83
g1875
sg76
(lp1887
S':'
asbag69
(g90
g71
NtRp1888
(dp1889
g74
(dp1890
sg83
g1875
sg76
(lp1891
g69
(g70
g71
NtRp1892
(dp1893
g74
(dp1894
g82
I4
ssg83
g1888
sg76
(lp1895
S'http'
p1896
asbasbasbag69
(g85
g71
NtRp1897
(dp1898
g74
(dp1899
sg83
g1019
sg76
(lp1900
g69
(g90
g71
NtRp1901
(dp1902
g74
(dp1903
g94
g95
ssg83
g1897
sg76
(lp1904
S'wsgi_version'
p1905
asbag69
(g90
g71
NtRp1906
(dp1907
g74
(dp1908
g101
g102
ssg83
g1897
sg76
(lp1909
S':'
asbag69
(g90
g71
NtRp1910
(dp1911
g74
(dp1912
sg83
g1897
sg76
(lp1913
g69
(g70
g71
NtRp1914
(dp1915
g74
(dp1916
g82
I4
ssg83
g1910
sg76
(lp1917
g69
(g78
g71
NtRp1918
(dp1919
g74
(dp1920
g82
I3
ssg83
Nsg76
(lp1921
g69
(g85
g71
NtRp1922
(dp1923
g74
(dp1924
sg83
g1918
sg76
(lp1925
g69
(g90
g71
NtRp1926
(dp1927
g74
(dp1928
sg83
g1922
sg76
(lp1929
g69
(g70
g71
NtRp1930
(dp1931
g74
(dp1932
g82
I3
ssg83
g1926
sg76
(lp1933
S'1'
asbasbasbag69
(g85
g71
NtRp1934
(dp1935
g74
(dp1936
sg83
g1918
sg76
(lp1937
g69
(g90
g71
NtRp1938
(dp1939
g74
(dp1940
sg83
g1934
sg76
(lp1941
g69
(g70
g71
NtRp1942
(dp1943
g74
(dp1944
g82
I3
ssg83
g1938
sg76
(lp1945
S'0'
asbasbasbasbasbasbasbasbasbasbasbag69
(g85
g71
NtRp1946
(dp1947
g74
(dp1948
sg83
g79
sg76
(lp1949
g69
(g90
g71
NtRp1950
(dp1951
g74
(dp1952
g94
g95
ssg83
g1946
sg76
(lp1953
S'extension'
p1954
asbag69
(g90
g71
NtRp1955
(dp1956
g74
(dp1957
g101
g102
ssg83
g1946
sg76
(lp1958
S':'
asbag69
(g90
g71
NtRp1959
(dp1960
g74
(dp1961
sg83
g1946
sg76
(lp1962
g69
(g70
g71
NtRp1963
(dp1964
g74
(dp1965
g82
I5
ssg83
g1959
sg76
(lp1966
S'html'
p1967
asbasbasbag69
(g85
g71
NtRp1968
(dp1969
g74
(dp1970
sg83
g79
sg76
(lp1971
g69
(g90
g71
NtRp1972
(dp1973
g74
(dp1974
g94
g95
ssg83
g1968
sg76
(lp1975
S'folder'
p1976
asbag69
(g90
g71
NtRp1977
(dp1978
g74
(dp1979
g101
g102
ssg83
g1968
sg76
(lp1980
S':'
asbag69
(g90
g71
NtRp1981
(dp1982
g74
(dp1983
sg83
g1968
sg76
(lp1984
g69
(g70
g71
NtRp1985
(dp1986
g74
(dp1987
g82
I5
ssg83
g1981
sg76
(lp1988
S'/home/ds-iiit/web2py/applications/Read_it/'
p1989
asbasbasbag69
(g85
g71
NtRp1990
(dp1991
g74
(dp1992
sg83
g79
sg76
(lp1993
g69
(g90
g71
NtRp1994
(dp1995
g74
(dp1996
g94
g95
ssg83
g1990
sg76
(lp1997
S'function'
p1998
asbag69
(g90
g71
NtRp1999
(dp2000
g74
(dp2001
g101
g102
ssg83
g1990
sg76
(lp2002
S':'
asbag69
(g90
g71
NtRp2003
(dp2004
g74
(dp2005
sg83
g1990
sg76
(lp2006
g69
(g70
g71
NtRp2007
(dp2008
g74
(dp2009
g82
I5
ssg83
g2003
sg76
(lp2010
S'index'
p2011
asbasbasbag69
(g85
g71
NtRp2012
(dp2013
g74
(dp2014
sg83
g79
sg76
(lp2015
g69
(g90
g71
NtRp2016
(dp2017
g74
(dp2018
g94
g95
ssg83
g2012
sg76
(lp2019
S'get_vars'
p2020
asbag69
(g90
g71
NtRp2021
(dp2022
g74
(dp2023
g101
g102
ssg83
g2012
sg76
(lp2024
S':'
asbag69
(g90
g71
NtRp2025
(dp2026
g74
(dp2027
sg83
g2012
sg76
(lp2028
g69
(g70
g71
NtRp2029
(dp2030
g74
(dp2031
g82
I5
ssg83
g2025
sg76
(lp2032
g69
(g78
g71
NtRp2033
(dp2034
g74
(dp2035
g82
I4
ssg83
Nsg76
(lp2036
sbasbasbasbag69
(g85
g71
NtRp2037
(dp2038
g74
(dp2039
sg83
g79
sg76
(lp2040
g69
(g90
g71
NtRp2041
(dp2042
g74
(dp2043
g94
g95
ssg83
g2037
sg76
(lp2044
S'global_settings'
p2045
asbag69
(g90
g71
NtRp2046
(dp2047
g74
(dp2048
g101
g102
ssg83
g2037
sg76
(lp2049
S':'
asbag69
(g90
g71
NtRp2050
(dp2051
g74
(dp2052
sg83
g2037
sg76
(lp2053
g69
(g70
g71
NtRp2054
(dp2055
g74
(dp2056
g82
I5
ssg83
g2050
sg76
(lp2057
g69
(g78
g71
NtRp2058
(dp2059
g74
(dp2060
g82
I4
ssg83
Nsg76
(lp2061
g69
(g85
g71
NtRp2062
(dp2063
g74
(dp2064
sg83
g2058
sg76
(lp2065
g69
(g90
g71
NtRp2066
(dp2067
g74
(dp2068
g94
g95
ssg83
g2062
sg76
(lp2069
g1031
asbag69
(g90
g71
NtRp2070
(dp2071
g74
(dp2072
g101
g102
ssg83
g2062
sg76
(lp2073
S':'
asbag69
(g90
g71
NtRp2074
(dp2075
g74
(dp2076
sg83
g2062
sg76
(lp2077
g69
(g70
g71
NtRp2078
(dp2079
g74
(dp2080
g82
I4
ssg83
g2074
sg76
(lp2081
S"set(['/home/ds-iiit/web2py/applications/Read_it/', '/home/ds-iiit/web2py/applications/welcome/', '/home/ds-iiit/web2py/applications/admin/', '/home/ds-iiit/web2py/applications/XSeed/'])"
p2082
asbasbasbag69
(g85
g71
NtRp2083
(dp2084
g74
(dp2085
sg83
g2058
sg76
(lp2086
g69
(g90
g71
NtRp2087
(dp2088
g74
(dp2089
g94
g95
ssg83
g2083
sg76
(lp2090
g1053
asbag69
(g90
g71
NtRp2091
(dp2092
g74
(dp2093
g101
g102
ssg83
g2083
sg76
(lp2094
S':'
asbag69
(g90
g71
NtRp2095
(dp2096
g74
(dp2097
sg83
g2083
sg76
(lp2098
g69
(g70
g71
NtRp2099
(dp2100
g74
(dp2101
g82
I4
ssg83
g2095
sg76
(lp2102
g1066
asbasbasbag69
(g85
g71
NtRp2103
(dp2104
g74
(dp2105
sg83
g2058
sg76
(lp2106
g69
(g90
g71
NtRp2107
(dp2108
g74
(dp2109
g94
g95
ssg83
g2103
sg76
(lp2110
g1075
asbag69
(g90
g71
NtRp2111
(dp2112
g74
(dp2113
g101
g102
ssg83
g2103
sg76
(lp2114
S':'
asbag69
(g90
g71
NtRp2115
(dp2116
g74
(dp2117
sg83
g2103
sg76
(lp2118
g69
(g70
g71
NtRp2119
(dp2120
g74
(dp2121
g82
I4
ssg83
g2115
sg76
(lp2122
g69
(g78
g71
NtRp2123
(dp2124
g74
(dp2125
g82
I3
ssg83
Nsg76
(lp2126
sbasbasbasbag69
(g85
g71
NtRp2127
(dp2128
g74
(dp2129
sg83
g2058
sg76
(lp2130
g69
(g90
g71
NtRp2131
(dp2132
g74
(dp2133
g94
g95
ssg83
g2127
sg76
(lp2134
g1100
asbag69
(g90
g71
NtRp2135
(dp2136
g74
(dp2137
g101
g102
ssg83
g2127
sg76
(lp2138
S':'
asbag69
(g90
g71
NtRp2139
(dp2140
g74
(dp2141
sg83
g2127
sg76
(lp2142
g69
(g70
g71
NtRp2143
(dp2144
g74
(dp2145
g82
I4
ssg83
g2139
sg76
(lp2146
S"<Values at 0x2259f80: {'verbose': False, 'ip': '127.0.0.1', 'shutdown_timeout': 5, 'taskbar': False, 'port': 8000, 'maxthreads': None, 'softcron': False, 'server_name': 'DS-IIIT', 'bpython': False, 'nogui': False, 'nocron': False, 'extcron': False, 'debuglevel': 30, 'test': None, 'folder': '/home/ds-iiit/web2py', 'config': '', 'import_models': False, 'winservice': '', 'shell': None, 'run': '', 'log_filename': 'httpserver.log', 'args': [''], 'socket_timeout': 1, 'profiler_filename': None, 'ssl_private_key': '', 'password': '<ask>', 'request_queue_size': 5, 'ssl_certificate': '', 'cronjob': False, 'plain': False, 'quiet': False, 'interfaces': None, 'minthreads': None, 'timeout': 10, 'numthreads': None, 'nobanner': False, 'pid_filename': 'httpserver.pid'}>"
p2147
asbasbasbag69
(g85
g71
NtRp2148
(dp2149
g74
(dp2150
sg83
g2058
sg76
(lp2151
g69
(g90
g71
NtRp2152
(dp2153
g74
(dp2154
g94
g95
ssg83
g2148
sg76
(lp2155
g1122
asbag69
(g90
g71
NtRp2156
(dp2157
g74
(dp2158
g101
g102
ssg83
g2148
sg76
(lp2159
S':'
asbag69
(g90
g71
NtRp2160
(dp2161
g74
(dp2162
sg83
g2148
sg76
(lp2163
g69
(g70
g71
NtRp2164
(dp2165
g74
(dp2166
g82
I4
ssg83
g2160
sg76
(lp2167
S'set([])'
p2168
asbasbasbag69
(g85
g71
NtRp2169
(dp2170
g74
(dp2171
sg83
g2058
sg76
(lp2172
g69
(g90
g71
NtRp2173
(dp2174
g74
(dp2175
g94
g95
ssg83
g2169
sg76
(lp2176
g1144
asbag69
(g90
g71
NtRp2177
(dp2178
g74
(dp2179
g101
g102
ssg83
g2169
sg76
(lp2180
S':'
asbag69
(g90
g71
NtRp2181
(dp2182
g74
(dp2183
sg83
g2169
sg76
(lp2184
g69
(g70
g71
NtRp2185
(dp2186
g74
(dp2187
g82
I4
ssg83
g2181
sg76
(lp2188
g112
asbasbasbag69
(g85
g71
NtRp2189
(dp2190
g74
(dp2191
sg83
g2058
sg76
(lp2192
g69
(g90
g71
NtRp2193
(dp2194
g74
(dp2195
g94
g95
ssg83
g2189
sg76
(lp2196
g1165
asbag69
(g90
g71
NtRp2197
(dp2198
g74
(dp2199
g101
g102
ssg83
g2189
sg76
(lp2200
S':'
asbag69
(g90
g71
NtRp2201
(dp2202
g74
(dp2203
sg83
g2189
sg76
(lp2204
g69
(g70
g71
NtRp2205
(dp2206
g74
(dp2207
g82
I4
ssg83
g2201
sg76
(lp2208
g1178
asbasbasbag69
(g85
g71
NtRp2209
(dp2210
g74
(dp2211
sg83
g2058
sg76
(lp2212
g69
(g90
g71
NtRp2213
(dp2214
g74
(dp2215
g94
g95
ssg83
g2209
sg76
(lp2216
g1363
asbag69
(g90
g71
NtRp2217
(dp2218
g74
(dp2219
g101
g102
ssg83
g2209
sg76
(lp2220
S':'
asbag69
(g90
g71
NtRp2221
(dp2222
g74
(dp2223
sg83
g2209
sg76
(lp2224
g69
(g70
g71
NtRp2225
(dp2226
g74
(dp2227
g82
I4
ssg83
g2221
sg76
(lp2228
g112
asbasbasbag69
(g85
g71
NtRp2229
(dp2230
g74
(dp2231
sg83
g2058
sg76
(lp2232
g69
(g90
g71
NtRp2233
(dp2234
g74
(dp2235
g94
g95
ssg83
g2229
sg76
(lp2236
g1384
asbag69
(g90
g71
NtRp2237
(dp2238
g74
(dp2239
g101
g102
ssg83
g2229
sg76
(lp2240
S':'
asbag69
(g90
g71
NtRp2241
(dp2242
g74
(dp2243
sg83
g2229
sg76
(lp2244
g69
(g70
g71
NtRp2245
(dp2246
g74
(dp2247
g82
I4
ssg83
g2241
sg76
(lp2248
g112
asbasbasbag69
(g85
g71
NtRp2249
(dp2250
g74
(dp2251
sg83
g2058
sg76
(lp2252
g69
(g90
g71
NtRp2253
(dp2254
g74
(dp2255
g94
g95
ssg83
g2249
sg76
(lp2256
g1622
asbag69
(g90
g71
NtRp2257
(dp2258
g74
(dp2259
g101
g102
ssg83
g2249
sg76
(lp2260
S':'
asbag69
(g90
g71
NtRp2261
(dp2262
g74
(dp2263
sg83
g2249
sg76
(lp2264
g69
(g70
g71
NtRp2265
(dp2266
g74
(dp2267
g82
I4
ssg83
g2261
sg76
(lp2268
g1635
asbasbasbag69
(g85
g71
NtRp2269
(dp2270
g74
(dp2271
sg83
g2058
sg76
(lp2272
g69
(g90
g71
NtRp2273
(dp2274
g74
(dp2275
g94
g95
ssg83
g2269
sg76
(lp2276
g1665
asbag69
(g90
g71
NtRp2277
(dp2278
g74
(dp2279
g101
g102
ssg83
g2269
sg76
(lp2280
S':'
asbag69
(g90
g71
NtRp2281
(dp2282
g74
(dp2283
sg83
g2269
sg76
(lp2284
g69
(g70
g71
NtRp2285
(dp2286
g74
(dp2287
g82
I4
ssg83
g2281
sg76
(lp2288
g69
(g78
g71
NtRp2289
(dp2290
g74
(dp2291
g82
I3
ssg83
Nsg76
(lp2292
g69
(g85
g71
NtRp2293
(dp2294
g74
(dp2295
sg83
g2289
sg76
(lp2296
g69
(g90
g71
NtRp2297
(dp2298
g74
(dp2299
sg83
g2293
sg76
(lp2300
g69
(g70
g71
NtRp2301
(dp2302
g74
(dp2303
g82
I3
ssg83
g2297
sg76
(lp2304
S'1'
asbasbasbag69
(g85
g71
NtRp2305
(dp2306
g74
(dp2307
sg83
g2289
sg76
(lp2308
g69
(g90
g71
NtRp2309
(dp2310
g74
(dp2311
sg83
g2305
sg76
(lp2312
g69
(g70
g71
NtRp2313
(dp2314
g74
(dp2315
g82
I3
ssg83
g2309
sg76
(lp2316
S'99'
p2317
asbasbasbag69
(g85
g71
NtRp2318
(dp2319
g74
(dp2320
sg83
g2289
sg76
(lp2321
g69
(g90
g71
NtRp2322
(dp2323
g74
(dp2324
sg83
g2318
sg76
(lp2325
g69
(g70
g71
NtRp2326
(dp2327
g74
(dp2328
g82
I3
ssg83
g2322
sg76
(lp2329
S'4'
asbasbasbag69
(g85
g71
NtRp2330
(dp2331
g74
(dp2332
sg83
g2289
sg76
(lp2333
g69
(g90
g71
NtRp2334
(dp2335
g74
(dp2336
sg83
g2330
sg76
(lp2337
g69
(g70
g71
NtRp2338
(dp2339
g74
(dp2340
g82
I3
ssg83
g2334
sg76
(lp2341
S'datetime.datetime(2011, 12, 14, 14, 46, 14)'
p2342
asbasbasbag69
(g85
g71
NtRp2343
(dp2344
g74
(dp2345
sg83
g2289
sg76
(lp2346
g69
(g90
g71
NtRp2347
(dp2348
g74
(dp2349
sg83
g2343
sg76
(lp2350
g69
(g70
g71
NtRp2351
(dp2352
g74
(dp2353
g82
I3
ssg83
g2347
sg76
(lp2354
g1744
asbasbasbasbasbasbasbasbasbasbasbag69
(g85
g71
NtRp2355
(dp2356
g74
(dp2357
sg83
g79
sg76
(lp2358
g69
(g90
g71
NtRp2359
(dp2360
g74
(dp2361
g94
g95
ssg83
g2355
sg76
(lp2362
S'is_https'
p2363
asbag69
(g90
g71
NtRp2364
(dp2365
g74
(dp2366
g101
g102
ssg83
g2355
sg76
(lp2367
S':'
asbag69
(g90
g71
NtRp2368
(dp2369
g74
(dp2370
sg83
g2355
sg76
(lp2371
g69
(g70
g71
NtRp2372
(dp2373
g74
(dp2374
g82
I5
ssg83
g2368
sg76
(lp2375
g112
asbasbasbag69
(g85
g71
NtRp2376
(dp2377
g74
(dp2378
sg83
g79
sg76
(lp2379
g69
(g90
g71
NtRp2380
(dp2381
g74
(dp2382
g94
g95
ssg83
g2376
sg76
(lp2383
S'is_local'
p2384
asbag69
(g90
g71
NtRp2385
(dp2386
g74
(dp2387
g101
g102
ssg83
g2376
sg76
(lp2388
S':'
asbag69
(g90
g71
NtRp2389
(dp2390
g74
(dp2391
sg83
g2376
sg76
(lp2392
g69
(g70
g71
NtRp2393
(dp2394
g74
(dp2395
g82
I5
ssg83
g2389
sg76
(lp2396
g1853
asbasbasbag69
(g85
g71
NtRp2397
(dp2398
g74
(dp2399
sg83
g79
sg76
(lp2400
g69
(g90
g71
NtRp2401
(dp2402
g74
(dp2403
g94
g95
ssg83
g2397
sg76
(lp2404
S'is_restful'
p2405
asbag69
(g90
g71
NtRp2406
(dp2407
g74
(dp2408
g101
g102
ssg83
g2397
sg76
(lp2409
S':'
asbag69
(g90
g71
NtRp2410
(dp2411
g74
(dp2412
sg83
g2397
sg76
(lp2413
g69
(g70
g71
NtRp2414
(dp2415
g74
(dp2416
g82
I5
ssg83
g2410
sg76
(lp2417
g112
asbasbasbag69
(g85
g71
NtRp2418
(dp2419
g74
(dp2420
sg83
g79
sg76
(lp2421
g69
(g90
g71
NtRp2422
(dp2423
g74
(dp2424
g94
g95
ssg83
g2418
sg76
(lp2425
S'now'
p2426
asbag69
(g90
g71
NtRp2427
(dp2428
g74
(dp2429
g101
g102
ssg83
g2418
sg76
(lp2430
S':'
asbag69
(g90
g71
NtRp2431
(dp2432
g74
(dp2433
sg83
g2418
sg76
(lp2434
g69
(g70
g71
NtRp2435
(dp2436
g74
(dp2437
g82
I5
ssg83
g2431
sg76
(lp2438
S'datetime.datetime(2013, 9, 2, 1, 5, 45, 695490)'
p2439
asbasbasbag69
(g85
g71
NtRp2440
(dp2441
g74
(dp2442
sg83
g79
sg76
(lp2443
g69
(g90
g71
NtRp2444
(dp2445
g74
(dp2446
g94
g95
ssg83
g2440
sg76
(lp2447
S'post_vars'
p2448
asbag69
(g90
g71
NtRp2449
(dp2450
g74
(dp2451
g101
g102
ssg83
g2440
sg76
(lp2452
S':'
asbag69
(g90
g71
NtRp2453
(dp2454
g74
(dp2455
sg83
g2440
sg76
(lp2456
g69
(g70
g71
NtRp2457
(dp2458
g74
(dp2459
g82
I5
ssg83
g2453
sg76
(lp2460
g69
(g78
g71
NtRp2461
(dp2462
g74
(dp2463
g82
I4
ssg83
Nsg76
(lp2464
sbasbasbasbag69
(g85
g71
NtRp2465
(dp2466
g74
(dp2467
sg83
g79
sg76
(lp2468
g69
(g90
g71
NtRp2469
(dp2470
g74
(dp2471
g94
g95
ssg83
g2465
sg76
(lp2472
S'url'
p2473
asbag69
(g90
g71
NtRp2474
(dp2475
g74
(dp2476
g101
g102
ssg83
g2465
sg76
(lp2477
S':'
asbag69
(g90
g71
NtRp2478
(dp2479
g74
(dp2480
sg83
g2465
sg76
(lp2481
g69
(g70
g71
NtRp2482
(dp2483
g74
(dp2484
g82
I5
ssg83
g2478
sg76
(lp2485
S'/Read_it/default/index'
p2486
asbasbasbag69
(g85
g71
NtRp2487
(dp2488
g74
(dp2489
sg83
g79
sg76
(lp2490
g69
(g90
g71
NtRp2491
(dp2492
g74
(dp2493
g94
g95
ssg83
g2487
sg76
(lp2494
S'utcnow'
p2495
asbag69
(g90
g71
NtRp2496
(dp2497
g74
(dp2498
g101
g102
ssg83
g2487
sg76
(lp2499
S':'
asbag69
(g90
g71
NtRp2500
(dp2501
g74
(dp2502
sg83
g2487
sg76
(lp2503
g69
(g70
g71
NtRp2504
(dp2505
g74
(dp2506
g82
I5
ssg83
g2500
sg76
(lp2507
S'datetime.datetime(2013, 9, 1, 19, 35, 45, 695527)'
p2508
asbasbasbag69
(g85
g71
NtRp2509
(dp2510
g74
(dp2511
sg83
g79
sg76
(lp2512
g69
(g90
g71
NtRp2513
(dp2514
g74
(dp2515
g94
g95
ssg83
g2509
sg76
(lp2516
S'uuid'
p2517
asbag69
(g90
g71
NtRp2518
(dp2519
g74
(dp2520
g101
g102
ssg83
g2509
sg76
(lp2521
S':'
asbag69
(g90
g71
NtRp2522
(dp2523
g74
(dp2524
sg83
g2509
sg76
(lp2525
g69
(g70
g71
NtRp2526
(dp2527
g74
(dp2528
g82
I5
ssg83
g2522
sg76
(lp2529
S'Read_it/127.0.0.1.2013-09-02.01-05-45.12421b43-d6f8-4fd5-b601-5366e98118a5'
p2530
asbasbasbag69
(g85
g71
NtRp2531
(dp2532
g74
(dp2533
sg83
g79
sg76
(lp2534
g69
(g90
g71
NtRp2535
(dp2536
g74
(dp2537
g94
g95
ssg83
g2531
sg76
(lp2538
S'vars'
p2539
asbag69
(g90
g71
NtRp2540
(dp2541
g74
(dp2542
g101
g102
ssg83
g2531
sg76
(lp2543
S':'
asbag69
(g90
g71
NtRp2544
(dp2545
g74
(dp2546
sg83
g2531
sg76
(lp2547
g69
(g70
g71
NtRp2548
(dp2549
g74
(dp2550
g82
I5
ssg83
g2544
sg76
(lp2551
g69
(g78
g71
NtRp2552
(dp2553
g74
(dp2554
g82
I4
ssg83
Nsg76
(lp2555
sbasbasbasbag69
(g85
g71
NtRp2556
(dp2557
g74
(dp2558
sg83
g79
sg76
(lp2559
g69
(g90
g71
NtRp2560
(dp2561
g74
(dp2562
g94
g95
ssg83
g2556
sg76
(lp2563
S'wsgi'
p2564
asbag69
(g90
g71
NtRp2565
(dp2566
g74
(dp2567
g101
g102
ssg83
g2556
sg76
(lp2568
S':'
asbag69
(g90
g71
NtRp2569
(dp2570
g74
(dp2571
sg83
g2556
sg76
(lp2572
g69
(g70
g71
NtRp2573
(dp2574
g74
(dp2575
g82
I5
ssg83
g2569
sg76
(lp2576
g69
(g78
g71
NtRp2577
(dp2578
g74
(dp2579
g82
I4
ssg83
Nsg76
(lp2580
g69
(g85
g71
NtRp2581
(dp2582
g74
(dp2583
sg83
g2577
sg76
(lp2584
g69
(g90
g71
NtRp2585
(dp2586
g74
(dp2587
g94
g95
ssg83
g2581
sg76
(lp2588
S'environ'
p2589
asbag69
(g90
g71
NtRp2590
(dp2591
g74
(dp2592
g101
g102
ssg83
g2581
sg76
(lp2593
S':'
asbag69
(g90
g71
NtRp2594
(dp2595
g74
(dp2596
sg83
g2581
sg76
(lp2597
g69
(g70
g71
NtRp2598
(dp2599
g74
(dp2600
g82
I4
ssg83
g2594
sg76
(lp2601
g69
(g78
g71
NtRp2602
(dp2603
g74
(dp2604
g82
I3
ssg83
Nsg76
(lp2605
g69
(g85
g71
NtRp2606
(dp2607
g74
(dp2608
sg83
g2602
sg76
(lp2609
g69
(g90
g71
NtRp2610
(dp2611
g74
(dp2612
g94
g95
ssg83
g2606
sg76
(lp2613
S'HTTP_ACCEPT'
p2614
asbag69
(g90
g71
NtRp2615
(dp2616
g74
(dp2617
g101
g102
ssg83
g2606
sg76
(lp2618
S':'
asbag69
(g90
g71
NtRp2619
(dp2620
g74
(dp2621
sg83
g2606
sg76
(lp2622
g69
(g70
g71
NtRp2623
(dp2624
g74
(dp2625
g82
I3
ssg83
g2619
sg76
(lp2626
g1200
asbasbasbag69
(g85
g71
NtRp2627
(dp2628
g74
(dp2629
sg83
g2602
sg76
(lp2630
g69
(g90
g71
NtRp2631
(dp2632
g74
(dp2633
g94
g95
ssg83
g2627
sg76
(lp2634
S'HTTP_ACCEPT_ENCODING'
p2635
asbag69
(g90
g71
NtRp2636
(dp2637
g74
(dp2638
g101
g102
ssg83
g2627
sg76
(lp2639
S':'
asbag69
(g90
g71
NtRp2640
(dp2641
g74
(dp2642
sg83
g2627
sg76
(lp2643
g69
(g70
g71
NtRp2644
(dp2645
g74
(dp2646
g82
I3
ssg83
g2640
sg76
(lp2647
g1222
asbasbasbag69
(g85
g71
NtRp2648
(dp2649
g74
(dp2650
sg83
g2602
sg76
(lp2651
g69
(g90
g71
NtRp2652
(dp2653
g74
(dp2654
g94
g95
ssg83
g2648
sg76
(lp2655
S'HTTP_ACCEPT_LANGUAGE'
p2656
asbag69
(g90
g71
NtRp2657
(dp2658
g74
(dp2659
g101
g102
ssg83
g2648
sg76
(lp2660
S':'
asbag69
(g90
g71
NtRp2661
(dp2662
g74
(dp2663
sg83
g2648
sg76
(lp2664
g69
(g70
g71
NtRp2665
(dp2666
g74
(dp2667
g82
I3
ssg83
g2661
sg76
(lp2668
g1244
asbasbasbag69
(g85
g71
NtRp2669
(dp2670
g74
(dp2671
sg83
g2602
sg76
(lp2672
g69
(g90
g71
NtRp2673
(dp2674
g74
(dp2675
g94
g95
ssg83
g2669
sg76
(lp2676
S'HTTP_CACHE_CONTROL'
p2677
asbag69
(g90
g71
NtRp2678
(dp2679
g74
(dp2680
g101
g102
ssg83
g2669
sg76
(lp2681
S':'
asbag69
(g90
g71
NtRp2682
(dp2683
g74
(dp2684
sg83
g2669
sg76
(lp2685
g69
(g70
g71
NtRp2686
(dp2687
g74
(dp2688
g82
I3
ssg83
g2682
sg76
(lp2689
g1266
asbasbasbag69
(g85
g71
NtRp2690
(dp2691
g74
(dp2692
sg83
g2602
sg76
(lp2693
g69
(g90
g71
NtRp2694
(dp2695
g74
(dp2696
g94
g95
ssg83
g2690
sg76
(lp2697
S'HTTP_CONNECTION'
p2698
asbag69
(g90
g71
NtRp2699
(dp2700
g74
(dp2701
g101
g102
ssg83
g2690
sg76
(lp2702
S':'
asbag69
(g90
g71
NtRp2703
(dp2704
g74
(dp2705
sg83
g2690
sg76
(lp2706
g69
(g70
g71
NtRp2707
(dp2708
g74
(dp2709
g82
I3
ssg83
g2703
sg76
(lp2710
g1288
asbasbasbag69
(g85
g71
NtRp2711
(dp2712
g74
(dp2713
sg83
g2602
sg76
(lp2714
g69
(g90
g71
NtRp2715
(dp2716
g74
(dp2717
g94
g95
ssg83
g2711
sg76
(lp2718
S'HTTP_COOKIE'
p2719
asbag69
(g90
g71
NtRp2720
(dp2721
g74
(dp2722
g101
g102
ssg83
g2711
sg76
(lp2723
S':'
asbag69
(g90
g71
NtRp2724
(dp2725
g74
(dp2726
sg83
g2711
sg76
(lp2727
g69
(g70
g71
NtRp2728
(dp2729
g74
(dp2730
g82
I3
ssg83
g2724
sg76
(lp2731
g1310
asbasbasbag69
(g85
g71
NtRp2732
(dp2733
g74
(dp2734
sg83
g2602
sg76
(lp2735
g69
(g90
g71
NtRp2736
(dp2737
g74
(dp2738
g94
g95
ssg83
g2732
sg76
(lp2739
S'HTTP_HOST'
p2740
asbag69
(g90
g71
NtRp2741
(dp2742
g74
(dp2743
g101
g102
ssg83
g2732
sg76
(lp2744
S':'
asbag69
(g90
g71
NtRp2745
(dp2746
g74
(dp2747
sg83
g2732
sg76
(lp2748
g69
(g70
g71
NtRp2749
(dp2750
g74
(dp2751
g82
I3
ssg83
g2745
sg76
(lp2752
g1332
asbasbasbag69
(g85
g71
NtRp2753
(dp2754
g74
(dp2755
sg83
g2602
sg76
(lp2756
g69
(g90
g71
NtRp2757
(dp2758
g74
(dp2759
g94
g95
ssg83
g2753
sg76
(lp2760
S'HTTP_USER_AGENT'
p2761
asbag69
(g90
g71
NtRp2762
(dp2763
g74
(dp2764
g101
g102
ssg83
g2753
sg76
(lp2765
S':'
asbag69
(g90
g71
NtRp2766
(dp2767
g74
(dp2768
sg83
g2753
sg76
(lp2769
g69
(g70
g71
NtRp2770
(dp2771
g74
(dp2772
g82
I3
ssg83
g2766
sg76
(lp2773
g1354
asbasbasbag69
(g85
g71
NtRp2774
(dp2775
g74
(dp2776
sg83
g2602
sg76
(lp2777
g69
(g90
g71
NtRp2778
(dp2779
g74
(dp2780
g94
g95
ssg83
g2774
sg76
(lp2781
S'PATH_INFO'
p2782
asbag69
(g90
g71
NtRp2783
(dp2784
g74
(dp2785
g101
g102
ssg83
g2774
sg76
(lp2786
S':'
asbag69
(g90
g71
NtRp2787
(dp2788
g74
(dp2789
sg83
g2774
sg76
(lp2790
g69
(g70
g71
NtRp2791
(dp2792
g74
(dp2793
g82
I3
ssg83
g2787
sg76
(lp2794
g1418
asbasbasbag69
(g85
g71
NtRp2795
(dp2796
g74
(dp2797
sg83
g2602
sg76
(lp2798
g69
(g90
g71
NtRp2799
(dp2800
g74
(dp2801
g94
g95
ssg83
g2795
sg76
(lp2802
S'QUERY_STRING'
p2803
asbag69
(g90
g71
NtRp2804
(dp2805
g74
(dp2806
g101
g102
ssg83
g2795
sg76
(lp2807
S':'
asbag69
(g90
g71
NtRp2808
(dp2809
g74
(dp2810
sg83
g2795
sg76
(lp2811
g69
(g70
g71
NtRp2812
(dp2813
g74
(dp2814
g82
I3
ssg83
g2808
sg76
(lp2815
S''
asbasbasbag69
(g85
g71
NtRp2816
(dp2817
g74
(dp2818
sg83
g2602
sg76
(lp2819
g69
(g90
g71
NtRp2820
(dp2821
g74
(dp2822
g94
g95
ssg83
g2816
sg76
(lp2823
S'REMOTE_ADDR'
p2824
asbag69
(g90
g71
NtRp2825
(dp2826
g74
(dp2827
g101
g102
ssg83
g2816
sg76
(lp2828
S':'
asbag69
(g90
g71
NtRp2829
(dp2830
g74
(dp2831
sg83
g2816
sg76
(lp2832
g69
(g70
g71
NtRp2833
(dp2834
g74
(dp2835
g82
I3
ssg83
g2829
sg76
(lp2836
g202
asbasbasbag69
(g85
g71
NtRp2837
(dp2838
g74
(dp2839
sg83
g2602
sg76
(lp2840
g69
(g90
g71
NtRp2841
(dp2842
g74
(dp2843
g94
g95
ssg83
g2837
sg76
(lp2844
S'REMOTE_PORT'
p2845
asbag69
(g90
g71
NtRp2846
(dp2847
g74
(dp2848
g101
g102
ssg83
g2837
sg76
(lp2849
S':'
asbag69
(g90
g71
NtRp2850
(dp2851
g74
(dp2852
sg83
g2837
sg76
(lp2853
g69
(g70
g71
NtRp2854
(dp2855
g74
(dp2856
g82
I3
ssg83
g2850
sg76
(lp2857
g1482
asbasbasbag69
(g85
g71
NtRp2858
(dp2859
g74
(dp2860
sg83
g2602
sg76
(lp2861
g69
(g90
g71
NtRp2862
(dp2863
g74
(dp2864
g94
g95
ssg83
g2858
sg76
(lp2865
S'REQUEST_METHOD'
p2866
asbag69
(g90
g71
NtRp2867
(dp2868
g74
(dp2869
g101
g102
ssg83
g2858
sg76
(lp2870
S':'
asbag69
(g90
g71
NtRp2871
(dp2872
g74
(dp2873
sg83
g2858
sg76
(lp2874
g69
(g70
g71
NtRp2875
(dp2876
g74
(dp2877
g82
I3
ssg83
g2871
sg76
(lp2878
g1504
asbasbasbag69
(g85
g71
NtRp2879
(dp2880
g74
(dp2881
sg83
g2602
sg76
(lp2882
g69
(g90
g71
NtRp2883
(dp2884
g74
(dp2885
g94
g95
ssg83
g2879
sg76
(lp2886
S'SCRIPT_NAME'
p2887
asbag69
(g90
g71
NtRp2888
(dp2889
g74
(dp2890
g101
g102
ssg83
g2879
sg76
(lp2891
S':'
asbag69
(g90
g71
NtRp2892
(dp2893
g74
(dp2894
sg83
g2879
sg76
(lp2895
g69
(g70
g71
NtRp2896
(dp2897
g74
(dp2898
g82
I3
ssg83
g2892
sg76
(lp2899
S''
asbasbasbag69
(g85
g71
NtRp2900
(dp2901
g74
(dp2902
sg83
g2602
sg76
(lp2903
g69
(g90
g71
NtRp2904
(dp2905
g74
(dp2906
g94
g95
ssg83
g2900
sg76
(lp2907
S'SERVER_NAME'
p2908
asbag69
(g90
g71
NtRp2909
(dp2910
g74
(dp2911
g101
g102
ssg83
g2900
sg76
(lp2912
S':'
asbag69
(g90
g71
NtRp2913
(dp2914
g74
(dp2915
sg83
g2900
sg76
(lp2916
g69
(g70
g71
NtRp2917
(dp2918
g74
(dp2919
g82
I3
ssg83
g2913
sg76
(lp2920
g1547
asbasbasbag69
(g85
g71
NtRp2921
(dp2922
g74
(dp2923
sg83
g2602
sg76
(lp2924
g69
(g90
g71
NtRp2925
(dp2926
g74
(dp2927
g94
g95
ssg83
g2921
sg76
(lp2928
S'SERVER_PORT'
p2929
asbag69
(g90
g71
NtRp2930
(dp2931
g74
(dp2932
g101
g102
ssg83
g2921
sg76
(lp2933
S':'
asbag69
(g90
g71
NtRp2934
(dp2935
g74
(dp2936
sg83
g2921
sg76
(lp2937
g69
(g70
g71
NtRp2938
(dp2939
g74
(dp2940
g82
I3
ssg83
g2934
sg76
(lp2941
g1569
asbasbasbag69
(g85
g71
NtRp2942
(dp2943
g74
(dp2944
sg83
g2602
sg76
(lp2945
g69
(g90
g71
NtRp2946
(dp2947
g74
(dp2948
g94
g95
ssg83
g2942
sg76
(lp2949
S'SERVER_PROTOCOL'
p2950
asbag69
(g90
g71
NtRp2951
(dp2952
g74
(dp2953
g101
g102
ssg83
g2942
sg76
(lp2954
S':'
asbag69
(g90
g71
NtRp2955
(dp2956
g74
(dp2957
sg83
g2942
sg76
(lp2958
g69
(g70
g71
NtRp2959
(dp2960
g74
(dp2961
g82
I3
ssg83
g2955
sg76
(lp2962
g1591
asbasbasbag69
(g85
g71
NtRp2963
(dp2964
g74
(dp2965
sg83
g2602
sg76
(lp2966
g69
(g90
g71
NtRp2967
(dp2968
g74
(dp2969
g94
g95
ssg83
g2963
sg76
(lp2970
S'SERVER_SOFTWARE'
p2971
asbag69
(g90
g71
NtRp2972
(dp2973
g74
(dp2974
g101
g102
ssg83
g2963
sg76
(lp2975
S':'
asbag69
(g90
g71
NtRp2976
(dp2977
g74
(dp2978
sg83
g2963
sg76
(lp2979
g69
(g70
g71
NtRp2980
(dp2981
g74
(dp2982
g82
I3
ssg83
g2976
sg76
(lp2983
g1613
asbasbasbag69
(g85
g71
NtRp2984
(dp2985
g74
(dp2986
sg83
g2602
sg76
(lp2987
g69
(g90
g71
NtRp2988
(dp2989
g74
(dp2990
g94
g95
ssg83
g2984
sg76
(lp2991
S'wsgi.errors'
p2992
asbag69
(g90
g71
NtRp2993
(dp2994
g74
(dp2995
g101
g102
ssg83
g2984
sg76
(lp2996
S':'
asbag69
(g90
g71
NtRp2997
(dp2998
g74
(dp2999
sg83
g2984
sg76
(lp3000
g69
(g70
g71
NtRp3001
(dp3002
g74
(dp3003
g82
I3
ssg83
g2997
sg76
(lp3004
S"<open file '<stderr>', mode 'w' at 0x7f044c779270>"
p3005
asbasbasbag69
(g85
g71
NtRp3006
(dp3007
g74
(dp3008
sg83
g2602
sg76
(lp3009
g69
(g90
g71
NtRp3010
(dp3011
g74
(dp3012
g94
g95
ssg83
g3006
sg76
(lp3013
S'wsgi.file_wrapper'
p3014
asbag69
(g90
g71
NtRp3015
(dp3016
g74
(dp3017
g101
g102
ssg83
g3006
sg76
(lp3018
S':'
asbag69
(g90
g71
NtRp3019
(dp3020
g74
(dp3021
sg83
g3006
sg76
(lp3022
g69
(g70
g71
NtRp3023
(dp3024
g74
(dp3025
g82
I3
ssg83
g3019
sg76
(lp3026
S'<class wsgiref.util.FileWrapper at 0x21cc668>'
p3027
asbasbasbag69
(g85
g71
NtRp3028
(dp3029
g74
(dp3030
sg83
g2602
sg76
(lp3031
g69
(g90
g71
NtRp3032
(dp3033
g74
(dp3034
g94
g95
ssg83
g3028
sg76
(lp3035
S'wsgi.input'
p3036
asbag69
(g90
g71
NtRp3037
(dp3038
g74
(dp3039
g101
g102
ssg83
g3028
sg76
(lp3040
S':'
asbag69
(g90
g71
NtRp3041
(dp3042
g74
(dp3043
sg83
g3028
sg76
(lp3044
g69
(g70
g71
NtRp3045
(dp3046
g74
(dp3047
g82
I3
ssg83
g3041
sg76
(lp3048
S'<cStringIO.StringO object at 0x7f04201e1d50>'
p3049
asbasbasbag69
(g85
g71
NtRp3050
(dp3051
g74
(dp3052
sg83
g2602
sg76
(lp3053
g69
(g90
g71
NtRp3054
(dp3055
g74
(dp3056
g94
g95
ssg83
g3050
sg76
(lp3057
S'wsgi.multiprocess'
p3058
asbag69
(g90
g71
NtRp3059
(dp3060
g74
(dp3061
g101
g102
ssg83
g3050
sg76
(lp3062
S':'
asbag69
(g90
g71
NtRp3063
(dp3064
g74
(dp3065
sg83
g3050
sg76
(lp3066
g69
(g70
g71
NtRp3067
(dp3068
g74
(dp3069
g82
I3
ssg83
g3063
sg76
(lp3070
g112
asbasbasbag69
(g85
g71
NtRp3071
(dp3072
g74
(dp3073
sg83
g2602
sg76
(lp3074
g69
(g90
g71
NtRp3075
(dp3076
g74
(dp3077
g94
g95
ssg83
g3071
sg76
(lp3078
S'wsgi.multithread'
p3079
asbag69
(g90
g71
NtRp3080
(dp3081
g74
(dp3082
g101
g102
ssg83
g3071
sg76
(lp3083
S':'
asbag69
(g90
g71
NtRp3084
(dp3085
g74
(dp3086
sg83
g3071
sg76
(lp3087
g69
(g70
g71
NtRp3088
(dp3089
g74
(dp3090
g82
I3
ssg83
g3084
sg76
(lp3091
g1853
asbasbasbag69
(g85
g71
NtRp3092
(dp3093
g74
(dp3094
sg83
g2602
sg76
(lp3095
g69
(g90
g71
NtRp3096
(dp3097
g74
(dp3098
g94
g95
ssg83
g3092
sg76
(lp3099
S'wsgi.run_once'
p3100
asbag69
(g90
g71
NtRp3101
(dp3102
g74
(dp3103
g101
g102
ssg83
g3092
sg76
(lp3104
S':'
asbag69
(g90
g71
NtRp3105
(dp3106
g74
(dp3107
sg83
g3092
sg76
(lp3108
g69
(g70
g71
NtRp3109
(dp3110
g74
(dp3111
g82
I3
ssg83
g3105
sg76
(lp3112
g112
asbasbasbag69
(g85
g71
NtRp3113
(dp3114
g74
(dp3115
sg83
g2602
sg76
(lp3116
g69
(g90
g71
NtRp3117
(dp3118
g74
(dp3119
g94
g95
ssg83
g3113
sg76
(lp3120
S'wsgi.url_scheme'
p3121
asbag69
(g90
g71
NtRp3122
(dp3123
g74
(dp3124
g101
g102
ssg83
g3113
sg76
(lp3125
S':'
asbag69
(g90
g71
NtRp3126
(dp3127
g74
(dp3128
sg83
g3113
sg76
(lp3129
g69
(g70
g71
NtRp3130
(dp3131
g74
(dp3132
g82
I3
ssg83
g3126
sg76
(lp3133
g1896
asbasbasbag69
(g85
g71
NtRp3134
(dp3135
g74
(dp3136
sg83
g2602
sg76
(lp3137
g69
(g90
g71
NtRp3138
(dp3139
g74
(dp3140
g94
g95
ssg83
g3134
sg76
(lp3141
S'wsgi.version'
p3142
asbag69
(g90
g71
NtRp3143
(dp3144
g74
(dp3145
g101
g102
ssg83
g3134
sg76
(lp3146
S':'
asbag69
(g90
g71
NtRp3147
(dp3148
g74
(dp3149
sg83
g3134
sg76
(lp3150
g69
(g70
g71
NtRp3151
(dp3152
g74
(dp3153
g82
I3
ssg83
g3147
sg76
(lp3154
S'1'
asbasbasbasbasbasbasbasbasbasbasbasbasbsS'frames'
p3155
(lp3156
(dp3157
S'file'
p3158
S'/usr/lib/pymodules/python2.7/gluon/restricted.py'
p3159
sS'dump'
p3160
(dp3161
S'code'
p3162
S"'# -*- coding: utf-8 -*-\\n# this file is released ...crud())\\n\\n\\nresponse._vars=response._caller(index)\\n'"
p3163
sS'layer'
p3164
S"'/home/ds-iiit/web2py/applications/Read_it/controllers/default.py'"
p3165
sS'global compile2'
p3166
S'<function compile2>'
p3167
sS'ccode'
p3168
S'undefined'
p3169
ssS'lnum'
p3170
I203
sS'lines'
p3171
(dp3172
I198
S"    environment['__file__'] = layer"
p3173
sI199
S'    try:'
p3174
sI200
S'        if type(code) == types.CodeType:'
p3175
sI201
S'            ccode = code'
p3176
sI202
S'        else:'
p3177
sI203
S'            ccode = compile2(code,layer)'
p3178
sI204
S'        exec ccode in environment'
p3179
sI205
S'    except HTTP:'
p3180
sI206
S'        raise'
p3181
sI207
S'    except RestrictedError:'
p3182
ssS'call'
p3183
S"(code='# -*- coding: utf-8 -*-\\n# this file is released ...crud())\\n\\n\\nresponse._vars=response._caller(index)\\n', environment={'A': <class 'gluon.html.A'>, 'Auth': <class 'gluon.tools.Auth'>, 'B': <class 'gluon.html.B'>, 'BEAUTIFY': <class 'gluon.html.BEAUTIFY'>, 'BODY': <class 'gluon.html.BODY'>, 'BR': <class 'gluon.html.BR'>, 'BUTTON': <class 'gluon.html.BUTTON'>, 'CAT': <class 'gluon.html.CAT'>, 'CENTER': <class 'gluon.html.CENTER'>, 'CLEANUP': <class 'gluon.validators.CLEANUP'>, ...}, layer='/home/ds-iiit/web2py/applications/Read_it/controllers/default.py')"
p3184
sS'func'
p3185
S'restricted'
p3186
sa(dp3187
g3158
S'/usr/lib/pymodules/python2.7/gluon/restricted.py'
p3188
sg3160
(dp3189
S'builtincompile'
p3190
S'<built-in function compile>'
p3191
sS'code'
p3192
S"'# -*- coding: utf-8 -*-\\n# this file is released ...crud())\\n\\n\\nresponse._vars=response._caller(index)\\n'"
p3193
sS'code.rstrip'
p3194
S'<built-in method rstrip of str object>'
p3195
sS').replace'
p3196
g3169
sS'layer'
p3197
S"'/home/ds-iiit/web2py/applications/Read_it/controllers/default.py'"
p3198
ssg3170
I189
sg3171
(dp3199
I192
S'    """'
p3200
sI193
S'    runs code in environment and returns the output. if an exception occurs'
p3201
sI184
S''
sI185
S'def compile2(code,layer):'
p3202
sI186
S'    """'
p3203
sI187
S"    The +'\\n' is necessary else compile fails when code ends in a comment."
p3204
sI188
S'    """'
p3205
sI189
S"    return compile(code.rstrip().replace('\\r\\n','\\n')+'\\n', layer, 'exec')"
p3206
sI190
S''
sI191
S"def restricted(code, environment=None, layer='Unknown'):"
p3207
ssg3183
S"(code='# -*- coding: utf-8 -*-\\n# this file is released ...crud())\\n\\n\\nresponse._vars=response._caller(index)\\n', layer='/home/ds-iiit/web2py/applications/Read_it/controllers/default.py')"
p3208
sg3185
S'compile2'
p3209
sasS'pyver'
p3210
S'Python 2.7.3: /usr/bin/python'
p3211
sS'session'
p3212
g69
(g70
g71
NtRp3213
(dp3214
g74
(dp3215
sg76
(lp3216
g69
(g78
g71
NtRp3217
(dp3218
g74
(dp3219
g82
I5
ssg83
Nsg76
(lp3220
g69
(g85
g71
NtRp3221
(dp3222
g74
(dp3223
sg83
g3217
sg76
(lp3224
g69
(g90
g71
NtRp3225
(dp3226
g74
(dp3227
g94
g95
ssg83
g3221
sg76
(lp3228
S'auth'
p3229
asbag69
(g90
g71
NtRp3230
(dp3231
g74
(dp3232
g101
g102
ssg83
g3221
sg76
(lp3233
S':'
asbag69
(g90
g71
NtRp3234
(dp3235
g74
(dp3236
sg83
g3221
sg76
(lp3237
g69
(g70
g71
NtRp3238
(dp3239
g74
(dp3240
g82
I5
ssg83
g3234
sg76
(lp3241
g69
(g78
g71
NtRp3242
(dp3243
g74
(dp3244
g82
I4
ssg83
Nsg76
(lp3245
g69
(g85
g71
NtRp3246
(dp3247
g74
(dp3248
sg83
g3242
sg76
(lp3249
g69
(g90
g71
NtRp3250
(dp3251
g74
(dp3252
g94
g95
ssg83
g3246
sg76
(lp3253
S'expiration'
p3254
asbag69
(g90
g71
NtRp3255
(dp3256
g74
(dp3257
g101
g102
ssg83
g3246
sg76
(lp3258
S':'
asbag69
(g90
g71
NtRp3259
(dp3260
g74
(dp3261
sg83
g3246
sg76
(lp3262
g69
(g70
g71
NtRp3263
(dp3264
g74
(dp3265
g82
I4
ssg83
g3259
sg76
(lp3266
S'2592000'
p3267
asbasbasbag69
(g85
g71
NtRp3268
(dp3269
g74
(dp3270
sg83
g3242
sg76
(lp3271
g69
(g90
g71
NtRp3272
(dp3273
g74
(dp3274
g94
g95
ssg83
g3268
sg76
(lp3275
S'hmac_key'
p3276
asbag69
(g90
g71
NtRp3277
(dp3278
g74
(dp3279
g101
g102
ssg83
g3268
sg76
(lp3280
S':'
asbag69
(g90
g71
NtRp3281
(dp3282
g74
(dp3283
sg83
g3268
sg76
(lp3284
g69
(g70
g71
NtRp3285
(dp3286
g74
(dp3287
g82
I4
ssg83
g3281
sg76
(lp3288
S'bef30485-d359-46e3-b60a-cb3c7ea7b50c'
p3289
asbasbasbag69
(g85
g71
NtRp3290
(dp3291
g74
(dp3292
sg83
g3242
sg76
(lp3293
g69
(g90
g71
NtRp3294
(dp3295
g74
(dp3296
g94
g95
ssg83
g3290
sg76
(lp3297
S'last_visit'
p3298
asbag69
(g90
g71
NtRp3299
(dp3300
g74
(dp3301
g101
g102
ssg83
g3290
sg76
(lp3302
S':'
asbag69
(g90
g71
NtRp3303
(dp3304
g74
(dp3305
sg83
g3290
sg76
(lp3306
g69
(g70
g71
NtRp3307
(dp3308
g74
(dp3309
g82
I4
ssg83
g3303
sg76
(lp3310
S'datetime.datetime(2013, 9, 1, 23, 54, 54, 976819)'
p3311
asbasbasbag69
(g85
g71
NtRp3312
(dp3313
g74
(dp3314
sg83
g3242
sg76
(lp3315
g69
(g90
g71
NtRp3316
(dp3317
g74
(dp3318
g94
g95
ssg83
g3312
sg76
(lp3319
S'remember'
p3320
asbag69
(g90
g71
NtRp3321
(dp3322
g74
(dp3323
g101
g102
ssg83
g3312
sg76
(lp3324
S':'
asbag69
(g90
g71
NtRp3325
(dp3326
g74
(dp3327
sg83
g3312
sg76
(lp3328
g69
(g70
g71
NtRp3329
(dp3330
g74
(dp3331
g82
I4
ssg83
g3325
sg76
(lp3332
g112
asbasbasbag69
(g85
g71
NtRp3333
(dp3334
g74
(dp3335
sg83
g3242
sg76
(lp3336
g69
(g90
g71
NtRp3337
(dp3338
g74
(dp3339
g94
g95
ssg83
g3333
sg76
(lp3340
S'user'
p3341
asbag69
(g90
g71
NtRp3342
(dp3343
g74
(dp3344
g101
g102
ssg83
g3333
sg76
(lp3345
S':'
asbag69
(g90
g71
NtRp3346
(dp3347
g74
(dp3348
sg83
g3333
sg76
(lp3349
g69
(g70
g71
NtRp3350
(dp3351
g74
(dp3352
g82
I4
ssg83
g3346
sg76
(lp3353
g69
(g78
g71
NtRp3354
(dp3355
g74
(dp3356
g82
I3
ssg83
Nsg76
(lp3357
g69
(g85
g71
NtRp3358
(dp3359
g74
(dp3360
sg83
g3354
sg76
(lp3361
g69
(g90
g71
NtRp3362
(dp3363
g74
(dp3364
g94
g95
ssg83
g3358
sg76
(lp3365
S'email'
p3366
asbag69
(g90
g71
NtRp3367
(dp3368
g74
(dp3369
g101
g102
ssg83
g3358
sg76
(lp3370
S':'
asbag69
(g90
g71
NtRp3371
(dp3372
g74
(dp3373
sg83
g3358
sg76
(lp3374
g69
(g70
g71
NtRp3375
(dp3376
g74
(dp3377
g82
I3
ssg83
g3371
sg76
(lp3378
S'sweetdevansh@gmail.com'
p3379
asbasbasbag69
(g85
g71
NtRp3380
(dp3381
g74
(dp3382
sg83
g3354
sg76
(lp3383
g69
(g90
g71
NtRp3384
(dp3385
g74
(dp3386
g94
g95
ssg83
g3380
sg76
(lp3387
S'first_name'
p3388
asbag69
(g90
g71
NtRp3389
(dp3390
g74
(dp3391
g101
g102
ssg83
g3380
sg76
(lp3392
S':'
asbag69
(g90
g71
NtRp3393
(dp3394
g74
(dp3395
sg83
g3380
sg76
(lp3396
g69
(g70
g71
NtRp3397
(dp3398
g74
(dp3399
g82
I3
ssg83
g3393
sg76
(lp3400
S'Devansh'
p3401
asbasbasbag69
(g85
g71
NtRp3402
(dp3403
g74
(dp3404
sg83
g3354
sg76
(lp3405
g69
(g90
g71
NtRp3406
(dp3407
g74
(dp3408
g94
g95
ssg83
g3402
sg76
(lp3409
S'id'
p3410
asbag69
(g90
g71
NtRp3411
(dp3412
g74
(dp3413
g101
g102
ssg83
g3402
sg76
(lp3414
S':'
asbag69
(g90
g71
NtRp3415
(dp3416
g74
(dp3417
sg83
g3402
sg76
(lp3418
g69
(g70
g71
NtRp3419
(dp3420
g74
(dp3421
g82
I3
ssg83
g3415
sg76
(lp3422
S'1'
asbasbasbag69
(g85
g71
NtRp3423
(dp3424
g74
(dp3425
sg83
g3354
sg76
(lp3426
g69
(g90
g71
NtRp3427
(dp3428
g74
(dp3429
g94
g95
ssg83
g3423
sg76
(lp3430
S'last_name'
p3431
asbag69
(g90
g71
NtRp3432
(dp3433
g74
(dp3434
g101
g102
ssg83
g3423
sg76
(lp3435
S':'
asbag69
(g90
g71
NtRp3436
(dp3437
g74
(dp3438
sg83
g3423
sg76
(lp3439
g69
(g70
g71
NtRp3440
(dp3441
g74
(dp3442
g82
I3
ssg83
g3436
sg76
(lp3443
S'Shah'
p3444
asbasbasbag69
(g85
g71
NtRp3445
(dp3446
g74
(dp3447
sg83
g3354
sg76
(lp3448
g69
(g90
g71
NtRp3449
(dp3450
g74
(dp3451
g94
g95
ssg83
g3445
sg76
(lp3452
S'password'
p3453
asbag69
(g90
g71
NtRp3454
(dp3455
g74
(dp3456
g101
g102
ssg83
g3445
sg76
(lp3457
S':'
asbag69
(g90
g71
NtRp3458
(dp3459
g74
(dp3460
sg83
g3445
sg76
(lp3461
g69
(g70
g71
NtRp3462
(dp3463
g74
(dp3464
g82
I3
ssg83
g3458
sg76
(lp3465
S'4fa78620b77f92c7faf768350dccbc8d'
p3466
asbasbasbag69
(g85
g71
NtRp3467
(dp3468
g74
(dp3469
sg83
g3354
sg76
(lp3470
g69
(g90
g71
NtRp3471
(dp3472
g74
(dp3473
g94
g95
ssg83
g3467
sg76
(lp3474
S'registration_id'
p3475
asbag69
(g90
g71
NtRp3476
(dp3477
g74
(dp3478
g101
g102
ssg83
g3467
sg76
(lp3479
S':'
asbag69
(g90
g71
NtRp3480
(dp3481
g74
(dp3482
sg83
g3467
sg76
(lp3483
g69
(g70
g71
NtRp3484
(dp3485
g74
(dp3486
g82
I3
ssg83
g3480
sg76
(lp3487
S''
asbasbasbag69
(g85
g71
NtRp3488
(dp3489
g74
(dp3490
sg83
g3354
sg76
(lp3491
g69
(g90
g71
NtRp3492
(dp3493
g74
(dp3494
g94
g95
ssg83
g3488
sg76
(lp3495
S'registration_key'
p3496
asbag69
(g90
g71
NtRp3497
(dp3498
g74
(dp3499
g101
g102
ssg83
g3488
sg76
(lp3500
S':'
asbag69
(g90
g71
NtRp3501
(dp3502
g74
(dp3503
sg83
g3488
sg76
(lp3504
g69
(g70
g71
NtRp3505
(dp3506
g74
(dp3507
g82
I3
ssg83
g3501
sg76
(lp3508
S''
asbasbasbag69
(g85
g71
NtRp3509
(dp3510
g74
(dp3511
sg83
g3354
sg76
(lp3512
g69
(g90
g71
NtRp3513
(dp3514
g74
(dp3515
g94
g95
ssg83
g3509
sg76
(lp3516
S'reset_password_key'
p3517
asbag69
(g90
g71
NtRp3518
(dp3519
g74
(dp3520
g101
g102
ssg83
g3509
sg76
(lp3521
S':'
asbag69
(g90
g71
NtRp3522
(dp3523
g74
(dp3524
sg83
g3509
sg76
(lp3525
g69
(g70
g71
NtRp3526
(dp3527
g74
(dp3528
g82
I3
ssg83
g3522
sg76
(lp3529
S''
asbasbasbasbasbasbasbasbasbasbasbag69
(g85
g71
NtRp3530
(dp3531
g74
(dp3532
sg83
g3217
sg76
(lp3533
g69
(g90
g71
NtRp3534
(dp3535
g74
(dp3536
g94
g95
ssg83
g3530
sg76
(lp3537
S'last_query'
p3538
asbag69
(g90
g71
NtRp3539
(dp3540
g74
(dp3541
g101
g102
ssg83
g3530
sg76
(lp3542
S':'
asbag69
(g90
g71
NtRp3543
(dp3544
g74
(dp3545
sg83
g3530
sg76
(lp3546
g69
(g70
g71
NtRp3547
(dp3548
g74
(dp3549
g82
I5
ssg83
g3543
sg76
(lp3550
S'db.Category.id>0'
p3551
asbasbasbasbasbsS'etype'
p3552
S"<type 'exceptions.SyntaxError'>"
p3553
sS'date'
p3554
S'Mon Sep  2 01:05:45 2013'
p3555
sS'response'
p3556
g69
(g70
g71
NtRp3557
(dp3558
g74
(dp3559
sg76
(lp3560
g69
(g78
g71
NtRp3561
(dp3562
g74
(dp3563
g82
I5
ssg83
Nsg76
(lp3564
g69
(g85
g71
NtRp3565
(dp3566
g74
(dp3567
sg83
g3561
sg76
(lp3568
g69
(g90
g71
NtRp3569
(dp3570
g74
(dp3571
g94
g95
ssg83
g3565
sg76
(lp3572
g167
asbag69
(g90
g71
NtRp3573
(dp3574
g74
(dp3575
g101
g102
ssg83
g3565
sg76
(lp3576
S':'
asbag69
(g90
g71
NtRp3577
(dp3578
g74
(dp3579
sg83
g3565
sg76
(lp3580
g69
(g70
g71
NtRp3581
(dp3582
g74
(dp3583
g82
I5
ssg83
g3577
sg76
(lp3584
S'<cStringIO.StringO object at 0x7f03fc2f8490>'
p3585
asbasbasbag69
(g85
g71
NtRp3586
(dp3587
g74
(dp3588
sg83
g3561
sg76
(lp3589
g69
(g90
g71
NtRp3590
(dp3591
g74
(dp3592
g94
g95
ssg83
g3586
sg76
(lp3593
g233
asbag69
(g90
g71
NtRp3594
(dp3595
g74
(dp3596
g101
g102
ssg83
g3586
sg76
(lp3597
S':'
asbag69
(g90
g71
NtRp3598
(dp3599
g74
(dp3600
sg83
g3586
sg76
(lp3601
g69
(g70
g71
NtRp3602
(dp3603
g74
(dp3604
g82
I5
ssg83
g3598
sg76
(lp3605
g69
(g78
g71
NtRp3606
(dp3607
g74
(dp3608
g82
I4
ssg83
Nsg76
(lp3609
g69
(g85
g71
NtRp3610
(dp3611
g74
(dp3612
sg83
g3606
sg76
(lp3613
g69
(g90
g71
NtRp3614
(dp3615
g74
(dp3616
g94
g95
ssg83
g3610
sg76
(lp3617
S'session_id_read_it'
p3618
asbag69
(g90
g71
NtRp3619
(dp3620
g74
(dp3621
g101
g102
ssg83
g3610
sg76
(lp3622
S':'
asbag69
(g90
g71
NtRp3623
(dp3624
g74
(dp3625
sg83
g3610
sg76
(lp3626
g69
(g70
g71
NtRp3627
(dp3628
g74
(dp3629
g82
I4
ssg83
g3623
sg76
(lp3630
g69
(g78
g71
NtRp3631
(dp3632
g74
(dp3633
g82
I3
ssg83
Nsg76
(lp3634
g69
(g85
g71
NtRp3635
(dp3636
g74
(dp3637
sg83
g3631
sg76
(lp3638
g69
(g90
g71
NtRp3639
(dp3640
g74
(dp3641
g94
g95
ssg83
g3635
sg76
(lp3642
g283
asbag69
(g90
g71
NtRp3643
(dp3644
g74
(dp3645
g101
g102
ssg83
g3635
sg76
(lp3646
S':'
asbag69
(g90
g71
NtRp3647
(dp3648
g74
(dp3649
sg83
g3635
sg76
(lp3650
g69
(g70
g71
NtRp3651
(dp3652
g74
(dp3653
g82
I3
ssg83
g3647
sg76
(lp3654
S''
asbasbasbag69
(g85
g71
NtRp3655
(dp3656
g74
(dp3657
sg83
g3631
sg76
(lp3658
g69
(g90
g71
NtRp3659
(dp3660
g74
(dp3661
g94
g95
ssg83
g3655
sg76
(lp3662
g304
asbag69
(g90
g71
NtRp3663
(dp3664
g74
(dp3665
g101
g102
ssg83
g3655
sg76
(lp3666
S':'
asbag69
(g90
g71
NtRp3667
(dp3668
g74
(dp3669
sg83
g3655
sg76
(lp3670
g69
(g70
g71
NtRp3671
(dp3672
g74
(dp3673
g82
I3
ssg83
g3667
sg76
(lp3674
S''
asbasbasbag69
(g85
g71
NtRp3675
(dp3676
g74
(dp3677
sg83
g3631
sg76
(lp3678
g69
(g90
g71
NtRp3679
(dp3680
g74
(dp3681
g94
g95
ssg83
g3675
sg76
(lp3682
g325
asbag69
(g90
g71
NtRp3683
(dp3684
g74
(dp3685
g101
g102
ssg83
g3675
sg76
(lp3686
S':'
asbag69
(g90
g71
NtRp3687
(dp3688
g74
(dp3689
sg83
g3675
sg76
(lp3690
g69
(g70
g71
NtRp3691
(dp3692
g74
(dp3693
g82
I3
ssg83
g3687
sg76
(lp3694
S''
asbasbasbag69
(g85
g71
NtRp3695
(dp3696
g74
(dp3697
sg83
g3631
sg76
(lp3698
g69
(g90
g71
NtRp3699
(dp3700
g74
(dp3701
g94
g95
ssg83
g3695
sg76
(lp3702
g346
asbag69
(g90
g71
NtRp3703
(dp3704
g74
(dp3705
g101
g102
ssg83
g3695
sg76
(lp3706
S':'
asbag69
(g90
g71
NtRp3707
(dp3708
g74
(dp3709
sg83
g3695
sg76
(lp3710
g69
(g70
g71
NtRp3711
(dp3712
g74
(dp3713
g82
I3
ssg83
g3707
sg76
(lp3714
S''
asbasbasbag69
(g85
g71
NtRp3715
(dp3716
g74
(dp3717
sg83
g3631
sg76
(lp3718
g69
(g90
g71
NtRp3719
(dp3720
g74
(dp3721
g94
g95
ssg83
g3715
sg76
(lp3722
g367
asbag69
(g90
g71
NtRp3723
(dp3724
g74
(dp3725
g101
g102
ssg83
g3715
sg76
(lp3726
S':'
asbag69
(g90
g71
NtRp3727
(dp3728
g74
(dp3729
sg83
g3715
sg76
(lp3730
g69
(g70
g71
NtRp3731
(dp3732
g74
(dp3733
g82
I3
ssg83
g3727
sg76
(lp3734
S''
asbasbasbag69
(g85
g71
NtRp3735
(dp3736
g74
(dp3737
sg83
g3631
sg76
(lp3738
g69
(g90
g71
NtRp3739
(dp3740
g74
(dp3741
g94
g95
ssg83
g3735
sg76
(lp3742
g388
asbag69
(g90
g71
NtRp3743
(dp3744
g74
(dp3745
g101
g102
ssg83
g3735
sg76
(lp3746
S':'
asbag69
(g90
g71
NtRp3747
(dp3748
g74
(dp3749
sg83
g3735
sg76
(lp3750
g69
(g70
g71
NtRp3751
(dp3752
g74
(dp3753
g82
I3
ssg83
g3747
sg76
(lp3754
S'/'
asbasbasbag69
(g85
g71
NtRp3755
(dp3756
g74
(dp3757
sg83
g3631
sg76
(lp3758
g69
(g90
g71
NtRp3759
(dp3760
g74
(dp3761
g94
g95
ssg83
g3755
sg76
(lp3762
g409
asbag69
(g90
g71
NtRp3763
(dp3764
g74
(dp3765
g101
g102
ssg83
g3755
sg76
(lp3766
S':'
asbag69
(g90
g71
NtRp3767
(dp3768
g74
(dp3769
sg83
g3755
sg76
(lp3770
g69
(g70
g71
NtRp3771
(dp3772
g74
(dp3773
g82
I3
ssg83
g3767
sg76
(lp3774
S''
asbasbasbag69
(g85
g71
NtRp3775
(dp3776
g74
(dp3777
sg83
g3631
sg76
(lp3778
g69
(g90
g71
NtRp3779
(dp3780
g74
(dp3781
g94
g95
ssg83
g3775
sg76
(lp3782
g430
asbag69
(g90
g71
NtRp3783
(dp3784
g74
(dp3785
g101
g102
ssg83
g3775
sg76
(lp3786
S':'
asbag69
(g90
g71
NtRp3787
(dp3788
g74
(dp3789
sg83
g3775
sg76
(lp3790
g69
(g70
g71
NtRp3791
(dp3792
g74
(dp3793
g82
I3
ssg83
g3787
sg76
(lp3794
S''
asbasbasbasbasbasbasbasbasbasbasbag69
(g85
g71
NtRp3795
(dp3796
g74
(dp3797
sg83
g3561
sg76
(lp3798
g69
(g90
g71
NtRp3799
(dp3800
g74
(dp3801
g94
g95
ssg83
g3795
sg76
(lp3802
S'files'
p3803
asbag69
(g90
g71
NtRp3804
(dp3805
g74
(dp3806
g101
g102
ssg83
g3795
sg76
(lp3807
S':'
asbag69
(g90
g71
NtRp3808
(dp3809
g74
(dp3810
sg83
g3795
sg76
(lp3811
g69
(g70
g71
NtRp3812
(dp3813
g74
(dp3814
g82
I5
ssg83
g3808
sg76
(lp3815
g69
(g78
g71
NtRp3816
(dp3817
g74
(dp3818
g82
I4
ssg83
Nsg76
(lp3819
sbasbasbasbag69
(g85
g71
NtRp3820
(dp3821
g74
(dp3822
sg83
g3561
sg76
(lp3823
g69
(g90
g71
NtRp3824
(dp3825
g74
(dp3826
g94
g95
ssg83
g3820
sg76
(lp3827
S'flash'
p3828
asbag69
(g90
g71
NtRp3829
(dp3830
g74
(dp3831
g101
g102
ssg83
g3820
sg76
(lp3832
S':'
asbag69
(g90
g71
NtRp3833
(dp3834
g74
(dp3835
sg83
g3820
sg76
(lp3836
g69
(g70
g71
NtRp3837
(dp3838
g74
(dp3839
g82
I5
ssg83
g3833
sg76
(lp3840
S''
asbasbasbag69
(g85
g71
NtRp3841
(dp3842
g74
(dp3843
sg83
g3561
sg76
(lp3844
g69
(g90
g71
NtRp3845
(dp3846
g74
(dp3847
g94
g95
ssg83
g3841
sg76
(lp3848
S'generic_patterns'
p3849
asbag69
(g90
g71
NtRp3850
(dp3851
g74
(dp3852
g101
g102
ssg83
g3841
sg76
(lp3853
S':'
asbag69
(g90
g71
NtRp3854
(dp3855
g74
(dp3856
sg83
g3841
sg76
(lp3857
g69
(g70
g71
NtRp3858
(dp3859
g74
(dp3860
g82
I5
ssg83
g3854
sg76
(lp3861
g69
(g78
g71
NtRp3862
(dp3863
g74
(dp3864
g82
I4
ssg83
Nsg76
(lp3865
g69
(g85
g71
NtRp3866
(dp3867
g74
(dp3868
sg83
g3862
sg76
(lp3869
g69
(g90
g71
NtRp3870
(dp3871
g74
(dp3872
sg83
g3866
sg76
(lp3873
g69
(g70
g71
NtRp3874
(dp3875
g74
(dp3876
g82
I4
ssg83
g3870
sg76
(lp3877
S'*'
asbasbasbasbasbasbasbag69
(g85
g71
NtRp3878
(dp3879
g74
(dp3880
sg83
g3561
sg76
(lp3881
g69
(g90
g71
NtRp3882
(dp3883
g74
(dp3884
g94
g95
ssg83
g3878
sg76
(lp3885
S'headers'
p3886
asbag69
(g90
g71
NtRp3887
(dp3888
g74
(dp3889
g101
g102
ssg83
g3878
sg76
(lp3890
S':'
asbag69
(g90
g71
NtRp3891
(dp3892
g74
(dp3893
sg83
g3878
sg76
(lp3894
g69
(g70
g71
NtRp3895
(dp3896
g74
(dp3897
g82
I5
ssg83
g3891
sg76
(lp3898
g69
(g78
g71
NtRp3899
(dp3900
g74
(dp3901
g82
I4
ssg83
Nsg76
(lp3902
g69
(g85
g71
NtRp3903
(dp3904
g74
(dp3905
sg83
g3899
sg76
(lp3906
g69
(g90
g71
NtRp3907
(dp3908
g74
(dp3909
g94
g95
ssg83
g3903
sg76
(lp3910
S'Cache-Control'
p3911
asbag69
(g90
g71
NtRp3912
(dp3913
g74
(dp3914
g101
g102
ssg83
g3903
sg76
(lp3915
S':'
asbag69
(g90
g71
NtRp3916
(dp3917
g74
(dp3918
sg83
g3903
sg76
(lp3919
g69
(g70
g71
NtRp3920
(dp3921
g74
(dp3922
g82
I4
ssg83
g3916
sg76
(lp3923
S'no-store, no-cache, must-revalidate, post-check=0, pre-check=0'
p3924
asbasbasbag69
(g85
g71
NtRp3925
(dp3926
g74
(dp3927
sg83
g3899
sg76
(lp3928
g69
(g90
g71
NtRp3929
(dp3930
g74
(dp3931
g94
g95
ssg83
g3925
sg76
(lp3932
S'Content-Type'
p3933
asbag69
(g90
g71
NtRp3934
(dp3935
g74
(dp3936
g101
g102
ssg83
g3925
sg76
(lp3937
S':'
asbag69
(g90
g71
NtRp3938
(dp3939
g74
(dp3940
sg83
g3925
sg76
(lp3941
g69
(g70
g71
NtRp3942
(dp3943
g74
(dp3944
g82
I4
ssg83
g3938
sg76
(lp3945
S'text/html; charset=utf-8'
p3946
asbasbasbag69
(g85
g71
NtRp3947
(dp3948
g74
(dp3949
sg83
g3899
sg76
(lp3950
g69
(g90
g71
NtRp3951
(dp3952
g74
(dp3953
g94
g95
ssg83
g3947
sg76
(lp3954
S'Expires'
p3955
asbag69
(g90
g71
NtRp3956
(dp3957
g74
(dp3958
g101
g102
ssg83
g3947
sg76
(lp3959
S':'
asbag69
(g90
g71
NtRp3960
(dp3961
g74
(dp3962
sg83
g3947
sg76
(lp3963
g69
(g70
g71
NtRp3964
(dp3965
g74
(dp3966
g82
I4
ssg83
g3960
sg76
(lp3967
S'Sun, 01 Sep 2013 19:35:45 GMT'
p3968
asbasbasbag69
(g85
g71
NtRp3969
(dp3970
g74
(dp3971
sg83
g3899
sg76
(lp3972
g69
(g90
g71
NtRp3973
(dp3974
g74
(dp3975
g94
g95
ssg83
g3969
sg76
(lp3976
S'Pragma'
p3977
asbag69
(g90
g71
NtRp3978
(dp3979
g74
(dp3980
g101
g102
ssg83
g3969
sg76
(lp3981
S':'
asbag69
(g90
g71
NtRp3982
(dp3983
g74
(dp3984
sg83
g3969
sg76
(lp3985
g69
(g70
g71
NtRp3986
(dp3987
g74
(dp3988
g82
I4
ssg83
g3982
sg76
(lp3989
S'no-cache'
p3990
asbasbasbag69
(g85
g71
NtRp3991
(dp3992
g74
(dp3993
sg83
g3899
sg76
(lp3994
g69
(g90
g71
NtRp3995
(dp3996
g74
(dp3997
g94
g95
ssg83
g3991
sg76
(lp3998
S'X-Powered-By'
p3999
asbag69
(g90
g71
NtRp4000
(dp4001
g74
(dp4002
g101
g102
ssg83
g3991
sg76
(lp4003
S':'
asbag69
(g90
g71
NtRp4004
(dp4005
g74
(dp4006
sg83
g3991
sg76
(lp4007
g69
(g70
g71
NtRp4008
(dp4009
g74
(dp4010
g82
I4
ssg83
g4004
sg76
(lp4011
S'web2py'
p4012
asbasbasbasbasbasbasbag69
(g85
g71
NtRp4013
(dp4014
g74
(dp4015
sg83
g3561
sg76
(lp4016
g69
(g90
g71
NtRp4017
(dp4018
g74
(dp4019
g94
g95
ssg83
g4013
sg76
(lp4020
S'menu'
p4021
asbag69
(g90
g71
NtRp4022
(dp4023
g74
(dp4024
g101
g102
ssg83
g4013
sg76
(lp4025
S':'
asbag69
(g90
g71
NtRp4026
(dp4027
g74
(dp4028
sg83
g4013
sg76
(lp4029
g69
(g70
g71
NtRp4030
(dp4031
g74
(dp4032
g82
I5
ssg83
g4026
sg76
(lp4033
g69
(g78
g71
NtRp4034
(dp4035
g74
(dp4036
g82
I4
ssg83
Nsg76
(lp4037
g69
(g85
g71
NtRp4038
(dp4039
g74
(dp4040
sg83
g4034
sg76
(lp4041
g69
(g90
g71
NtRp4042
(dp4043
g74
(dp4044
sg83
g4038
sg76
(lp4045
g69
(g70
g71
NtRp4046
(dp4047
g74
(dp4048
g82
I4
ssg83
g4042
sg76
(lp4049
g69
(g78
g71
NtRp4050
(dp4051
g74
(dp4052
g82
I3
ssg83
Nsg76
(lp4053
g69
(g85
g71
NtRp4054
(dp4055
g74
(dp4056
sg83
g4050
sg76
(lp4057
g69
(g90
g71
NtRp4058
(dp4059
g74
(dp4060
sg83
g4054
sg76
(lp4061
g69
(g70
g71
NtRp4062
(dp4063
g74
(dp4064
g82
I3
ssg83
g4058
sg76
(lp4065
cgluon.languages
lazyT_unpickle
p4066
(S't\x04\x00\x00\x00Home'
tRp4067
asbasbasbag69
(g85
g71
NtRp4068
(dp4069
g74
(dp4070
sg83
g4050
sg76
(lp4071
g69
(g90
g71
NtRp4072
(dp4073
g74
(dp4074
sg83
g4068
sg76
(lp4075
g69
(g70
g71
NtRp4076
(dp4077
g74
(dp4078
g82
I3
ssg83
g4072
sg76
(lp4079
g112
asbasbasbag69
(g85
g71
NtRp4080
(dp4081
g74
(dp4082
sg83
g4050
sg76
(lp4083
g69
(g90
g71
NtRp4084
(dp4085
g74
(dp4086
sg83
g4080
sg76
(lp4087
g69
(g70
g71
NtRp4088
(dp4089
g74
(dp4090
g82
I3
ssg83
g4084
sg76
(lp4091
S'/Read_it/default/index'
p4092
asbasbasbag69
(g85
g71
NtRp4093
(dp4094
g74
(dp4095
sg83
g4050
sg76
(lp4096
g69
(g90
g71
NtRp4097
(dp4098
g74
(dp4099
sg83
g4093
sg76
(lp4100
g69
(g70
g71
NtRp4101
(dp4102
g74
(dp4103
g82
I3
ssg83
g4097
sg76
(lp4104
g69
(g78
g71
NtRp4105
(dp4106
g74
(dp4107
g82
I2
ssg83
Nsg76
(lp4108
sbasbasbasbasbasbasbasbag69
(g85
g71
NtRp4109
(dp4110
g74
(dp4111
sg83
g4034
sg76
(lp4112
g69
(g90
g71
NtRp4113
(dp4114
g74
(dp4115
sg83
g4109
sg76
(lp4116
g69
(g70
g71
NtRp4117
(dp4118
g74
(dp4119
g82
I4
ssg83
g4113
sg76
(lp4120
g69
(g78
g71
NtRp4121
(dp4122
g74
(dp4123
g82
I3
ssg83
Nsg76
(lp4124
g69
(g85
g71
NtRp4125
(dp4126
g74
(dp4127
sg83
g4121
sg76
(lp4128
g69
(g90
g71
NtRp4129
(dp4130
g74
(dp4131
sg83
g4125
sg76
(lp4132
g69
(g70
g71
NtRp4133
(dp4134
g74
(dp4135
g82
I3
ssg83
g4129
sg76
(lp4136
g69
(cgluon.html
SPAN
p4137
g71
NtRp4138
(dp4139
g74
(dp4140
g94
S'color:yellow'
p4141
ssg83
Nsg76
(lp4142
g4012
asbasbasbasbag69
(g85
g71
NtRp4143
(dp4144
g74
(dp4145
sg83
g4121
sg76
(lp4146
g69
(g90
g71
NtRp4147
(dp4148
g74
(dp4149
sg83
g4143
sg76
(lp4150
g69
(g70
g71
NtRp4151
(dp4152
g74
(dp4153
g82
I3
ssg83
g4147
sg76
(lp4154
g112
asbasbasbag69
(g85
g71
NtRp4155
(dp4156
g74
(dp4157
sg83
g4121
sg76
(lp4158
g69
(g90
g71
NtRp4159
(dp4160
g74
(dp4161
sg83
g4155
sg76
(lp4162
g69
(g70
g71
NtRp4163
(dp4164
g74
(dp4165
g82
I3
ssg83
g4159
sg76
(lp4166
S'None'
p4167
asbasbasbag69
(g85
g71
NtRp4168
(dp4169
g74
(dp4170
sg83
g4121
sg76
(lp4171
g69
(g90
g71
NtRp4172
(dp4173
g74
(dp4174
sg83
g4168
sg76
(lp4175
g69
(g70
g71
NtRp4176
(dp4177
g74
(dp4178
g82
I3
ssg83
g4172
sg76
(lp4179
g69
(g78
g71
NtRp4180
(dp4181
g74
(dp4182
g82
I2
ssg83
Nsg76
(lp4183
g69
(g85
g71
NtRp4184
(dp4185
g74
(dp4186
sg83
g4180
sg76
(lp4187
g69
(g90
g71
NtRp4188
(dp4189
g74
(dp4190
sg83
g4184
sg76
(lp4191
g69
(g70
g71
NtRp4192
(dp4193
g74
(dp4194
g82
I2
ssg83
g4188
sg76
(lp4195
g69
(g78
g71
NtRp4196
(dp4197
g74
(dp4198
g82
I1
ssg83
Nsg76
(lp4199
g69
(g85
g71
NtRp4200
(dp4201
g74
(dp4202
sg83
g4196
sg76
(lp4203
g69
(g90
g71
NtRp4204
(dp4205
g74
(dp4206
sg83
g4200
sg76
(lp4207
g69
(g70
g71
NtRp4208
(dp4209
g74
(dp4210
g82
I1
ssg83
g4204
sg76
(lp4211
g4066
(S's\x08\x00\x00\x00My Sites'
tRp4212
asbasbasbag69
(g85
g71
NtRp4213
(dp4214
g74
(dp4215
sg83
g4196
sg76
(lp4216
g69
(g90
g71
NtRp4217
(dp4218
g74
(dp4219
sg83
g4213
sg76
(lp4220
g69
(g70
g71
NtRp4221
(dp4222
g74
(dp4223
g82
I1
ssg83
g4217
sg76
(lp4224
I00
asbasbasbag69
(g85
g71
NtRp4225
(dp4226
g74
(dp4227
sg83
g4196
sg76
(lp4228
g69
(g90
g71
NtRp4229
(dp4230
g74
(dp4231
sg83
g4225
sg76
(lp4232
g69
(g70
g71
NtRp4233
(dp4234
g74
(dp4235
g82
I1
ssg83
g4229
sg76
(lp4236
S'/admin/default/site'
p4237
asbasbasbasbasbasbasbag69
(g85
g71
NtRp4238
(dp4239
g74
(dp4240
sg83
g4180
sg76
(lp4241
g69
(g90
g71
NtRp4242
(dp4243
g74
(dp4244
sg83
g4238
sg76
(lp4245
g69
(g70
g71
NtRp4246
(dp4247
g74
(dp4248
g82
I2
ssg83
g4242
sg76
(lp4249
g69
(g78
g71
NtRp4250
(dp4251
g74
(dp4252
g82
I1
ssg83
Nsg76
(lp4253
g69
(g85
g71
NtRp4254
(dp4255
g74
(dp4256
sg83
g4250
sg76
(lp4257
g69
(g90
g71
NtRp4258
(dp4259
g74
(dp4260
sg83
g4254
sg76
(lp4261
g69
(g70
g71
NtRp4262
(dp4263
g74
(dp4264
g82
I1
ssg83
g4258
sg76
(lp4265
g4066
(S's\x08\x00\x00\x00This App'
tRp4266
asbasbasbag69
(g85
g71
NtRp4267
(dp4268
g74
(dp4269
sg83
g4250
sg76
(lp4270
g69
(g90
g71
NtRp4271
(dp4272
g74
(dp4273
sg83
g4267
sg76
(lp4274
g69
(g70
g71
NtRp4275
(dp4276
g74
(dp4277
g82
I1
ssg83
g4271
sg76
(lp4278
I00
asbasbasbag69
(g85
g71
NtRp4279
(dp4280
g74
(dp4281
sg83
g4250
sg76
(lp4282
g69
(g90
g71
NtRp4283
(dp4284
g74
(dp4285
sg83
g4279
sg76
(lp4286
g69
(g70
g71
NtRp4287
(dp4288
g74
(dp4289
g82
I1
ssg83
g4283
sg76
(lp4290
S'/admin/default/design/Read_it'
p4291
asbasbasbag69
(g85
g71
NtRp4292
(dp4293
g74
(dp4294
sg83
g4250
sg76
(lp4295
g69
(g90
g71
NtRp4296
(dp4297
g74
(dp4298
sg83
g4292
sg76
(lp4299
g69
(g70
g71
NtRp4300
(dp4301
g74
(dp4302
g82
I1
ssg83
g4296
sg76
(lp4303
(lp4304
(g4066
(S't\n\x00\x00\x00Controller'
tRp4305
I00
S'/admin/default/edit/Read_it/controllers/default.py'
tp4306
a(g4066
(S't\x04\x00\x00\x00View'
tRp4307
I00
S'/admin/default/edit/Read_it/views/default/index.html'
tp4308
a(g4066
(S't\x06\x00\x00\x00Layout'
tRp4309
I00
S'/admin/default/edit/Read_it/views/layout.html'
tp4310
a(g4066
(S't\n\x00\x00\x00Stylesheet'
tRp4311
I00
S'/admin/default/edit/Read_it/static/css/web2py.css'
tp4312
a(g4066
(S's\x08\x00\x00\x00DB Model'
tRp4313
I00
S'/admin/default/edit/Read_it/models/db.py'
tp4314
a(g4066
(S's\n\x00\x00\x00Menu Model'
tRp4315
I00
S'/admin/default/edit/Read_it/models/menu.py'
tp4316
a(g4066
(S't\x08\x00\x00\x00Database'
tRp4317
I00
S'/Read_it/appadmin/index'
tp4318
a(g4066
(S't\x06\x00\x00\x00Errors'
tRp4319
I00
S'/admin/default/errors/Read_it'
tp4320
a(g4066
(S't\x05\x00\x00\x00About'
tRp4321
I00
S'/admin/default/about/Read_it'
tp4322
aasbasbasbasbasbasbasbag69
(g85
g71
NtRp4323
(dp4324
g74
(dp4325
sg83
g4180
sg76
(lp4326
g69
(g90
g71
NtRp4327
(dp4328
g74
(dp4329
sg83
g4323
sg76
(lp4330
g69
(g70
g71
NtRp4331
(dp4332
g74
(dp4333
g82
I2
ssg83
g4327
sg76
(lp4334
g69
(g78
g71
NtRp4335
(dp4336
g74
(dp4337
g82
I1
ssg83
Nsg76
(lp4338
g69
(g85
g71
NtRp4339
(dp4340
g74
(dp4341
sg83
g4335
sg76
(lp4342
g69
(g90
g71
NtRp4343
(dp4344
g74
(dp4345
sg83
g4339
sg76
(lp4346
g69
(g70
g71
NtRp4347
(dp4348
g74
(dp4349
g82
I1
ssg83
g4343
sg76
(lp4350
S'web2py.com'
p4351
asbasbasbag69
(g85
g71
NtRp4352
(dp4353
g74
(dp4354
sg83
g4335
sg76
(lp4355
g69
(g90
g71
NtRp4356
(dp4357
g74
(dp4358
sg83
g4352
sg76
(lp4359
g69
(g70
g71
NtRp4360
(dp4361
g74
(dp4362
g82
I1
ssg83
g4356
sg76
(lp4363
I00
asbasbasbag69
(g85
g71
NtRp4364
(dp4365
g74
(dp4366
sg83
g4335
sg76
(lp4367
g69
(g90
g71
NtRp4368
(dp4369
g74
(dp4370
sg83
g4364
sg76
(lp4371
g69
(g70
g71
NtRp4372
(dp4373
g74
(dp4374
g82
I1
ssg83
g4368
sg76
(lp4375
S'http://www.web2py.com'
p4376
asbasbasbag69
(g85
g71
NtRp4377
(dp4378
g74
(dp4379
sg83
g4335
sg76
(lp4380
g69
(g90
g71
NtRp4381
(dp4382
g74
(dp4383
sg83
g4377
sg76
(lp4384
g69
(g70
g71
NtRp4385
(dp4386
g74
(dp4387
g82
I1
ssg83
g4381
sg76
(lp4388
(lp4389
(g4066
(S't\x08\x00\x00\x00Download'
tRp4390
I00
S'http://www.web2py.com/examples/default/download'
p4391
tp4392
a(g4066
(S't\x07\x00\x00\x00Support'
tRp4393
I00
S'http://www.web2py.com/examples/default/support'
p4394
tp4395
a(g4066
(S't\x04\x00\x00\x00Demo'
tRp4396
I00
S'http://web2py.com/demo_admin'
p4397
tp4398
a(g4066
(S's\x0e\x00\x00\x00Quick Examples'
tRp4399
I00
S'http://web2py.com/examples/default/examples'
p4400
tp4401
a(g4066
(S't\x03\x00\x00\x00FAQ'
tRp4402
I00
S'http://web2py.com/AlterEgo'
p4403
tp4404
a(g4066
(S't\x06\x00\x00\x00Videos'
tRp4405
I00
S'http://www.web2py.com/examples/default/videos/'
p4406
tp4407
a(g4066
(S's\x11\x00\x00\x00Free Applications'
tRp4408
I00
S'http://web2py.com/appliances'
p4409
tp4410
a(g4066
(S't\x07\x00\x00\x00Plugins'
tRp4411
I00
S'http://web2py.com/plugins'
p4412
tp4413
a(g4066
(S't\x07\x00\x00\x00Layouts'
tRp4414
I00
S'http://web2py.com/layouts'
p4415
tp4416
a(g4066
(S't\x07\x00\x00\x00Recipes'
tRp4417
I00
S'http://web2pyslices.com/'
p4418
tp4419
a(g4066
(S't\x08\x00\x00\x00Semantic'
tRp4420
I00
S'http://web2py.com/semantic'
p4421
tp4422
aasbasbasbasbasbasbasbag69
(g85
g71
NtRp4423
(dp4424
g74
(dp4425
sg83
g4180
sg76
(lp4426
g69
(g90
g71
NtRp4427
(dp4428
g74
(dp4429
sg83
g4423
sg76
(lp4430
g69
(g70
g71
NtRp4431
(dp4432
g74
(dp4433
g82
I2
ssg83
g4427
sg76
(lp4434
g69
(g78
g71
NtRp4435
(dp4436
g74
(dp4437
g82
I1
ssg83
Nsg76
(lp4438
g69
(g85
g71
NtRp4439
(dp4440
g74
(dp4441
sg83
g4435
sg76
(lp4442
g69
(g90
g71
NtRp4443
(dp4444
g74
(dp4445
sg83
g4439
sg76
(lp4446
g69
(g70
g71
NtRp4447
(dp4448
g74
(dp4449
g82
I1
ssg83
g4443
sg76
(lp4450
g4066
(S't\r\x00\x00\x00Documentation'
tRp4451
asbasbasbag69
(g85
g71
NtRp4452
(dp4453
g74
(dp4454
sg83
g4435
sg76
(lp4455
g69
(g90
g71
NtRp4456
(dp4457
g74
(dp4458
sg83
g4452
sg76
(lp4459
g69
(g70
g71
NtRp4460
(dp4461
g74
(dp4462
g82
I1
ssg83
g4456
sg76
(lp4463
I00
asbasbasbag69
(g85
g71
NtRp4464
(dp4465
g74
(dp4466
sg83
g4435
sg76
(lp4467
g69
(g90
g71
NtRp4468
(dp4469
g74
(dp4470
sg83
g4464
sg76
(lp4471
g69
(g70
g71
NtRp4472
(dp4473
g74
(dp4474
g82
I1
ssg83
g4468
sg76
(lp4475
S'http://www.web2py.com/book'
p4476
asbasbasbag69
(g85
g71
NtRp4477
(dp4478
g74
(dp4479
sg83
g4435
sg76
(lp4480
g69
(g90
g71
NtRp4481
(dp4482
g74
(dp4483
sg83
g4477
sg76
(lp4484
g69
(g70
g71
NtRp4485
(dp4486
g74
(dp4487
g82
I1
ssg83
g4481
sg76
(lp4488
(lp4489
(g4066
(S't\x07\x00\x00\x00Preface'
tRp4490
I00
S'http://www.web2py.com/book/default/chapter/00'
p4491
tp4492
a(g4066
(S't\x0c\x00\x00\x00Introduction'
tRp4493
I00
S'http://www.web2py.com/book/default/chapter/01'
p4494
tp4495
a(g4066
(S't\x06\x00\x00\x00Python'
tRp4496
I00
S'http://www.web2py.com/book/default/chapter/02'
p4497
tp4498
a(g4066
(S't\x08\x00\x00\x00Overview'
tRp4499
I00
S'http://www.web2py.com/book/default/chapter/03'
p4500
tp4501
a(g4066
(S's\x08\x00\x00\x00The Core'
tRp4502
I00
S'http://www.web2py.com/book/default/chapter/04'
p4503
tp4504
a(g4066
(S's\t\x00\x00\x00The Views'
tRp4505
I00
S'http://www.web2py.com/book/default/chapter/05'
p4506
tp4507
a(g4066
(S't\x08\x00\x00\x00Database'
tRp4508
I00
S'http://www.web2py.com/book/default/chapter/06'
p4509
tp4510
a(g4066
(S's\x14\x00\x00\x00Forms and Validators'
tRp4511
I00
S'http://www.web2py.com/book/default/chapter/07'
p4512
tp4513
a(g4066
(S's\r\x00\x00\x00Email and SMS'
tRp4514
I00
S'http://www.web2py.com/book/default/chapter/08'
p4515
tp4516
a(g4066
(S's\x0e\x00\x00\x00Access Control'
tRp4517
I00
S'http://www.web2py.com/book/default/chapter/09'
p4518
tp4519
a(g4066
(S't\x08\x00\x00\x00Services'
tRp4520
I00
S'http://www.web2py.com/book/default/chapter/10'
p4521
tp4522
a(g4066
(S's\x0c\x00\x00\x00Ajax Recipes'
tRp4523
I00
S'http://www.web2py.com/book/default/chapter/11'
p4524
tp4525
a(g4066
(S's\x16\x00\x00\x00Components and Plugins'
tRp4526
I00
S'http://www.web2py.com/book/default/chapter/12'
p4527
tp4528
a(g4066
(S's\x12\x00\x00\x00Deployment Recipes'
tRp4529
I00
S'http://www.web2py.com/book/default/chapter/13'
p4530
tp4531
a(g4066
(S's\r\x00\x00\x00Other Recipes'
tRp4532
I00
S'http://www.web2py.com/book/default/chapter/14'
p4533
tp4534
a(g4066
(S's\r\x00\x00\x00Buy this book'
tRp4535
I00
S'http://stores.lulu.com/web2py'
p4536
tp4537
aasbasbasbasbasbasbasbag69
(g85
g71
NtRp4538
(dp4539
g74
(dp4540
sg83
g4180
sg76
(lp4541
g69
(g90
g71
NtRp4542
(dp4543
g74
(dp4544
sg83
g4538
sg76
(lp4545
g69
(g70
g71
NtRp4546
(dp4547
g74
(dp4548
g82
I2
ssg83
g4542
sg76
(lp4549
g69
(g78
g71
NtRp4550
(dp4551
g74
(dp4552
g82
I1
ssg83
Nsg76
(lp4553
g69
(g85
g71
NtRp4554
(dp4555
g74
(dp4556
sg83
g4550
sg76
(lp4557
g69
(g90
g71
NtRp4558
(dp4559
g74
(dp4560
sg83
g4554
sg76
(lp4561
g69
(g70
g71
NtRp4562
(dp4563
g74
(dp4564
g82
I1
ssg83
g4558
sg76
(lp4565
g4066
(S't\t\x00\x00\x00Community'
tRp4566
asbasbasbag69
(g85
g71
NtRp4567
(dp4568
g74
(dp4569
sg83
g4550
sg76
(lp4570
g69
(g90
g71
NtRp4571
(dp4572
g74
(dp4573
sg83
g4567
sg76
(lp4574
g69
(g70
g71
NtRp4575
(dp4576
g74
(dp4577
g82
I1
ssg83
g4571
sg76
(lp4578
I00
asbasbasbag69
(g85
g71
NtRp4579
(dp4580
g74
(dp4581
sg83
g4550
sg76
(lp4582
g69
(g90
g71
NtRp4583
(dp4584
g74
(dp4585
sg83
g4579
sg76
(lp4586
g69
(g70
g71
NtRp4587
(dp4588
g74
(dp4589
g82
I1
ssg83
g4583
sg76
(lp4590
Nasbasbasbag69
(g85
g71
NtRp4591
(dp4592
g74
(dp4593
sg83
g4550
sg76
(lp4594
g69
(g90
g71
NtRp4595
(dp4596
g74
(dp4597
sg83
g4591
sg76
(lp4598
g69
(g70
g71
NtRp4599
(dp4600
g74
(dp4601
g82
I1
ssg83
g4595
sg76
(lp4602
(lp4603
(g4066
(S't\x06\x00\x00\x00Groups'
tRp4604
I00
S'http://www.web2py.com/examples/default/usergroups'
p4605
tp4606
a(g4066
(S't\x07\x00\x00\x00Twitter'
tRp4607
I00
S'http://twitter.com/web2py'
p4608
tp4609
a(g4066
(S's\t\x00\x00\x00Live Chat'
tRp4610
I00
S'http://webchat.freenode.net/?channels=web2py'
p4611
tp4612
aasbasbasbasbasbasbasbag69
(g85
g71
NtRp4613
(dp4614
g74
(dp4615
sg83
g4180
sg76
(lp4616
g69
(g90
g71
NtRp4617
(dp4618
g74
(dp4619
sg83
g4613
sg76
(lp4620
g69
(g70
g71
NtRp4621
(dp4622
g74
(dp4623
g82
I2
ssg83
g4617
sg76
(lp4624
g69
(g78
g71
NtRp4625
(dp4626
g74
(dp4627
g82
I1
ssg83
Nsg76
(lp4628
g69
(g85
g71
NtRp4629
(dp4630
g74
(dp4631
sg83
g4625
sg76
(lp4632
g69
(g90
g71
NtRp4633
(dp4634
g74
(dp4635
sg83
g4629
sg76
(lp4636
g69
(g70
g71
NtRp4637
(dp4638
g74
(dp4639
g82
I1
ssg83
g4633
sg76
(lp4640
g4066
(S't\x07\x00\x00\x00Plugins'
tRp4641
asbasbasbag69
(g85
g71
NtRp4642
(dp4643
g74
(dp4644
sg83
g4625
sg76
(lp4645
g69
(g90
g71
NtRp4646
(dp4647
g74
(dp4648
sg83
g4642
sg76
(lp4649
g69
(g70
g71
NtRp4650
(dp4651
g74
(dp4652
g82
I1
ssg83
g4646
sg76
(lp4653
I00
asbasbasbag69
(g85
g71
NtRp4654
(dp4655
g74
(dp4656
sg83
g4625
sg76
(lp4657
g69
(g90
g71
NtRp4658
(dp4659
g74
(dp4660
sg83
g4654
sg76
(lp4661
g69
(g70
g71
NtRp4662
(dp4663
g74
(dp4664
g82
I1
ssg83
g4658
sg76
(lp4665
Nasbasbasbag69
(g85
g71
NtRp4666
(dp4667
g74
(dp4668
sg83
g4625
sg76
(lp4669
g69
(g90
g71
NtRp4670
(dp4671
g74
(dp4672
sg83
g4666
sg76
(lp4673
g69
(g70
g71
NtRp4674
(dp4675
g74
(dp4676
g82
I1
ssg83
g4670
sg76
(lp4677
(lp4678
(S'plugin_wiki'
p4679
I00
S'http://web2py.com/examples/default/download'
p4680
tp4681
a(g4066
(S's\r\x00\x00\x00Other Plugins'
tRp4682
I00
g4412
tp4683
a(g4066
(S's\x0e\x00\x00\x00Layout Plugins'
tRp4684
I00
g4415
tp4685
aasbasbasbasbasbasbasbasbasbasbasbasbasbasbasbasbasbasbasbag69
(g85
g71
NtRp4686
(dp4687
g74
(dp4688
sg83
g3561
sg76
(lp4689
g69
(g90
g71
NtRp4690
(dp4691
g74
(dp4692
g94
g95
ssg83
g4686
sg76
(lp4693
S'meta'
p4694
asbag69
(g90
g71
NtRp4695
(dp4696
g74
(dp4697
g101
g102
ssg83
g4686
sg76
(lp4698
S':'
asbag69
(g90
g71
NtRp4699
(dp4700
g74
(dp4701
sg83
g4686
sg76
(lp4702
g69
(g70
g71
NtRp4703
(dp4704
g74
(dp4705
g82
I5
ssg83
g4699
sg76
(lp4706
g69
(g78
g71
NtRp4707
(dp4708
g74
(dp4709
g82
I4
ssg83
Nsg76
(lp4710
g69
(g85
g71
NtRp4711
(dp4712
g74
(dp4713
sg83
g4707
sg76
(lp4714
g69
(g90
g71
NtRp4715
(dp4716
g74
(dp4717
g94
g95
ssg83
g4711
sg76
(lp4718
S'author'
p4719
asbag69
(g90
g71
NtRp4720
(dp4721
g74
(dp4722
g101
g102
ssg83
g4711
sg76
(lp4723
S':'
asbag69
(g90
g71
NtRp4724
(dp4725
g74
(dp4726
sg83
g4711
sg76
(lp4727
g69
(g70
g71
NtRp4728
(dp4729
g74
(dp4730
g82
I4
ssg83
g4724
sg76
(lp4731
S'Your Name <you@example.com>'
p4732
asbasbasbag69
(g85
g71
NtRp4733
(dp4734
g74
(dp4735
sg83
g4707
sg76
(lp4736
g69
(g90
g71
NtRp4737
(dp4738
g74
(dp4739
g94
g95
ssg83
g4733
sg76
(lp4740
S'copyright'
p4741
asbag69
(g90
g71
NtRp4742
(dp4743
g74
(dp4744
g101
g102
ssg83
g4733
sg76
(lp4745
S':'
asbag69
(g90
g71
NtRp4746
(dp4747
g74
(dp4748
sg83
g4733
sg76
(lp4749
g69
(g70
g71
NtRp4750
(dp4751
g74
(dp4752
g82
I4
ssg83
g4746
sg76
(lp4753
S'Copyright 2011'
p4754
asbasbasbag69
(g85
g71
NtRp4755
(dp4756
g74
(dp4757
sg83
g4707
sg76
(lp4758
g69
(g90
g71
NtRp4759
(dp4760
g74
(dp4761
g94
g95
ssg83
g4755
sg76
(lp4762
S'description'
p4763
asbag69
(g90
g71
NtRp4764
(dp4765
g74
(dp4766
g101
g102
ssg83
g4755
sg76
(lp4767
S':'
asbag69
(g90
g71
NtRp4768
(dp4769
g74
(dp4770
sg83
g4755
sg76
(lp4771
g69
(g70
g71
NtRp4772
(dp4773
g74
(dp4774
g82
I4
ssg83
g4768
sg76
(lp4775
S'a cool new app'
p4776
asbasbasbag69
(g85
g71
NtRp4777
(dp4778
g74
(dp4779
sg83
g4707
sg76
(lp4780
g69
(g90
g71
NtRp4781
(dp4782
g74
(dp4783
g94
g95
ssg83
g4777
sg76
(lp4784
S'generator'
p4785
asbag69
(g90
g71
NtRp4786
(dp4787
g74
(dp4788
g101
g102
ssg83
g4777
sg76
(lp4789
S':'
asbag69
(g90
g71
NtRp4790
(dp4791
g74
(dp4792
sg83
g4777
sg76
(lp4793
g69
(g70
g71
NtRp4794
(dp4795
g74
(dp4796
g82
I4
ssg83
g4790
sg76
(lp4797
S'Web2py Web Framework'
p4798
asbasbasbag69
(g85
g71
NtRp4799
(dp4800
g74
(dp4801
sg83
g4707
sg76
(lp4802
g69
(g90
g71
NtRp4803
(dp4804
g74
(dp4805
g94
g95
ssg83
g4799
sg76
(lp4806
S'keywords'
p4807
asbag69
(g90
g71
NtRp4808
(dp4809
g74
(dp4810
g101
g102
ssg83
g4799
sg76
(lp4811
S':'
asbag69
(g90
g71
NtRp4812
(dp4813
g74
(dp4814
sg83
g4799
sg76
(lp4815
g69
(g70
g71
NtRp4816
(dp4817
g74
(dp4818
g82
I4
ssg83
g4812
sg76
(lp4819
S'web2py, python, framework'
p4820
asbasbasbasbasbasbasbag69
(g85
g71
NtRp4821
(dp4822
g74
(dp4823
sg83
g3561
sg76
(lp4824
g69
(g90
g71
NtRp4825
(dp4826
g74
(dp4827
g94
g95
ssg83
g4821
sg76
(lp4828
S'postprocessing'
p4829
asbag69
(g90
g71
NtRp4830
(dp4831
g74
(dp4832
g101
g102
ssg83
g4821
sg76
(lp4833
S':'
asbag69
(g90
g71
NtRp4834
(dp4835
g74
(dp4836
sg83
g4821
sg76
(lp4837
g69
(g70
g71
NtRp4838
(dp4839
g74
(dp4840
g82
I5
ssg83
g4834
sg76
(lp4841
g69
(g78
g71
NtRp4842
(dp4843
g74
(dp4844
g82
I4
ssg83
Nsg76
(lp4845
sbasbasbasbag69
(g85
g71
NtRp4846
(dp4847
g74
(dp4848
sg83
g3561
sg76
(lp4849
g69
(g90
g71
NtRp4850
(dp4851
g74
(dp4852
g94
g95
ssg83
g4846
sg76
(lp4853
S'session_file'
p4854
asbag69
(g90
g71
NtRp4855
(dp4856
g74
(dp4857
g101
g102
ssg83
g4846
sg76
(lp4858
S':'
asbag69
(g90
g71
NtRp4859
(dp4860
g74
(dp4861
sg83
g4846
sg76
(lp4862
g69
(g70
g71
NtRp4863
(dp4864
g74
(dp4865
g82
I5
ssg83
g4859
sg76
(lp4866
S"<open file '/home/ds-iiit/web2py/applications/Read_it/sessions/127.0.0.1-64ed602e-5699-4391-ae4f-88c77653edcf', mode 'rb+' at 0x7f03f81a5390>"
p4867
asbasbasbag69
(g85
g71
NtRp4868
(dp4869
g74
(dp4870
sg83
g3561
sg76
(lp4871
g69
(g90
g71
NtRp4872
(dp4873
g74
(dp4874
g94
g95
ssg83
g4868
sg76
(lp4875
S'session_filename'
p4876
asbag69
(g90
g71
NtRp4877
(dp4878
g74
(dp4879
g101
g102
ssg83
g4868
sg76
(lp4880
S':'
asbag69
(g90
g71
NtRp4881
(dp4882
g74
(dp4883
sg83
g4868
sg76
(lp4884
g69
(g70
g71
NtRp4885
(dp4886
g74
(dp4887
g82
I5
ssg83
g4881
sg76
(lp4888
S'/home/ds-iiit/web2py/applications/Read_it/sessions/127.0.0.1-64ed602e-5699-4391-ae4f-88c77653edcf'
p4889
asbasbasbag69
(g85
g71
NtRp4890
(dp4891
g74
(dp4892
sg83
g3561
sg76
(lp4893
g69
(g90
g71
NtRp4894
(dp4895
g74
(dp4896
g94
g95
ssg83
g4890
sg76
(lp4897
S'session_id'
p4898
asbag69
(g90
g71
NtRp4899
(dp4900
g74
(dp4901
g101
g102
ssg83
g4890
sg76
(lp4902
S':'
asbag69
(g90
g71
NtRp4903
(dp4904
g74
(dp4905
sg83
g4890
sg76
(lp4906
g69
(g70
g71
NtRp4907
(dp4908
g74
(dp4909
g82
I5
ssg83
g4903
sg76
(lp4910
S'127.0.0.1-64ed602e-5699-4391-ae4f-88c77653edcf'
p4911
asbasbasbag69
(g85
g71
NtRp4912
(dp4913
g74
(dp4914
sg83
g3561
sg76
(lp4915
g69
(g90
g71
NtRp4916
(dp4917
g74
(dp4918
g94
g95
ssg83
g4912
sg76
(lp4919
S'session_id_name'
p4920
asbag69
(g90
g71
NtRp4921
(dp4922
g74
(dp4923
g101
g102
ssg83
g4912
sg76
(lp4924
S':'
asbag69
(g90
g71
NtRp4925
(dp4926
g74
(dp4927
sg83
g4912
sg76
(lp4928
g69
(g70
g71
NtRp4929
(dp4930
g74
(dp4931
g82
I5
ssg83
g4925
sg76
(lp4932
g3618
asbasbasbag69
(g85
g71
NtRp4933
(dp4934
g74
(dp4935
sg83
g3561
sg76
(lp4936
g69
(g90
g71
NtRp4937
(dp4938
g74
(dp4939
g94
g95
ssg83
g4933
sg76
(lp4940
S'session_locked'
p4941
asbag69
(g90
g71
NtRp4942
(dp4943
g74
(dp4944
g101
g102
ssg83
g4933
sg76
(lp4945
S':'
asbag69
(g90
g71
NtRp4946
(dp4947
g74
(dp4948
sg83
g4933
sg76
(lp4949
g69
(g70
g71
NtRp4950
(dp4951
g74
(dp4952
g82
I5
ssg83
g4946
sg76
(lp4953
g1853
asbasbasbag69
(g85
g71
NtRp4954
(dp4955
g74
(dp4956
sg83
g3561
sg76
(lp4957
g69
(g90
g71
NtRp4958
(dp4959
g74
(dp4960
g94
g95
ssg83
g4954
sg76
(lp4961
S'session_new'
p4962
asbag69
(g90
g71
NtRp4963
(dp4964
g74
(dp4965
g101
g102
ssg83
g4954
sg76
(lp4966
S':'
asbag69
(g90
g71
NtRp4967
(dp4968
g74
(dp4969
sg83
g4954
sg76
(lp4970
g69
(g70
g71
NtRp4971
(dp4972
g74
(dp4973
g82
I5
ssg83
g4967
sg76
(lp4974
g112
asbasbasbag69
(g85
g71
NtRp4975
(dp4976
g74
(dp4977
sg83
g3561
sg76
(lp4978
g69
(g90
g71
NtRp4979
(dp4980
g74
(dp4981
g94
g95
ssg83
g4975
sg76
(lp4982
S'status'
p4983
asbag69
(g90
g71
NtRp4984
(dp4985
g74
(dp4986
g101
g102
ssg83
g4975
sg76
(lp4987
S':'
asbag69
(g90
g71
NtRp4988
(dp4989
g74
(dp4990
sg83
g4975
sg76
(lp4991
g69
(g70
g71
NtRp4992
(dp4993
g74
(dp4994
g82
I5
ssg83
g4988
sg76
(lp4995
S'200'
p4996
asbasbasbag69
(g85
g71
NtRp4997
(dp4998
g74
(dp4999
sg83
g3561
sg76
(lp5000
g69
(g90
g71
NtRp5001
(dp5002
g74
(dp5003
g94
g95
ssg83
g4997
sg76
(lp5004
S'subtitle'
p5005
asbag69
(g90
g71
NtRp5006
(dp5007
g74
(dp5008
g101
g102
ssg83
g4997
sg76
(lp5009
S':'
asbag69
(g90
g71
NtRp5010
(dp5011
g74
(dp5012
sg83
g4997
sg76
(lp5013
g69
(g70
g71
NtRp5014
(dp5015
g74
(dp5016
g82
I5
ssg83
g5010
sg76
(lp5017
g4066
(S's\r\x00\x00\x00customize me!'
tRp5018
asbasbasbag69
(g85
g71
NtRp5019
(dp5020
g74
(dp5021
sg83
g3561
sg76
(lp5022
g69
(g90
g71
NtRp5023
(dp5024
g74
(dp5025
g94
g95
ssg83
g5019
sg76
(lp5026
S'title'
p5027
asbag69
(g90
g71
NtRp5028
(dp5029
g74
(dp5030
g101
g102
ssg83
g5019
sg76
(lp5031
S':'
asbag69
(g90
g71
NtRp5032
(dp5033
g74
(dp5034
sg83
g5019
sg76
(lp5035
g69
(g70
g71
NtRp5036
(dp5037
g74
(dp5038
g82
I5
ssg83
g5032
sg76
(lp5039
S'Read It'
p5040
asbasbasbag69
(g85
g71
NtRp5041
(dp5042
g74
(dp5043
sg83
g3561
sg76
(lp5044
g69
(g90
g71
NtRp5045
(dp5046
g74
(dp5047
g94
g95
ssg83
g5041
sg76
(lp5048
g2517
asbag69
(g90
g71
NtRp5049
(dp5050
g74
(dp5051
g101
g102
ssg83
g5041
sg76
(lp5052
S':'
asbag69
(g90
g71
NtRp5053
(dp5054
g74
(dp5055
sg83
g5041
sg76
(lp5056
g69
(g70
g71
NtRp5057
(dp5058
g74
(dp5059
g82
I5
ssg83
g5053
sg76
(lp5060
g2530
asbasbasbag69
(g85
g71
NtRp5061
(dp5062
g74
(dp5063
sg83
g3561
sg76
(lp5064
g69
(g90
g71
NtRp5065
(dp5066
g74
(dp5067
g94
g95
ssg83
g5061
sg76
(lp5068
S'view'
p5069
asbag69
(g90
g71
NtRp5070
(dp5071
g74
(dp5072
g101
g102
ssg83
g5061
sg76
(lp5073
S':'
asbag69
(g90
g71
NtRp5074
(dp5075
g74
(dp5076
sg83
g5061
sg76
(lp5077
g69
(g70
g71
NtRp5078
(dp5079
g74
(dp5080
g82
I5
ssg83
g5074
sg76
(lp5081
S'default/index.html'
p5082
asbasbasbasbasbsS'locals'
p5083
(dp5084
g4
S"'/home/ds-iiit/web2py/applications/Read_it/controllers/default.py'"
p5085
sg6
S"'# -*- coding: utf-8 -*-\\n# this file is released ...crud())\\n\\n\\nresponse._vars=response._caller(index)\\n'"
p5086
sssS'traceback'
p5087
S'Traceback (most recent call last):\n  File "/usr/lib/pymodules/python2.7/gluon/restricted.py", line 203, in restricted\n    ccode = compile2(code,layer)\n  File "/usr/lib/pymodules/python2.7/gluon/restricted.py", line 189, in compile2\n    return compile(code.rstrip().replace(\'\\r\\n\',\'\\n\')+\'\\n\', layer, \'exec\')\n  File "/home/ds-iiit/web2py/applications/Read_it/controllers/default.py", line 95\n    x = db((request.args(0)==db.Category.id) & (db.Category.id == db.Item.Category)).select(db.Item.ALLdb.Item.ALL,,orderby=db.Item.Rating)\n                                                                                                                   ^\nSyntaxError: invalid syntax\n'
p5088
s.