(dp1
S'output'
p2
S"<type 'exceptions.ValueError'> invalid literal for int() with base 10: 'list_cat'"
p3
sS'layer'
p4
S'/home/ds-iiit/web2py/applications/Read_it/controllers/default.py'
p5
sS'code'
p6
S'# -*- coding: utf-8 -*-\n# this file is released under public domain and you can use without limitations\n\n#########################################################################\n## This is a samples controller\n## - index is the default action of any application\n## - user is required for authentication and authorization\n## - download is for downloading files uploaded in the db (does streaming)\n## - call exposes all registered services (none by default)\n#########################################################################\n\n@auth.requires_login()\ndef comments():\n\tx = request.args(0)\n\tform = SQLFORM(db.Comments,fields=[\'Comment\'],formstyle="divs",hidden=dict(ItemID=int(request.args(0))))\n\tform.vars.ItemID = int(x)\n\tresults=[]\n\tlink = db(db.Item.id == request.args(0)).select()\n\tif form.process().accepted:\n\t\tresponse.flash = "Comment posted"\n\telse:\n\t\tresponse.flash = "Please post"\n\tresults = db((db.Comments.ItemID == int(x)) & (db.Comments.AuthID == db.auth_user.id) & (db.Comments.ItemID==db.Item.id)).select(db.Comments.ALL,db.auth_user.ALL,db.Item.ALL)\n\treturn dict(form=form,results=results,link=link)\n\ndef search():\n\tresults=[]\n\tx=request.vars[\'s\']\n\tresults=db(db.Item.Heading.contains(x)).select()\n\treturn dict(results=results)\n\ndef listuser():\n\tusers = db(db.auth_user.id>1).select()\n\treturn dict(users=users)\n@auth.requires_membership(\'Admin\')\ndef addcat():\n\tform=SQLFORM(db.Category)\n\treturn dict(form=form)\n\n@auth.requires_membership(\'Admin\')\ndef removeuser():\n\tx = int(request.args(0))\n\tcrud.delete(db.auth_user,x)\n\tredirect(URL(listuser))\n\n@auth.requires_login()\ndef points():\n\tx=db((db.Rated.ItemID == request.args(0)) & (db.Rated.UserID == auth.user_id)).select()\n\tprev = 0\n\tif x:\n\t\tz=db((db.Item.id == request.args(0))).select()\n\t\tprev = x[0][\'Points\']\n\t\tz[0][\'Rating\'] = z[0][\'Rating\'] - x[0][\'Points\']\n\t\tdb((db.Rated.ItemID == request.args(0)) & (db.Rated.UserID == auth.user_id)).delete()\n\n\tx=db((db.Rated.ItemID == request.args(0)) & (db.Rated.UserID == auth.user_id)).select()\n\tprint prev\n\tif not x and (prev != int(request.args(1))):\n\t\tdb.Rated.insert(UserID=auth.user_id,ItemID=request.args(0),Points=int(request.args(1)))\n\t\tz=db((db.Item.id == request.args(0))).select()\n\t\ty = z.first()\n\t\tz[0][\'Rating\'] = z[0][\'Rating\'] + int(request.args(1))\n\t\t#db(db.Item.id == request.args(0)).update(Rating+=int(request.args(1)))\n\telse:\n\t\tredirect(URL(listall))\n\ndef listall():\n\tx = db(db.Item.id>=0).select(orderby=\'Item.Rating DESC\')\n\treturn dict(x=x)\n\n@auth.requires_login()\ndef new():\n\tform = crud.create(db.Item)\n\treturn dict(form=form)\n\n@auth.requires_login()\ndef update():\n\tform = []\n\tif db((request.args(0)==db.Item.id) & (db.Item.User == auth.user_id)).select():\n\t\tform = crud.update(db.Item,request.args(0))\n\telse:\n\t\tresponse.flash(\'Unauthorized access\')\n\t\tredirect(URL(listall))\n\treturn dict(form=form)\n\ndef delete():\n\tform = []\n\tif db((request.args(0)==db.Item.id) & (db.Item.User == auth.user_id) ).select():\n\t\tform = crud.delete(db.Item,request.args(0))\n\telse:\n\t\tredirect(URL(listall))\n\treturn dict(form=form)\n\ndef list_cat():\n\tx = db((request.args(0)==db.Category.id) & (db.Category.id == db.Item.Category)).select(orderby=db.Item.Rating)\n\treturn dict(x=x)\n\ndef check_access():\n    return True if auth.is_logged_in() else False\n\ndef index():\n    """\n    example action using the internationalization operator T and flash\n    rendered by views/default/index.html or views/generic.html\n    """\n    results = db(db.Category.id>0).select()\n    posts=[]\n    comments=[]\n    if check_access():\n    \tposts = db(db.Item.User == auth.user_id).select()\n#    redirect(URL("listall"))\n    return dict(posts=posts,comments=comments,results=results)\n\ndef user():\n    """\n    exposes:\n    http://..../[ap\n    \tprint "here"p]/default/user/login\n    http://..../[app]/default/user/logout\n    http://..../[app]/default/user/register\n    http://..../[app]/default/user/profile\n    http://..../[app]/default/user/retrieve_password\n    http://..../[app]/default/user/change_password\n    use @auth.requires_login()\n        @auth.requires_membership(\'group name\')\n        @auth.requires_permission(\'read\',\'table name\',record_id)\n    to decorate functions that need access control\n    """\n#    if form.process().accepted:\n#    \tdb.auth_membership.insert(user_id=auth.user_id,group_id=4)\n    return dict(form=auth())\n\n\ndef download():\n    """\n    allows downloading of uploaded files\n    http://..../[app]/default/download/[filename]\n    """\n    return response.download(request,db)\n\n\ndef call():\n    """\n    exposes services. for example:\n    http://..../[app]/default/call/jsonrpc\n    decorate with @services.jsonrpc the functions to expose\n    supports xml, json, xmlrpc, jsonrpc, amfrpc, rss, csv\n    """\n    return service()\n\n\n@auth.requires_signature()\ndef data():\n    """\n    http://..../[app]/default/data/tables\n    http://..../[app]/default/data/create/[table]\n    http://..../[app]/default/data/read/[table]/[id]\n    http://..../[app]/default/data/update/[table]/[id]\n    http://..../[app]/default/data/delete/[table]/[id]\n    http://..../[app]/default/data/select/[table]\n    http://..../[app]/default/data/search/[table]\n    but URLs must be signed, i.e. linked with\n      A(\'table\',_href=URL(\'data/tables\',user_signature=True))\n    or with the signed load operator\n      LOAD(\'default\',\'data.load\',args=\'tables\',ajax=True,user_signature=True)\n    """\n    return dict(form=crud())\n\n\nresponse._vars=response._caller(list_cat)\n'
p7
sS'snapshot'
p8
(dp9
S'exception'
p10
(dp11
S'__hash__'
p12
S"<method-wrapper '__hash__' of exceptions.ValueError object>"
p13
sS'__setattr__'
p14
S"<method-wrapper '__setattr__' of exceptions.ValueError object>"
p15
sS'__reduce_ex__'
p16
S'<built-in method __reduce_ex__ of exceptions.ValueError object>'
p17
sS'__getslice__'
p18
S"<method-wrapper '__getslice__' of exceptions.ValueError object>"
p19
sS'__getitem__'
p20
S"<method-wrapper '__getitem__' of exceptions.ValueError object>"
p21
sS'__setstate__'
p22
S'<built-in method __setstate__ of exceptions.ValueError object>'
p23
sS'args'
p24
S'("invalid literal for int() with base 10: \'list_cat\'",)'
p25
sS'__reduce__'
p26
S'<built-in method __reduce__ of exceptions.ValueError object>'
p27
sS'__str__'
p28
S"<method-wrapper '__str__' of exceptions.ValueError object>"
p29
sS'__format__'
p30
S'<built-in method __format__ of exceptions.ValueError object>'
p31
sS'__getattribute__'
p32
S"<method-wrapper '__getattribute__' of exceptions.ValueError object>"
p33
sS'__class__'
p34
S"<type 'exceptions.ValueError'>"
p35
sS'__unicode__'
p36
S'<built-in method __unicode__ of exceptions.ValueError object>'
p37
sS'__delattr__'
p38
S"<method-wrapper '__delattr__' of exceptions.ValueError object>"
p39
sS'__subclasshook__'
p40
S'<built-in method __subclasshook__ of type object>'
p41
sS'__repr__'
p42
S"<method-wrapper '__repr__' of exceptions.ValueError object>"
p43
sS'__dict__'
p44
S'{}'
p45
sS'__sizeof__'
p46
S'<built-in method __sizeof__ of exceptions.ValueError object>'
p47
sS'__doc__'
p48
S"'Inappropriate argument value (of correct type).'"
p49
sS'__init__'
p50
S"<method-wrapper '__init__' of exceptions.ValueError object>"
p51
sS'__new__'
p52
S'<built-in method __new__ of type object>'
p53
ssS'evalue'
p54
S"invalid literal for int() with base 10: 'list_cat'"
p55
sS'request'
p56
ccopy_reg
_reconstructor
p57
(cgluon.html
BEAUTIFY
p58
c__builtin__
object
p59
NtRp60
(dp61
S'attributes'
p62
(dp63
sS'components'
p64
(lp65
g57
(cgluon.html
TABLE
p66
g59
NtRp67
(dp68
g62
(dp69
S'level'
p70
I5
ssS'parent'
p71
Nsg64
(lp72
g57
(cgluon.html
TR
p73
g59
NtRp74
(dp75
g62
(dp76
sg71
g67
sg64
(lp77
g57
(cgluon.html
TD
p78
g59
NtRp79
(dp80
g62
(dp81
S'_style'
p82
S'font-weight:bold;vertical-align:top'
p83
ssg71
g74
sg64
(lp84
S'ajax'
p85
asbag57
(g78
g59
NtRp86
(dp87
g62
(dp88
S'_valign'
p89
S'top'
p90
ssg71
g74
sg64
(lp91
S':'
asbag57
(g78
g59
NtRp92
(dp93
g62
(dp94
sg71
g74
sg64
(lp95
g57
(g58
g59
NtRp96
(dp97
g62
(dp98
g70
I5
ssg71
g92
sg64
(lp99
S'False'
p100
asbasbasbag57
(g73
g59
NtRp101
(dp102
g62
(dp103
sg71
g67
sg64
(lp104
g57
(g78
g59
NtRp105
(dp106
g62
(dp107
g82
g83
ssg71
g101
sg64
(lp108
S'application'
p109
asbag57
(g78
g59
NtRp110
(dp111
g62
(dp112
g89
g90
ssg71
g101
sg64
(lp113
S':'
asbag57
(g78
g59
NtRp114
(dp115
g62
(dp116
sg71
g101
sg64
(lp117
g57
(g58
g59
NtRp118
(dp119
g62
(dp120
g70
I5
ssg71
g114
sg64
(lp121
S'Read_it'
p122
asbasbasbag57
(g73
g59
NtRp123
(dp124
g62
(dp125
sg71
g67
sg64
(lp126
g57
(g78
g59
NtRp127
(dp128
g62
(dp129
g82
g83
ssg71
g123
sg64
(lp130
g24
asbag57
(g78
g59
NtRp131
(dp132
g62
(dp133
g89
g90
ssg71
g123
sg64
(lp134
S':'
asbag57
(g78
g59
NtRp135
(dp136
g62
(dp137
sg71
g123
sg64
(lp138
g57
(g58
g59
NtRp139
(dp140
g62
(dp141
g70
I5
ssg71
g135
sg64
(lp142
g57
(g66
g59
NtRp143
(dp144
g62
(dp145
g70
I4
ssg71
Nsg64
(lp146
g57
(g73
g59
NtRp147
(dp148
g62
(dp149
sg71
g143
sg64
(lp150
g57
(g78
g59
NtRp151
(dp152
g62
(dp153
sg71
g147
sg64
(lp154
g57
(g58
g59
NtRp155
(dp156
g62
(dp157
g70
I4
ssg71
g151
sg64
(lp158
S'list_cat'
p159
asbasbasbag57
(g73
g59
NtRp160
(dp161
g62
(dp162
sg71
g143
sg64
(lp163
g57
(g78
g59
NtRp164
(dp165
g62
(dp166
sg71
g160
sg64
(lp167
g57
(g58
g59
NtRp168
(dp169
g62
(dp170
g70
I4
ssg71
g164
sg64
(lp171
S'list_cat'
p172
asbasbasbag57
(g73
g59
NtRp173
(dp174
g62
(dp175
sg71
g143
sg64
(lp176
g57
(g78
g59
NtRp177
(dp178
g62
(dp179
sg71
g173
sg64
(lp180
g57
(g58
g59
NtRp181
(dp182
g62
(dp183
g70
I4
ssg71
g177
sg64
(lp184
S'list_cat'
p185
asbasbasbag57
(g73
g59
NtRp186
(dp187
g62
(dp188
sg71
g143
sg64
(lp189
g57
(g78
g59
NtRp190
(dp191
g62
(dp192
sg71
g186
sg64
(lp193
g57
(g58
g59
NtRp194
(dp195
g62
(dp196
g70
I4
ssg71
g190
sg64
(lp197
S'5'
asbasbasbasbasbasbasbag57
(g73
g59
NtRp198
(dp199
g62
(dp200
sg71
g67
sg64
(lp201
g57
(g78
g59
NtRp202
(dp203
g62
(dp204
g82
g83
ssg71
g198
sg64
(lp205
S'body'
p206
asbag57
(g78
g59
NtRp207
(dp208
g62
(dp209
g89
g90
ssg71
g198
sg64
(lp210
S':'
asbag57
(g78
g59
NtRp211
(dp212
g62
(dp213
sg71
g198
sg64
(lp214
g57
(g58
g59
NtRp215
(dp216
g62
(dp217
g70
I5
ssg71
g211
sg64
(lp218
S'<cStringIO.StringO object at 0x7f041826abc8>'
p219
asbasbasbag57
(g73
g59
NtRp220
(dp221
g62
(dp222
sg71
g67
sg64
(lp223
g57
(g78
g59
NtRp224
(dp225
g62
(dp226
g82
g83
ssg71
g220
sg64
(lp227
S'client'
p228
asbag57
(g78
g59
NtRp229
(dp230
g62
(dp231
g89
g90
ssg71
g220
sg64
(lp232
S':'
asbag57
(g78
g59
NtRp233
(dp234
g62
(dp235
sg71
g220
sg64
(lp236
g57
(g58
g59
NtRp237
(dp238
g62
(dp239
g70
I5
ssg71
g233
sg64
(lp240
S'127.0.0.1'
p241
asbasbasbag57
(g73
g59
NtRp242
(dp243
g62
(dp244
sg71
g67
sg64
(lp245
g57
(g78
g59
NtRp246
(dp247
g62
(dp248
g82
g83
ssg71
g242
sg64
(lp249
S'controller'
p250
asbag57
(g78
g59
NtRp251
(dp252
g62
(dp253
g89
g90
ssg71
g242
sg64
(lp254
S':'
asbag57
(g78
g59
NtRp255
(dp256
g62
(dp257
sg71
g242
sg64
(lp258
g57
(g58
g59
NtRp259
(dp260
g62
(dp261
g70
I5
ssg71
g255
sg64
(lp262
S'default'
p263
asbasbasbag57
(g73
g59
NtRp264
(dp265
g62
(dp266
sg71
g67
sg64
(lp267
g57
(g78
g59
NtRp268
(dp269
g62
(dp270
g82
g83
ssg71
g264
sg64
(lp271
S'cookies'
p272
asbag57
(g78
g59
NtRp273
(dp274
g62
(dp275
g89
g90
ssg71
g264
sg64
(lp276
S':'
asbag57
(g78
g59
NtRp277
(dp278
g62
(dp279
sg71
g264
sg64
(lp280
g57
(g58
g59
NtRp281
(dp282
g62
(dp283
g70
I5
ssg71
g277
sg64
(lp284
g57
(g66
g59
NtRp285
(dp286
g62
(dp287
g70
I4
ssg71
Nsg64
(lp288
g57
(g73
g59
NtRp289
(dp290
g62
(dp291
sg71
g285
sg64
(lp292
g57
(g78
g59
NtRp293
(dp294
g62
(dp295
g82
g83
ssg71
g289
sg64
(lp296
S'session_id_admin'
p297
asbag57
(g78
g59
NtRp298
(dp299
g62
(dp300
g89
g90
ssg71
g289
sg64
(lp301
S':'
asbag57
(g78
g59
NtRp302
(dp303
g62
(dp304
sg71
g289
sg64
(lp305
g57
(g58
g59
NtRp306
(dp307
g62
(dp308
g70
I4
ssg71
g302
sg64
(lp309
g57
(g66
g59
NtRp310
(dp311
g62
(dp312
g70
I3
ssg71
Nsg64
(lp313
g57
(g73
g59
NtRp314
(dp315
g62
(dp316
sg71
g310
sg64
(lp317
g57
(g78
g59
NtRp318
(dp319
g62
(dp320
g82
g83
ssg71
g314
sg64
(lp321
S'comment'
p322
asbag57
(g78
g59
NtRp323
(dp324
g62
(dp325
g89
g90
ssg71
g314
sg64
(lp326
S':'
asbag57
(g78
g59
NtRp327
(dp328
g62
(dp329
sg71
g314
sg64
(lp330
g57
(g58
g59
NtRp331
(dp332
g62
(dp333
g70
I3
ssg71
g327
sg64
(lp334
S''
asbasbasbag57
(g73
g59
NtRp335
(dp336
g62
(dp337
sg71
g310
sg64
(lp338
g57
(g78
g59
NtRp339
(dp340
g62
(dp341
g82
g83
ssg71
g335
sg64
(lp342
S'domain'
p343
asbag57
(g78
g59
NtRp344
(dp345
g62
(dp346
g89
g90
ssg71
g335
sg64
(lp347
S':'
asbag57
(g78
g59
NtRp348
(dp349
g62
(dp350
sg71
g335
sg64
(lp351
g57
(g58
g59
NtRp352
(dp353
g62
(dp354
g70
I3
ssg71
g348
sg64
(lp355
S''
asbasbasbag57
(g73
g59
NtRp356
(dp357
g62
(dp358
sg71
g310
sg64
(lp359
g57
(g78
g59
NtRp360
(dp361
g62
(dp362
g82
g83
ssg71
g356
sg64
(lp363
S'expires'
p364
asbag57
(g78
g59
NtRp365
(dp366
g62
(dp367
g89
g90
ssg71
g356
sg64
(lp368
S':'
asbag57
(g78
g59
NtRp369
(dp370
g62
(dp371
sg71
g356
sg64
(lp372
g57
(g58
g59
NtRp373
(dp374
g62
(dp375
g70
I3
ssg71
g369
sg64
(lp376
S''
asbasbasbag57
(g73
g59
NtRp377
(dp378
g62
(dp379
sg71
g310
sg64
(lp380
g57
(g78
g59
NtRp381
(dp382
g62
(dp383
g82
g83
ssg71
g377
sg64
(lp384
S'httponly'
p385
asbag57
(g78
g59
NtRp386
(dp387
g62
(dp388
g89
g90
ssg71
g377
sg64
(lp389
S':'
asbag57
(g78
g59
NtRp390
(dp391
g62
(dp392
sg71
g377
sg64
(lp393
g57
(g58
g59
NtRp394
(dp395
g62
(dp396
g70
I3
ssg71
g390
sg64
(lp397
S''
asbasbasbag57
(g73
g59
NtRp398
(dp399
g62
(dp400
sg71
g310
sg64
(lp401
g57
(g78
g59
NtRp402
(dp403
g62
(dp404
g82
g83
ssg71
g398
sg64
(lp405
S'max-age'
p406
asbag57
(g78
g59
NtRp407
(dp408
g62
(dp409
g89
g90
ssg71
g398
sg64
(lp410
S':'
asbag57
(g78
g59
NtRp411
(dp412
g62
(dp413
sg71
g398
sg64
(lp414
g57
(g58
g59
NtRp415
(dp416
g62
(dp417
g70
I3
ssg71
g411
sg64
(lp418
S''
asbasbasbag57
(g73
g59
NtRp419
(dp420
g62
(dp421
sg71
g310
sg64
(lp422
g57
(g78
g59
NtRp423
(dp424
g62
(dp425
g82
g83
ssg71
g419
sg64
(lp426
S'path'
p427
asbag57
(g78
g59
NtRp428
(dp429
g62
(dp430
g89
g90
ssg71
g419
sg64
(lp431
S':'
asbag57
(g78
g59
NtRp432
(dp433
g62
(dp434
sg71
g419
sg64
(lp435
g57
(g58
g59
NtRp436
(dp437
g62
(dp438
g70
I3
ssg71
g432
sg64
(lp439
S''
asbasbasbag57
(g73
g59
NtRp440
(dp441
g62
(dp442
sg71
g310
sg64
(lp443
g57
(g78
g59
NtRp444
(dp445
g62
(dp446
g82
g83
ssg71
g440
sg64
(lp447
S'secure'
p448
asbag57
(g78
g59
NtRp449
(dp450
g62
(dp451
g89
g90
ssg71
g440
sg64
(lp452
S':'
asbag57
(g78
g59
NtRp453
(dp454
g62
(dp455
sg71
g440
sg64
(lp456
g57
(g58
g59
NtRp457
(dp458
g62
(dp459
g70
I3
ssg71
g453
sg64
(lp460
S''
asbasbasbag57
(g73
g59
NtRp461
(dp462
g62
(dp463
sg71
g310
sg64
(lp464
g57
(g78
g59
NtRp465
(dp466
g62
(dp467
g82
g83
ssg71
g461
sg64
(lp468
S'version'
p469
asbag57
(g78
g59
NtRp470
(dp471
g62
(dp472
g89
g90
ssg71
g461
sg64
(lp473
S':'
asbag57
(g78
g59
NtRp474
(dp475
g62
(dp476
sg71
g461
sg64
(lp477
g57
(g58
g59
NtRp478
(dp479
g62
(dp480
g70
I3
ssg71
g474
sg64
(lp481
S''
asbasbasbasbasbasbasbag57
(g73
g59
NtRp482
(dp483
g62
(dp484
sg71
g285
sg64
(lp485
g57
(g78
g59
NtRp486
(dp487
g62
(dp488
g82
g83
ssg71
g482
sg64
(lp489
S'session_id_read_it'
p490
asbag57
(g78
g59
NtRp491
(dp492
g62
(dp493
g89
g90
ssg71
g482
sg64
(lp494
S':'
asbag57
(g78
g59
NtRp495
(dp496
g62
(dp497
sg71
g482
sg64
(lp498
g57
(g58
g59
NtRp499
(dp500
g62
(dp501
g70
I4
ssg71
g495
sg64
(lp502
g57
(g66
g59
NtRp503
(dp504
g62
(dp505
g70
I3
ssg71
Nsg64
(lp506
g57
(g73
g59
NtRp507
(dp508
g62
(dp509
sg71
g503
sg64
(lp510
g57
(g78
g59
NtRp511
(dp512
g62
(dp513
g82
g83
ssg71
g507
sg64
(lp514
g322
asbag57
(g78
g59
NtRp515
(dp516
g62
(dp517
g89
g90
ssg71
g507
sg64
(lp518
S':'
asbag57
(g78
g59
NtRp519
(dp520
g62
(dp521
sg71
g507
sg64
(lp522
g57
(g58
g59
NtRp523
(dp524
g62
(dp525
g70
I3
ssg71
g519
sg64
(lp526
S''
asbasbasbag57
(g73
g59
NtRp527
(dp528
g62
(dp529
sg71
g503
sg64
(lp530
g57
(g78
g59
NtRp531
(dp532
g62
(dp533
g82
g83
ssg71
g527
sg64
(lp534
g343
asbag57
(g78
g59
NtRp535
(dp536
g62
(dp537
g89
g90
ssg71
g527
sg64
(lp538
S':'
asbag57
(g78
g59
NtRp539
(dp540
g62
(dp541
sg71
g527
sg64
(lp542
g57
(g58
g59
NtRp543
(dp544
g62
(dp545
g70
I3
ssg71
g539
sg64
(lp546
S''
asbasbasbag57
(g73
g59
NtRp547
(dp548
g62
(dp549
sg71
g503
sg64
(lp550
g57
(g78
g59
NtRp551
(dp552
g62
(dp553
g82
g83
ssg71
g547
sg64
(lp554
g364
asbag57
(g78
g59
NtRp555
(dp556
g62
(dp557
g89
g90
ssg71
g547
sg64
(lp558
S':'
asbag57
(g78
g59
NtRp559
(dp560
g62
(dp561
sg71
g547
sg64
(lp562
g57
(g58
g59
NtRp563
(dp564
g62
(dp565
g70
I3
ssg71
g559
sg64
(lp566
S''
asbasbasbag57
(g73
g59
NtRp567
(dp568
g62
(dp569
sg71
g503
sg64
(lp570
g57
(g78
g59
NtRp571
(dp572
g62
(dp573
g82
g83
ssg71
g567
sg64
(lp574
g385
asbag57
(g78
g59
NtRp575
(dp576
g62
(dp577
g89
g90
ssg71
g567
sg64
(lp578
S':'
asbag57
(g78
g59
NtRp579
(dp580
g62
(dp581
sg71
g567
sg64
(lp582
g57
(g58
g59
NtRp583
(dp584
g62
(dp585
g70
I3
ssg71
g579
sg64
(lp586
S''
asbasbasbag57
(g73
g59
NtRp587
(dp588
g62
(dp589
sg71
g503
sg64
(lp590
g57
(g78
g59
NtRp591
(dp592
g62
(dp593
g82
g83
ssg71
g587
sg64
(lp594
g406
asbag57
(g78
g59
NtRp595
(dp596
g62
(dp597
g89
g90
ssg71
g587
sg64
(lp598
S':'
asbag57
(g78
g59
NtRp599
(dp600
g62
(dp601
sg71
g587
sg64
(lp602
g57
(g58
g59
NtRp603
(dp604
g62
(dp605
g70
I3
ssg71
g599
sg64
(lp606
S''
asbasbasbag57
(g73
g59
NtRp607
(dp608
g62
(dp609
sg71
g503
sg64
(lp610
g57
(g78
g59
NtRp611
(dp612
g62
(dp613
g82
g83
ssg71
g607
sg64
(lp614
g427
asbag57
(g78
g59
NtRp615
(dp616
g62
(dp617
g89
g90
ssg71
g607
sg64
(lp618
S':'
asbag57
(g78
g59
NtRp619
(dp620
g62
(dp621
sg71
g607
sg64
(lp622
g57
(g58
g59
NtRp623
(dp624
g62
(dp625
g70
I3
ssg71
g619
sg64
(lp626
S''
asbasbasbag57
(g73
g59
NtRp627
(dp628
g62
(dp629
sg71
g503
sg64
(lp630
g57
(g78
g59
NtRp631
(dp632
g62
(dp633
g82
g83
ssg71
g627
sg64
(lp634
g448
asbag57
(g78
g59
NtRp635
(dp636
g62
(dp637
g89
g90
ssg71
g627
sg64
(lp638
S':'
asbag57
(g78
g59
NtRp639
(dp640
g62
(dp641
sg71
g627
sg64
(lp642
g57
(g58
g59
NtRp643
(dp644
g62
(dp645
g70
I3
ssg71
g639
sg64
(lp646
S''
asbasbasbag57
(g73
g59
NtRp647
(dp648
g62
(dp649
sg71
g503
sg64
(lp650
g57
(g78
g59
NtRp651
(dp652
g62
(dp653
g82
g83
ssg71
g647
sg64
(lp654
g469
asbag57
(g78
g59
NtRp655
(dp656
g62
(dp657
g89
g90
ssg71
g647
sg64
(lp658
S':'
asbag57
(g78
g59
NtRp659
(dp660
g62
(dp661
sg71
g647
sg64
(lp662
g57
(g58
g59
NtRp663
(dp664
g62
(dp665
g70
I3
ssg71
g659
sg64
(lp666
S''
asbasbasbasbasbasbasbag57
(g73
g59
NtRp667
(dp668
g62
(dp669
sg71
g285
sg64
(lp670
g57
(g78
g59
NtRp671
(dp672
g62
(dp673
g82
g83
ssg71
g667
sg64
(lp674
S'session_id_welcome'
p675
asbag57
(g78
g59
NtRp676
(dp677
g62
(dp678
g89
g90
ssg71
g667
sg64
(lp679
S':'
asbag57
(g78
g59
NtRp680
(dp681
g62
(dp682
sg71
g667
sg64
(lp683
g57
(g58
g59
NtRp684
(dp685
g62
(dp686
g70
I4
ssg71
g680
sg64
(lp687
g57
(g66
g59
NtRp688
(dp689
g62
(dp690
g70
I3
ssg71
Nsg64
(lp691
g57
(g73
g59
NtRp692
(dp693
g62
(dp694
sg71
g688
sg64
(lp695
g57
(g78
g59
NtRp696
(dp697
g62
(dp698
g82
g83
ssg71
g692
sg64
(lp699
g322
asbag57
(g78
g59
NtRp700
(dp701
g62
(dp702
g89
g90
ssg71
g692
sg64
(lp703
S':'
asbag57
(g78
g59
NtRp704
(dp705
g62
(dp706
sg71
g692
sg64
(lp707
g57
(g58
g59
NtRp708
(dp709
g62
(dp710
g70
I3
ssg71
g704
sg64
(lp711
S''
asbasbasbag57
(g73
g59
NtRp712
(dp713
g62
(dp714
sg71
g688
sg64
(lp715
g57
(g78
g59
NtRp716
(dp717
g62
(dp718
g82
g83
ssg71
g712
sg64
(lp719
g343
asbag57
(g78
g59
NtRp720
(dp721
g62
(dp722
g89
g90
ssg71
g712
sg64
(lp723
S':'
asbag57
(g78
g59
NtRp724
(dp725
g62
(dp726
sg71
g712
sg64
(lp727
g57
(g58
g59
NtRp728
(dp729
g62
(dp730
g70
I3
ssg71
g724
sg64
(lp731
S''
asbasbasbag57
(g73
g59
NtRp732
(dp733
g62
(dp734
sg71
g688
sg64
(lp735
g57
(g78
g59
NtRp736
(dp737
g62
(dp738
g82
g83
ssg71
g732
sg64
(lp739
g364
asbag57
(g78
g59
NtRp740
(dp741
g62
(dp742
g89
g90
ssg71
g732
sg64
(lp743
S':'
asbag57
(g78
g59
NtRp744
(dp745
g62
(dp746
sg71
g732
sg64
(lp747
g57
(g58
g59
NtRp748
(dp749
g62
(dp750
g70
I3
ssg71
g744
sg64
(lp751
S''
asbasbasbag57
(g73
g59
NtRp752
(dp753
g62
(dp754
sg71
g688
sg64
(lp755
g57
(g78
g59
NtRp756
(dp757
g62
(dp758
g82
g83
ssg71
g752
sg64
(lp759
g385
asbag57
(g78
g59
NtRp760
(dp761
g62
(dp762
g89
g90
ssg71
g752
sg64
(lp763
S':'
asbag57
(g78
g59
NtRp764
(dp765
g62
(dp766
sg71
g752
sg64
(lp767
g57
(g58
g59
NtRp768
(dp769
g62
(dp770
g70
I3
ssg71
g764
sg64
(lp771
S''
asbasbasbag57
(g73
g59
NtRp772
(dp773
g62
(dp774
sg71
g688
sg64
(lp775
g57
(g78
g59
NtRp776
(dp777
g62
(dp778
g82
g83
ssg71
g772
sg64
(lp779
g406
asbag57
(g78
g59
NtRp780
(dp781
g62
(dp782
g89
g90
ssg71
g772
sg64
(lp783
S':'
asbag57
(g78
g59
NtRp784
(dp785
g62
(dp786
sg71
g772
sg64
(lp787
g57
(g58
g59
NtRp788
(dp789
g62
(dp790
g70
I3
ssg71
g784
sg64
(lp791
S''
asbasbasbag57
(g73
g59
NtRp792
(dp793
g62
(dp794
sg71
g688
sg64
(lp795
g57
(g78
g59
NtRp796
(dp797
g62
(dp798
g82
g83
ssg71
g792
sg64
(lp799
g427
asbag57
(g78
g59
NtRp800
(dp801
g62
(dp802
g89
g90
ssg71
g792
sg64
(lp803
S':'
asbag57
(g78
g59
NtRp804
(dp805
g62
(dp806
sg71
g792
sg64
(lp807
g57
(g58
g59
NtRp808
(dp809
g62
(dp810
g70
I3
ssg71
g804
sg64
(lp811
S''
asbasbasbag57
(g73
g59
NtRp812
(dp813
g62
(dp814
sg71
g688
sg64
(lp815
g57
(g78
g59
NtRp816
(dp817
g62
(dp818
g82
g83
ssg71
g812
sg64
(lp819
g448
asbag57
(g78
g59
NtRp820
(dp821
g62
(dp822
g89
g90
ssg71
g812
sg64
(lp823
S':'
asbag57
(g78
g59
NtRp824
(dp825
g62
(dp826
sg71
g812
sg64
(lp827
g57
(g58
g59
NtRp828
(dp829
g62
(dp830
g70
I3
ssg71
g824
sg64
(lp831
S''
asbasbasbag57
(g73
g59
NtRp832
(dp833
g62
(dp834
sg71
g688
sg64
(lp835
g57
(g78
g59
NtRp836
(dp837
g62
(dp838
g82
g83
ssg71
g832
sg64
(lp839
g469
asbag57
(g78
g59
NtRp840
(dp841
g62
(dp842
g89
g90
ssg71
g832
sg64
(lp843
S':'
asbag57
(g78
g59
NtRp844
(dp845
g62
(dp846
sg71
g832
sg64
(lp847
g57
(g58
g59
NtRp848
(dp849
g62
(dp850
g70
I3
ssg71
g844
sg64
(lp851
S''
asbasbasbasbasbasbasbag57
(g73
g59
NtRp852
(dp853
g62
(dp854
sg71
g285
sg64
(lp855
g57
(g78
g59
NtRp856
(dp857
g62
(dp858
g82
g83
ssg71
g852
sg64
(lp859
S'session_id_xseed'
p860
asbag57
(g78
g59
NtRp861
(dp862
g62
(dp863
g89
g90
ssg71
g852
sg64
(lp864
S':'
asbag57
(g78
g59
NtRp865
(dp866
g62
(dp867
sg71
g852
sg64
(lp868
g57
(g58
g59
NtRp869
(dp870
g62
(dp871
g70
I4
ssg71
g865
sg64
(lp872
g57
(g66
g59
NtRp873
(dp874
g62
(dp875
g70
I3
ssg71
Nsg64
(lp876
g57
(g73
g59
NtRp877
(dp878
g62
(dp879
sg71
g873
sg64
(lp880
g57
(g78
g59
NtRp881
(dp882
g62
(dp883
g82
g83
ssg71
g877
sg64
(lp884
g322
asbag57
(g78
g59
NtRp885
(dp886
g62
(dp887
g89
g90
ssg71
g877
sg64
(lp888
S':'
asbag57
(g78
g59
NtRp889
(dp890
g62
(dp891
sg71
g877
sg64
(lp892
g57
(g58
g59
NtRp893
(dp894
g62
(dp895
g70
I3
ssg71
g889
sg64
(lp896
S''
asbasbasbag57
(g73
g59
NtRp897
(dp898
g62
(dp899
sg71
g873
sg64
(lp900
g57
(g78
g59
NtRp901
(dp902
g62
(dp903
g82
g83
ssg71
g897
sg64
(lp904
g343
asbag57
(g78
g59
NtRp905
(dp906
g62
(dp907
g89
g90
ssg71
g897
sg64
(lp908
S':'
asbag57
(g78
g59
NtRp909
(dp910
g62
(dp911
sg71
g897
sg64
(lp912
g57
(g58
g59
NtRp913
(dp914
g62
(dp915
g70
I3
ssg71
g909
sg64
(lp916
S''
asbasbasbag57
(g73
g59
NtRp917
(dp918
g62
(dp919
sg71
g873
sg64
(lp920
g57
(g78
g59
NtRp921
(dp922
g62
(dp923
g82
g83
ssg71
g917
sg64
(lp924
g364
asbag57
(g78
g59
NtRp925
(dp926
g62
(dp927
g89
g90
ssg71
g917
sg64
(lp928
S':'
asbag57
(g78
g59
NtRp929
(dp930
g62
(dp931
sg71
g917
sg64
(lp932
g57
(g58
g59
NtRp933
(dp934
g62
(dp935
g70
I3
ssg71
g929
sg64
(lp936
S''
asbasbasbag57
(g73
g59
NtRp937
(dp938
g62
(dp939
sg71
g873
sg64
(lp940
g57
(g78
g59
NtRp941
(dp942
g62
(dp943
g82
g83
ssg71
g937
sg64
(lp944
g385
asbag57
(g78
g59
NtRp945
(dp946
g62
(dp947
g89
g90
ssg71
g937
sg64
(lp948
S':'
asbag57
(g78
g59
NtRp949
(dp950
g62
(dp951
sg71
g937
sg64
(lp952
g57
(g58
g59
NtRp953
(dp954
g62
(dp955
g70
I3
ssg71
g949
sg64
(lp956
S''
asbasbasbag57
(g73
g59
NtRp957
(dp958
g62
(dp959
sg71
g873
sg64
(lp960
g57
(g78
g59
NtRp961
(dp962
g62
(dp963
g82
g83
ssg71
g957
sg64
(lp964
g406
asbag57
(g78
g59
NtRp965
(dp966
g62
(dp967
g89
g90
ssg71
g957
sg64
(lp968
S':'
asbag57
(g78
g59
NtRp969
(dp970
g62
(dp971
sg71
g957
sg64
(lp972
g57
(g58
g59
NtRp973
(dp974
g62
(dp975
g70
I3
ssg71
g969
sg64
(lp976
S''
asbasbasbag57
(g73
g59
NtRp977
(dp978
g62
(dp979
sg71
g873
sg64
(lp980
g57
(g78
g59
NtRp981
(dp982
g62
(dp983
g82
g83
ssg71
g977
sg64
(lp984
g427
asbag57
(g78
g59
NtRp985
(dp986
g62
(dp987
g89
g90
ssg71
g977
sg64
(lp988
S':'
asbag57
(g78
g59
NtRp989
(dp990
g62
(dp991
sg71
g977
sg64
(lp992
g57
(g58
g59
NtRp993
(dp994
g62
(dp995
g70
I3
ssg71
g989
sg64
(lp996
S''
asbasbasbag57
(g73
g59
NtRp997
(dp998
g62
(dp999
sg71
g873
sg64
(lp1000
g57
(g78
g59
NtRp1001
(dp1002
g62
(dp1003
g82
g83
ssg71
g997
sg64
(lp1004
g448
asbag57
(g78
g59
NtRp1005
(dp1006
g62
(dp1007
g89
g90
ssg71
g997
sg64
(lp1008
S':'
asbag57
(g78
g59
NtRp1009
(dp1010
g62
(dp1011
sg71
g997
sg64
(lp1012
g57
(g58
g59
NtRp1013
(dp1014
g62
(dp1015
g70
I3
ssg71
g1009
sg64
(lp1016
S''
asbasbasbag57
(g73
g59
NtRp1017
(dp1018
g62
(dp1019
sg71
g873
sg64
(lp1020
g57
(g78
g59
NtRp1021
(dp1022
g62
(dp1023
g82
g83
ssg71
g1017
sg64
(lp1024
g469
asbag57
(g78
g59
NtRp1025
(dp1026
g62
(dp1027
g89
g90
ssg71
g1017
sg64
(lp1028
S':'
asbag57
(g78
g59
NtRp1029
(dp1030
g62
(dp1031
sg71
g1017
sg64
(lp1032
g57
(g58
g59
NtRp1033
(dp1034
g62
(dp1035
g70
I3
ssg71
g1029
sg64
(lp1036
S''
asbasbasbasbasbasbasbasbasbasbasbag57
(g73
g59
NtRp1037
(dp1038
g62
(dp1039
sg71
g67
sg64
(lp1040
g57
(g78
g59
NtRp1041
(dp1042
g62
(dp1043
g82
g83
ssg71
g1037
sg64
(lp1044
S'env'
p1045
asbag57
(g78
g59
NtRp1046
(dp1047
g62
(dp1048
g89
g90
ssg71
g1037
sg64
(lp1049
S':'
asbag57
(g78
g59
NtRp1050
(dp1051
g62
(dp1052
sg71
g1037
sg64
(lp1053
g57
(g58
g59
NtRp1054
(dp1055
g62
(dp1056
g70
I5
ssg71
g1050
sg64
(lp1057
g57
(g66
g59
NtRp1058
(dp1059
g62
(dp1060
g70
I4
ssg71
Nsg64
(lp1061
g57
(g73
g59
NtRp1062
(dp1063
g62
(dp1064
sg71
g1058
sg64
(lp1065
g57
(g78
g59
NtRp1066
(dp1067
g62
(dp1068
g82
g83
ssg71
g1062
sg64
(lp1069
S'app_folders'
p1070
asbag57
(g78
g59
NtRp1071
(dp1072
g62
(dp1073
g89
g90
ssg71
g1062
sg64
(lp1074
S':'
asbag57
(g78
g59
NtRp1075
(dp1076
g62
(dp1077
sg71
g1062
sg64
(lp1078
g57
(g58
g59
NtRp1079
(dp1080
g62
(dp1081
g70
I4
ssg71
g1075
sg64
(lp1082
S"set(['/home/ds-iiit/web2py/applications/Read_it/', '/home/ds-iiit/web2py/applications/welcome/', '/home/ds-iiit/web2py/applications/admin/', '/home/ds-iiit/web2py/applications/XSeed/'])"
p1083
asbasbasbag57
(g73
g59
NtRp1084
(dp1085
g62
(dp1086
sg71
g1058
sg64
(lp1087
g57
(g78
g59
NtRp1088
(dp1089
g62
(dp1090
g82
g83
ssg71
g1084
sg64
(lp1091
S'applications_parent'
p1092
asbag57
(g78
g59
NtRp1093
(dp1094
g62
(dp1095
g89
g90
ssg71
g1084
sg64
(lp1096
S':'
asbag57
(g78
g59
NtRp1097
(dp1098
g62
(dp1099
sg71
g1084
sg64
(lp1100
g57
(g58
g59
NtRp1101
(dp1102
g62
(dp1103
g70
I4
ssg71
g1097
sg64
(lp1104
S'/home/ds-iiit/web2py'
p1105
asbasbasbag57
(g73
g59
NtRp1106
(dp1107
g62
(dp1108
sg71
g1058
sg64
(lp1109
g57
(g78
g59
NtRp1110
(dp1111
g62
(dp1112
g82
g83
ssg71
g1106
sg64
(lp1113
S'cmd_args'
p1114
asbag57
(g78
g59
NtRp1115
(dp1116
g62
(dp1117
g89
g90
ssg71
g1106
sg64
(lp1118
S':'
asbag57
(g78
g59
NtRp1119
(dp1120
g62
(dp1121
sg71
g1106
sg64
(lp1122
g57
(g58
g59
NtRp1123
(dp1124
g62
(dp1125
g70
I4
ssg71
g1119
sg64
(lp1126
g57
(g66
g59
NtRp1127
(dp1128
g62
(dp1129
g70
I3
ssg71
Nsg64
(lp1130
sbasbasbasbag57
(g73
g59
NtRp1131
(dp1132
g62
(dp1133
sg71
g1058
sg64
(lp1134
g57
(g78
g59
NtRp1135
(dp1136
g62
(dp1137
g82
g83
ssg71
g1131
sg64
(lp1138
S'cmd_options'
p1139
asbag57
(g78
g59
NtRp1140
(dp1141
g62
(dp1142
g89
g90
ssg71
g1131
sg64
(lp1143
S':'
asbag57
(g78
g59
NtRp1144
(dp1145
g62
(dp1146
sg71
g1131
sg64
(lp1147
g57
(g58
g59
NtRp1148
(dp1149
g62
(dp1150
g70
I4
ssg71
g1144
sg64
(lp1151
S"<Values at 0x2259f80: {'verbose': False, 'ip': '127.0.0.1', 'shutdown_timeout': 5, 'taskbar': False, 'port': 8000, 'maxthreads': None, 'softcron': False, 'server_name': 'DS-IIIT', 'bpython': False, 'nogui': False, 'nocron': False, 'extcron': False, 'debuglevel': 30, 'test': None, 'folder': '/home/ds-iiit/web2py', 'config': '', 'import_models': False, 'winservice': '', 'shell': None, 'run': '', 'log_filename': 'httpserver.log', 'args': [''], 'socket_timeout': 1, 'profiler_filename': None, 'ssl_private_key': '', 'password': '<ask>', 'request_queue_size': 5, 'ssl_certificate': '', 'cronjob': False, 'plain': False, 'quiet': False, 'interfaces': None, 'minthreads': None, 'timeout': 10, 'numthreads': None, 'nobanner': False, 'pid_filename': 'httpserver.pid'}>"
p1152
asbasbasbag57
(g73
g59
NtRp1153
(dp1154
g62
(dp1155
sg71
g1058
sg64
(lp1156
g57
(g78
g59
NtRp1157
(dp1158
g62
(dp1159
g82
g83
ssg71
g1153
sg64
(lp1160
S'db_sessions'
p1161
asbag57
(g78
g59
NtRp1162
(dp1163
g62
(dp1164
g89
g90
ssg71
g1153
sg64
(lp1165
S':'
asbag57
(g78
g59
NtRp1166
(dp1167
g62
(dp1168
sg71
g1153
sg64
(lp1169
g57
(g58
g59
NtRp1170
(dp1171
g62
(dp1172
g70
I4
ssg71
g1166
sg64
(lp1173
S'set([])'
p1174
asbasbasbag57
(g73
g59
NtRp1175
(dp1176
g62
(dp1177
sg71
g1058
sg64
(lp1178
g57
(g78
g59
NtRp1179
(dp1180
g62
(dp1181
g82
g83
ssg71
g1175
sg64
(lp1182
S'debugging'
p1183
asbag57
(g78
g59
NtRp1184
(dp1185
g62
(dp1186
g89
g90
ssg71
g1175
sg64
(lp1187
S':'
asbag57
(g78
g59
NtRp1188
(dp1189
g62
(dp1190
sg71
g1175
sg64
(lp1191
g57
(g58
g59
NtRp1192
(dp1193
g62
(dp1194
g70
I4
ssg71
g1188
sg64
(lp1195
g100
asbasbasbag57
(g73
g59
NtRp1196
(dp1197
g62
(dp1198
sg71
g1058
sg64
(lp1199
g57
(g78
g59
NtRp1200
(dp1201
g62
(dp1202
g82
g83
ssg71
g1196
sg64
(lp1203
S'gluon_parent'
p1204
asbag57
(g78
g59
NtRp1205
(dp1206
g62
(dp1207
g89
g90
ssg71
g1196
sg64
(lp1208
S':'
asbag57
(g78
g59
NtRp1209
(dp1210
g62
(dp1211
sg71
g1196
sg64
(lp1212
g57
(g58
g59
NtRp1213
(dp1214
g62
(dp1215
g70
I4
ssg71
g1209
sg64
(lp1216
S'/usr/share/web2py'
p1217
asbasbasbag57
(g73
g59
NtRp1218
(dp1219
g62
(dp1220
sg71
g1058
sg64
(lp1221
g57
(g78
g59
NtRp1222
(dp1223
g62
(dp1224
g82
g83
ssg71
g1218
sg64
(lp1225
S'http_accept'
p1226
asbag57
(g78
g59
NtRp1227
(dp1228
g62
(dp1229
g89
g90
ssg71
g1218
sg64
(lp1230
S':'
asbag57
(g78
g59
NtRp1231
(dp1232
g62
(dp1233
sg71
g1218
sg64
(lp1234
g57
(g58
g59
NtRp1235
(dp1236
g62
(dp1237
g70
I4
ssg71
g1231
sg64
(lp1238
S'text/html,application/xhtml+xml,application/xml;q=0.9,*/*;q=0.8'
p1239
asbasbasbag57
(g73
g59
NtRp1240
(dp1241
g62
(dp1242
sg71
g1058
sg64
(lp1243
g57
(g78
g59
NtRp1244
(dp1245
g62
(dp1246
g82
g83
ssg71
g1240
sg64
(lp1247
S'http_accept_encoding'
p1248
asbag57
(g78
g59
NtRp1249
(dp1250
g62
(dp1251
g89
g90
ssg71
g1240
sg64
(lp1252
S':'
asbag57
(g78
g59
NtRp1253
(dp1254
g62
(dp1255
sg71
g1240
sg64
(lp1256
g57
(g58
g59
NtRp1257
(dp1258
g62
(dp1259
g70
I4
ssg71
g1253
sg64
(lp1260
S'gzip,deflate,sdch'
p1261
asbasbasbag57
(g73
g59
NtRp1262
(dp1263
g62
(dp1264
sg71
g1058
sg64
(lp1265
g57
(g78
g59
NtRp1266
(dp1267
g62
(dp1268
g82
g83
ssg71
g1262
sg64
(lp1269
S'http_accept_language'
p1270
asbag57
(g78
g59
NtRp1271
(dp1272
g62
(dp1273
g89
g90
ssg71
g1262
sg64
(lp1274
S':'
asbag57
(g78
g59
NtRp1275
(dp1276
g62
(dp1277
sg71
g1262
sg64
(lp1278
g57
(g58
g59
NtRp1279
(dp1280
g62
(dp1281
g70
I4
ssg71
g1275
sg64
(lp1282
S'en-US,en;q=0.8'
p1283
asbasbasbag57
(g73
g59
NtRp1284
(dp1285
g62
(dp1286
sg71
g1058
sg64
(lp1287
g57
(g78
g59
NtRp1288
(dp1289
g62
(dp1290
g82
g83
ssg71
g1284
sg64
(lp1291
S'http_connection'
p1292
asbag57
(g78
g59
NtRp1293
(dp1294
g62
(dp1295
g89
g90
ssg71
g1284
sg64
(lp1296
S':'
asbag57
(g78
g59
NtRp1297
(dp1298
g62
(dp1299
sg71
g1284
sg64
(lp1300
g57
(g58
g59
NtRp1301
(dp1302
g62
(dp1303
g70
I4
ssg71
g1297
sg64
(lp1304
S'keep-alive'
p1305
asbasbasbag57
(g73
g59
NtRp1306
(dp1307
g62
(dp1308
sg71
g1058
sg64
(lp1309
g57
(g78
g59
NtRp1310
(dp1311
g62
(dp1312
g82
g83
ssg71
g1306
sg64
(lp1313
S'http_cookie'
p1314
asbag57
(g78
g59
NtRp1315
(dp1316
g62
(dp1317
g89
g90
ssg71
g1306
sg64
(lp1318
S':'
asbag57
(g78
g59
NtRp1319
(dp1320
g62
(dp1321
sg71
g1306
sg64
(lp1322
g57
(g58
g59
NtRp1323
(dp1324
g62
(dp1325
g70
I4
ssg71
g1319
sg64
(lp1326
S'session_id_welcome=127.0.0.1-23ffab22-1574-4363-8af0-338cfe55b1a4; session_id_xseed=127.0.0.1-626c16e8-fd8a-46e2-84e3-308140809547; session_id_read_it=127.0.0.1-64ed602e-5699-4391-ae4f-88c77653edcf; session_id_admin=127.0.0.1-68b65693-061d-41a6-9d43-84d9af7cb743'
p1327
asbasbasbag57
(g73
g59
NtRp1328
(dp1329
g62
(dp1330
sg71
g1058
sg64
(lp1331
g57
(g78
g59
NtRp1332
(dp1333
g62
(dp1334
g82
g83
ssg71
g1328
sg64
(lp1335
S'http_host'
p1336
asbag57
(g78
g59
NtRp1337
(dp1338
g62
(dp1339
g89
g90
ssg71
g1328
sg64
(lp1340
S':'
asbag57
(g78
g59
NtRp1341
(dp1342
g62
(dp1343
sg71
g1328
sg64
(lp1344
g57
(g58
g59
NtRp1345
(dp1346
g62
(dp1347
g70
I4
ssg71
g1341
sg64
(lp1348
S'127.0.0.1:8001'
p1349
asbasbasbag57
(g73
g59
NtRp1350
(dp1351
g62
(dp1352
sg71
g1058
sg64
(lp1353
g57
(g78
g59
NtRp1354
(dp1355
g62
(dp1356
g82
g83
ssg71
g1350
sg64
(lp1357
S'http_referer'
p1358
asbag57
(g78
g59
NtRp1359
(dp1360
g62
(dp1361
g89
g90
ssg71
g1350
sg64
(lp1362
S':'
asbag57
(g78
g59
NtRp1363
(dp1364
g62
(dp1365
sg71
g1350
sg64
(lp1366
g57
(g58
g59
NtRp1367
(dp1368
g62
(dp1369
g70
I4
ssg71
g1363
sg64
(lp1370
S'http://127.0.0.1:8001/Read_it/default/list_cat/list_cat/list_cat/4'
p1371
asbasbasbag57
(g73
g59
NtRp1372
(dp1373
g62
(dp1374
sg71
g1058
sg64
(lp1375
g57
(g78
g59
NtRp1376
(dp1377
g62
(dp1378
g82
g83
ssg71
g1372
sg64
(lp1379
S'http_user_agent'
p1380
asbag57
(g78
g59
NtRp1381
(dp1382
g62
(dp1383
g89
g90
ssg71
g1372
sg64
(lp1384
S':'
asbag57
(g78
g59
NtRp1385
(dp1386
g62
(dp1387
sg71
g1372
sg64
(lp1388
g57
(g58
g59
NtRp1389
(dp1390
g62
(dp1391
g70
I4
ssg71
g1385
sg64
(lp1392
S'Mozilla/5.0 (X11; Linux x86_64) AppleWebKit/537.36 (KHTML, like Gecko) Chrome/29.0.1547.57 Safari/537.36'
p1393
asbasbasbag57
(g73
g59
NtRp1394
(dp1395
g62
(dp1396
sg71
g1058
sg64
(lp1397
g57
(g78
g59
NtRp1398
(dp1399
g62
(dp1400
g82
g83
ssg71
g1394
sg64
(lp1401
S'is_jython'
p1402
asbag57
(g78
g59
NtRp1403
(dp1404
g62
(dp1405
g89
g90
ssg71
g1394
sg64
(lp1406
S':'
asbag57
(g78
g59
NtRp1407
(dp1408
g62
(dp1409
sg71
g1394
sg64
(lp1410
g57
(g58
g59
NtRp1411
(dp1412
g62
(dp1413
g70
I4
ssg71
g1407
sg64
(lp1414
g100
asbasbasbag57
(g73
g59
NtRp1415
(dp1416
g62
(dp1417
sg71
g1058
sg64
(lp1418
g57
(g78
g59
NtRp1419
(dp1420
g62
(dp1421
g82
g83
ssg71
g1415
sg64
(lp1422
S'is_pypy'
p1423
asbag57
(g78
g59
NtRp1424
(dp1425
g62
(dp1426
g89
g90
ssg71
g1415
sg64
(lp1427
S':'
asbag57
(g78
g59
NtRp1428
(dp1429
g62
(dp1430
sg71
g1415
sg64
(lp1431
g57
(g58
g59
NtRp1432
(dp1433
g62
(dp1434
g70
I4
ssg71
g1428
sg64
(lp1435
g100
asbasbasbag57
(g73
g59
NtRp1436
(dp1437
g62
(dp1438
sg71
g1058
sg64
(lp1439
g57
(g78
g59
NtRp1440
(dp1441
g62
(dp1442
g82
g83
ssg71
g1436
sg64
(lp1443
S'path_info'
p1444
asbag57
(g78
g59
NtRp1445
(dp1446
g62
(dp1447
g89
g90
ssg71
g1436
sg64
(lp1448
S':'
asbag57
(g78
g59
NtRp1449
(dp1450
g62
(dp1451
sg71
g1436
sg64
(lp1452
g57
(g58
g59
NtRp1453
(dp1454
g62
(dp1455
g70
I4
ssg71
g1449
sg64
(lp1456
S'/Read_it/default/list_cat/list_cat/list_cat/list_cat/5'
p1457
asbasbasbag57
(g73
g59
NtRp1458
(dp1459
g62
(dp1460
sg71
g1058
sg64
(lp1461
g57
(g78
g59
NtRp1462
(dp1463
g62
(dp1464
g82
g83
ssg71
g1458
sg64
(lp1465
S'query_string'
p1466
asbag57
(g78
g59
NtRp1467
(dp1468
g62
(dp1469
g89
g90
ssg71
g1458
sg64
(lp1470
S':'
asbag57
(g78
g59
NtRp1471
(dp1472
g62
(dp1473
sg71
g1458
sg64
(lp1474
g57
(g58
g59
NtRp1475
(dp1476
g62
(dp1477
g70
I4
ssg71
g1471
sg64
(lp1478
S''
asbasbasbag57
(g73
g59
NtRp1479
(dp1480
g62
(dp1481
sg71
g1058
sg64
(lp1482
g57
(g78
g59
NtRp1483
(dp1484
g62
(dp1485
g82
g83
ssg71
g1479
sg64
(lp1486
S'remote_addr'
p1487
asbag57
(g78
g59
NtRp1488
(dp1489
g62
(dp1490
g89
g90
ssg71
g1479
sg64
(lp1491
S':'
asbag57
(g78
g59
NtRp1492
(dp1493
g62
(dp1494
sg71
g1479
sg64
(lp1495
g57
(g58
g59
NtRp1496
(dp1497
g62
(dp1498
g70
I4
ssg71
g1492
sg64
(lp1499
g241
asbasbasbag57
(g73
g59
NtRp1500
(dp1501
g62
(dp1502
sg71
g1058
sg64
(lp1503
g57
(g78
g59
NtRp1504
(dp1505
g62
(dp1506
g82
g83
ssg71
g1500
sg64
(lp1507
S'remote_port'
p1508
asbag57
(g78
g59
NtRp1509
(dp1510
g62
(dp1511
g89
g90
ssg71
g1500
sg64
(lp1512
S':'
asbag57
(g78
g59
NtRp1513
(dp1514
g62
(dp1515
sg71
g1500
sg64
(lp1516
g57
(g58
g59
NtRp1517
(dp1518
g62
(dp1519
g70
I4
ssg71
g1513
sg64
(lp1520
S'40771'
p1521
asbasbasbag57
(g73
g59
NtRp1522
(dp1523
g62
(dp1524
sg71
g1058
sg64
(lp1525
g57
(g78
g59
NtRp1526
(dp1527
g62
(dp1528
g82
g83
ssg71
g1522
sg64
(lp1529
S'request_method'
p1530
asbag57
(g78
g59
NtRp1531
(dp1532
g62
(dp1533
g89
g90
ssg71
g1522
sg64
(lp1534
S':'
asbag57
(g78
g59
NtRp1535
(dp1536
g62
(dp1537
sg71
g1522
sg64
(lp1538
g57
(g58
g59
NtRp1539
(dp1540
g62
(dp1541
g70
I4
ssg71
g1535
sg64
(lp1542
S'GET'
p1543
asbasbasbag57
(g73
g59
NtRp1544
(dp1545
g62
(dp1546
sg71
g1058
sg64
(lp1547
g57
(g78
g59
NtRp1548
(dp1549
g62
(dp1550
g82
g83
ssg71
g1544
sg64
(lp1551
S'script_name'
p1552
asbag57
(g78
g59
NtRp1553
(dp1554
g62
(dp1555
g89
g90
ssg71
g1544
sg64
(lp1556
S':'
asbag57
(g78
g59
NtRp1557
(dp1558
g62
(dp1559
sg71
g1544
sg64
(lp1560
g57
(g58
g59
NtRp1561
(dp1562
g62
(dp1563
g70
I4
ssg71
g1557
sg64
(lp1564
S''
asbasbasbag57
(g73
g59
NtRp1565
(dp1566
g62
(dp1567
sg71
g1058
sg64
(lp1568
g57
(g78
g59
NtRp1569
(dp1570
g62
(dp1571
g82
g83
ssg71
g1565
sg64
(lp1572
S'server_name'
p1573
asbag57
(g78
g59
NtRp1574
(dp1575
g62
(dp1576
g89
g90
ssg71
g1565
sg64
(lp1577
S':'
asbag57
(g78
g59
NtRp1578
(dp1579
g62
(dp1580
sg71
g1565
sg64
(lp1581
g57
(g58
g59
NtRp1582
(dp1583
g62
(dp1584
g70
I4
ssg71
g1578
sg64
(lp1585
S'DS-IIIT'
p1586
asbasbasbag57
(g73
g59
NtRp1587
(dp1588
g62
(dp1589
sg71
g1058
sg64
(lp1590
g57
(g78
g59
NtRp1591
(dp1592
g62
(dp1593
g82
g83
ssg71
g1587
sg64
(lp1594
S'server_port'
p1595
asbag57
(g78
g59
NtRp1596
(dp1597
g62
(dp1598
g89
g90
ssg71
g1587
sg64
(lp1599
S':'
asbag57
(g78
g59
NtRp1600
(dp1601
g62
(dp1602
sg71
g1587
sg64
(lp1603
g57
(g58
g59
NtRp1604
(dp1605
g62
(dp1606
g70
I4
ssg71
g1600
sg64
(lp1607
S'8001'
p1608
asbasbasbag57
(g73
g59
NtRp1609
(dp1610
g62
(dp1611
sg71
g1058
sg64
(lp1612
g57
(g78
g59
NtRp1613
(dp1614
g62
(dp1615
g82
g83
ssg71
g1609
sg64
(lp1616
S'server_protocol'
p1617
asbag57
(g78
g59
NtRp1618
(dp1619
g62
(dp1620
g89
g90
ssg71
g1609
sg64
(lp1621
S':'
asbag57
(g78
g59
NtRp1622
(dp1623
g62
(dp1624
sg71
g1609
sg64
(lp1625
g57
(g58
g59
NtRp1626
(dp1627
g62
(dp1628
g70
I4
ssg71
g1622
sg64
(lp1629
S'HTTP/1.1'
p1630
asbasbasbag57
(g73
g59
NtRp1631
(dp1632
g62
(dp1633
sg71
g1058
sg64
(lp1634
g57
(g78
g59
NtRp1635
(dp1636
g62
(dp1637
g82
g83
ssg71
g1631
sg64
(lp1638
S'server_software'
p1639
asbag57
(g78
g59
NtRp1640
(dp1641
g62
(dp1642
g89
g90
ssg71
g1631
sg64
(lp1643
S':'
asbag57
(g78
g59
NtRp1644
(dp1645
g62
(dp1646
sg71
g1631
sg64
(lp1647
g57
(g58
g59
NtRp1648
(dp1649
g62
(dp1650
g70
I4
ssg71
g1644
sg64
(lp1651
S'Rocket 1.2.4'
p1652
asbasbasbag57
(g73
g59
NtRp1653
(dp1654
g62
(dp1655
sg71
g1058
sg64
(lp1656
g57
(g78
g59
NtRp1657
(dp1658
g62
(dp1659
g82
g83
ssg71
g1653
sg64
(lp1660
S'web2py_crontype'
p1661
asbag57
(g78
g59
NtRp1662
(dp1663
g62
(dp1664
g89
g90
ssg71
g1653
sg64
(lp1665
S':'
asbag57
(g78
g59
NtRp1666
(dp1667
g62
(dp1668
sg71
g1653
sg64
(lp1669
g57
(g58
g59
NtRp1670
(dp1671
g62
(dp1672
g70
I4
ssg71
g1666
sg64
(lp1673
S'hard'
p1674
asbasbasbag57
(g73
g59
NtRp1675
(dp1676
g62
(dp1677
sg71
g1058
sg64
(lp1678
g57
(g78
g59
NtRp1679
(dp1680
g62
(dp1681
g82
g83
ssg71
g1675
sg64
(lp1682
S'web2py_path'
p1683
asbag57
(g78
g59
NtRp1684
(dp1685
g62
(dp1686
g89
g90
ssg71
g1675
sg64
(lp1687
S':'
asbag57
(g78
g59
NtRp1688
(dp1689
g62
(dp1690
sg71
g1675
sg64
(lp1691
g57
(g58
g59
NtRp1692
(dp1693
g62
(dp1694
g70
I4
ssg71
g1688
sg64
(lp1695
g1105
asbasbasbag57
(g73
g59
NtRp1696
(dp1697
g62
(dp1698
sg71
g1058
sg64
(lp1699
g57
(g78
g59
NtRp1700
(dp1701
g62
(dp1702
g82
g83
ssg71
g1696
sg64
(lp1703
S'web2py_version'
p1704
asbag57
(g78
g59
NtRp1705
(dp1706
g62
(dp1707
g89
g90
ssg71
g1696
sg64
(lp1708
S':'
asbag57
(g78
g59
NtRp1709
(dp1710
g62
(dp1711
sg71
g1696
sg64
(lp1712
g57
(g58
g59
NtRp1713
(dp1714
g62
(dp1715
g70
I4
ssg71
g1709
sg64
(lp1716
g57
(g66
g59
NtRp1717
(dp1718
g62
(dp1719
g70
I3
ssg71
Nsg64
(lp1720
g57
(g73
g59
NtRp1721
(dp1722
g62
(dp1723
sg71
g1717
sg64
(lp1724
g57
(g78
g59
NtRp1725
(dp1726
g62
(dp1727
sg71
g1721
sg64
(lp1728
g57
(g58
g59
NtRp1729
(dp1730
g62
(dp1731
g70
I3
ssg71
g1725
sg64
(lp1732
S'1'
asbasbasbag57
(g73
g59
NtRp1733
(dp1734
g62
(dp1735
sg71
g1717
sg64
(lp1736
g57
(g78
g59
NtRp1737
(dp1738
g62
(dp1739
sg71
g1733
sg64
(lp1740
g57
(g58
g59
NtRp1741
(dp1742
g62
(dp1743
g70
I3
ssg71
g1737
sg64
(lp1744
S'99'
p1745
asbasbasbag57
(g73
g59
NtRp1746
(dp1747
g62
(dp1748
sg71
g1717
sg64
(lp1749
g57
(g78
g59
NtRp1750
(dp1751
g62
(dp1752
sg71
g1746
sg64
(lp1753
g57
(g58
g59
NtRp1754
(dp1755
g62
(dp1756
g70
I3
ssg71
g1750
sg64
(lp1757
S'4'
asbasbasbag57
(g73
g59
NtRp1758
(dp1759
g62
(dp1760
sg71
g1717
sg64
(lp1761
g57
(g78
g59
NtRp1762
(dp1763
g62
(dp1764
sg71
g1758
sg64
(lp1765
g57
(g58
g59
NtRp1766
(dp1767
g62
(dp1768
g70
I3
ssg71
g1762
sg64
(lp1769
S'datetime.datetime(2011, 12, 14, 14, 46, 14)'
p1770
asbasbasbag57
(g73
g59
NtRp1771
(dp1772
g62
(dp1773
sg71
g1717
sg64
(lp1774
g57
(g78
g59
NtRp1775
(dp1776
g62
(dp1777
sg71
g1771
sg64
(lp1778
g57
(g58
g59
NtRp1779
(dp1780
g62
(dp1781
g70
I3
ssg71
g1775
sg64
(lp1782
S'stable'
p1783
asbasbasbasbasbasbasbag57
(g73
g59
NtRp1784
(dp1785
g62
(dp1786
sg71
g1058
sg64
(lp1787
g57
(g78
g59
NtRp1788
(dp1789
g62
(dp1790
g82
g83
ssg71
g1784
sg64
(lp1791
S'wsgi_errors'
p1792
asbag57
(g78
g59
NtRp1793
(dp1794
g62
(dp1795
g89
g90
ssg71
g1784
sg64
(lp1796
S':'
asbag57
(g78
g59
NtRp1797
(dp1798
g62
(dp1799
sg71
g1784
sg64
(lp1800
g57
(g58
g59
NtRp1801
(dp1802
g62
(dp1803
g70
I4
ssg71
g1797
sg64
(lp1804
S"<open file '<stderr>', mode 'w' at 0x7f044c779270>"
p1805
asbasbasbag57
(g73
g59
NtRp1806
(dp1807
g62
(dp1808
sg71
g1058
sg64
(lp1809
g57
(g78
g59
NtRp1810
(dp1811
g62
(dp1812
g82
g83
ssg71
g1806
sg64
(lp1813
S'wsgi_file_wrapper'
p1814
asbag57
(g78
g59
NtRp1815
(dp1816
g62
(dp1817
g89
g90
ssg71
g1806
sg64
(lp1818
S':'
asbag57
(g78
g59
NtRp1819
(dp1820
g62
(dp1821
sg71
g1806
sg64
(lp1822
g57
(g58
g59
NtRp1823
(dp1824
g62
(dp1825
g70
I4
ssg71
g1819
sg64
(lp1826
S'<class wsgiref.util.FileWrapper at 0x21cc668>'
p1827
asbasbasbag57
(g73
g59
NtRp1828
(dp1829
g62
(dp1830
sg71
g1058
sg64
(lp1831
g57
(g78
g59
NtRp1832
(dp1833
g62
(dp1834
g82
g83
ssg71
g1828
sg64
(lp1835
S'wsgi_input'
p1836
asbag57
(g78
g59
NtRp1837
(dp1838
g62
(dp1839
g89
g90
ssg71
g1828
sg64
(lp1840
S':'
asbag57
(g78
g59
NtRp1841
(dp1842
g62
(dp1843
sg71
g1828
sg64
(lp1844
g57
(g58
g59
NtRp1845
(dp1846
g62
(dp1847
g70
I4
ssg71
g1841
sg64
(lp1848
S'<socket._fileobject object at 0x7f03f8199f50>'
p1849
asbasbasbag57
(g73
g59
NtRp1850
(dp1851
g62
(dp1852
sg71
g1058
sg64
(lp1853
g57
(g78
g59
NtRp1854
(dp1855
g62
(dp1856
g82
g83
ssg71
g1850
sg64
(lp1857
S'wsgi_multiprocess'
p1858
asbag57
(g78
g59
NtRp1859
(dp1860
g62
(dp1861
g89
g90
ssg71
g1850
sg64
(lp1862
S':'
asbag57
(g78
g59
NtRp1863
(dp1864
g62
(dp1865
sg71
g1850
sg64
(lp1866
g57
(g58
g59
NtRp1867
(dp1868
g62
(dp1869
g70
I4
ssg71
g1863
sg64
(lp1870
g100
asbasbasbag57
(g73
g59
NtRp1871
(dp1872
g62
(dp1873
sg71
g1058
sg64
(lp1874
g57
(g78
g59
NtRp1875
(dp1876
g62
(dp1877
g82
g83
ssg71
g1871
sg64
(lp1878
S'wsgi_multithread'
p1879
asbag57
(g78
g59
NtRp1880
(dp1881
g62
(dp1882
g89
g90
ssg71
g1871
sg64
(lp1883
S':'
asbag57
(g78
g59
NtRp1884
(dp1885
g62
(dp1886
sg71
g1871
sg64
(lp1887
g57
(g58
g59
NtRp1888
(dp1889
g62
(dp1890
g70
I4
ssg71
g1884
sg64
(lp1891
S'True'
p1892
asbasbasbag57
(g73
g59
NtRp1893
(dp1894
g62
(dp1895
sg71
g1058
sg64
(lp1896
g57
(g78
g59
NtRp1897
(dp1898
g62
(dp1899
g82
g83
ssg71
g1893
sg64
(lp1900
S'wsgi_run_once'
p1901
asbag57
(g78
g59
NtRp1902
(dp1903
g62
(dp1904
g89
g90
ssg71
g1893
sg64
(lp1905
S':'
asbag57
(g78
g59
NtRp1906
(dp1907
g62
(dp1908
sg71
g1893
sg64
(lp1909
g57
(g58
g59
NtRp1910
(dp1911
g62
(dp1912
g70
I4
ssg71
g1906
sg64
(lp1913
g100
asbasbasbag57
(g73
g59
NtRp1914
(dp1915
g62
(dp1916
sg71
g1058
sg64
(lp1917
g57
(g78
g59
NtRp1918
(dp1919
g62
(dp1920
g82
g83
ssg71
g1914
sg64
(lp1921
S'wsgi_url_scheme'
p1922
asbag57
(g78
g59
NtRp1923
(dp1924
g62
(dp1925
g89
g90
ssg71
g1914
sg64
(lp1926
S':'
asbag57
(g78
g59
NtRp1927
(dp1928
g62
(dp1929
sg71
g1914
sg64
(lp1930
g57
(g58
g59
NtRp1931
(dp1932
g62
(dp1933
g70
I4
ssg71
g1927
sg64
(lp1934
S'http'
p1935
asbasbasbag57
(g73
g59
NtRp1936
(dp1937
g62
(dp1938
sg71
g1058
sg64
(lp1939
g57
(g78
g59
NtRp1940
(dp1941
g62
(dp1942
g82
g83
ssg71
g1936
sg64
(lp1943
S'wsgi_version'
p1944
asbag57
(g78
g59
NtRp1945
(dp1946
g62
(dp1947
g89
g90
ssg71
g1936
sg64
(lp1948
S':'
asbag57
(g78
g59
NtRp1949
(dp1950
g62
(dp1951
sg71
g1936
sg64
(lp1952
g57
(g58
g59
NtRp1953
(dp1954
g62
(dp1955
g70
I4
ssg71
g1949
sg64
(lp1956
g57
(g66
g59
NtRp1957
(dp1958
g62
(dp1959
g70
I3
ssg71
Nsg64
(lp1960
g57
(g73
g59
NtRp1961
(dp1962
g62
(dp1963
sg71
g1957
sg64
(lp1964
g57
(g78
g59
NtRp1965
(dp1966
g62
(dp1967
sg71
g1961
sg64
(lp1968
g57
(g58
g59
NtRp1969
(dp1970
g62
(dp1971
g70
I3
ssg71
g1965
sg64
(lp1972
S'1'
asbasbasbag57
(g73
g59
NtRp1973
(dp1974
g62
(dp1975
sg71
g1957
sg64
(lp1976
g57
(g78
g59
NtRp1977
(dp1978
g62
(dp1979
sg71
g1973
sg64
(lp1980
g57
(g58
g59
NtRp1981
(dp1982
g62
(dp1983
g70
I3
ssg71
g1977
sg64
(lp1984
S'0'
asbasbasbasbasbasbasbasbasbasbasbag57
(g73
g59
NtRp1985
(dp1986
g62
(dp1987
sg71
g67
sg64
(lp1988
g57
(g78
g59
NtRp1989
(dp1990
g62
(dp1991
g82
g83
ssg71
g1985
sg64
(lp1992
S'extension'
p1993
asbag57
(g78
g59
NtRp1994
(dp1995
g62
(dp1996
g89
g90
ssg71
g1985
sg64
(lp1997
S':'
asbag57
(g78
g59
NtRp1998
(dp1999
g62
(dp2000
sg71
g1985
sg64
(lp2001
g57
(g58
g59
NtRp2002
(dp2003
g62
(dp2004
g70
I5
ssg71
g1998
sg64
(lp2005
S'html'
p2006
asbasbasbag57
(g73
g59
NtRp2007
(dp2008
g62
(dp2009
sg71
g67
sg64
(lp2010
g57
(g78
g59
NtRp2011
(dp2012
g62
(dp2013
g82
g83
ssg71
g2007
sg64
(lp2014
S'folder'
p2015
asbag57
(g78
g59
NtRp2016
(dp2017
g62
(dp2018
g89
g90
ssg71
g2007
sg64
(lp2019
S':'
asbag57
(g78
g59
NtRp2020
(dp2021
g62
(dp2022
sg71
g2007
sg64
(lp2023
g57
(g58
g59
NtRp2024
(dp2025
g62
(dp2026
g70
I5
ssg71
g2020
sg64
(lp2027
S'/home/ds-iiit/web2py/applications/Read_it/'
p2028
asbasbasbag57
(g73
g59
NtRp2029
(dp2030
g62
(dp2031
sg71
g67
sg64
(lp2032
g57
(g78
g59
NtRp2033
(dp2034
g62
(dp2035
g82
g83
ssg71
g2029
sg64
(lp2036
S'function'
p2037
asbag57
(g78
g59
NtRp2038
(dp2039
g62
(dp2040
g89
g90
ssg71
g2029
sg64
(lp2041
S':'
asbag57
(g78
g59
NtRp2042
(dp2043
g62
(dp2044
sg71
g2029
sg64
(lp2045
g57
(g58
g59
NtRp2046
(dp2047
g62
(dp2048
g70
I5
ssg71
g2042
sg64
(lp2049
S'list_cat'
p2050
asbasbasbag57
(g73
g59
NtRp2051
(dp2052
g62
(dp2053
sg71
g67
sg64
(lp2054
g57
(g78
g59
NtRp2055
(dp2056
g62
(dp2057
g82
g83
ssg71
g2051
sg64
(lp2058
S'get_vars'
p2059
asbag57
(g78
g59
NtRp2060
(dp2061
g62
(dp2062
g89
g90
ssg71
g2051
sg64
(lp2063
S':'
asbag57
(g78
g59
NtRp2064
(dp2065
g62
(dp2066
sg71
g2051
sg64
(lp2067
g57
(g58
g59
NtRp2068
(dp2069
g62
(dp2070
g70
I5
ssg71
g2064
sg64
(lp2071
g57
(g66
g59
NtRp2072
(dp2073
g62
(dp2074
g70
I4
ssg71
Nsg64
(lp2075
sbasbasbasbag57
(g73
g59
NtRp2076
(dp2077
g62
(dp2078
sg71
g67
sg64
(lp2079
g57
(g78
g59
NtRp2080
(dp2081
g62
(dp2082
g82
g83
ssg71
g2076
sg64
(lp2083
S'global_settings'
p2084
asbag57
(g78
g59
NtRp2085
(dp2086
g62
(dp2087
g89
g90
ssg71
g2076
sg64
(lp2088
S':'
asbag57
(g78
g59
NtRp2089
(dp2090
g62
(dp2091
sg71
g2076
sg64
(lp2092
g57
(g58
g59
NtRp2093
(dp2094
g62
(dp2095
g70
I5
ssg71
g2089
sg64
(lp2096
g57
(g66
g59
NtRp2097
(dp2098
g62
(dp2099
g70
I4
ssg71
Nsg64
(lp2100
g57
(g73
g59
NtRp2101
(dp2102
g62
(dp2103
sg71
g2097
sg64
(lp2104
g57
(g78
g59
NtRp2105
(dp2106
g62
(dp2107
g82
g83
ssg71
g2101
sg64
(lp2108
g1070
asbag57
(g78
g59
NtRp2109
(dp2110
g62
(dp2111
g89
g90
ssg71
g2101
sg64
(lp2112
S':'
asbag57
(g78
g59
NtRp2113
(dp2114
g62
(dp2115
sg71
g2101
sg64
(lp2116
g57
(g58
g59
NtRp2117
(dp2118
g62
(dp2119
g70
I4
ssg71
g2113
sg64
(lp2120
S"set(['/home/ds-iiit/web2py/applications/Read_it/', '/home/ds-iiit/web2py/applications/welcome/', '/home/ds-iiit/web2py/applications/admin/', '/home/ds-iiit/web2py/applications/XSeed/'])"
p2121
asbasbasbag57
(g73
g59
NtRp2122
(dp2123
g62
(dp2124
sg71
g2097
sg64
(lp2125
g57
(g78
g59
NtRp2126
(dp2127
g62
(dp2128
g82
g83
ssg71
g2122
sg64
(lp2129
g1092
asbag57
(g78
g59
NtRp2130
(dp2131
g62
(dp2132
g89
g90
ssg71
g2122
sg64
(lp2133
S':'
asbag57
(g78
g59
NtRp2134
(dp2135
g62
(dp2136
sg71
g2122
sg64
(lp2137
g57
(g58
g59
NtRp2138
(dp2139
g62
(dp2140
g70
I4
ssg71
g2134
sg64
(lp2141
g1105
asbasbasbag57
(g73
g59
NtRp2142
(dp2143
g62
(dp2144
sg71
g2097
sg64
(lp2145
g57
(g78
g59
NtRp2146
(dp2147
g62
(dp2148
g82
g83
ssg71
g2142
sg64
(lp2149
g1114
asbag57
(g78
g59
NtRp2150
(dp2151
g62
(dp2152
g89
g90
ssg71
g2142
sg64
(lp2153
S':'
asbag57
(g78
g59
NtRp2154
(dp2155
g62
(dp2156
sg71
g2142
sg64
(lp2157
g57
(g58
g59
NtRp2158
(dp2159
g62
(dp2160
g70
I4
ssg71
g2154
sg64
(lp2161
g57
(g66
g59
NtRp2162
(dp2163
g62
(dp2164
g70
I3
ssg71
Nsg64
(lp2165
sbasbasbasbag57
(g73
g59
NtRp2166
(dp2167
g62
(dp2168
sg71
g2097
sg64
(lp2169
g57
(g78
g59
NtRp2170
(dp2171
g62
(dp2172
g82
g83
ssg71
g2166
sg64
(lp2173
g1139
asbag57
(g78
g59
NtRp2174
(dp2175
g62
(dp2176
g89
g90
ssg71
g2166
sg64
(lp2177
S':'
asbag57
(g78
g59
NtRp2178
(dp2179
g62
(dp2180
sg71
g2166
sg64
(lp2181
g57
(g58
g59
NtRp2182
(dp2183
g62
(dp2184
g70
I4
ssg71
g2178
sg64
(lp2185
S"<Values at 0x2259f80: {'verbose': False, 'ip': '127.0.0.1', 'shutdown_timeout': 5, 'taskbar': False, 'port': 8000, 'maxthreads': None, 'softcron': False, 'server_name': 'DS-IIIT', 'bpython': False, 'nogui': False, 'nocron': False, 'extcron': False, 'debuglevel': 30, 'test': None, 'folder': '/home/ds-iiit/web2py', 'config': '', 'import_models': False, 'winservice': '', 'shell': None, 'run': '', 'log_filename': 'httpserver.log', 'args': [''], 'socket_timeout': 1, 'profiler_filename': None, 'ssl_private_key': '', 'password': '<ask>', 'request_queue_size': 5, 'ssl_certificate': '', 'cronjob': False, 'plain': False, 'quiet': False, 'interfaces': None, 'minthreads': None, 'timeout': 10, 'numthreads': None, 'nobanner': False, 'pid_filename': 'httpserver.pid'}>"
p2186
asbasbasbag57
(g73
g59
NtRp2187
(dp2188
g62
(dp2189
sg71
g2097
sg64
(lp2190
g57
(g78
g59
NtRp2191
(dp2192
g62
(dp2193
g82
g83
ssg71
g2187
sg64
(lp2194
g1161
asbag57
(g78
g59
NtRp2195
(dp2196
g62
(dp2197
g89
g90
ssg71
g2187
sg64
(lp2198
S':'
asbag57
(g78
g59
NtRp2199
(dp2200
g62
(dp2201
sg71
g2187
sg64
(lp2202
g57
(g58
g59
NtRp2203
(dp2204
g62
(dp2205
g70
I4
ssg71
g2199
sg64
(lp2206
S'set([])'
p2207
asbasbasbag57
(g73
g59
NtRp2208
(dp2209
g62
(dp2210
sg71
g2097
sg64
(lp2211
g57
(g78
g59
NtRp2212
(dp2213
g62
(dp2214
g82
g83
ssg71
g2208
sg64
(lp2215
g1183
asbag57
(g78
g59
NtRp2216
(dp2217
g62
(dp2218
g89
g90
ssg71
g2208
sg64
(lp2219
S':'
asbag57
(g78
g59
NtRp2220
(dp2221
g62
(dp2222
sg71
g2208
sg64
(lp2223
g57
(g58
g59
NtRp2224
(dp2225
g62
(dp2226
g70
I4
ssg71
g2220
sg64
(lp2227
g100
asbasbasbag57
(g73
g59
NtRp2228
(dp2229
g62
(dp2230
sg71
g2097
sg64
(lp2231
g57
(g78
g59
NtRp2232
(dp2233
g62
(dp2234
g82
g83
ssg71
g2228
sg64
(lp2235
g1204
asbag57
(g78
g59
NtRp2236
(dp2237
g62
(dp2238
g89
g90
ssg71
g2228
sg64
(lp2239
S':'
asbag57
(g78
g59
NtRp2240
(dp2241
g62
(dp2242
sg71
g2228
sg64
(lp2243
g57
(g58
g59
NtRp2244
(dp2245
g62
(dp2246
g70
I4
ssg71
g2240
sg64
(lp2247
g1217
asbasbasbag57
(g73
g59
NtRp2248
(dp2249
g62
(dp2250
sg71
g2097
sg64
(lp2251
g57
(g78
g59
NtRp2252
(dp2253
g62
(dp2254
g82
g83
ssg71
g2248
sg64
(lp2255
g1402
asbag57
(g78
g59
NtRp2256
(dp2257
g62
(dp2258
g89
g90
ssg71
g2248
sg64
(lp2259
S':'
asbag57
(g78
g59
NtRp2260
(dp2261
g62
(dp2262
sg71
g2248
sg64
(lp2263
g57
(g58
g59
NtRp2264
(dp2265
g62
(dp2266
g70
I4
ssg71
g2260
sg64
(lp2267
g100
asbasbasbag57
(g73
g59
NtRp2268
(dp2269
g62
(dp2270
sg71
g2097
sg64
(lp2271
g57
(g78
g59
NtRp2272
(dp2273
g62
(dp2274
g82
g83
ssg71
g2268
sg64
(lp2275
g1423
asbag57
(g78
g59
NtRp2276
(dp2277
g62
(dp2278
g89
g90
ssg71
g2268
sg64
(lp2279
S':'
asbag57
(g78
g59
NtRp2280
(dp2281
g62
(dp2282
sg71
g2268
sg64
(lp2283
g57
(g58
g59
NtRp2284
(dp2285
g62
(dp2286
g70
I4
ssg71
g2280
sg64
(lp2287
g100
asbasbasbag57
(g73
g59
NtRp2288
(dp2289
g62
(dp2290
sg71
g2097
sg64
(lp2291
g57
(g78
g59
NtRp2292
(dp2293
g62
(dp2294
g82
g83
ssg71
g2288
sg64
(lp2295
g1661
asbag57
(g78
g59
NtRp2296
(dp2297
g62
(dp2298
g89
g90
ssg71
g2288
sg64
(lp2299
S':'
asbag57
(g78
g59
NtRp2300
(dp2301
g62
(dp2302
sg71
g2288
sg64
(lp2303
g57
(g58
g59
NtRp2304
(dp2305
g62
(dp2306
g70
I4
ssg71
g2300
sg64
(lp2307
g1674
asbasbasbag57
(g73
g59
NtRp2308
(dp2309
g62
(dp2310
sg71
g2097
sg64
(lp2311
g57
(g78
g59
NtRp2312
(dp2313
g62
(dp2314
g82
g83
ssg71
g2308
sg64
(lp2315
g1704
asbag57
(g78
g59
NtRp2316
(dp2317
g62
(dp2318
g89
g90
ssg71
g2308
sg64
(lp2319
S':'
asbag57
(g78
g59
NtRp2320
(dp2321
g62
(dp2322
sg71
g2308
sg64
(lp2323
g57
(g58
g59
NtRp2324
(dp2325
g62
(dp2326
g70
I4
ssg71
g2320
sg64
(lp2327
g57
(g66
g59
NtRp2328
(dp2329
g62
(dp2330
g70
I3
ssg71
Nsg64
(lp2331
g57
(g73
g59
NtRp2332
(dp2333
g62
(dp2334
sg71
g2328
sg64
(lp2335
g57
(g78
g59
NtRp2336
(dp2337
g62
(dp2338
sg71
g2332
sg64
(lp2339
g57
(g58
g59
NtRp2340
(dp2341
g62
(dp2342
g70
I3
ssg71
g2336
sg64
(lp2343
S'1'
asbasbasbag57
(g73
g59
NtRp2344
(dp2345
g62
(dp2346
sg71
g2328
sg64
(lp2347
g57
(g78
g59
NtRp2348
(dp2349
g62
(dp2350
sg71
g2344
sg64
(lp2351
g57
(g58
g59
NtRp2352
(dp2353
g62
(dp2354
g70
I3
ssg71
g2348
sg64
(lp2355
S'99'
p2356
asbasbasbag57
(g73
g59
NtRp2357
(dp2358
g62
(dp2359
sg71
g2328
sg64
(lp2360
g57
(g78
g59
NtRp2361
(dp2362
g62
(dp2363
sg71
g2357
sg64
(lp2364
g57
(g58
g59
NtRp2365
(dp2366
g62
(dp2367
g70
I3
ssg71
g2361
sg64
(lp2368
S'4'
asbasbasbag57
(g73
g59
NtRp2369
(dp2370
g62
(dp2371
sg71
g2328
sg64
(lp2372
g57
(g78
g59
NtRp2373
(dp2374
g62
(dp2375
sg71
g2369
sg64
(lp2376
g57
(g58
g59
NtRp2377
(dp2378
g62
(dp2379
g70
I3
ssg71
g2373
sg64
(lp2380
S'datetime.datetime(2011, 12, 14, 14, 46, 14)'
p2381
asbasbasbag57
(g73
g59
NtRp2382
(dp2383
g62
(dp2384
sg71
g2328
sg64
(lp2385
g57
(g78
g59
NtRp2386
(dp2387
g62
(dp2388
sg71
g2382
sg64
(lp2389
g57
(g58
g59
NtRp2390
(dp2391
g62
(dp2392
g70
I3
ssg71
g2386
sg64
(lp2393
g1783
asbasbasbasbasbasbasbasbasbasbasbag57
(g73
g59
NtRp2394
(dp2395
g62
(dp2396
sg71
g67
sg64
(lp2397
g57
(g78
g59
NtRp2398
(dp2399
g62
(dp2400
g82
g83
ssg71
g2394
sg64
(lp2401
S'is_https'
p2402
asbag57
(g78
g59
NtRp2403
(dp2404
g62
(dp2405
g89
g90
ssg71
g2394
sg64
(lp2406
S':'
asbag57
(g78
g59
NtRp2407
(dp2408
g62
(dp2409
sg71
g2394
sg64
(lp2410
g57
(g58
g59
NtRp2411
(dp2412
g62
(dp2413
g70
I5
ssg71
g2407
sg64
(lp2414
g100
asbasbasbag57
(g73
g59
NtRp2415
(dp2416
g62
(dp2417
sg71
g67
sg64
(lp2418
g57
(g78
g59
NtRp2419
(dp2420
g62
(dp2421
g82
g83
ssg71
g2415
sg64
(lp2422
S'is_local'
p2423
asbag57
(g78
g59
NtRp2424
(dp2425
g62
(dp2426
g89
g90
ssg71
g2415
sg64
(lp2427
S':'
asbag57
(g78
g59
NtRp2428
(dp2429
g62
(dp2430
sg71
g2415
sg64
(lp2431
g57
(g58
g59
NtRp2432
(dp2433
g62
(dp2434
g70
I5
ssg71
g2428
sg64
(lp2435
g1892
asbasbasbag57
(g73
g59
NtRp2436
(dp2437
g62
(dp2438
sg71
g67
sg64
(lp2439
g57
(g78
g59
NtRp2440
(dp2441
g62
(dp2442
g82
g83
ssg71
g2436
sg64
(lp2443
S'is_restful'
p2444
asbag57
(g78
g59
NtRp2445
(dp2446
g62
(dp2447
g89
g90
ssg71
g2436
sg64
(lp2448
S':'
asbag57
(g78
g59
NtRp2449
(dp2450
g62
(dp2451
sg71
g2436
sg64
(lp2452
g57
(g58
g59
NtRp2453
(dp2454
g62
(dp2455
g70
I5
ssg71
g2449
sg64
(lp2456
g100
asbasbasbag57
(g73
g59
NtRp2457
(dp2458
g62
(dp2459
sg71
g67
sg64
(lp2460
g57
(g78
g59
NtRp2461
(dp2462
g62
(dp2463
g82
g83
ssg71
g2457
sg64
(lp2464
S'now'
p2465
asbag57
(g78
g59
NtRp2466
(dp2467
g62
(dp2468
g89
g90
ssg71
g2457
sg64
(lp2469
S':'
asbag57
(g78
g59
NtRp2470
(dp2471
g62
(dp2472
sg71
g2457
sg64
(lp2473
g57
(g58
g59
NtRp2474
(dp2475
g62
(dp2476
g70
I5
ssg71
g2470
sg64
(lp2477
S'datetime.datetime(2013, 9, 2, 0, 59, 55, 282796)'
p2478
asbasbasbag57
(g73
g59
NtRp2479
(dp2480
g62
(dp2481
sg71
g67
sg64
(lp2482
g57
(g78
g59
NtRp2483
(dp2484
g62
(dp2485
g82
g83
ssg71
g2479
sg64
(lp2486
S'post_vars'
p2487
asbag57
(g78
g59
NtRp2488
(dp2489
g62
(dp2490
g89
g90
ssg71
g2479
sg64
(lp2491
S':'
asbag57
(g78
g59
NtRp2492
(dp2493
g62
(dp2494
sg71
g2479
sg64
(lp2495
g57
(g58
g59
NtRp2496
(dp2497
g62
(dp2498
g70
I5
ssg71
g2492
sg64
(lp2499
g57
(g66
g59
NtRp2500
(dp2501
g62
(dp2502
g70
I4
ssg71
Nsg64
(lp2503
sbasbasbasbag57
(g73
g59
NtRp2504
(dp2505
g62
(dp2506
sg71
g67
sg64
(lp2507
g57
(g78
g59
NtRp2508
(dp2509
g62
(dp2510
g82
g83
ssg71
g2504
sg64
(lp2511
S'raw_args'
p2512
asbag57
(g78
g59
NtRp2513
(dp2514
g62
(dp2515
g89
g90
ssg71
g2504
sg64
(lp2516
S':'
asbag57
(g78
g59
NtRp2517
(dp2518
g62
(dp2519
sg71
g2504
sg64
(lp2520
g57
(g58
g59
NtRp2521
(dp2522
g62
(dp2523
g70
I5
ssg71
g2517
sg64
(lp2524
S'list_cat/list_cat/list_cat/5'
p2525
asbasbasbag57
(g73
g59
NtRp2526
(dp2527
g62
(dp2528
sg71
g67
sg64
(lp2529
g57
(g78
g59
NtRp2530
(dp2531
g62
(dp2532
g82
g83
ssg71
g2526
sg64
(lp2533
S'url'
p2534
asbag57
(g78
g59
NtRp2535
(dp2536
g62
(dp2537
g89
g90
ssg71
g2526
sg64
(lp2538
S':'
asbag57
(g78
g59
NtRp2539
(dp2540
g62
(dp2541
sg71
g2526
sg64
(lp2542
g57
(g58
g59
NtRp2543
(dp2544
g62
(dp2545
g70
I5
ssg71
g2539
sg64
(lp2546
S'/Read_it/default/list_cat/list_cat/list_cat/list_cat/5'
p2547
asbasbasbag57
(g73
g59
NtRp2548
(dp2549
g62
(dp2550
sg71
g67
sg64
(lp2551
g57
(g78
g59
NtRp2552
(dp2553
g62
(dp2554
g82
g83
ssg71
g2548
sg64
(lp2555
S'utcnow'
p2556
asbag57
(g78
g59
NtRp2557
(dp2558
g62
(dp2559
g89
g90
ssg71
g2548
sg64
(lp2560
S':'
asbag57
(g78
g59
NtRp2561
(dp2562
g62
(dp2563
sg71
g2548
sg64
(lp2564
g57
(g58
g59
NtRp2565
(dp2566
g62
(dp2567
g70
I5
ssg71
g2561
sg64
(lp2568
S'datetime.datetime(2013, 9, 1, 19, 29, 55, 282835)'
p2569
asbasbasbag57
(g73
g59
NtRp2570
(dp2571
g62
(dp2572
sg71
g67
sg64
(lp2573
g57
(g78
g59
NtRp2574
(dp2575
g62
(dp2576
g82
g83
ssg71
g2570
sg64
(lp2577
S'uuid'
p2578
asbag57
(g78
g59
NtRp2579
(dp2580
g62
(dp2581
g89
g90
ssg71
g2570
sg64
(lp2582
S':'
asbag57
(g78
g59
NtRp2583
(dp2584
g62
(dp2585
sg71
g2570
sg64
(lp2586
g57
(g58
g59
NtRp2587
(dp2588
g62
(dp2589
g70
I5
ssg71
g2583
sg64
(lp2590
S'Read_it/127.0.0.1.2013-09-02.00-59-55.43422c88-ff64-4e9a-b34b-e12d57fecbb1'
p2591
asbasbasbag57
(g73
g59
NtRp2592
(dp2593
g62
(dp2594
sg71
g67
sg64
(lp2595
g57
(g78
g59
NtRp2596
(dp2597
g62
(dp2598
g82
g83
ssg71
g2592
sg64
(lp2599
S'vars'
p2600
asbag57
(g78
g59
NtRp2601
(dp2602
g62
(dp2603
g89
g90
ssg71
g2592
sg64
(lp2604
S':'
asbag57
(g78
g59
NtRp2605
(dp2606
g62
(dp2607
sg71
g2592
sg64
(lp2608
g57
(g58
g59
NtRp2609
(dp2610
g62
(dp2611
g70
I5
ssg71
g2605
sg64
(lp2612
g57
(g66
g59
NtRp2613
(dp2614
g62
(dp2615
g70
I4
ssg71
Nsg64
(lp2616
sbasbasbasbag57
(g73
g59
NtRp2617
(dp2618
g62
(dp2619
sg71
g67
sg64
(lp2620
g57
(g78
g59
NtRp2621
(dp2622
g62
(dp2623
g82
g83
ssg71
g2617
sg64
(lp2624
S'wsgi'
p2625
asbag57
(g78
g59
NtRp2626
(dp2627
g62
(dp2628
g89
g90
ssg71
g2617
sg64
(lp2629
S':'
asbag57
(g78
g59
NtRp2630
(dp2631
g62
(dp2632
sg71
g2617
sg64
(lp2633
g57
(g58
g59
NtRp2634
(dp2635
g62
(dp2636
g70
I5
ssg71
g2630
sg64
(lp2637
g57
(g66
g59
NtRp2638
(dp2639
g62
(dp2640
g70
I4
ssg71
Nsg64
(lp2641
g57
(g73
g59
NtRp2642
(dp2643
g62
(dp2644
sg71
g2638
sg64
(lp2645
g57
(g78
g59
NtRp2646
(dp2647
g62
(dp2648
g82
g83
ssg71
g2642
sg64
(lp2649
S'environ'
p2650
asbag57
(g78
g59
NtRp2651
(dp2652
g62
(dp2653
g89
g90
ssg71
g2642
sg64
(lp2654
S':'
asbag57
(g78
g59
NtRp2655
(dp2656
g62
(dp2657
sg71
g2642
sg64
(lp2658
g57
(g58
g59
NtRp2659
(dp2660
g62
(dp2661
g70
I4
ssg71
g2655
sg64
(lp2662
g57
(g66
g59
NtRp2663
(dp2664
g62
(dp2665
g70
I3
ssg71
Nsg64
(lp2666
g57
(g73
g59
NtRp2667
(dp2668
g62
(dp2669
sg71
g2663
sg64
(lp2670
g57
(g78
g59
NtRp2671
(dp2672
g62
(dp2673
g82
g83
ssg71
g2667
sg64
(lp2674
S'HTTP_ACCEPT'
p2675
asbag57
(g78
g59
NtRp2676
(dp2677
g62
(dp2678
g89
g90
ssg71
g2667
sg64
(lp2679
S':'
asbag57
(g78
g59
NtRp2680
(dp2681
g62
(dp2682
sg71
g2667
sg64
(lp2683
g57
(g58
g59
NtRp2684
(dp2685
g62
(dp2686
g70
I3
ssg71
g2680
sg64
(lp2687
g1239
asbasbasbag57
(g73
g59
NtRp2688
(dp2689
g62
(dp2690
sg71
g2663
sg64
(lp2691
g57
(g78
g59
NtRp2692
(dp2693
g62
(dp2694
g82
g83
ssg71
g2688
sg64
(lp2695
S'HTTP_ACCEPT_ENCODING'
p2696
asbag57
(g78
g59
NtRp2697
(dp2698
g62
(dp2699
g89
g90
ssg71
g2688
sg64
(lp2700
S':'
asbag57
(g78
g59
NtRp2701
(dp2702
g62
(dp2703
sg71
g2688
sg64
(lp2704
g57
(g58
g59
NtRp2705
(dp2706
g62
(dp2707
g70
I3
ssg71
g2701
sg64
(lp2708
g1261
asbasbasbag57
(g73
g59
NtRp2709
(dp2710
g62
(dp2711
sg71
g2663
sg64
(lp2712
g57
(g78
g59
NtRp2713
(dp2714
g62
(dp2715
g82
g83
ssg71
g2709
sg64
(lp2716
S'HTTP_ACCEPT_LANGUAGE'
p2717
asbag57
(g78
g59
NtRp2718
(dp2719
g62
(dp2720
g89
g90
ssg71
g2709
sg64
(lp2721
S':'
asbag57
(g78
g59
NtRp2722
(dp2723
g62
(dp2724
sg71
g2709
sg64
(lp2725
g57
(g58
g59
NtRp2726
(dp2727
g62
(dp2728
g70
I3
ssg71
g2722
sg64
(lp2729
g1283
asbasbasbag57
(g73
g59
NtRp2730
(dp2731
g62
(dp2732
sg71
g2663
sg64
(lp2733
g57
(g78
g59
NtRp2734
(dp2735
g62
(dp2736
g82
g83
ssg71
g2730
sg64
(lp2737
S'HTTP_CONNECTION'
p2738
asbag57
(g78
g59
NtRp2739
(dp2740
g62
(dp2741
g89
g90
ssg71
g2730
sg64
(lp2742
S':'
asbag57
(g78
g59
NtRp2743
(dp2744
g62
(dp2745
sg71
g2730
sg64
(lp2746
g57
(g58
g59
NtRp2747
(dp2748
g62
(dp2749
g70
I3
ssg71
g2743
sg64
(lp2750
g1305
asbasbasbag57
(g73
g59
NtRp2751
(dp2752
g62
(dp2753
sg71
g2663
sg64
(lp2754
g57
(g78
g59
NtRp2755
(dp2756
g62
(dp2757
g82
g83
ssg71
g2751
sg64
(lp2758
S'HTTP_COOKIE'
p2759
asbag57
(g78
g59
NtRp2760
(dp2761
g62
(dp2762
g89
g90
ssg71
g2751
sg64
(lp2763
S':'
asbag57
(g78
g59
NtRp2764
(dp2765
g62
(dp2766
sg71
g2751
sg64
(lp2767
g57
(g58
g59
NtRp2768
(dp2769
g62
(dp2770
g70
I3
ssg71
g2764
sg64
(lp2771
g1327
asbasbasbag57
(g73
g59
NtRp2772
(dp2773
g62
(dp2774
sg71
g2663
sg64
(lp2775
g57
(g78
g59
NtRp2776
(dp2777
g62
(dp2778
g82
g83
ssg71
g2772
sg64
(lp2779
S'HTTP_HOST'
p2780
asbag57
(g78
g59
NtRp2781
(dp2782
g62
(dp2783
g89
g90
ssg71
g2772
sg64
(lp2784
S':'
asbag57
(g78
g59
NtRp2785
(dp2786
g62
(dp2787
sg71
g2772
sg64
(lp2788
g57
(g58
g59
NtRp2789
(dp2790
g62
(dp2791
g70
I3
ssg71
g2785
sg64
(lp2792
g1349
asbasbasbag57
(g73
g59
NtRp2793
(dp2794
g62
(dp2795
sg71
g2663
sg64
(lp2796
g57
(g78
g59
NtRp2797
(dp2798
g62
(dp2799
g82
g83
ssg71
g2793
sg64
(lp2800
S'HTTP_REFERER'
p2801
asbag57
(g78
g59
NtRp2802
(dp2803
g62
(dp2804
g89
g90
ssg71
g2793
sg64
(lp2805
S':'
asbag57
(g78
g59
NtRp2806
(dp2807
g62
(dp2808
sg71
g2793
sg64
(lp2809
g57
(g58
g59
NtRp2810
(dp2811
g62
(dp2812
g70
I3
ssg71
g2806
sg64
(lp2813
g1371
asbasbasbag57
(g73
g59
NtRp2814
(dp2815
g62
(dp2816
sg71
g2663
sg64
(lp2817
g57
(g78
g59
NtRp2818
(dp2819
g62
(dp2820
g82
g83
ssg71
g2814
sg64
(lp2821
S'HTTP_USER_AGENT'
p2822
asbag57
(g78
g59
NtRp2823
(dp2824
g62
(dp2825
g89
g90
ssg71
g2814
sg64
(lp2826
S':'
asbag57
(g78
g59
NtRp2827
(dp2828
g62
(dp2829
sg71
g2814
sg64
(lp2830
g57
(g58
g59
NtRp2831
(dp2832
g62
(dp2833
g70
I3
ssg71
g2827
sg64
(lp2834
g1393
asbasbasbag57
(g73
g59
NtRp2835
(dp2836
g62
(dp2837
sg71
g2663
sg64
(lp2838
g57
(g78
g59
NtRp2839
(dp2840
g62
(dp2841
g82
g83
ssg71
g2835
sg64
(lp2842
S'PATH_INFO'
p2843
asbag57
(g78
g59
NtRp2844
(dp2845
g62
(dp2846
g89
g90
ssg71
g2835
sg64
(lp2847
S':'
asbag57
(g78
g59
NtRp2848
(dp2849
g62
(dp2850
sg71
g2835
sg64
(lp2851
g57
(g58
g59
NtRp2852
(dp2853
g62
(dp2854
g70
I3
ssg71
g2848
sg64
(lp2855
g1457
asbasbasbag57
(g73
g59
NtRp2856
(dp2857
g62
(dp2858
sg71
g2663
sg64
(lp2859
g57
(g78
g59
NtRp2860
(dp2861
g62
(dp2862
g82
g83
ssg71
g2856
sg64
(lp2863
S'QUERY_STRING'
p2864
asbag57
(g78
g59
NtRp2865
(dp2866
g62
(dp2867
g89
g90
ssg71
g2856
sg64
(lp2868
S':'
asbag57
(g78
g59
NtRp2869
(dp2870
g62
(dp2871
sg71
g2856
sg64
(lp2872
g57
(g58
g59
NtRp2873
(dp2874
g62
(dp2875
g70
I3
ssg71
g2869
sg64
(lp2876
S''
asbasbasbag57
(g73
g59
NtRp2877
(dp2878
g62
(dp2879
sg71
g2663
sg64
(lp2880
g57
(g78
g59
NtRp2881
(dp2882
g62
(dp2883
g82
g83
ssg71
g2877
sg64
(lp2884
S'REMOTE_ADDR'
p2885
asbag57
(g78
g59
NtRp2886
(dp2887
g62
(dp2888
g89
g90
ssg71
g2877
sg64
(lp2889
S':'
asbag57
(g78
g59
NtRp2890
(dp2891
g62
(dp2892
sg71
g2877
sg64
(lp2893
g57
(g58
g59
NtRp2894
(dp2895
g62
(dp2896
g70
I3
ssg71
g2890
sg64
(lp2897
g241
asbasbasbag57
(g73
g59
NtRp2898
(dp2899
g62
(dp2900
sg71
g2663
sg64
(lp2901
g57
(g78
g59
NtRp2902
(dp2903
g62
(dp2904
g82
g83
ssg71
g2898
sg64
(lp2905
S'REMOTE_PORT'
p2906
asbag57
(g78
g59
NtRp2907
(dp2908
g62
(dp2909
g89
g90
ssg71
g2898
sg64
(lp2910
S':'
asbag57
(g78
g59
NtRp2911
(dp2912
g62
(dp2913
sg71
g2898
sg64
(lp2914
g57
(g58
g59
NtRp2915
(dp2916
g62
(dp2917
g70
I3
ssg71
g2911
sg64
(lp2918
g1521
asbasbasbag57
(g73
g59
NtRp2919
(dp2920
g62
(dp2921
sg71
g2663
sg64
(lp2922
g57
(g78
g59
NtRp2923
(dp2924
g62
(dp2925
g82
g83
ssg71
g2919
sg64
(lp2926
S'REQUEST_METHOD'
p2927
asbag57
(g78
g59
NtRp2928
(dp2929
g62
(dp2930
g89
g90
ssg71
g2919
sg64
(lp2931
S':'
asbag57
(g78
g59
NtRp2932
(dp2933
g62
(dp2934
sg71
g2919
sg64
(lp2935
g57
(g58
g59
NtRp2936
(dp2937
g62
(dp2938
g70
I3
ssg71
g2932
sg64
(lp2939
g1543
asbasbasbag57
(g73
g59
NtRp2940
(dp2941
g62
(dp2942
sg71
g2663
sg64
(lp2943
g57
(g78
g59
NtRp2944
(dp2945
g62
(dp2946
g82
g83
ssg71
g2940
sg64
(lp2947
S'SCRIPT_NAME'
p2948
asbag57
(g78
g59
NtRp2949
(dp2950
g62
(dp2951
g89
g90
ssg71
g2940
sg64
(lp2952
S':'
asbag57
(g78
g59
NtRp2953
(dp2954
g62
(dp2955
sg71
g2940
sg64
(lp2956
g57
(g58
g59
NtRp2957
(dp2958
g62
(dp2959
g70
I3
ssg71
g2953
sg64
(lp2960
S''
asbasbasbag57
(g73
g59
NtRp2961
(dp2962
g62
(dp2963
sg71
g2663
sg64
(lp2964
g57
(g78
g59
NtRp2965
(dp2966
g62
(dp2967
g82
g83
ssg71
g2961
sg64
(lp2968
S'SERVER_NAME'
p2969
asbag57
(g78
g59
NtRp2970
(dp2971
g62
(dp2972
g89
g90
ssg71
g2961
sg64
(lp2973
S':'
asbag57
(g78
g59
NtRp2974
(dp2975
g62
(dp2976
sg71
g2961
sg64
(lp2977
g57
(g58
g59
NtRp2978
(dp2979
g62
(dp2980
g70
I3
ssg71
g2974
sg64
(lp2981
g1586
asbasbasbag57
(g73
g59
NtRp2982
(dp2983
g62
(dp2984
sg71
g2663
sg64
(lp2985
g57
(g78
g59
NtRp2986
(dp2987
g62
(dp2988
g82
g83
ssg71
g2982
sg64
(lp2989
S'SERVER_PORT'
p2990
asbag57
(g78
g59
NtRp2991
(dp2992
g62
(dp2993
g89
g90
ssg71
g2982
sg64
(lp2994
S':'
asbag57
(g78
g59
NtRp2995
(dp2996
g62
(dp2997
sg71
g2982
sg64
(lp2998
g57
(g58
g59
NtRp2999
(dp3000
g62
(dp3001
g70
I3
ssg71
g2995
sg64
(lp3002
g1608
asbasbasbag57
(g73
g59
NtRp3003
(dp3004
g62
(dp3005
sg71
g2663
sg64
(lp3006
g57
(g78
g59
NtRp3007
(dp3008
g62
(dp3009
g82
g83
ssg71
g3003
sg64
(lp3010
S'SERVER_PROTOCOL'
p3011
asbag57
(g78
g59
NtRp3012
(dp3013
g62
(dp3014
g89
g90
ssg71
g3003
sg64
(lp3015
S':'
asbag57
(g78
g59
NtRp3016
(dp3017
g62
(dp3018
sg71
g3003
sg64
(lp3019
g57
(g58
g59
NtRp3020
(dp3021
g62
(dp3022
g70
I3
ssg71
g3016
sg64
(lp3023
g1630
asbasbasbag57
(g73
g59
NtRp3024
(dp3025
g62
(dp3026
sg71
g2663
sg64
(lp3027
g57
(g78
g59
NtRp3028
(dp3029
g62
(dp3030
g82
g83
ssg71
g3024
sg64
(lp3031
S'SERVER_SOFTWARE'
p3032
asbag57
(g78
g59
NtRp3033
(dp3034
g62
(dp3035
g89
g90
ssg71
g3024
sg64
(lp3036
S':'
asbag57
(g78
g59
NtRp3037
(dp3038
g62
(dp3039
sg71
g3024
sg64
(lp3040
g57
(g58
g59
NtRp3041
(dp3042
g62
(dp3043
g70
I3
ssg71
g3037
sg64
(lp3044
g1652
asbasbasbag57
(g73
g59
NtRp3045
(dp3046
g62
(dp3047
sg71
g2663
sg64
(lp3048
g57
(g78
g59
NtRp3049
(dp3050
g62
(dp3051
g82
g83
ssg71
g3045
sg64
(lp3052
S'wsgi.errors'
p3053
asbag57
(g78
g59
NtRp3054
(dp3055
g62
(dp3056
g89
g90
ssg71
g3045
sg64
(lp3057
S':'
asbag57
(g78
g59
NtRp3058
(dp3059
g62
(dp3060
sg71
g3045
sg64
(lp3061
g57
(g58
g59
NtRp3062
(dp3063
g62
(dp3064
g70
I3
ssg71
g3058
sg64
(lp3065
S"<open file '<stderr>', mode 'w' at 0x7f044c779270>"
p3066
asbasbasbag57
(g73
g59
NtRp3067
(dp3068
g62
(dp3069
sg71
g2663
sg64
(lp3070
g57
(g78
g59
NtRp3071
(dp3072
g62
(dp3073
g82
g83
ssg71
g3067
sg64
(lp3074
S'wsgi.file_wrapper'
p3075
asbag57
(g78
g59
NtRp3076
(dp3077
g62
(dp3078
g89
g90
ssg71
g3067
sg64
(lp3079
S':'
asbag57
(g78
g59
NtRp3080
(dp3081
g62
(dp3082
sg71
g3067
sg64
(lp3083
g57
(g58
g59
NtRp3084
(dp3085
g62
(dp3086
g70
I3
ssg71
g3080
sg64
(lp3087
S'<class wsgiref.util.FileWrapper at 0x21cc668>'
p3088
asbasbasbag57
(g73
g59
NtRp3089
(dp3090
g62
(dp3091
sg71
g2663
sg64
(lp3092
g57
(g78
g59
NtRp3093
(dp3094
g62
(dp3095
g82
g83
ssg71
g3089
sg64
(lp3096
S'wsgi.input'
p3097
asbag57
(g78
g59
NtRp3098
(dp3099
g62
(dp3100
g89
g90
ssg71
g3089
sg64
(lp3101
S':'
asbag57
(g78
g59
NtRp3102
(dp3103
g62
(dp3104
sg71
g3089
sg64
(lp3105
g57
(g58
g59
NtRp3106
(dp3107
g62
(dp3108
g70
I3
ssg71
g3102
sg64
(lp3109
S'<cStringIO.StringO object at 0x7f041826abc8>'
p3110
asbasbasbag57
(g73
g59
NtRp3111
(dp3112
g62
(dp3113
sg71
g2663
sg64
(lp3114
g57
(g78
g59
NtRp3115
(dp3116
g62
(dp3117
g82
g83
ssg71
g3111
sg64
(lp3118
S'wsgi.multiprocess'
p3119
asbag57
(g78
g59
NtRp3120
(dp3121
g62
(dp3122
g89
g90
ssg71
g3111
sg64
(lp3123
S':'
asbag57
(g78
g59
NtRp3124
(dp3125
g62
(dp3126
sg71
g3111
sg64
(lp3127
g57
(g58
g59
NtRp3128
(dp3129
g62
(dp3130
g70
I3
ssg71
g3124
sg64
(lp3131
g100
asbasbasbag57
(g73
g59
NtRp3132
(dp3133
g62
(dp3134
sg71
g2663
sg64
(lp3135
g57
(g78
g59
NtRp3136
(dp3137
g62
(dp3138
g82
g83
ssg71
g3132
sg64
(lp3139
S'wsgi.multithread'
p3140
asbag57
(g78
g59
NtRp3141
(dp3142
g62
(dp3143
g89
g90
ssg71
g3132
sg64
(lp3144
S':'
asbag57
(g78
g59
NtRp3145
(dp3146
g62
(dp3147
sg71
g3132
sg64
(lp3148
g57
(g58
g59
NtRp3149
(dp3150
g62
(dp3151
g70
I3
ssg71
g3145
sg64
(lp3152
g1892
asbasbasbag57
(g73
g59
NtRp3153
(dp3154
g62
(dp3155
sg71
g2663
sg64
(lp3156
g57
(g78
g59
NtRp3157
(dp3158
g62
(dp3159
g82
g83
ssg71
g3153
sg64
(lp3160
S'wsgi.run_once'
p3161
asbag57
(g78
g59
NtRp3162
(dp3163
g62
(dp3164
g89
g90
ssg71
g3153
sg64
(lp3165
S':'
asbag57
(g78
g59
NtRp3166
(dp3167
g62
(dp3168
sg71
g3153
sg64
(lp3169
g57
(g58
g59
NtRp3170
(dp3171
g62
(dp3172
g70
I3
ssg71
g3166
sg64
(lp3173
g100
asbasbasbag57
(g73
g59
NtRp3174
(dp3175
g62
(dp3176
sg71
g2663
sg64
(lp3177
g57
(g78
g59
NtRp3178
(dp3179
g62
(dp3180
g82
g83
ssg71
g3174
sg64
(lp3181
S'wsgi.url_scheme'
p3182
asbag57
(g78
g59
NtRp3183
(dp3184
g62
(dp3185
g89
g90
ssg71
g3174
sg64
(lp3186
S':'
asbag57
(g78
g59
NtRp3187
(dp3188
g62
(dp3189
sg71
g3174
sg64
(lp3190
g57
(g58
g59
NtRp3191
(dp3192
g62
(dp3193
g70
I3
ssg71
g3187
sg64
(lp3194
g1935
asbasbasbag57
(g73
g59
NtRp3195
(dp3196
g62
(dp3197
sg71
g2663
sg64
(lp3198
g57
(g78
g59
NtRp3199
(dp3200
g62
(dp3201
g82
g83
ssg71
g3195
sg64
(lp3202
S'wsgi.version'
p3203
asbag57
(g78
g59
NtRp3204
(dp3205
g62
(dp3206
g89
g90
ssg71
g3195
sg64
(lp3207
S':'
asbag57
(g78
g59
NtRp3208
(dp3209
g62
(dp3210
sg71
g3195
sg64
(lp3211
g57
(g58
g59
NtRp3212
(dp3213
g62
(dp3214
g70
I3
ssg71
g3208
sg64
(lp3215
S'1'
asbasbasbasbasbasbasbasbasbasbasbasbasbsS'frames'
p3216
(lp3217
(dp3218
S'file'
p3219
S'/usr/lib/pymodules/python2.7/gluon/restricted.py'
p3220
sS'dump'
p3221
(dp3222
S'environment'
p3223
S"{'A': <class 'gluon.html.A'>, 'Auth': <class 'gluon.tools.Auth'>, 'B': <class 'gluon.html.B'>, 'BEAUTIFY': <class 'gluon.html.BEAUTIFY'>, 'BODY': <class 'gluon.html.BODY'>, 'BR': <class 'gluon.html.BR'>, 'BUTTON': <class 'gluon.html.BUTTON'>, 'CAT': <class 'gluon.html.CAT'>, 'CENTER': <class 'gluon.html.CENTER'>, 'CLEANUP': <class 'gluon.validators.CLEANUP'>, ...}"
p3224
sS'ccode'
p3225
S'<code object <module> at 0x7f040027d230, file "/...cations/Read_it/controllers/default.py", line 12>'
p3226
ssS'lnum'
p3227
I204
sS'lines'
p3228
(dp3229
I199
S'    try:'
p3230
sI200
S'        if type(code) == types.CodeType:'
p3231
sI201
S'            ccode = code'
p3232
sI202
S'        else:'
p3233
sI203
S'            ccode = compile2(code,layer)'
p3234
sI204
S'        exec ccode in environment'
p3235
sI205
S'    except HTTP:'
p3236
sI206
S'        raise'
p3237
sI207
S'    except RestrictedError:'
p3238
sI208
S'        # do not encapsulate (obfuscate) the original RestrictedError'
p3239
ssS'call'
p3240
S"(code='# -*- coding: utf-8 -*-\\n# this file is released ...d())\\n\\n\\nresponse._vars=response._caller(list_cat)\\n', environment={'A': <class 'gluon.html.A'>, 'Auth': <class 'gluon.tools.Auth'>, 'B': <class 'gluon.html.B'>, 'BEAUTIFY': <class 'gluon.html.BEAUTIFY'>, 'BODY': <class 'gluon.html.BODY'>, 'BR': <class 'gluon.html.BR'>, 'BUTTON': <class 'gluon.html.BUTTON'>, 'CAT': <class 'gluon.html.CAT'>, 'CENTER': <class 'gluon.html.CENTER'>, 'CLEANUP': <class 'gluon.validators.CLEANUP'>, ...}, layer='/home/ds-iiit/web2py/applications/Read_it/controllers/default.py')"
p3241
sS'func'
p3242
S'restricted'
p3243
sa(dp3244
g3219
S'/home/ds-iiit/web2py/applications/Read_it/controllers/default.py'
p3245
sg3221
(dp3246
sg3227
I170
sg3228
(dp3247
I160
S'    http://..../[app]/default/data/select/[table]'
p3248
sI161
S'    http://..../[app]/default/data/search/[table]'
p3249
sI162
S'    but URLs must be signed, i.e. linked with'
p3250
sI163
S"      A('table',_href=URL('data/tables',user_signature=True))"
p3251
sI164
S'    or with the signed load operator'
p3252
sI165
S"      LOAD('default','data.load',args='tables',ajax=True,user_signature=True)"
p3253
sI166
S'    """'
p3254
sI167
S'    return dict(form=crud())'
p3255
sI168
S''
sI159
S'    http://..../[app]/default/data/delete/[table]/[id]'
p3256
ssg3240
S'()'
p3257
sg3242
S'<module>'
p3258
sa(dp3259
g3219
S'/usr/lib/pymodules/python2.7/gluon/globals.py'
p3260
sg3221
(dp3261
S'self'
p3262
S'undefined'
p3263
sS'f'
S'<function list_cat>'
p3264
ssg3227
I172
sg3228
(dp3265
I167
S'        self.meta = Storage()      # used by web2py_ajax.html'
p3266
sI168
S'        self.menu = []             # used by the default view layout'
p3267
sI169
S'        self.files = []            # used by web2py_ajax.html'
p3268
sI170
S'        self.generic_patterns = [] # patterns to allow generic views'
p3269
sI171
S'        self._vars = None'
p3270
sI172
S'        self._caller = lambda f: f()'
p3271
sI173
S'        self._view_environment = None'
p3272
sI174
S'        self._custom_commit = None'
p3273
sI175
S'        self._custom_rollback = None'
p3274
sI176
S''
ssg3240
S'(f=<function list_cat>)'
p3275
sg3242
S'<lambda>'
p3276
sa(dp3277
g3219
S'/home/ds-iiit/web2py/applications/Read_it/controllers/default.py'
p3278
sg3221
(dp3279
S'orderby'
p3280
g3263
sS'db.Category'
p3281
S"<Table {'ALL': <gluon.dal.SQLALL object at 0x7f0...id': <gluon.dal.Field object at 0x7f04002648d0>}>"
p3282
sS'global request'
p3283
S"<Storage {'body': <cStringIO.StringO object at 0..._vars': <Storage {}>, 'post_vars': <Storage {}>}>"
p3284
sS'db.Item.Category'
p3285
S'<gluon.dal.Field object>'
p3286
sS'db.Item.Rating'
p3287
S'<gluon.dal.Field object>'
p3288
sS').select'
p3289
g3263
sS'db.Category.id'
p3290
S'<gluon.dal.Field object>'
p3291
sS'request.args'
p3292
S"['list_cat', 'list_cat', 'list_cat', '5']"
p3293
sS'db.Item'
p3294
S"<Table {'Category': <gluon.dal.Field object at 0...id': <gluon.dal.Field object at 0x7f0400264d50>}>"
p3295
sS'global db'
p3296
S"<DAL {'Category': <Table {'ALL': <gluon.dal.SQLA...': <gluon.dal.Field object at 0x7f040025dd50>}>}>"
p3297
sS'x'
g3263
ssg3227
I95
sg3228
(dp3298
I96
S'\treturn dict(x=x)'
p3299
sI97
S''
sI98
S'def check_access():'
p3300
sI99
S'    return True if auth.is_logged_in() else False'
p3301
sI90
S'\telse:'
p3302
sI91
S'\t\tredirect(URL(listall))'
p3303
sI92
S'\treturn dict(form=form)'
p3304
sI93
S''
sI94
S'def list_cat():'
p3305
sI95
S'\tx = db((request.args(0)==db.Category.id) & (db.Category.id == db.Item.Category)).select(orderby=db.Item.Rating)'
p3306
ssg3240
S'()'
p3307
sg3242
S'list_cat'
p3308
sa(dp3309
g3219
S'/usr/lib/pymodules/python2.7/gluon/dal.py'
p3310
sg3221
(dp3311
S'self.query'
p3312
S'<gluon.dal.Query object>'
p3313
sS'fields'
p3314
S'()'
p3315
sS'self'
p3316
S'<gluon.dal.Set object>'
p3317
sS'self.db._adapter.select'
p3318
S'<bound method SQLiteAdapter.select of <gluon.dal.SQLiteAdapter object>>'
p3319
sS'self.db._adapter'
p3320
S'<gluon.dal.SQLiteAdapter object>'
p3321
sS'attributes'
p3322
S"{'orderby': <gluon.dal.Field object>}"
p3323
sS'self.db'
p3324
S"<DAL {'Category': <Table {'ALL': <gluon.dal.SQLA...': <gluon.dal.Field object at 0x7f040025dd50>}>}>"
p3325
ssg3227
I6333
sg3228
(dp3326
I6336
S'        tablename=self.db._adapter.get_table(self.query)'
p3327
sI6337
S'        self.delete_uploaded_files()'
p3328
sI6328
S''
sI6329
S'    def count(self,distinct=None):'
p3329
sI6330
S'        return self.db._adapter.count(self.query,distinct)'
p3330
sI6331
S''
sI6332
S'    def select(self, *fields, **attributes):'
p3331
sI6333
S'        return self.db._adapter.select(self.query,fields,attributes)'
p3332
sI6334
S''
sI6335
S'    def delete(self):'
p3333
ssg3240
S"(self=<gluon.dal.Set object>, *fields=(), **attributes={'orderby': <gluon.dal.Field object>})"
p3334
sg3242
S'select'
p3335
sa(dp3336
g3219
S'/usr/lib/pymodules/python2.7/gluon/dal.py'
p3337
sg3221
(dp3338
S'self._select'
p3339
S'<bound method SQLiteAdapter._select of <gluon.dal.SQLiteAdapter object>>'
p3340
sS'fields'
p3341
S'()'
p3342
sS'self'
p3343
S'<gluon.dal.SQLiteAdapter object>'
p3344
sS'sql'
p3345
g3263
sS'query'
p3346
S'<gluon.dal.Query object>'
p3347
sS'attributes'
p3348
S"{'orderby': <gluon.dal.Field object>}"
p3349
ssg3227
I1274
sg3228
(dp3350
I1269
S'        Always returns a Rows object, possibly empty.'
p3351
sI1270
S'        """'
p3352
sI1271
S'        def response(sql):'
p3353
sI1272
S'            self.execute(sql)'
p3354
sI1273
S'            return self.cursor.fetchall()'
p3355
sI1274
S'        sql = self._select(query, fields, attributes)'
p3356
sI1275
S"        if attributes.get('cache', None):"
p3357
sI1276
S"            (cache_model, time_expire) = attributes['cache']"
p3358
sI1277
S"            del attributes['cache']"
p3359
sI1278
S"            key = self.uri + '/' + sql"
p3360
ssg3240
S"(self=<gluon.dal.SQLiteAdapter object>, query=<gluon.dal.Query object>, fields=(), attributes={'orderby': <gluon.dal.Field object>})"
p3361
sg3242
g3335
sa(dp3362
g3219
S'/usr/lib/pymodules/python2.7/gluon/dal.py'
p3363
sg3221
(dp3364
S'fields'
p3365
S'()'
p3366
sS'self'
p3367
S'<gluon.dal.SQLiteAdapter object>'
p3368
sS')._select'
p3369
S'<bound method SQLiteAdapter._select of <gluon.dal.SQLiteAdapter object>>'
p3370
sS'sql'
p3371
g3263
sS'global SQLiteAdapter'
p3372
S"<class 'gluon.dal.SQLiteAdapter'>"
p3373
sS'query'
p3374
S'<gluon.dal.Query object>'
p3375
sS'builtinsuper'
p3376
S"<type 'super'>"
p3377
sS'attributes'
p3378
S"{'orderby': <gluon.dal.Field object>}"
p3379
ssg3227
I1672
sg3228
(dp3380
I1667
S'        """'
p3381
sI1668
S'        Simulate SELECT ... FOR UPDATE with BEGIN IMMEDIATE TRANSACTION.'
p3382
sI1669
S'        Note that the entire database, rather than one record, is locked'
p3383
sI1670
S'        (it will be locked eventually anyway by the following UPDATE).'
p3384
sI1671
S'        """'
p3385
sI1672
S'        sql = super(SQLiteAdapter, self)._select(query, fields, attributes)'
p3386
sI1673
S"        if attributes.get('for_update', False):"
p3387
sI1674
S"            sql = 'BEGIN IMMEDIATE TRANSACTION; ' + sql"
p3388
sI1675
S'        return sql'
p3389
sI1676
S''
ssg3240
S"(self=<gluon.dal.SQLiteAdapter object>, query=<gluon.dal.Query object>, fields=(), attributes={'orderby': <gluon.dal.Field object>})"
p3390
sg3242
S'_select'
p3391
sa(dp3392
g3219
S'/usr/lib/pymodules/python2.7/gluon/dal.py'
p3393
sg3221
(dp3394
S'query'
p3395
S'<gluon.dal.Query object>'
p3396
sS'self'
p3397
S'<gluon.dal.SQLiteAdapter object>'
p3398
sS'sql_w'
p3399
g3263
sS'self.expand'
p3400
S'<bound method SQLiteAdapter.expand of <gluon.dal.SQLiteAdapter object>>'
p3401
ssg3227
I1175
sg3228
(dp3402
I1170
S'        if len(tablenames) < 1:'
p3403
sI1171
S"            raise SyntaxError, 'Set: no tables selected'"
p3404
sI1172
S"        sql_f = ', '.join(map(self.expand, fields))"
p3405
sI1173
S"        self._colnames = [c.strip() for c in sql_f.split(', ')]"
p3406
sI1174
S'        if query:'
p3407
sI1175
S"            sql_w = ' WHERE ' + self.expand(query)"
p3408
sI1176
S'        else:'
p3409
sI1177
S"            sql_w = ''"
p3410
sI1178
S"        sql_o = ''"
p3411
sI1179
S"        sql_s = ''"
p3412
ssg3240
S"(self=<gluon.dal.SQLiteAdapter object>, query=<gluon.dal.Query object>, fields=[<gluon.dal.Field object>, <gluon.dal.Field object>, <gluon.dal.Field object>, <gluon.dal.Field object>, <gluon.dal.Field object>, <gluon.dal.Field object>, <gluon.dal.Field object>, <gluon.dal.Field object>, <gluon.dal.Field object>, <gluon.dal.Field object>, <gluon.dal.Field object>], attributes={'orderby': <gluon.dal.Field object>})"
p3413
sg3242
g3391
sa(dp3414
g3219
S'/usr/lib/pymodules/python2.7/gluon/dal.py'
p3415
sg3221
(dp3416
S'expression.op'
p3417
S'<bound method SQLiteAdapter.AND of <gluon.dal.SQLiteAdapter object>>'
p3418
sS'expression'
p3419
S'<gluon.dal.Query object>'
p3420
sS'expression.first'
p3421
S'<gluon.dal.Query object>'
p3422
sS'expression.second'
p3423
S'<gluon.dal.Query object>'
p3424
ssg3227
I1023
sg3228
(dp3425
I1024
S'            elif not expression.first is None:'
p3426
sI1025
S'                return expression.op(expression.first)'
p3427
sI1026
S'            elif not isinstance(expression.op, str):'
p3428
sI1027
S'                return expression.op()'
p3429
sI1018
S'    def expand(self, expression, field_type=None):'
p3430
sI1019
S'        if isinstance(expression, Field):'
p3431
sI1020
S'            return str(expression)'
p3432
sI1021
S'        elif isinstance(expression, (Expression, Query)):'
p3433
sI1022
S'            if not expression.second is None:'
p3434
sI1023
S'                return expression.op(expression.first, expression.second)'
p3435
ssg3240
S'(self=<gluon.dal.SQLiteAdapter object>, expression=<gluon.dal.Query object>, field_type=None)'
p3436
sg3242
S'expand'
p3437
sa(dp3438
g3219
S'/usr/lib/pymodules/python2.7/gluon/dal.py'
p3439
sg3221
(dp3440
S'self'
p3441
S'<gluon.dal.SQLiteAdapter object>'
p3442
sS'first'
p3443
S'<gluon.dal.Query object>'
p3444
sS'second'
p3445
S'<gluon.dal.Query object>'
p3446
sS'self.expand'
p3447
S'<bound method SQLiteAdapter.expand of <gluon.dal.SQLiteAdapter object>>'
p3448
ssg3227
I932
sg3228
(dp3449
I928
S'    def NOT(self, first):'
p3450
sI929
S"        return '(NOT %s)' % self.expand(first)"
p3451
sI930
S''
sI931
S'    def AND(self, first, second):'
p3452
sI932
S"        return '(%s AND %s)' % (self.expand(first), self.expand(second))"
p3453
sI933
S''
sI934
S'    def OR(self, first, second):'
p3454
sI935
S"        return '(%s OR %s)' % (self.expand(first), self.expand(second))"
p3455
sI936
S''
sI927
S''
ssg3240
S'(self=<gluon.dal.SQLiteAdapter object>, first=<gluon.dal.Query object>, second=<gluon.dal.Query object>)'
p3456
sg3242
S'AND'
p3457
sa(dp3458
g3219
S'/usr/lib/pymodules/python2.7/gluon/dal.py'
p3459
sg3221
(dp3460
S'expression.op'
p3461
S'<bound method SQLiteAdapter.EQ of <gluon.dal.SQLiteAdapter object>>'
p3462
sS'expression'
p3463
S'<gluon.dal.Query object>'
p3464
sS'expression.first'
p3465
S'<gluon.dal.Field object>'
p3466
sS'expression.second'
p3467
S"'list_cat'"
p3468
ssg3227
I1023
sg3228
(dp3469
I1024
S'            elif not expression.first is None:'
p3470
sI1025
S'                return expression.op(expression.first)'
p3471
sI1026
S'            elif not isinstance(expression.op, str):'
p3472
sI1027
S'                return expression.op()'
p3473
sI1018
S'    def expand(self, expression, field_type=None):'
p3474
sI1019
S'        if isinstance(expression, Field):'
p3475
sI1020
S'            return str(expression)'
p3476
sI1021
S'        elif isinstance(expression, (Expression, Query)):'
p3477
sI1022
S'            if not expression.second is None:'
p3478
sI1023
S'                return expression.op(expression.first, expression.second)'
p3479
ssg3240
S'(self=<gluon.dal.SQLiteAdapter object>, expression=<gluon.dal.Query object>, field_type=None)'
p3480
sg3242
g3437
sa(dp3481
g3219
S'/usr/lib/pymodules/python2.7/gluon/dal.py'
p3482
sg3221
(dp3483
S'first.type'
p3484
S"'id'"
p3485
sS'self'
p3486
S'<gluon.dal.SQLiteAdapter object>'
p3487
sS'first'
p3488
S'<gluon.dal.Field object>'
p3489
sS'second'
p3490
S"'list_cat'"
p3491
sS'self.expand'
p3492
S'<bound method SQLiteAdapter.expand of <gluon.dal.SQLiteAdapter object>>'
p3493
ssg3227
I964
sg3228
(dp3494
I960
S''
sI961
S'    def EQ(self, first, second=None):'
p3495
sI962
S'        if second is None:'
p3496
sI963
S"            return '(%s IS NULL)' % self.expand(first)"
p3497
sI964
S"        return '(%s = %s)' % (self.expand(first), self.expand(second, first.type))"
p3498
sI965
S''
sI966
S'    def NE(self, first, second=None):'
p3499
sI967
S'        if second is None:'
p3500
sI968
S"            return '(%s IS NOT NULL)' % self.expand(first)"
p3501
sI959
S"        return '(%s LIKE %s)' % (self.expand(first),self.expand(key,'string'))"
p3502
ssg3240
S"(self=<gluon.dal.SQLiteAdapter object>, first=<gluon.dal.Field object>, second='list_cat')"
p3503
sg3242
S'EQ'
p3504
sa(dp3505
g3219
S'/usr/lib/pymodules/python2.7/gluon/dal.py'
p3506
sg3221
(dp3507
S'builtinstr'
p3508
S"<type 'str'>"
p3509
sS'field_type'
p3510
S"'id'"
p3511
sS'self'
p3512
S'<gluon.dal.SQLiteAdapter object>'
p3513
sS'expression'
p3514
S"'list_cat'"
p3515
sS'self.represent'
p3516
S'<bound method SQLiteAdapter.represent of <gluon.dal.SQLiteAdapter object>>'
p3517
ssg3227
I1031
sg3228
(dp3518
I1026
S'            elif not isinstance(expression.op, str):'
p3519
sI1027
S'                return expression.op()'
p3520
sI1028
S'            else:'
p3521
sI1029
S"                return '(%s)' % expression.op"
p3522
sI1030
S'        elif field_type:'
p3523
sI1031
S'            return str(self.represent(expression,field_type))'
p3524
sI1032
S'        elif isinstance(expression,(list,tuple)):'
p3525
sI1033
S"            return ','.join(self.represent(item,field_type) for item in expression)"
p3526
sI1034
S'        else:'
p3527
sI1035
S'            return str(expression)'
p3528
ssg3240
S"(self=<gluon.dal.SQLiteAdapter object>, expression='list_cat', field_type='id')"
p3529
sg3242
g3437
sa(dp3530
g3219
S'/usr/lib/pymodules/python2.7/gluon/dal.py'
p3531
sg3221
(dp3532
S'builtinstr'
p3533
S"<type 'str'>"
p3534
sS'builtinint'
p3535
S"<type 'int'>"
p3536
sS'obj'
p3537
S"'list_cat'"
p3538
ssg3227
I1388
sg3228
(dp3539
I1383
S"            if obj and not str(obj)[:1].upper() in ['F', '0']:"
p3540
sI1384
S'                return "\'T\'"'
p3541
sI1385
S'            else:'
p3542
sI1386
S'                return "\'F\'"'
p3543
sI1387
S"        if fieldtype == 'id' or fieldtype == 'integer':"
p3544
sI1388
S'            return str(int(obj))'
p3545
sI1389
S"        if fieldtype.startswith('decimal'):"
p3546
sI1390
S'            return str(obj)'
p3547
sI1391
S"        elif fieldtype.startswith('reference'): # reference"
p3548
sI1392
S"            if fieldtype.find('.')>0:"
p3549
ssg3240
S"(self=<gluon.dal.SQLiteAdapter object>, obj='list_cat', fieldtype='id')"
p3550
sg3242
S'represent'
p3551
sasS'pyver'
p3552
S'Python 2.7.3: /usr/bin/python'
p3553
sS'session'
p3554
g57
(g58
g59
NtRp3555
(dp3556
g62
(dp3557
sg64
(lp3558
g57
(g66
g59
NtRp3559
(dp3560
g62
(dp3561
g70
I5
ssg71
Nsg64
(lp3562
g57
(g73
g59
NtRp3563
(dp3564
g62
(dp3565
sg71
g3559
sg64
(lp3566
g57
(g78
g59
NtRp3567
(dp3568
g62
(dp3569
g82
g83
ssg71
g3563
sg64
(lp3570
S'auth'
p3571
asbag57
(g78
g59
NtRp3572
(dp3573
g62
(dp3574
g89
g90
ssg71
g3563
sg64
(lp3575
S':'
asbag57
(g78
g59
NtRp3576
(dp3577
g62
(dp3578
sg71
g3563
sg64
(lp3579
g57
(g58
g59
NtRp3580
(dp3581
g62
(dp3582
g70
I5
ssg71
g3576
sg64
(lp3583
g57
(g66
g59
NtRp3584
(dp3585
g62
(dp3586
g70
I4
ssg71
Nsg64
(lp3587
g57
(g73
g59
NtRp3588
(dp3589
g62
(dp3590
sg71
g3584
sg64
(lp3591
g57
(g78
g59
NtRp3592
(dp3593
g62
(dp3594
g82
g83
ssg71
g3588
sg64
(lp3595
S'expiration'
p3596
asbag57
(g78
g59
NtRp3597
(dp3598
g62
(dp3599
g89
g90
ssg71
g3588
sg64
(lp3600
S':'
asbag57
(g78
g59
NtRp3601
(dp3602
g62
(dp3603
sg71
g3588
sg64
(lp3604
g57
(g58
g59
NtRp3605
(dp3606
g62
(dp3607
g70
I4
ssg71
g3601
sg64
(lp3608
S'2592000'
p3609
asbasbasbag57
(g73
g59
NtRp3610
(dp3611
g62
(dp3612
sg71
g3584
sg64
(lp3613
g57
(g78
g59
NtRp3614
(dp3615
g62
(dp3616
g82
g83
ssg71
g3610
sg64
(lp3617
S'hmac_key'
p3618
asbag57
(g78
g59
NtRp3619
(dp3620
g62
(dp3621
g89
g90
ssg71
g3610
sg64
(lp3622
S':'
asbag57
(g78
g59
NtRp3623
(dp3624
g62
(dp3625
sg71
g3610
sg64
(lp3626
g57
(g58
g59
NtRp3627
(dp3628
g62
(dp3629
g70
I4
ssg71
g3623
sg64
(lp3630
S'bef30485-d359-46e3-b60a-cb3c7ea7b50c'
p3631
asbasbasbag57
(g73
g59
NtRp3632
(dp3633
g62
(dp3634
sg71
g3584
sg64
(lp3635
g57
(g78
g59
NtRp3636
(dp3637
g62
(dp3638
g82
g83
ssg71
g3632
sg64
(lp3639
S'last_visit'
p3640
asbag57
(g78
g59
NtRp3641
(dp3642
g62
(dp3643
g89
g90
ssg71
g3632
sg64
(lp3644
S':'
asbag57
(g78
g59
NtRp3645
(dp3646
g62
(dp3647
sg71
g3632
sg64
(lp3648
g57
(g58
g59
NtRp3649
(dp3650
g62
(dp3651
g70
I4
ssg71
g3645
sg64
(lp3652
S'datetime.datetime(2013, 9, 1, 23, 54, 54, 976819)'
p3653
asbasbasbag57
(g73
g59
NtRp3654
(dp3655
g62
(dp3656
sg71
g3584
sg64
(lp3657
g57
(g78
g59
NtRp3658
(dp3659
g62
(dp3660
g82
g83
ssg71
g3654
sg64
(lp3661
S'remember'
p3662
asbag57
(g78
g59
NtRp3663
(dp3664
g62
(dp3665
g89
g90
ssg71
g3654
sg64
(lp3666
S':'
asbag57
(g78
g59
NtRp3667
(dp3668
g62
(dp3669
sg71
g3654
sg64
(lp3670
g57
(g58
g59
NtRp3671
(dp3672
g62
(dp3673
g70
I4
ssg71
g3667
sg64
(lp3674
g100
asbasbasbag57
(g73
g59
NtRp3675
(dp3676
g62
(dp3677
sg71
g3584
sg64
(lp3678
g57
(g78
g59
NtRp3679
(dp3680
g62
(dp3681
g82
g83
ssg71
g3675
sg64
(lp3682
S'user'
p3683
asbag57
(g78
g59
NtRp3684
(dp3685
g62
(dp3686
g89
g90
ssg71
g3675
sg64
(lp3687
S':'
asbag57
(g78
g59
NtRp3688
(dp3689
g62
(dp3690
sg71
g3675
sg64
(lp3691
g57
(g58
g59
NtRp3692
(dp3693
g62
(dp3694
g70
I4
ssg71
g3688
sg64
(lp3695
g57
(g66
g59
NtRp3696
(dp3697
g62
(dp3698
g70
I3
ssg71
Nsg64
(lp3699
g57
(g73
g59
NtRp3700
(dp3701
g62
(dp3702
sg71
g3696
sg64
(lp3703
g57
(g78
g59
NtRp3704
(dp3705
g62
(dp3706
g82
g83
ssg71
g3700
sg64
(lp3707
S'email'
p3708
asbag57
(g78
g59
NtRp3709
(dp3710
g62
(dp3711
g89
g90
ssg71
g3700
sg64
(lp3712
S':'
asbag57
(g78
g59
NtRp3713
(dp3714
g62
(dp3715
sg71
g3700
sg64
(lp3716
g57
(g58
g59
NtRp3717
(dp3718
g62
(dp3719
g70
I3
ssg71
g3713
sg64
(lp3720
S'sweetdevansh@gmail.com'
p3721
asbasbasbag57
(g73
g59
NtRp3722
(dp3723
g62
(dp3724
sg71
g3696
sg64
(lp3725
g57
(g78
g59
NtRp3726
(dp3727
g62
(dp3728
g82
g83
ssg71
g3722
sg64
(lp3729
S'first_name'
p3730
asbag57
(g78
g59
NtRp3731
(dp3732
g62
(dp3733
g89
g90
ssg71
g3722
sg64
(lp3734
S':'
asbag57
(g78
g59
NtRp3735
(dp3736
g62
(dp3737
sg71
g3722
sg64
(lp3738
g57
(g58
g59
NtRp3739
(dp3740
g62
(dp3741
g70
I3
ssg71
g3735
sg64
(lp3742
S'Devansh'
p3743
asbasbasbag57
(g73
g59
NtRp3744
(dp3745
g62
(dp3746
sg71
g3696
sg64
(lp3747
g57
(g78
g59
NtRp3748
(dp3749
g62
(dp3750
g82
g83
ssg71
g3744
sg64
(lp3751
S'id'
p3752
asbag57
(g78
g59
NtRp3753
(dp3754
g62
(dp3755
g89
g90
ssg71
g3744
sg64
(lp3756
S':'
asbag57
(g78
g59
NtRp3757
(dp3758
g62
(dp3759
sg71
g3744
sg64
(lp3760
g57
(g58
g59
NtRp3761
(dp3762
g62
(dp3763
g70
I3
ssg71
g3757
sg64
(lp3764
S'1'
asbasbasbag57
(g73
g59
NtRp3765
(dp3766
g62
(dp3767
sg71
g3696
sg64
(lp3768
g57
(g78
g59
NtRp3769
(dp3770
g62
(dp3771
g82
g83
ssg71
g3765
sg64
(lp3772
S'last_name'
p3773
asbag57
(g78
g59
NtRp3774
(dp3775
g62
(dp3776
g89
g90
ssg71
g3765
sg64
(lp3777
S':'
asbag57
(g78
g59
NtRp3778
(dp3779
g62
(dp3780
sg71
g3765
sg64
(lp3781
g57
(g58
g59
NtRp3782
(dp3783
g62
(dp3784
g70
I3
ssg71
g3778
sg64
(lp3785
S'Shah'
p3786
asbasbasbag57
(g73
g59
NtRp3787
(dp3788
g62
(dp3789
sg71
g3696
sg64
(lp3790
g57
(g78
g59
NtRp3791
(dp3792
g62
(dp3793
g82
g83
ssg71
g3787
sg64
(lp3794
S'password'
p3795
asbag57
(g78
g59
NtRp3796
(dp3797
g62
(dp3798
g89
g90
ssg71
g3787
sg64
(lp3799
S':'
asbag57
(g78
g59
NtRp3800
(dp3801
g62
(dp3802
sg71
g3787
sg64
(lp3803
g57
(g58
g59
NtRp3804
(dp3805
g62
(dp3806
g70
I3
ssg71
g3800
sg64
(lp3807
S'4fa78620b77f92c7faf768350dccbc8d'
p3808
asbasbasbag57
(g73
g59
NtRp3809
(dp3810
g62
(dp3811
sg71
g3696
sg64
(lp3812
g57
(g78
g59
NtRp3813
(dp3814
g62
(dp3815
g82
g83
ssg71
g3809
sg64
(lp3816
S'registration_id'
p3817
asbag57
(g78
g59
NtRp3818
(dp3819
g62
(dp3820
g89
g90
ssg71
g3809
sg64
(lp3821
S':'
asbag57
(g78
g59
NtRp3822
(dp3823
g62
(dp3824
sg71
g3809
sg64
(lp3825
g57
(g58
g59
NtRp3826
(dp3827
g62
(dp3828
g70
I3
ssg71
g3822
sg64
(lp3829
S''
asbasbasbag57
(g73
g59
NtRp3830
(dp3831
g62
(dp3832
sg71
g3696
sg64
(lp3833
g57
(g78
g59
NtRp3834
(dp3835
g62
(dp3836
g82
g83
ssg71
g3830
sg64
(lp3837
S'registration_key'
p3838
asbag57
(g78
g59
NtRp3839
(dp3840
g62
(dp3841
g89
g90
ssg71
g3830
sg64
(lp3842
S':'
asbag57
(g78
g59
NtRp3843
(dp3844
g62
(dp3845
sg71
g3830
sg64
(lp3846
g57
(g58
g59
NtRp3847
(dp3848
g62
(dp3849
g70
I3
ssg71
g3843
sg64
(lp3850
S''
asbasbasbag57
(g73
g59
NtRp3851
(dp3852
g62
(dp3853
sg71
g3696
sg64
(lp3854
g57
(g78
g59
NtRp3855
(dp3856
g62
(dp3857
g82
g83
ssg71
g3851
sg64
(lp3858
S'reset_password_key'
p3859
asbag57
(g78
g59
NtRp3860
(dp3861
g62
(dp3862
g89
g90
ssg71
g3851
sg64
(lp3863
S':'
asbag57
(g78
g59
NtRp3864
(dp3865
g62
(dp3866
sg71
g3851
sg64
(lp3867
g57
(g58
g59
NtRp3868
(dp3869
g62
(dp3870
g70
I3
ssg71
g3864
sg64
(lp3871
S''
asbasbasbasbasbasbasbasbasbasbasbag57
(g73
g59
NtRp3872
(dp3873
g62
(dp3874
sg71
g3559
sg64
(lp3875
g57
(g78
g59
NtRp3876
(dp3877
g62
(dp3878
g82
g83
ssg71
g3872
sg64
(lp3879
S'last_query'
p3880
asbag57
(g78
g59
NtRp3881
(dp3882
g62
(dp3883
g89
g90
ssg71
g3872
sg64
(lp3884
S':'
asbag57
(g78
g59
NtRp3885
(dp3886
g62
(dp3887
sg71
g3872
sg64
(lp3888
g57
(g58
g59
NtRp3889
(dp3890
g62
(dp3891
g70
I5
ssg71
g3885
sg64
(lp3892
S'db.Category.id>0'
p3893
asbasbasbasbasbsS'etype'
p3894
S"<type 'exceptions.ValueError'>"
p3895
sS'date'
p3896
S'Mon Sep  2 00:59:55 2013'
p3897
sS'response'
p3898
g57
(g58
g59
NtRp3899
(dp3900
g62
(dp3901
sg64
(lp3902
g57
(g66
g59
NtRp3903
(dp3904
g62
(dp3905
g70
I5
ssg71
Nsg64
(lp3906
g57
(g73
g59
NtRp3907
(dp3908
g62
(dp3909
sg71
g3903
sg64
(lp3910
g57
(g78
g59
NtRp3911
(dp3912
g62
(dp3913
g82
g83
ssg71
g3907
sg64
(lp3914
g206
asbag57
(g78
g59
NtRp3915
(dp3916
g62
(dp3917
g89
g90
ssg71
g3907
sg64
(lp3918
S':'
asbag57
(g78
g59
NtRp3919
(dp3920
g62
(dp3921
sg71
g3907
sg64
(lp3922
g57
(g58
g59
NtRp3923
(dp3924
g62
(dp3925
g70
I5
ssg71
g3919
sg64
(lp3926
S'<cStringIO.StringO object at 0x7f041826a260>'
p3927
asbasbasbag57
(g73
g59
NtRp3928
(dp3929
g62
(dp3930
sg71
g3903
sg64
(lp3931
g57
(g78
g59
NtRp3932
(dp3933
g62
(dp3934
g82
g83
ssg71
g3928
sg64
(lp3935
g272
asbag57
(g78
g59
NtRp3936
(dp3937
g62
(dp3938
g89
g90
ssg71
g3928
sg64
(lp3939
S':'
asbag57
(g78
g59
NtRp3940
(dp3941
g62
(dp3942
sg71
g3928
sg64
(lp3943
g57
(g58
g59
NtRp3944
(dp3945
g62
(dp3946
g70
I5
ssg71
g3940
sg64
(lp3947
g57
(g66
g59
NtRp3948
(dp3949
g62
(dp3950
g70
I4
ssg71
Nsg64
(lp3951
g57
(g73
g59
NtRp3952
(dp3953
g62
(dp3954
sg71
g3948
sg64
(lp3955
g57
(g78
g59
NtRp3956
(dp3957
g62
(dp3958
g82
g83
ssg71
g3952
sg64
(lp3959
S'session_id_read_it'
p3960
asbag57
(g78
g59
NtRp3961
(dp3962
g62
(dp3963
g89
g90
ssg71
g3952
sg64
(lp3964
S':'
asbag57
(g78
g59
NtRp3965
(dp3966
g62
(dp3967
sg71
g3952
sg64
(lp3968
g57
(g58
g59
NtRp3969
(dp3970
g62
(dp3971
g70
I4
ssg71
g3965
sg64
(lp3972
g57
(g66
g59
NtRp3973
(dp3974
g62
(dp3975
g70
I3
ssg71
Nsg64
(lp3976
g57
(g73
g59
NtRp3977
(dp3978
g62
(dp3979
sg71
g3973
sg64
(lp3980
g57
(g78
g59
NtRp3981
(dp3982
g62
(dp3983
g82
g83
ssg71
g3977
sg64
(lp3984
g322
asbag57
(g78
g59
NtRp3985
(dp3986
g62
(dp3987
g89
g90
ssg71
g3977
sg64
(lp3988
S':'
asbag57
(g78
g59
NtRp3989
(dp3990
g62
(dp3991
sg71
g3977
sg64
(lp3992
g57
(g58
g59
NtRp3993
(dp3994
g62
(dp3995
g70
I3
ssg71
g3989
sg64
(lp3996
S''
asbasbasbag57
(g73
g59
NtRp3997
(dp3998
g62
(dp3999
sg71
g3973
sg64
(lp4000
g57
(g78
g59
NtRp4001
(dp4002
g62
(dp4003
g82
g83
ssg71
g3997
sg64
(lp4004
g343
asbag57
(g78
g59
NtRp4005
(dp4006
g62
(dp4007
g89
g90
ssg71
g3997
sg64
(lp4008
S':'
asbag57
(g78
g59
NtRp4009
(dp4010
g62
(dp4011
sg71
g3997
sg64
(lp4012
g57
(g58
g59
NtRp4013
(dp4014
g62
(dp4015
g70
I3
ssg71
g4009
sg64
(lp4016
S''
asbasbasbag57
(g73
g59
NtRp4017
(dp4018
g62
(dp4019
sg71
g3973
sg64
(lp4020
g57
(g78
g59
NtRp4021
(dp4022
g62
(dp4023
g82
g83
ssg71
g4017
sg64
(lp4024
g364
asbag57
(g78
g59
NtRp4025
(dp4026
g62
(dp4027
g89
g90
ssg71
g4017
sg64
(lp4028
S':'
asbag57
(g78
g59
NtRp4029
(dp4030
g62
(dp4031
sg71
g4017
sg64
(lp4032
g57
(g58
g59
NtRp4033
(dp4034
g62
(dp4035
g70
I3
ssg71
g4029
sg64
(lp4036
S''
asbasbasbag57
(g73
g59
NtRp4037
(dp4038
g62
(dp4039
sg71
g3973
sg64
(lp4040
g57
(g78
g59
NtRp4041
(dp4042
g62
(dp4043
g82
g83
ssg71
g4037
sg64
(lp4044
g385
asbag57
(g78
g59
NtRp4045
(dp4046
g62
(dp4047
g89
g90
ssg71
g4037
sg64
(lp4048
S':'
asbag57
(g78
g59
NtRp4049
(dp4050
g62
(dp4051
sg71
g4037
sg64
(lp4052
g57
(g58
g59
NtRp4053
(dp4054
g62
(dp4055
g70
I3
ssg71
g4049
sg64
(lp4056
S''
asbasbasbag57
(g73
g59
NtRp4057
(dp4058
g62
(dp4059
sg71
g3973
sg64
(lp4060
g57
(g78
g59
NtRp4061
(dp4062
g62
(dp4063
g82
g83
ssg71
g4057
sg64
(lp4064
g406
asbag57
(g78
g59
NtRp4065
(dp4066
g62
(dp4067
g89
g90
ssg71
g4057
sg64
(lp4068
S':'
asbag57
(g78
g59
NtRp4069
(dp4070
g62
(dp4071
sg71
g4057
sg64
(lp4072
g57
(g58
g59
NtRp4073
(dp4074
g62
(dp4075
g70
I3
ssg71
g4069
sg64
(lp4076
S''
asbasbasbag57
(g73
g59
NtRp4077
(dp4078
g62
(dp4079
sg71
g3973
sg64
(lp4080
g57
(g78
g59
NtRp4081
(dp4082
g62
(dp4083
g82
g83
ssg71
g4077
sg64
(lp4084
g427
asbag57
(g78
g59
NtRp4085
(dp4086
g62
(dp4087
g89
g90
ssg71
g4077
sg64
(lp4088
S':'
asbag57
(g78
g59
NtRp4089
(dp4090
g62
(dp4091
sg71
g4077
sg64
(lp4092
g57
(g58
g59
NtRp4093
(dp4094
g62
(dp4095
g70
I3
ssg71
g4089
sg64
(lp4096
S'/'
asbasbasbag57
(g73
g59
NtRp4097
(dp4098
g62
(dp4099
sg71
g3973
sg64
(lp4100
g57
(g78
g59
NtRp4101
(dp4102
g62
(dp4103
g82
g83
ssg71
g4097
sg64
(lp4104
g448
asbag57
(g78
g59
NtRp4105
(dp4106
g62
(dp4107
g89
g90
ssg71
g4097
sg64
(lp4108
S':'
asbag57
(g78
g59
NtRp4109
(dp4110
g62
(dp4111
sg71
g4097
sg64
(lp4112
g57
(g58
g59
NtRp4113
(dp4114
g62
(dp4115
g70
I3
ssg71
g4109
sg64
(lp4116
S''
asbasbasbag57
(g73
g59
NtRp4117
(dp4118
g62
(dp4119
sg71
g3973
sg64
(lp4120
g57
(g78
g59
NtRp4121
(dp4122
g62
(dp4123
g82
g83
ssg71
g4117
sg64
(lp4124
g469
asbag57
(g78
g59
NtRp4125
(dp4126
g62
(dp4127
g89
g90
ssg71
g4117
sg64
(lp4128
S':'
asbag57
(g78
g59
NtRp4129
(dp4130
g62
(dp4131
sg71
g4117
sg64
(lp4132
g57
(g58
g59
NtRp4133
(dp4134
g62
(dp4135
g70
I3
ssg71
g4129
sg64
(lp4136
S''
asbasbasbasbasbasbasbasbasbasbasbag57
(g73
g59
NtRp4137
(dp4138
g62
(dp4139
sg71
g3903
sg64
(lp4140
g57
(g78
g59
NtRp4141
(dp4142
g62
(dp4143
g82
g83
ssg71
g4137
sg64
(lp4144
S'files'
p4145
asbag57
(g78
g59
NtRp4146
(dp4147
g62
(dp4148
g89
g90
ssg71
g4137
sg64
(lp4149
S':'
asbag57
(g78
g59
NtRp4150
(dp4151
g62
(dp4152
sg71
g4137
sg64
(lp4153
g57
(g58
g59
NtRp4154
(dp4155
g62
(dp4156
g70
I5
ssg71
g4150
sg64
(lp4157
g57
(g66
g59
NtRp4158
(dp4159
g62
(dp4160
g70
I4
ssg71
Nsg64
(lp4161
sbasbasbasbag57
(g73
g59
NtRp4162
(dp4163
g62
(dp4164
sg71
g3903
sg64
(lp4165
g57
(g78
g59
NtRp4166
(dp4167
g62
(dp4168
g82
g83
ssg71
g4162
sg64
(lp4169
S'flash'
p4170
asbag57
(g78
g59
NtRp4171
(dp4172
g62
(dp4173
g89
g90
ssg71
g4162
sg64
(lp4174
S':'
asbag57
(g78
g59
NtRp4175
(dp4176
g62
(dp4177
sg71
g4162
sg64
(lp4178
g57
(g58
g59
NtRp4179
(dp4180
g62
(dp4181
g70
I5
ssg71
g4175
sg64
(lp4182
S''
asbasbasbag57
(g73
g59
NtRp4183
(dp4184
g62
(dp4185
sg71
g3903
sg64
(lp4186
g57
(g78
g59
NtRp4187
(dp4188
g62
(dp4189
g82
g83
ssg71
g4183
sg64
(lp4190
S'generic_patterns'
p4191
asbag57
(g78
g59
NtRp4192
(dp4193
g62
(dp4194
g89
g90
ssg71
g4183
sg64
(lp4195
S':'
asbag57
(g78
g59
NtRp4196
(dp4197
g62
(dp4198
sg71
g4183
sg64
(lp4199
g57
(g58
g59
NtRp4200
(dp4201
g62
(dp4202
g70
I5
ssg71
g4196
sg64
(lp4203
g57
(g66
g59
NtRp4204
(dp4205
g62
(dp4206
g70
I4
ssg71
Nsg64
(lp4207
g57
(g73
g59
NtRp4208
(dp4209
g62
(dp4210
sg71
g4204
sg64
(lp4211
g57
(g78
g59
NtRp4212
(dp4213
g62
(dp4214
sg71
g4208
sg64
(lp4215
g57
(g58
g59
NtRp4216
(dp4217
g62
(dp4218
g70
I4
ssg71
g4212
sg64
(lp4219
S'*'
asbasbasbasbasbasbasbag57
(g73
g59
NtRp4220
(dp4221
g62
(dp4222
sg71
g3903
sg64
(lp4223
g57
(g78
g59
NtRp4224
(dp4225
g62
(dp4226
g82
g83
ssg71
g4220
sg64
(lp4227
S'headers'
p4228
asbag57
(g78
g59
NtRp4229
(dp4230
g62
(dp4231
g89
g90
ssg71
g4220
sg64
(lp4232
S':'
asbag57
(g78
g59
NtRp4233
(dp4234
g62
(dp4235
sg71
g4220
sg64
(lp4236
g57
(g58
g59
NtRp4237
(dp4238
g62
(dp4239
g70
I5
ssg71
g4233
sg64
(lp4240
g57
(g66
g59
NtRp4241
(dp4242
g62
(dp4243
g70
I4
ssg71
Nsg64
(lp4244
g57
(g73
g59
NtRp4245
(dp4246
g62
(dp4247
sg71
g4241
sg64
(lp4248
g57
(g78
g59
NtRp4249
(dp4250
g62
(dp4251
g82
g83
ssg71
g4245
sg64
(lp4252
S'Cache-Control'
p4253
asbag57
(g78
g59
NtRp4254
(dp4255
g62
(dp4256
g89
g90
ssg71
g4245
sg64
(lp4257
S':'
asbag57
(g78
g59
NtRp4258
(dp4259
g62
(dp4260
sg71
g4245
sg64
(lp4261
g57
(g58
g59
NtRp4262
(dp4263
g62
(dp4264
g70
I4
ssg71
g4258
sg64
(lp4265
S'no-store, no-cache, must-revalidate, post-check=0, pre-check=0'
p4266
asbasbasbag57
(g73
g59
NtRp4267
(dp4268
g62
(dp4269
sg71
g4241
sg64
(lp4270
g57
(g78
g59
NtRp4271
(dp4272
g62
(dp4273
g82
g83
ssg71
g4267
sg64
(lp4274
S'Content-Type'
p4275
asbag57
(g78
g59
NtRp4276
(dp4277
g62
(dp4278
g89
g90
ssg71
g4267
sg64
(lp4279
S':'
asbag57
(g78
g59
NtRp4280
(dp4281
g62
(dp4282
sg71
g4267
sg64
(lp4283
g57
(g58
g59
NtRp4284
(dp4285
g62
(dp4286
g70
I4
ssg71
g4280
sg64
(lp4287
S'text/html; charset=utf-8'
p4288
asbasbasbag57
(g73
g59
NtRp4289
(dp4290
g62
(dp4291
sg71
g4241
sg64
(lp4292
g57
(g78
g59
NtRp4293
(dp4294
g62
(dp4295
g82
g83
ssg71
g4289
sg64
(lp4296
S'Expires'
p4297
asbag57
(g78
g59
NtRp4298
(dp4299
g62
(dp4300
g89
g90
ssg71
g4289
sg64
(lp4301
S':'
asbag57
(g78
g59
NtRp4302
(dp4303
g62
(dp4304
sg71
g4289
sg64
(lp4305
g57
(g58
g59
NtRp4306
(dp4307
g62
(dp4308
g70
I4
ssg71
g4302
sg64
(lp4309
S'Sun, 01 Sep 2013 19:29:55 GMT'
p4310
asbasbasbag57
(g73
g59
NtRp4311
(dp4312
g62
(dp4313
sg71
g4241
sg64
(lp4314
g57
(g78
g59
NtRp4315
(dp4316
g62
(dp4317
g82
g83
ssg71
g4311
sg64
(lp4318
S'Pragma'
p4319
asbag57
(g78
g59
NtRp4320
(dp4321
g62
(dp4322
g89
g90
ssg71
g4311
sg64
(lp4323
S':'
asbag57
(g78
g59
NtRp4324
(dp4325
g62
(dp4326
sg71
g4311
sg64
(lp4327
g57
(g58
g59
NtRp4328
(dp4329
g62
(dp4330
g70
I4
ssg71
g4324
sg64
(lp4331
S'no-cache'
p4332
asbasbasbag57
(g73
g59
NtRp4333
(dp4334
g62
(dp4335
sg71
g4241
sg64
(lp4336
g57
(g78
g59
NtRp4337
(dp4338
g62
(dp4339
g82
g83
ssg71
g4333
sg64
(lp4340
S'X-Powered-By'
p4341
asbag57
(g78
g59
NtRp4342
(dp4343
g62
(dp4344
g89
g90
ssg71
g4333
sg64
(lp4345
S':'
asbag57
(g78
g59
NtRp4346
(dp4347
g62
(dp4348
sg71
g4333
sg64
(lp4349
g57
(g58
g59
NtRp4350
(dp4351
g62
(dp4352
g70
I4
ssg71
g4346
sg64
(lp4353
S'web2py'
p4354
asbasbasbasbasbasbasbag57
(g73
g59
NtRp4355
(dp4356
g62
(dp4357
sg71
g3903
sg64
(lp4358
g57
(g78
g59
NtRp4359
(dp4360
g62
(dp4361
g82
g83
ssg71
g4355
sg64
(lp4362
S'menu'
p4363
asbag57
(g78
g59
NtRp4364
(dp4365
g62
(dp4366
g89
g90
ssg71
g4355
sg64
(lp4367
S':'
asbag57
(g78
g59
NtRp4368
(dp4369
g62
(dp4370
sg71
g4355
sg64
(lp4371
g57
(g58
g59
NtRp4372
(dp4373
g62
(dp4374
g70
I5
ssg71
g4368
sg64
(lp4375
g57
(g66
g59
NtRp4376
(dp4377
g62
(dp4378
g70
I4
ssg71
Nsg64
(lp4379
g57
(g73
g59
NtRp4380
(dp4381
g62
(dp4382
sg71
g4376
sg64
(lp4383
g57
(g78
g59
NtRp4384
(dp4385
g62
(dp4386
sg71
g4380
sg64
(lp4387
g57
(g58
g59
NtRp4388
(dp4389
g62
(dp4390
g70
I4
ssg71
g4384
sg64
(lp4391
g57
(g66
g59
NtRp4392
(dp4393
g62
(dp4394
g70
I3
ssg71
Nsg64
(lp4395
g57
(g73
g59
NtRp4396
(dp4397
g62
(dp4398
sg71
g4392
sg64
(lp4399
g57
(g78
g59
NtRp4400
(dp4401
g62
(dp4402
sg71
g4396
sg64
(lp4403
g57
(g58
g59
NtRp4404
(dp4405
g62
(dp4406
g70
I3
ssg71
g4400
sg64
(lp4407
cgluon.languages
lazyT_unpickle
p4408
(S't\x04\x00\x00\x00Home'
tRp4409
asbasbasbag57
(g73
g59
NtRp4410
(dp4411
g62
(dp4412
sg71
g4392
sg64
(lp4413
g57
(g78
g59
NtRp4414
(dp4415
g62
(dp4416
sg71
g4410
sg64
(lp4417
g57
(g58
g59
NtRp4418
(dp4419
g62
(dp4420
g70
I3
ssg71
g4414
sg64
(lp4421
g100
asbasbasbag57
(g73
g59
NtRp4422
(dp4423
g62
(dp4424
sg71
g4392
sg64
(lp4425
g57
(g78
g59
NtRp4426
(dp4427
g62
(dp4428
sg71
g4422
sg64
(lp4429
g57
(g58
g59
NtRp4430
(dp4431
g62
(dp4432
g70
I3
ssg71
g4426
sg64
(lp4433
S'/Read_it/default/index'
p4434
asbasbasbag57
(g73
g59
NtRp4435
(dp4436
g62
(dp4437
sg71
g4392
sg64
(lp4438
g57
(g78
g59
NtRp4439
(dp4440
g62
(dp4441
sg71
g4435
sg64
(lp4442
g57
(g58
g59
NtRp4443
(dp4444
g62
(dp4445
g70
I3
ssg71
g4439
sg64
(lp4446
g57
(g66
g59
NtRp4447
(dp4448
g62
(dp4449
g70
I2
ssg71
Nsg64
(lp4450
sbasbasbasbasbasbasbasbag57
(g73
g59
NtRp4451
(dp4452
g62
(dp4453
sg71
g4376
sg64
(lp4454
g57
(g78
g59
NtRp4455
(dp4456
g62
(dp4457
sg71
g4451
sg64
(lp4458
g57
(g58
g59
NtRp4459
(dp4460
g62
(dp4461
g70
I4
ssg71
g4455
sg64
(lp4462
g57
(g66
g59
NtRp4463
(dp4464
g62
(dp4465
g70
I3
ssg71
Nsg64
(lp4466
g57
(g73
g59
NtRp4467
(dp4468
g62
(dp4469
sg71
g4463
sg64
(lp4470
g57
(g78
g59
NtRp4471
(dp4472
g62
(dp4473
sg71
g4467
sg64
(lp4474
g57
(g58
g59
NtRp4475
(dp4476
g62
(dp4477
g70
I3
ssg71
g4471
sg64
(lp4478
g57
(cgluon.html
SPAN
p4479
g59
NtRp4480
(dp4481
g62
(dp4482
g82
S'color:yellow'
p4483
ssg71
Nsg64
(lp4484
g4354
asbasbasbasbag57
(g73
g59
NtRp4485
(dp4486
g62
(dp4487
sg71
g4463
sg64
(lp4488
g57
(g78
g59
NtRp4489
(dp4490
g62
(dp4491
sg71
g4485
sg64
(lp4492
g57
(g58
g59
NtRp4493
(dp4494
g62
(dp4495
g70
I3
ssg71
g4489
sg64
(lp4496
g100
asbasbasbag57
(g73
g59
NtRp4497
(dp4498
g62
(dp4499
sg71
g4463
sg64
(lp4500
g57
(g78
g59
NtRp4501
(dp4502
g62
(dp4503
sg71
g4497
sg64
(lp4504
g57
(g58
g59
NtRp4505
(dp4506
g62
(dp4507
g70
I3
ssg71
g4501
sg64
(lp4508
S'None'
p4509
asbasbasbag57
(g73
g59
NtRp4510
(dp4511
g62
(dp4512
sg71
g4463
sg64
(lp4513
g57
(g78
g59
NtRp4514
(dp4515
g62
(dp4516
sg71
g4510
sg64
(lp4517
g57
(g58
g59
NtRp4518
(dp4519
g62
(dp4520
g70
I3
ssg71
g4514
sg64
(lp4521
g57
(g66
g59
NtRp4522
(dp4523
g62
(dp4524
g70
I2
ssg71
Nsg64
(lp4525
g57
(g73
g59
NtRp4526
(dp4527
g62
(dp4528
sg71
g4522
sg64
(lp4529
g57
(g78
g59
NtRp4530
(dp4531
g62
(dp4532
sg71
g4526
sg64
(lp4533
g57
(g58
g59
NtRp4534
(dp4535
g62
(dp4536
g70
I2
ssg71
g4530
sg64
(lp4537
g57
(g66
g59
NtRp4538
(dp4539
g62
(dp4540
g70
I1
ssg71
Nsg64
(lp4541
g57
(g73
g59
NtRp4542
(dp4543
g62
(dp4544
sg71
g4538
sg64
(lp4545
g57
(g78
g59
NtRp4546
(dp4547
g62
(dp4548
sg71
g4542
sg64
(lp4549
g57
(g58
g59
NtRp4550
(dp4551
g62
(dp4552
g70
I1
ssg71
g4546
sg64
(lp4553
g4408
(S's\x08\x00\x00\x00My Sites'
tRp4554
asbasbasbag57
(g73
g59
NtRp4555
(dp4556
g62
(dp4557
sg71
g4538
sg64
(lp4558
g57
(g78
g59
NtRp4559
(dp4560
g62
(dp4561
sg71
g4555
sg64
(lp4562
g57
(g58
g59
NtRp4563
(dp4564
g62
(dp4565
g70
I1
ssg71
g4559
sg64
(lp4566
I00
asbasbasbag57
(g73
g59
NtRp4567
(dp4568
g62
(dp4569
sg71
g4538
sg64
(lp4570
g57
(g78
g59
NtRp4571
(dp4572
g62
(dp4573
sg71
g4567
sg64
(lp4574
g57
(g58
g59
NtRp4575
(dp4576
g62
(dp4577
g70
I1
ssg71
g4571
sg64
(lp4578
S'/admin/default/site'
p4579
asbasbasbasbasbasbasbag57
(g73
g59
NtRp4580
(dp4581
g62
(dp4582
sg71
g4522
sg64
(lp4583
g57
(g78
g59
NtRp4584
(dp4585
g62
(dp4586
sg71
g4580
sg64
(lp4587
g57
(g58
g59
NtRp4588
(dp4589
g62
(dp4590
g70
I2
ssg71
g4584
sg64
(lp4591
g57
(g66
g59
NtRp4592
(dp4593
g62
(dp4594
g70
I1
ssg71
Nsg64
(lp4595
g57
(g73
g59
NtRp4596
(dp4597
g62
(dp4598
sg71
g4592
sg64
(lp4599
g57
(g78
g59
NtRp4600
(dp4601
g62
(dp4602
sg71
g4596
sg64
(lp4603
g57
(g58
g59
NtRp4604
(dp4605
g62
(dp4606
g70
I1
ssg71
g4600
sg64
(lp4607
g4408
(S's\x08\x00\x00\x00This App'
tRp4608
asbasbasbag57
(g73
g59
NtRp4609
(dp4610
g62
(dp4611
sg71
g4592
sg64
(lp4612
g57
(g78
g59
NtRp4613
(dp4614
g62
(dp4615
sg71
g4609
sg64
(lp4616
g57
(g58
g59
NtRp4617
(dp4618
g62
(dp4619
g70
I1
ssg71
g4613
sg64
(lp4620
I00
asbasbasbag57
(g73
g59
NtRp4621
(dp4622
g62
(dp4623
sg71
g4592
sg64
(lp4624
g57
(g78
g59
NtRp4625
(dp4626
g62
(dp4627
sg71
g4621
sg64
(lp4628
g57
(g58
g59
NtRp4629
(dp4630
g62
(dp4631
g70
I1
ssg71
g4625
sg64
(lp4632
S'/admin/default/design/Read_it'
p4633
asbasbasbag57
(g73
g59
NtRp4634
(dp4635
g62
(dp4636
sg71
g4592
sg64
(lp4637
g57
(g78
g59
NtRp4638
(dp4639
g62
(dp4640
sg71
g4634
sg64
(lp4641
g57
(g58
g59
NtRp4642
(dp4643
g62
(dp4644
g70
I1
ssg71
g4638
sg64
(lp4645
(lp4646
(g4408
(S't\n\x00\x00\x00Controller'
tRp4647
I00
S'/admin/default/edit/Read_it/controllers/default.py'
tp4648
a(g4408
(S't\x04\x00\x00\x00View'
tRp4649
I00
S'/admin/default/edit/Read_it/views/default/list_cat.html'
tp4650
a(g4408
(S't\x06\x00\x00\x00Layout'
tRp4651
I00
S'/admin/default/edit/Read_it/views/layout.html'
tp4652
a(g4408
(S't\n\x00\x00\x00Stylesheet'
tRp4653
I00
S'/admin/default/edit/Read_it/static/css/web2py.css'
tp4654
a(g4408
(S's\x08\x00\x00\x00DB Model'
tRp4655
I00
S'/admin/default/edit/Read_it/models/db.py'
tp4656
a(g4408
(S's\n\x00\x00\x00Menu Model'
tRp4657
I00
S'/admin/default/edit/Read_it/models/menu.py'
tp4658
a(g4408
(S't\x08\x00\x00\x00Database'
tRp4659
I00
S'/Read_it/appadmin/index'
tp4660
a(g4408
(S't\x06\x00\x00\x00Errors'
tRp4661
I00
S'/admin/default/errors/Read_it'
tp4662
a(g4408
(S't\x05\x00\x00\x00About'
tRp4663
I00
S'/admin/default/about/Read_it'
tp4664
aasbasbasbasbasbasbasbag57
(g73
g59
NtRp4665
(dp4666
g62
(dp4667
sg71
g4522
sg64
(lp4668
g57
(g78
g59
NtRp4669
(dp4670
g62
(dp4671
sg71
g4665
sg64
(lp4672
g57
(g58
g59
NtRp4673
(dp4674
g62
(dp4675
g70
I2
ssg71
g4669
sg64
(lp4676
g57
(g66
g59
NtRp4677
(dp4678
g62
(dp4679
g70
I1
ssg71
Nsg64
(lp4680
g57
(g73
g59
NtRp4681
(dp4682
g62
(dp4683
sg71
g4677
sg64
(lp4684
g57
(g78
g59
NtRp4685
(dp4686
g62
(dp4687
sg71
g4681
sg64
(lp4688
g57
(g58
g59
NtRp4689
(dp4690
g62
(dp4691
g70
I1
ssg71
g4685
sg64
(lp4692
S'web2py.com'
p4693
asbasbasbag57
(g73
g59
NtRp4694
(dp4695
g62
(dp4696
sg71
g4677
sg64
(lp4697
g57
(g78
g59
NtRp4698
(dp4699
g62
(dp4700
sg71
g4694
sg64
(lp4701
g57
(g58
g59
NtRp4702
(dp4703
g62
(dp4704
g70
I1
ssg71
g4698
sg64
(lp4705
I00
asbasbasbag57
(g73
g59
NtRp4706
(dp4707
g62
(dp4708
sg71
g4677
sg64
(lp4709
g57
(g78
g59
NtRp4710
(dp4711
g62
(dp4712
sg71
g4706
sg64
(lp4713
g57
(g58
g59
NtRp4714
(dp4715
g62
(dp4716
g70
I1
ssg71
g4710
sg64
(lp4717
S'http://www.web2py.com'
p4718
asbasbasbag57
(g73
g59
NtRp4719
(dp4720
g62
(dp4721
sg71
g4677
sg64
(lp4722
g57
(g78
g59
NtRp4723
(dp4724
g62
(dp4725
sg71
g4719
sg64
(lp4726
g57
(g58
g59
NtRp4727
(dp4728
g62
(dp4729
g70
I1
ssg71
g4723
sg64
(lp4730
(lp4731
(g4408
(S't\x08\x00\x00\x00Download'
tRp4732
I00
S'http://www.web2py.com/examples/default/download'
p4733
tp4734
a(g4408
(S't\x07\x00\x00\x00Support'
tRp4735
I00
S'http://www.web2py.com/examples/default/support'
p4736
tp4737
a(g4408
(S't\x04\x00\x00\x00Demo'
tRp4738
I00
S'http://web2py.com/demo_admin'
p4739
tp4740
a(g4408
(S's\x0e\x00\x00\x00Quick Examples'
tRp4741
I00
S'http://web2py.com/examples/default/examples'
p4742
tp4743
a(g4408
(S't\x03\x00\x00\x00FAQ'
tRp4744
I00
S'http://web2py.com/AlterEgo'
p4745
tp4746
a(g4408
(S't\x06\x00\x00\x00Videos'
tRp4747
I00
S'http://www.web2py.com/examples/default/videos/'
p4748
tp4749
a(g4408
(S's\x11\x00\x00\x00Free Applications'
tRp4750
I00
S'http://web2py.com/appliances'
p4751
tp4752
a(g4408
(S't\x07\x00\x00\x00Plugins'
tRp4753
I00
S'http://web2py.com/plugins'
p4754
tp4755
a(g4408
(S't\x07\x00\x00\x00Layouts'
tRp4756
I00
S'http://web2py.com/layouts'
p4757
tp4758
a(g4408
(S't\x07\x00\x00\x00Recipes'
tRp4759
I00
S'http://web2pyslices.com/'
p4760
tp4761
a(g4408
(S't\x08\x00\x00\x00Semantic'
tRp4762
I00
S'http://web2py.com/semantic'
p4763
tp4764
aasbasbasbasbasbasbasbag57
(g73
g59
NtRp4765
(dp4766
g62
(dp4767
sg71
g4522
sg64
(lp4768
g57
(g78
g59
NtRp4769
(dp4770
g62
(dp4771
sg71
g4765
sg64
(lp4772
g57
(g58
g59
NtRp4773
(dp4774
g62
(dp4775
g70
I2
ssg71
g4769
sg64
(lp4776
g57
(g66
g59
NtRp4777
(dp4778
g62
(dp4779
g70
I1
ssg71
Nsg64
(lp4780
g57
(g73
g59
NtRp4781
(dp4782
g62
(dp4783
sg71
g4777
sg64
(lp4784
g57
(g78
g59
NtRp4785
(dp4786
g62
(dp4787
sg71
g4781
sg64
(lp4788
g57
(g58
g59
NtRp4789
(dp4790
g62
(dp4791
g70
I1
ssg71
g4785
sg64
(lp4792
g4408
(S't\r\x00\x00\x00Documentation'
tRp4793
asbasbasbag57
(g73
g59
NtRp4794
(dp4795
g62
(dp4796
sg71
g4777
sg64
(lp4797
g57
(g78
g59
NtRp4798
(dp4799
g62
(dp4800
sg71
g4794
sg64
(lp4801
g57
(g58
g59
NtRp4802
(dp4803
g62
(dp4804
g70
I1
ssg71
g4798
sg64
(lp4805
I00
asbasbasbag57
(g73
g59
NtRp4806
(dp4807
g62
(dp4808
sg71
g4777
sg64
(lp4809
g57
(g78
g59
NtRp4810
(dp4811
g62
(dp4812
sg71
g4806
sg64
(lp4813
g57
(g58
g59
NtRp4814
(dp4815
g62
(dp4816
g70
I1
ssg71
g4810
sg64
(lp4817
S'http://www.web2py.com/book'
p4818
asbasbasbag57
(g73
g59
NtRp4819
(dp4820
g62
(dp4821
sg71
g4777
sg64
(lp4822
g57
(g78
g59
NtRp4823
(dp4824
g62
(dp4825
sg71
g4819
sg64
(lp4826
g57
(g58
g59
NtRp4827
(dp4828
g62
(dp4829
g70
I1
ssg71
g4823
sg64
(lp4830
(lp4831
(g4408
(S't\x07\x00\x00\x00Preface'
tRp4832
I00
S'http://www.web2py.com/book/default/chapter/00'
p4833
tp4834
a(g4408
(S't\x0c\x00\x00\x00Introduction'
tRp4835
I00
S'http://www.web2py.com/book/default/chapter/01'
p4836
tp4837
a(g4408
(S't\x06\x00\x00\x00Python'
tRp4838
I00
S'http://www.web2py.com/book/default/chapter/02'
p4839
tp4840
a(g4408
(S't\x08\x00\x00\x00Overview'
tRp4841
I00
S'http://www.web2py.com/book/default/chapter/03'
p4842
tp4843
a(g4408
(S's\x08\x00\x00\x00The Core'
tRp4844
I00
S'http://www.web2py.com/book/default/chapter/04'
p4845
tp4846
a(g4408
(S's\t\x00\x00\x00The Views'
tRp4847
I00
S'http://www.web2py.com/book/default/chapter/05'
p4848
tp4849
a(g4408
(S't\x08\x00\x00\x00Database'
tRp4850
I00
S'http://www.web2py.com/book/default/chapter/06'
p4851
tp4852
a(g4408
(S's\x14\x00\x00\x00Forms and Validators'
tRp4853
I00
S'http://www.web2py.com/book/default/chapter/07'
p4854
tp4855
a(g4408
(S's\r\x00\x00\x00Email and SMS'
tRp4856
I00
S'http://www.web2py.com/book/default/chapter/08'
p4857
tp4858
a(g4408
(S's\x0e\x00\x00\x00Access Control'
tRp4859
I00
S'http://www.web2py.com/book/default/chapter/09'
p4860
tp4861
a(g4408
(S't\x08\x00\x00\x00Services'
tRp4862
I00
S'http://www.web2py.com/book/default/chapter/10'
p4863
tp4864
a(g4408
(S's\x0c\x00\x00\x00Ajax Recipes'
tRp4865
I00
S'http://www.web2py.com/book/default/chapter/11'
p4866
tp4867
a(g4408
(S's\x16\x00\x00\x00Components and Plugins'
tRp4868
I00
S'http://www.web2py.com/book/default/chapter/12'
p4869
tp4870
a(g4408
(S's\x12\x00\x00\x00Deployment Recipes'
tRp4871
I00
S'http://www.web2py.com/book/default/chapter/13'
p4872
tp4873
a(g4408
(S's\r\x00\x00\x00Other Recipes'
tRp4874
I00
S'http://www.web2py.com/book/default/chapter/14'
p4875
tp4876
a(g4408
(S's\r\x00\x00\x00Buy this book'
tRp4877
I00
S'http://stores.lulu.com/web2py'
p4878
tp4879
aasbasbasbasbasbasbasbag57
(g73
g59
NtRp4880
(dp4881
g62
(dp4882
sg71
g4522
sg64
(lp4883
g57
(g78
g59
NtRp4884
(dp4885
g62
(dp4886
sg71
g4880
sg64
(lp4887
g57
(g58
g59
NtRp4888
(dp4889
g62
(dp4890
g70
I2
ssg71
g4884
sg64
(lp4891
g57
(g66
g59
NtRp4892
(dp4893
g62
(dp4894
g70
I1
ssg71
Nsg64
(lp4895
g57
(g73
g59
NtRp4896
(dp4897
g62
(dp4898
sg71
g4892
sg64
(lp4899
g57
(g78
g59
NtRp4900
(dp4901
g62
(dp4902
sg71
g4896
sg64
(lp4903
g57
(g58
g59
NtRp4904
(dp4905
g62
(dp4906
g70
I1
ssg71
g4900
sg64
(lp4907
g4408
(S't\t\x00\x00\x00Community'
tRp4908
asbasbasbag57
(g73
g59
NtRp4909
(dp4910
g62
(dp4911
sg71
g4892
sg64
(lp4912
g57
(g78
g59
NtRp4913
(dp4914
g62
(dp4915
sg71
g4909
sg64
(lp4916
g57
(g58
g59
NtRp4917
(dp4918
g62
(dp4919
g70
I1
ssg71
g4913
sg64
(lp4920
I00
asbasbasbag57
(g73
g59
NtRp4921
(dp4922
g62
(dp4923
sg71
g4892
sg64
(lp4924
g57
(g78
g59
NtRp4925
(dp4926
g62
(dp4927
sg71
g4921
sg64
(lp4928
g57
(g58
g59
NtRp4929
(dp4930
g62
(dp4931
g70
I1
ssg71
g4925
sg64
(lp4932
Nasbasbasbag57
(g73
g59
NtRp4933
(dp4934
g62
(dp4935
sg71
g4892
sg64
(lp4936
g57
(g78
g59
NtRp4937
(dp4938
g62
(dp4939
sg71
g4933
sg64
(lp4940
g57
(g58
g59
NtRp4941
(dp4942
g62
(dp4943
g70
I1
ssg71
g4937
sg64
(lp4944
(lp4945
(g4408
(S't\x06\x00\x00\x00Groups'
tRp4946
I00
S'http://www.web2py.com/examples/default/usergroups'
p4947
tp4948
a(g4408
(S't\x07\x00\x00\x00Twitter'
tRp4949
I00
S'http://twitter.com/web2py'
p4950
tp4951
a(g4408
(S's\t\x00\x00\x00Live Chat'
tRp4952
I00
S'http://webchat.freenode.net/?channels=web2py'
p4953
tp4954
aasbasbasbasbasbasbasbag57
(g73
g59
NtRp4955
(dp4956
g62
(dp4957
sg71
g4522
sg64
(lp4958
g57
(g78
g59
NtRp4959
(dp4960
g62
(dp4961
sg71
g4955
sg64
(lp4962
g57
(g58
g59
NtRp4963
(dp4964
g62
(dp4965
g70
I2
ssg71
g4959
sg64
(lp4966
g57
(g66
g59
NtRp4967
(dp4968
g62
(dp4969
g70
I1
ssg71
Nsg64
(lp4970
g57
(g73
g59
NtRp4971
(dp4972
g62
(dp4973
sg71
g4967
sg64
(lp4974
g57
(g78
g59
NtRp4975
(dp4976
g62
(dp4977
sg71
g4971
sg64
(lp4978
g57
(g58
g59
NtRp4979
(dp4980
g62
(dp4981
g70
I1
ssg71
g4975
sg64
(lp4982
g4408
(S't\x07\x00\x00\x00Plugins'
tRp4983
asbasbasbag57
(g73
g59
NtRp4984
(dp4985
g62
(dp4986
sg71
g4967
sg64
(lp4987
g57
(g78
g59
NtRp4988
(dp4989
g62
(dp4990
sg71
g4984
sg64
(lp4991
g57
(g58
g59
NtRp4992
(dp4993
g62
(dp4994
g70
I1
ssg71
g4988
sg64
(lp4995
I00
asbasbasbag57
(g73
g59
NtRp4996
(dp4997
g62
(dp4998
sg71
g4967
sg64
(lp4999
g57
(g78
g59
NtRp5000
(dp5001
g62
(dp5002
sg71
g4996
sg64
(lp5003
g57
(g58
g59
NtRp5004
(dp5005
g62
(dp5006
g70
I1
ssg71
g5000
sg64
(lp5007
Nasbasbasbag57
(g73
g59
NtRp5008
(dp5009
g62
(dp5010
sg71
g4967
sg64
(lp5011
g57
(g78
g59
NtRp5012
(dp5013
g62
(dp5014
sg71
g5008
sg64
(lp5015
g57
(g58
g59
NtRp5016
(dp5017
g62
(dp5018
g70
I1
ssg71
g5012
sg64
(lp5019
(lp5020
(S'plugin_wiki'
p5021
I00
S'http://web2py.com/examples/default/download'
p5022
tp5023
a(g4408
(S's\r\x00\x00\x00Other Plugins'
tRp5024
I00
g4754
tp5025
a(g4408
(S's\x0e\x00\x00\x00Layout Plugins'
tRp5026
I00
g4757
tp5027
aasbasbasbasbasbasbasbasbasbasbasbasbasbasbasbasbasbasbasbag57
(g73
g59
NtRp5028
(dp5029
g62
(dp5030
sg71
g3903
sg64
(lp5031
g57
(g78
g59
NtRp5032
(dp5033
g62
(dp5034
g82
g83
ssg71
g5028
sg64
(lp5035
S'meta'
p5036
asbag57
(g78
g59
NtRp5037
(dp5038
g62
(dp5039
g89
g90
ssg71
g5028
sg64
(lp5040
S':'
asbag57
(g78
g59
NtRp5041
(dp5042
g62
(dp5043
sg71
g5028
sg64
(lp5044
g57
(g58
g59
NtRp5045
(dp5046
g62
(dp5047
g70
I5
ssg71
g5041
sg64
(lp5048
g57
(g66
g59
NtRp5049
(dp5050
g62
(dp5051
g70
I4
ssg71
Nsg64
(lp5052
g57
(g73
g59
NtRp5053
(dp5054
g62
(dp5055
sg71
g5049
sg64
(lp5056
g57
(g78
g59
NtRp5057
(dp5058
g62
(dp5059
g82
g83
ssg71
g5053
sg64
(lp5060
S'author'
p5061
asbag57
(g78
g59
NtRp5062
(dp5063
g62
(dp5064
g89
g90
ssg71
g5053
sg64
(lp5065
S':'
asbag57
(g78
g59
NtRp5066
(dp5067
g62
(dp5068
sg71
g5053
sg64
(lp5069
g57
(g58
g59
NtRp5070
(dp5071
g62
(dp5072
g70
I4
ssg71
g5066
sg64
(lp5073
S'Your Name <you@example.com>'
p5074
asbasbasbag57
(g73
g59
NtRp5075
(dp5076
g62
(dp5077
sg71
g5049
sg64
(lp5078
g57
(g78
g59
NtRp5079
(dp5080
g62
(dp5081
g82
g83
ssg71
g5075
sg64
(lp5082
S'copyright'
p5083
asbag57
(g78
g59
NtRp5084
(dp5085
g62
(dp5086
g89
g90
ssg71
g5075
sg64
(lp5087
S':'
asbag57
(g78
g59
NtRp5088
(dp5089
g62
(dp5090
sg71
g5075
sg64
(lp5091
g57
(g58
g59
NtRp5092
(dp5093
g62
(dp5094
g70
I4
ssg71
g5088
sg64
(lp5095
S'Copyright 2011'
p5096
asbasbasbag57
(g73
g59
NtRp5097
(dp5098
g62
(dp5099
sg71
g5049
sg64
(lp5100
g57
(g78
g59
NtRp5101
(dp5102
g62
(dp5103
g82
g83
ssg71
g5097
sg64
(lp5104
S'description'
p5105
asbag57
(g78
g59
NtRp5106
(dp5107
g62
(dp5108
g89
g90
ssg71
g5097
sg64
(lp5109
S':'
asbag57
(g78
g59
NtRp5110
(dp5111
g62
(dp5112
sg71
g5097
sg64
(lp5113
g57
(g58
g59
NtRp5114
(dp5115
g62
(dp5116
g70
I4
ssg71
g5110
sg64
(lp5117
S'a cool new app'
p5118
asbasbasbag57
(g73
g59
NtRp5119
(dp5120
g62
(dp5121
sg71
g5049
sg64
(lp5122
g57
(g78
g59
NtRp5123
(dp5124
g62
(dp5125
g82
g83
ssg71
g5119
sg64
(lp5126
S'generator'
p5127
asbag57
(g78
g59
NtRp5128
(dp5129
g62
(dp5130
g89
g90
ssg71
g5119
sg64
(lp5131
S':'
asbag57
(g78
g59
NtRp5132
(dp5133
g62
(dp5134
sg71
g5119
sg64
(lp5135
g57
(g58
g59
NtRp5136
(dp5137
g62
(dp5138
g70
I4
ssg71
g5132
sg64
(lp5139
S'Web2py Web Framework'
p5140
asbasbasbag57
(g73
g59
NtRp5141
(dp5142
g62
(dp5143
sg71
g5049
sg64
(lp5144
g57
(g78
g59
NtRp5145
(dp5146
g62
(dp5147
g82
g83
ssg71
g5141
sg64
(lp5148
S'keywords'
p5149
asbag57
(g78
g59
NtRp5150
(dp5151
g62
(dp5152
g89
g90
ssg71
g5141
sg64
(lp5153
S':'
asbag57
(g78
g59
NtRp5154
(dp5155
g62
(dp5156
sg71
g5141
sg64
(lp5157
g57
(g58
g59
NtRp5158
(dp5159
g62
(dp5160
g70
I4
ssg71
g5154
sg64
(lp5161
S'web2py, python, framework'
p5162
asbasbasbasbasbasbasbag57
(g73
g59
NtRp5163
(dp5164
g62
(dp5165
sg71
g3903
sg64
(lp5166
g57
(g78
g59
NtRp5167
(dp5168
g62
(dp5169
g82
g83
ssg71
g5163
sg64
(lp5170
S'postprocessing'
p5171
asbag57
(g78
g59
NtRp5172
(dp5173
g62
(dp5174
g89
g90
ssg71
g5163
sg64
(lp5175
S':'
asbag57
(g78
g59
NtRp5176
(dp5177
g62
(dp5178
sg71
g5163
sg64
(lp5179
g57
(g58
g59
NtRp5180
(dp5181
g62
(dp5182
g70
I5
ssg71
g5176
sg64
(lp5183
g57
(g66
g59
NtRp5184
(dp5185
g62
(dp5186
g70
I4
ssg71
Nsg64
(lp5187
sbasbasbasbag57
(g73
g59
NtRp5188
(dp5189
g62
(dp5190
sg71
g3903
sg64
(lp5191
g57
(g78
g59
NtRp5192
(dp5193
g62
(dp5194
g82
g83
ssg71
g5188
sg64
(lp5195
S'session_file'
p5196
asbag57
(g78
g59
NtRp5197
(dp5198
g62
(dp5199
g89
g90
ssg71
g5188
sg64
(lp5200
S':'
asbag57
(g78
g59
NtRp5201
(dp5202
g62
(dp5203
sg71
g5188
sg64
(lp5204
g57
(g58
g59
NtRp5205
(dp5206
g62
(dp5207
g70
I5
ssg71
g5201
sg64
(lp5208
S"<open file '/home/ds-iiit/web2py/applications/Read_it/sessions/127.0.0.1-64ed602e-5699-4391-ae4f-88c77653edcf', mode 'rb+' at 0x7f03fc240ae0>"
p5209
asbasbasbag57
(g73
g59
NtRp5210
(dp5211
g62
(dp5212
sg71
g3903
sg64
(lp5213
g57
(g78
g59
NtRp5214
(dp5215
g62
(dp5216
g82
g83
ssg71
g5210
sg64
(lp5217
S'session_filename'
p5218
asbag57
(g78
g59
NtRp5219
(dp5220
g62
(dp5221
g89
g90
ssg71
g5210
sg64
(lp5222
S':'
asbag57
(g78
g59
NtRp5223
(dp5224
g62
(dp5225
sg71
g5210
sg64
(lp5226
g57
(g58
g59
NtRp5227
(dp5228
g62
(dp5229
g70
I5
ssg71
g5223
sg64
(lp5230
S'/home/ds-iiit/web2py/applications/Read_it/sessions/127.0.0.1-64ed602e-5699-4391-ae4f-88c77653edcf'
p5231
asbasbasbag57
(g73
g59
NtRp5232
(dp5233
g62
(dp5234
sg71
g3903
sg64
(lp5235
g57
(g78
g59
NtRp5236
(dp5237
g62
(dp5238
g82
g83
ssg71
g5232
sg64
(lp5239
S'session_id'
p5240
asbag57
(g78
g59
NtRp5241
(dp5242
g62
(dp5243
g89
g90
ssg71
g5232
sg64
(lp5244
S':'
asbag57
(g78
g59
NtRp5245
(dp5246
g62
(dp5247
sg71
g5232
sg64
(lp5248
g57
(g58
g59
NtRp5249
(dp5250
g62
(dp5251
g70
I5
ssg71
g5245
sg64
(lp5252
S'127.0.0.1-64ed602e-5699-4391-ae4f-88c77653edcf'
p5253
asbasbasbag57
(g73
g59
NtRp5254
(dp5255
g62
(dp5256
sg71
g3903
sg64
(lp5257
g57
(g78
g59
NtRp5258
(dp5259
g62
(dp5260
g82
g83
ssg71
g5254
sg64
(lp5261
S'session_id_name'
p5262
asbag57
(g78
g59
NtRp5263
(dp5264
g62
(dp5265
g89
g90
ssg71
g5254
sg64
(lp5266
S':'
asbag57
(g78
g59
NtRp5267
(dp5268
g62
(dp5269
sg71
g5254
sg64
(lp5270
g57
(g58
g59
NtRp5271
(dp5272
g62
(dp5273
g70
I5
ssg71
g5267
sg64
(lp5274
g3960
asbasbasbag57
(g73
g59
NtRp5275
(dp5276
g62
(dp5277
sg71
g3903
sg64
(lp5278
g57
(g78
g59
NtRp5279
(dp5280
g62
(dp5281
g82
g83
ssg71
g5275
sg64
(lp5282
S'session_locked'
p5283
asbag57
(g78
g59
NtRp5284
(dp5285
g62
(dp5286
g89
g90
ssg71
g5275
sg64
(lp5287
S':'
asbag57
(g78
g59
NtRp5288
(dp5289
g62
(dp5290
sg71
g5275
sg64
(lp5291
g57
(g58
g59
NtRp5292
(dp5293
g62
(dp5294
g70
I5
ssg71
g5288
sg64
(lp5295
g1892
asbasbasbag57
(g73
g59
NtRp5296
(dp5297
g62
(dp5298
sg71
g3903
sg64
(lp5299
g57
(g78
g59
NtRp5300
(dp5301
g62
(dp5302
g82
g83
ssg71
g5296
sg64
(lp5303
S'session_new'
p5304
asbag57
(g78
g59
NtRp5305
(dp5306
g62
(dp5307
g89
g90
ssg71
g5296
sg64
(lp5308
S':'
asbag57
(g78
g59
NtRp5309
(dp5310
g62
(dp5311
sg71
g5296
sg64
(lp5312
g57
(g58
g59
NtRp5313
(dp5314
g62
(dp5315
g70
I5
ssg71
g5309
sg64
(lp5316
g100
asbasbasbag57
(g73
g59
NtRp5317
(dp5318
g62
(dp5319
sg71
g3903
sg64
(lp5320
g57
(g78
g59
NtRp5321
(dp5322
g62
(dp5323
g82
g83
ssg71
g5317
sg64
(lp5324
S'status'
p5325
asbag57
(g78
g59
NtRp5326
(dp5327
g62
(dp5328
g89
g90
ssg71
g5317
sg64
(lp5329
S':'
asbag57
(g78
g59
NtRp5330
(dp5331
g62
(dp5332
sg71
g5317
sg64
(lp5333
g57
(g58
g59
NtRp5334
(dp5335
g62
(dp5336
g70
I5
ssg71
g5330
sg64
(lp5337
S'200'
p5338
asbasbasbag57
(g73
g59
NtRp5339
(dp5340
g62
(dp5341
sg71
g3903
sg64
(lp5342
g57
(g78
g59
NtRp5343
(dp5344
g62
(dp5345
g82
g83
ssg71
g5339
sg64
(lp5346
S'subtitle'
p5347
asbag57
(g78
g59
NtRp5348
(dp5349
g62
(dp5350
g89
g90
ssg71
g5339
sg64
(lp5351
S':'
asbag57
(g78
g59
NtRp5352
(dp5353
g62
(dp5354
sg71
g5339
sg64
(lp5355
g57
(g58
g59
NtRp5356
(dp5357
g62
(dp5358
g70
I5
ssg71
g5352
sg64
(lp5359
g4408
(S's\r\x00\x00\x00customize me!'
tRp5360
asbasbasbag57
(g73
g59
NtRp5361
(dp5362
g62
(dp5363
sg71
g3903
sg64
(lp5364
g57
(g78
g59
NtRp5365
(dp5366
g62
(dp5367
g82
g83
ssg71
g5361
sg64
(lp5368
S'title'
p5369
asbag57
(g78
g59
NtRp5370
(dp5371
g62
(dp5372
g89
g90
ssg71
g5361
sg64
(lp5373
S':'
asbag57
(g78
g59
NtRp5374
(dp5375
g62
(dp5376
sg71
g5361
sg64
(lp5377
g57
(g58
g59
NtRp5378
(dp5379
g62
(dp5380
g70
I5
ssg71
g5374
sg64
(lp5381
S'Read It'
p5382
asbasbasbag57
(g73
g59
NtRp5383
(dp5384
g62
(dp5385
sg71
g3903
sg64
(lp5386
g57
(g78
g59
NtRp5387
(dp5388
g62
(dp5389
g82
g83
ssg71
g5383
sg64
(lp5390
g2578
asbag57
(g78
g59
NtRp5391
(dp5392
g62
(dp5393
g89
g90
ssg71
g5383
sg64
(lp5394
S':'
asbag57
(g78
g59
NtRp5395
(dp5396
g62
(dp5397
sg71
g5383
sg64
(lp5398
g57
(g58
g59
NtRp5399
(dp5400
g62
(dp5401
g70
I5
ssg71
g5395
sg64
(lp5402
g2591
asbasbasbag57
(g73
g59
NtRp5403
(dp5404
g62
(dp5405
sg71
g3903
sg64
(lp5406
g57
(g78
g59
NtRp5407
(dp5408
g62
(dp5409
g82
g83
ssg71
g5403
sg64
(lp5410
S'view'
p5411
asbag57
(g78
g59
NtRp5412
(dp5413
g62
(dp5414
g89
g90
ssg71
g5403
sg64
(lp5415
S':'
asbag57
(g78
g59
NtRp5416
(dp5417
g62
(dp5418
sg71
g5403
sg64
(lp5419
g57
(g58
g59
NtRp5420
(dp5421
g62
(dp5422
g70
I5
ssg71
g5416
sg64
(lp5423
S'default/list_cat.html'
p5424
asbasbasbasbasbsS'locals'
p5425
(dp5426
S'self'
p5427
S'<gluon.dal.SQLiteAdapter object>'
p5428
sS'r'
S'None'
p5429
sS'obj'
p5430
S"'list_cat'"
p5431
sS'fieldtype'
p5432
S"'id'"
p5433
sssS'traceback'
p5434
S'Traceback (most recent call last):\n  File "/usr/lib/pymodules/python2.7/gluon/restricted.py", line 204, in restricted\n    exec ccode in environment\n  File "/home/ds-iiit/web2py/applications/Read_it/controllers/default.py", line 170, in <module>\n  File "/usr/lib/pymodules/python2.7/gluon/globals.py", line 172, in <lambda>\n    self._caller = lambda f: f()\n  File "/home/ds-iiit/web2py/applications/Read_it/controllers/default.py", line 95, in list_cat\n    x = db((request.args(0)==db.Category.id) & (db.Category.id == db.Item.Category)).select(orderby=db.Item.Rating)\n  File "/usr/lib/pymodules/python2.7/gluon/dal.py", line 6333, in select\n    return self.db._adapter.select(self.query,fields,attributes)\n  File "/usr/lib/pymodules/python2.7/gluon/dal.py", line 1274, in select\n    sql = self._select(query, fields, attributes)\n  File "/usr/lib/pymodules/python2.7/gluon/dal.py", line 1672, in _select\n    sql = super(SQLiteAdapter, self)._select(query, fields, attributes)\n  File "/usr/lib/pymodules/python2.7/gluon/dal.py", line 1175, in _select\n    sql_w = \' WHERE \' + self.expand(query)\n  File "/usr/lib/pymodules/python2.7/gluon/dal.py", line 1023, in expand\n    return expression.op(expression.first, expression.second)\n  File "/usr/lib/pymodules/python2.7/gluon/dal.py", line 932, in AND\n    return \'(%s AND %s)\' % (self.expand(first), self.expand(second))\n  File "/usr/lib/pymodules/python2.7/gluon/dal.py", line 1023, in expand\n    return expression.op(expression.first, expression.second)\n  File "/usr/lib/pymodules/python2.7/gluon/dal.py", line 964, in EQ\n    return \'(%s = %s)\' % (self.expand(first), self.expand(second, first.type))\n  File "/usr/lib/pymodules/python2.7/gluon/dal.py", line 1031, in expand\n    return str(self.represent(expression,field_type))\n  File "/usr/lib/pymodules/python2.7/gluon/dal.py", line 1388, in represent\n    return str(int(obj))\nValueError: invalid literal for int() with base 10: \'list_cat\'\n'
p5435
s.