(dp1
S'output'
p2
S"<type 'exceptions.SyntaxError'> invalid syntax (comments.html, line 30)"
p3
sS'layer'
p4
S'/home/ds-iiit/web2py/applications/Read_it/views/default/comments.html'
p5
sS'code'
p6
S'response.write(\'<!DOCTYPE html PUBLIC "-//W3C//DTD XHTML 1.0 Strict//EN" "http://www.w3.org/TR/xhtml1/DTD/xhtml1-strict.dtd">\\n<!--\\n\\nDesign by Free CSS Templates\\nhttp://www.freecsstemplates.org\\nReleased for free under a Creative Commons Attribution 2.5 License\\n\\nTitle      : Cup of Coffee\\nVersion    : 1.0\\nReleased   : 20081207\\nDescription: A two-column, fixed-width and lightweight template ideal for 1024x768 resolutions. Suitable for blogs and small websites.\\n\\n-->\\n<html xmlns="http://www.w3.org/1999/xhtml">\\n <head>\\n  <title>\\n\\tReddit clone, Devansh Shah\\n  </title>\\n  \', escape=False)\nresponse.files.append(URL(request.application,\'static\',\'plugin_layouts/layouts/CupofCoffee/default.css\'))\nresponse.write(\'\\n  \', escape=False)\nresponse.files.append(URL(\'static\',\'plugin_layouts/superfish.js\'))\nresponse.write(\'\\n  \', escape=False)\nresponse.write(\'<script type="text/javascript"><!--\\n    // These variables are used by the web2py_ajax_init function in web2py_ajax.js (which is loaded below).\\n    var w2p_ajax_confirm_message = "\', escape=False)\nresponse.write(T(\'Are you sure you want to delete this object?\'))\nresponse.write(\'";\\n    var w2p_ajax_date_format = "\', escape=False)\nresponse.write(T(\'%Y-%m-%d\'))\nresponse.write(\'";\\n    var w2p_ajax_datetime_format = "\', escape=False)\nresponse.write(T(\'%Y-%m-%d %H:%M:%S\'))\nresponse.write(\'";\\n    //--></script>\\n\', escape=False)\nresponse.files.insert(0,URL(\'static\',\'js/jquery.js\'))\nresponse.files.insert(1,URL(\'static\',\'css/calendar.css\'))\nresponse.files.insert(2,URL(\'static\',\'js/calendar.js\'))\nresponse.files.insert(3,URL(\'static\',\'js/web2py.js\'))\nresponse.include_meta()\nresponse.include_files()\nresponse.write(\'\\n\', escape=False)\nresponse.write(\'\\n  <style>\\nul.web2py-menu-vertical { width: 300px; position: relative; top:1em; left:1em;  z-index:30; border:0; margin:0; padding: 0; list-style: none; text-decoration: none;}\\nul.web2py-menu-vertical li { margin:0; padding:0; border:0; width: 300px; background: black; text-align:left;}\\nul.web2py-menu-vertical li a { margin:0; padding: 1px 3px 1px 3px; border:0; width: 300px; color: white; font-size:12px;}\\ndiv.flash { position: fixed; float: right; padding: 10px; top: 10px; right: 30px; opacity: 0.75; margin: 10px 10px 10px 10px; text-align: center; clear: both; color: #fff; font-size: 11pt; text-align: center; vertical-align: middle; cursor: pointer; background: black; border: 2px solid #fff; -moz-border-radius: 5px; -webkit-border-radius: 5px; z-index: 2; }\\ndiv.error { background-color: red; color: white; padding: 3px; }\\n.auth_navbar { text-align:right; z-index:20; position: absolute; top: 2px; right:100px; border:0; padding:0 }\\n  </style>\\n </head>\\n <body>\\n  <!-- start header -->\\n  \', escape=False)\ntry:\n    response.write(auth.navbar(action=URL(\'default\',\'user\')))\nexcept:pass\nresponse.write(\'\\n\\n  <div id="wrapper">\\n   <!-- start header -->\\n   <div id="header">\\n<!--    <div id="menu">\\n     \', escape=False)\nresponse.write(MENU(response.menu,_class=\'web2py-menu\'))\nresponse.write(\'\\n    <script>\\n      jQuery(document).ready(function(){jQuery(\\\'ul.web2py-menu\\\').superfish({delay:400});});\\n    </script>\\n    </div> -->\\n   </div>\\n   <!-- end header -->\\n   <div id="logo">\\n    <h1>\\n    <a href="listall.html"> Read-it-over </a>\\n    </h1>\\n    <h2>\\n     Your News, Your way.\\n    </h2>\\n   </div>\\n   <!-- start page -->\\n   <div id="page">\\n    <!-- start content -->\\n    <div id="content">\\n     <div class="flash">\', escape=False)\nresponse.write(response.flash or \'\')\nresponse.write(\'</div>\\n     \', escape=False)\nresponse.write(\'\\n<li>\\n<frameset>\\n\', escape=False)\ni=results[0] if results:\n    response.write(\'\\n<a href=\', escape=False)\n    response.write(i[\'Item.URL\'])\n    response.write(\'>  \', escape=False)\n    response.write(i[\'Heading\'])\n    response.write(\' </a>\\n<br />\\n<br />\\n\', escape=False)\n    if i[\'Item.Multimedia\'] is not None:\n        response.write(\'\\n<video src=\', escape=False)\n        response.write(i[\'Multimedia\'])\n        response.write(\' width="320" height="200" controls preload></video>\\n<embed\\nwidth="400" height="300"\\nsrc=\', escape=False)\n        response.write(i[\'Multimedia\'])\n        response.write(\'\\ntype="application/x-shockwave-flash">\\n</embed\\n>\\n\', escape=False)\n        pass\n    response.write(\'\\n<br/>\\n<a href="points/\', escape=False)\n    response.write(i[\'Item.id\'])\n    response.write(\'/5" value="Like"> Like\\n</a><br/>\\n<a href="points/\', escape=False)\n    response.write(i[\'Item.id\'])\n    response.write(\'/-3" value="DisLike"> DisLike\\n</a><br/>\\n\', escape=False)\n    pass\nresponse.write(\'\\n<ol>\\n\', escape=False)\nfor i in results:\n    response.write(\'\\n<li>\\n<h3> \', escape=False)\n    response.write(i[\'Comments.Comment\'])\n    response.write(\' <h3> <br/>\\n<h5 align="right"> posted by \', escape=False)\n    response.write(i[\'auth_user.first_name\'])\n    response.write(\' on \', escape=False)\n    response.write(i[\'Comments.Date\'])\n    response.write(\' </h5>\\n<hr />\\n</li>\\n\', escape=False)\n    pass\nresponse.write(\'\\n</ol>\\n\', escape=False)\nresponse.write(form)\nresponse.write(\'\\n\', escape=False)\nresponse.write(\'\\n    </div>\\n    <!-- end content -->\\n    <!-- start sidebar -->\\n    <div id="sidebar">\\n     <ul>\\n      <li id="search">\\n       <h2>\\n        Search\\n       </h2>\\n       <form method="get" action="search.html">\\n        <fieldset>\\n         <input type="text" id="s" name="s" value="" />\\n         <input type="submit" id="x" value="Search" />\\n        </fieldset>\\n       </form>\\n      </li>\\n      <li>\\n       <h2>\\n        Categories:\\n       </h2>\\n       <ol>\\n\\t\', escape=False)\nfor i in cat:\n    response.write(\'\\n        <li>\\n         <a href="list_cat/\', escape=False)\n    response.write(i)\n    response.write(\'">\\n          \', escape=False)\n    response.write(i)\n    response.write(\'\\n         </a>\\n        </li>\\n\\t\', escape=False)\n    pass\nresponse.write(\'\\n       </ol>\\n      </li>\\n     </ul>\\n    </div>\\n    <!-- end sidebar -->\\n    <div style="clear: both;">\\n     &nbsp;\\n    </div>\\n   </div>\\n   <!-- end page -->\\n   <!-- start footer -->\\n   <div id="footer">\\n    <div id="footer-wrap">\\n     <p id="legal">\\n       Devansh T Shah, &copy;2013<br/> Design by\\n       CSS Templates\\n     </p>\\n    </div>\\n   </div>\\n   <!-- end footer -->\\n  </div>\\n </body>\\n</html>\\n\', escape=False)'
p7
sS'snapshot'
p8
(dp9
S'exception'
p10
(dp11
S'__getslice__'
p12
S"<method-wrapper '__getslice__' of exceptions.SyntaxError object>"
p13
sS'text'
p14
S"'i=results[0] if results:\\n'"
p15
sS'__str__'
p16
S"<method-wrapper '__str__' of exceptions.SyntaxError object>"
p17
sS'__reduce__'
p18
S'<built-in method __reduce__ of exceptions.SyntaxError object>'
p19
sS'__dict__'
p20
S'{}'
p21
sS'__sizeof__'
p22
S'<built-in method __sizeof__ of exceptions.SyntaxError object>'
p23
sS'__init__'
p24
S"<method-wrapper '__init__' of exceptions.SyntaxError object>"
p25
sS'__setattr__'
p26
S"<method-wrapper '__setattr__' of exceptions.SyntaxError object>"
p27
sS'__reduce_ex__'
p28
S'<built-in method __reduce_ex__ of exceptions.SyntaxError object>'
p29
sS'__new__'
p30
S'<built-in method __new__ of type object>'
p31
sS'__format__'
p32
S'<built-in method __format__ of exceptions.SyntaxError object>'
p33
sS'__class__'
p34
S"<type 'exceptions.SyntaxError'>"
p35
sS'filename'
p36
S"'/home/ds-iiit/web2py/applications/Read_it/views/default/comments.html'"
p37
sS'lineno'
p38
S'30'
p39
sS'msg'
p40
S"'invalid syntax'"
p41
sS'__doc__'
p42
S"'Invalid syntax.'"
p43
sS'__getitem__'
p44
S"<method-wrapper '__getitem__' of exceptions.SyntaxError object>"
p45
sS'__setstate__'
p46
S'<built-in method __setstate__ of exceptions.SyntaxError object>'
p47
sS'__getattribute__'
p48
S"<method-wrapper '__getattribute__' of exceptions.SyntaxError object>"
p49
sS'print_file_and_line'
p50
S'None'
p51
sS'args'
p52
S"('invalid syntax', ('/home/ds-iiit/web2py/applications/Read_it/views/default/comments.html', 30, 24, 'i=results[0] if results:\\n'))"
p53
sS'__subclasshook__'
p54
S'<built-in method __subclasshook__ of type object>'
p55
sS'offset'
p56
S'24'
p57
sS'__unicode__'
p58
S'<built-in method __unicode__ of exceptions.SyntaxError object>'
p59
sS'__delattr__'
p60
S"<method-wrapper '__delattr__' of exceptions.SyntaxError object>"
p61
sS'__repr__'
p62
S"<method-wrapper '__repr__' of exceptions.SyntaxError object>"
p63
sS'__hash__'
p64
S"<method-wrapper '__hash__' of exceptions.SyntaxError object>"
p65
ssS'evalue'
p66
S'invalid syntax (comments.html, line 30)'
p67
sS'request'
p68
ccopy_reg
_reconstructor
p69
(cgluon.html
BEAUTIFY
p70
c__builtin__
object
p71
NtRp72
(dp73
S'attributes'
p74
(dp75
sS'components'
p76
(lp77
g69
(cgluon.html
TABLE
p78
g71
NtRp79
(dp80
g74
(dp81
S'level'
p82
I5
ssS'parent'
p83
Nsg76
(lp84
g69
(cgluon.html
TR
p85
g71
NtRp86
(dp87
g74
(dp88
sg83
g79
sg76
(lp89
g69
(cgluon.html
TD
p90
g71
NtRp91
(dp92
g74
(dp93
S'_style'
p94
S'font-weight:bold;vertical-align:top'
p95
ssg83
g86
sg76
(lp96
S'ajax'
p97
asbag69
(g90
g71
NtRp98
(dp99
g74
(dp100
S'_valign'
p101
S'top'
p102
ssg83
g86
sg76
(lp103
S':'
asbag69
(g90
g71
NtRp104
(dp105
g74
(dp106
sg83
g86
sg76
(lp107
g69
(g70
g71
NtRp108
(dp109
g74
(dp110
g82
I5
ssg83
g104
sg76
(lp111
S'False'
p112
asbasbasbag69
(g85
g71
NtRp113
(dp114
g74
(dp115
sg83
g79
sg76
(lp116
g69
(g90
g71
NtRp117
(dp118
g74
(dp119
g94
g95
ssg83
g113
sg76
(lp120
S'application'
p121
asbag69
(g90
g71
NtRp122
(dp123
g74
(dp124
g101
g102
ssg83
g113
sg76
(lp125
S':'
asbag69
(g90
g71
NtRp126
(dp127
g74
(dp128
sg83
g113
sg76
(lp129
g69
(g70
g71
NtRp130
(dp131
g74
(dp132
g82
I5
ssg83
g126
sg76
(lp133
S'Read_it'
p134
asbasbasbag69
(g85
g71
NtRp135
(dp136
g74
(dp137
sg83
g79
sg76
(lp138
g69
(g90
g71
NtRp139
(dp140
g74
(dp141
g94
g95
ssg83
g135
sg76
(lp142
g52
asbag69
(g90
g71
NtRp143
(dp144
g74
(dp145
g101
g102
ssg83
g135
sg76
(lp146
S':'
asbag69
(g90
g71
NtRp147
(dp148
g74
(dp149
sg83
g135
sg76
(lp150
g69
(g70
g71
NtRp151
(dp152
g74
(dp153
g82
I5
ssg83
g147
sg76
(lp154
g69
(g78
g71
NtRp155
(dp156
g74
(dp157
g82
I4
ssg83
Nsg76
(lp158
g69
(g85
g71
NtRp159
(dp160
g74
(dp161
sg83
g155
sg76
(lp162
g69
(g90
g71
NtRp163
(dp164
g74
(dp165
sg83
g159
sg76
(lp166
g69
(g70
g71
NtRp167
(dp168
g74
(dp169
g82
I4
ssg83
g163
sg76
(lp170
S'4'
asbasbasbasbasbasbasbag69
(g85
g71
NtRp171
(dp172
g74
(dp173
sg83
g79
sg76
(lp174
g69
(g90
g71
NtRp175
(dp176
g74
(dp177
g94
g95
ssg83
g171
sg76
(lp178
S'body'
p179
asbag69
(g90
g71
NtRp180
(dp181
g74
(dp182
g101
g102
ssg83
g171
sg76
(lp183
S':'
asbag69
(g90
g71
NtRp184
(dp185
g74
(dp186
sg83
g171
sg76
(lp187
g69
(g70
g71
NtRp188
(dp189
g74
(dp190
g82
I5
ssg83
g184
sg76
(lp191
S'<cStringIO.StringO object at 0x7fdcc4626a08>'
p192
asbasbasbag69
(g85
g71
NtRp193
(dp194
g74
(dp195
sg83
g79
sg76
(lp196
g69
(g90
g71
NtRp197
(dp198
g74
(dp199
g94
g95
ssg83
g193
sg76
(lp200
S'client'
p201
asbag69
(g90
g71
NtRp202
(dp203
g74
(dp204
g101
g102
ssg83
g193
sg76
(lp205
S':'
asbag69
(g90
g71
NtRp206
(dp207
g74
(dp208
sg83
g193
sg76
(lp209
g69
(g70
g71
NtRp210
(dp211
g74
(dp212
g82
I5
ssg83
g206
sg76
(lp213
S'127.0.0.1'
p214
asbasbasbag69
(g85
g71
NtRp215
(dp216
g74
(dp217
sg83
g79
sg76
(lp218
g69
(g90
g71
NtRp219
(dp220
g74
(dp221
g94
g95
ssg83
g215
sg76
(lp222
S'controller'
p223
asbag69
(g90
g71
NtRp224
(dp225
g74
(dp226
g101
g102
ssg83
g215
sg76
(lp227
S':'
asbag69
(g90
g71
NtRp228
(dp229
g74
(dp230
sg83
g215
sg76
(lp231
g69
(g70
g71
NtRp232
(dp233
g74
(dp234
g82
I5
ssg83
g228
sg76
(lp235
S'default'
p236
asbasbasbag69
(g85
g71
NtRp237
(dp238
g74
(dp239
sg83
g79
sg76
(lp240
g69
(g90
g71
NtRp241
(dp242
g74
(dp243
g94
g95
ssg83
g237
sg76
(lp244
S'cookies'
p245
asbag69
(g90
g71
NtRp246
(dp247
g74
(dp248
g101
g102
ssg83
g237
sg76
(lp249
S':'
asbag69
(g90
g71
NtRp250
(dp251
g74
(dp252
sg83
g237
sg76
(lp253
g69
(g70
g71
NtRp254
(dp255
g74
(dp256
g82
I5
ssg83
g250
sg76
(lp257
g69
(g78
g71
NtRp258
(dp259
g74
(dp260
g82
I4
ssg83
Nsg76
(lp261
g69
(g85
g71
NtRp262
(dp263
g74
(dp264
sg83
g258
sg76
(lp265
g69
(g90
g71
NtRp266
(dp267
g74
(dp268
g94
g95
ssg83
g262
sg76
(lp269
S'session_id_admin'
p270
asbag69
(g90
g71
NtRp271
(dp272
g74
(dp273
g101
g102
ssg83
g262
sg76
(lp274
S':'
asbag69
(g90
g71
NtRp275
(dp276
g74
(dp277
sg83
g262
sg76
(lp278
g69
(g70
g71
NtRp279
(dp280
g74
(dp281
g82
I4
ssg83
g275
sg76
(lp282
g69
(g78
g71
NtRp283
(dp284
g74
(dp285
g82
I3
ssg83
Nsg76
(lp286
g69
(g85
g71
NtRp287
(dp288
g74
(dp289
sg83
g283
sg76
(lp290
g69
(g90
g71
NtRp291
(dp292
g74
(dp293
g94
g95
ssg83
g287
sg76
(lp294
S'comment'
p295
asbag69
(g90
g71
NtRp296
(dp297
g74
(dp298
g101
g102
ssg83
g287
sg76
(lp299
S':'
asbag69
(g90
g71
NtRp300
(dp301
g74
(dp302
sg83
g287
sg76
(lp303
g69
(g70
g71
NtRp304
(dp305
g74
(dp306
g82
I3
ssg83
g300
sg76
(lp307
S''
asbasbasbag69
(g85
g71
NtRp308
(dp309
g74
(dp310
sg83
g283
sg76
(lp311
g69
(g90
g71
NtRp312
(dp313
g74
(dp314
g94
g95
ssg83
g308
sg76
(lp315
S'domain'
p316
asbag69
(g90
g71
NtRp317
(dp318
g74
(dp319
g101
g102
ssg83
g308
sg76
(lp320
S':'
asbag69
(g90
g71
NtRp321
(dp322
g74
(dp323
sg83
g308
sg76
(lp324
g69
(g70
g71
NtRp325
(dp326
g74
(dp327
g82
I3
ssg83
g321
sg76
(lp328
S''
asbasbasbag69
(g85
g71
NtRp329
(dp330
g74
(dp331
sg83
g283
sg76
(lp332
g69
(g90
g71
NtRp333
(dp334
g74
(dp335
g94
g95
ssg83
g329
sg76
(lp336
S'expires'
p337
asbag69
(g90
g71
NtRp338
(dp339
g74
(dp340
g101
g102
ssg83
g329
sg76
(lp341
S':'
asbag69
(g90
g71
NtRp342
(dp343
g74
(dp344
sg83
g329
sg76
(lp345
g69
(g70
g71
NtRp346
(dp347
g74
(dp348
g82
I3
ssg83
g342
sg76
(lp349
S''
asbasbasbag69
(g85
g71
NtRp350
(dp351
g74
(dp352
sg83
g283
sg76
(lp353
g69
(g90
g71
NtRp354
(dp355
g74
(dp356
g94
g95
ssg83
g350
sg76
(lp357
S'httponly'
p358
asbag69
(g90
g71
NtRp359
(dp360
g74
(dp361
g101
g102
ssg83
g350
sg76
(lp362
S':'
asbag69
(g90
g71
NtRp363
(dp364
g74
(dp365
sg83
g350
sg76
(lp366
g69
(g70
g71
NtRp367
(dp368
g74
(dp369
g82
I3
ssg83
g363
sg76
(lp370
S''
asbasbasbag69
(g85
g71
NtRp371
(dp372
g74
(dp373
sg83
g283
sg76
(lp374
g69
(g90
g71
NtRp375
(dp376
g74
(dp377
g94
g95
ssg83
g371
sg76
(lp378
S'max-age'
p379
asbag69
(g90
g71
NtRp380
(dp381
g74
(dp382
g101
g102
ssg83
g371
sg76
(lp383
S':'
asbag69
(g90
g71
NtRp384
(dp385
g74
(dp386
sg83
g371
sg76
(lp387
g69
(g70
g71
NtRp388
(dp389
g74
(dp390
g82
I3
ssg83
g384
sg76
(lp391
S''
asbasbasbag69
(g85
g71
NtRp392
(dp393
g74
(dp394
sg83
g283
sg76
(lp395
g69
(g90
g71
NtRp396
(dp397
g74
(dp398
g94
g95
ssg83
g392
sg76
(lp399
S'path'
p400
asbag69
(g90
g71
NtRp401
(dp402
g74
(dp403
g101
g102
ssg83
g392
sg76
(lp404
S':'
asbag69
(g90
g71
NtRp405
(dp406
g74
(dp407
sg83
g392
sg76
(lp408
g69
(g70
g71
NtRp409
(dp410
g74
(dp411
g82
I3
ssg83
g405
sg76
(lp412
S''
asbasbasbag69
(g85
g71
NtRp413
(dp414
g74
(dp415
sg83
g283
sg76
(lp416
g69
(g90
g71
NtRp417
(dp418
g74
(dp419
g94
g95
ssg83
g413
sg76
(lp420
S'secure'
p421
asbag69
(g90
g71
NtRp422
(dp423
g74
(dp424
g101
g102
ssg83
g413
sg76
(lp425
S':'
asbag69
(g90
g71
NtRp426
(dp427
g74
(dp428
sg83
g413
sg76
(lp429
g69
(g70
g71
NtRp430
(dp431
g74
(dp432
g82
I3
ssg83
g426
sg76
(lp433
S''
asbasbasbag69
(g85
g71
NtRp434
(dp435
g74
(dp436
sg83
g283
sg76
(lp437
g69
(g90
g71
NtRp438
(dp439
g74
(dp440
g94
g95
ssg83
g434
sg76
(lp441
S'version'
p442
asbag69
(g90
g71
NtRp443
(dp444
g74
(dp445
g101
g102
ssg83
g434
sg76
(lp446
S':'
asbag69
(g90
g71
NtRp447
(dp448
g74
(dp449
sg83
g434
sg76
(lp450
g69
(g70
g71
NtRp451
(dp452
g74
(dp453
g82
I3
ssg83
g447
sg76
(lp454
S''
asbasbasbasbasbasbasbag69
(g85
g71
NtRp455
(dp456
g74
(dp457
sg83
g258
sg76
(lp458
g69
(g90
g71
NtRp459
(dp460
g74
(dp461
g94
g95
ssg83
g455
sg76
(lp462
S'session_id_read_it'
p463
asbag69
(g90
g71
NtRp464
(dp465
g74
(dp466
g101
g102
ssg83
g455
sg76
(lp467
S':'
asbag69
(g90
g71
NtRp468
(dp469
g74
(dp470
sg83
g455
sg76
(lp471
g69
(g70
g71
NtRp472
(dp473
g74
(dp474
g82
I4
ssg83
g468
sg76
(lp475
g69
(g78
g71
NtRp476
(dp477
g74
(dp478
g82
I3
ssg83
Nsg76
(lp479
g69
(g85
g71
NtRp480
(dp481
g74
(dp482
sg83
g476
sg76
(lp483
g69
(g90
g71
NtRp484
(dp485
g74
(dp486
g94
g95
ssg83
g480
sg76
(lp487
g295
asbag69
(g90
g71
NtRp488
(dp489
g74
(dp490
g101
g102
ssg83
g480
sg76
(lp491
S':'
asbag69
(g90
g71
NtRp492
(dp493
g74
(dp494
sg83
g480
sg76
(lp495
g69
(g70
g71
NtRp496
(dp497
g74
(dp498
g82
I3
ssg83
g492
sg76
(lp499
S''
asbasbasbag69
(g85
g71
NtRp500
(dp501
g74
(dp502
sg83
g476
sg76
(lp503
g69
(g90
g71
NtRp504
(dp505
g74
(dp506
g94
g95
ssg83
g500
sg76
(lp507
g316
asbag69
(g90
g71
NtRp508
(dp509
g74
(dp510
g101
g102
ssg83
g500
sg76
(lp511
S':'
asbag69
(g90
g71
NtRp512
(dp513
g74
(dp514
sg83
g500
sg76
(lp515
g69
(g70
g71
NtRp516
(dp517
g74
(dp518
g82
I3
ssg83
g512
sg76
(lp519
S''
asbasbasbag69
(g85
g71
NtRp520
(dp521
g74
(dp522
sg83
g476
sg76
(lp523
g69
(g90
g71
NtRp524
(dp525
g74
(dp526
g94
g95
ssg83
g520
sg76
(lp527
g337
asbag69
(g90
g71
NtRp528
(dp529
g74
(dp530
g101
g102
ssg83
g520
sg76
(lp531
S':'
asbag69
(g90
g71
NtRp532
(dp533
g74
(dp534
sg83
g520
sg76
(lp535
g69
(g70
g71
NtRp536
(dp537
g74
(dp538
g82
I3
ssg83
g532
sg76
(lp539
S''
asbasbasbag69
(g85
g71
NtRp540
(dp541
g74
(dp542
sg83
g476
sg76
(lp543
g69
(g90
g71
NtRp544
(dp545
g74
(dp546
g94
g95
ssg83
g540
sg76
(lp547
g358
asbag69
(g90
g71
NtRp548
(dp549
g74
(dp550
g101
g102
ssg83
g540
sg76
(lp551
S':'
asbag69
(g90
g71
NtRp552
(dp553
g74
(dp554
sg83
g540
sg76
(lp555
g69
(g70
g71
NtRp556
(dp557
g74
(dp558
g82
I3
ssg83
g552
sg76
(lp559
S''
asbasbasbag69
(g85
g71
NtRp560
(dp561
g74
(dp562
sg83
g476
sg76
(lp563
g69
(g90
g71
NtRp564
(dp565
g74
(dp566
g94
g95
ssg83
g560
sg76
(lp567
g379
asbag69
(g90
g71
NtRp568
(dp569
g74
(dp570
g101
g102
ssg83
g560
sg76
(lp571
S':'
asbag69
(g90
g71
NtRp572
(dp573
g74
(dp574
sg83
g560
sg76
(lp575
g69
(g70
g71
NtRp576
(dp577
g74
(dp578
g82
I3
ssg83
g572
sg76
(lp579
S''
asbasbasbag69
(g85
g71
NtRp580
(dp581
g74
(dp582
sg83
g476
sg76
(lp583
g69
(g90
g71
NtRp584
(dp585
g74
(dp586
g94
g95
ssg83
g580
sg76
(lp587
g400
asbag69
(g90
g71
NtRp588
(dp589
g74
(dp590
g101
g102
ssg83
g580
sg76
(lp591
S':'
asbag69
(g90
g71
NtRp592
(dp593
g74
(dp594
sg83
g580
sg76
(lp595
g69
(g70
g71
NtRp596
(dp597
g74
(dp598
g82
I3
ssg83
g592
sg76
(lp599
S''
asbasbasbag69
(g85
g71
NtRp600
(dp601
g74
(dp602
sg83
g476
sg76
(lp603
g69
(g90
g71
NtRp604
(dp605
g74
(dp606
g94
g95
ssg83
g600
sg76
(lp607
g421
asbag69
(g90
g71
NtRp608
(dp609
g74
(dp610
g101
g102
ssg83
g600
sg76
(lp611
S':'
asbag69
(g90
g71
NtRp612
(dp613
g74
(dp614
sg83
g600
sg76
(lp615
g69
(g70
g71
NtRp616
(dp617
g74
(dp618
g82
I3
ssg83
g612
sg76
(lp619
S''
asbasbasbag69
(g85
g71
NtRp620
(dp621
g74
(dp622
sg83
g476
sg76
(lp623
g69
(g90
g71
NtRp624
(dp625
g74
(dp626
g94
g95
ssg83
g620
sg76
(lp627
g442
asbag69
(g90
g71
NtRp628
(dp629
g74
(dp630
g101
g102
ssg83
g620
sg76
(lp631
S':'
asbag69
(g90
g71
NtRp632
(dp633
g74
(dp634
sg83
g620
sg76
(lp635
g69
(g70
g71
NtRp636
(dp637
g74
(dp638
g82
I3
ssg83
g632
sg76
(lp639
S''
asbasbasbasbasbasbasbasbasbasbasbag69
(g85
g71
NtRp640
(dp641
g74
(dp642
sg83
g79
sg76
(lp643
g69
(g90
g71
NtRp644
(dp645
g74
(dp646
g94
g95
ssg83
g640
sg76
(lp647
S'env'
p648
asbag69
(g90
g71
NtRp649
(dp650
g74
(dp651
g101
g102
ssg83
g640
sg76
(lp652
S':'
asbag69
(g90
g71
NtRp653
(dp654
g74
(dp655
sg83
g640
sg76
(lp656
g69
(g70
g71
NtRp657
(dp658
g74
(dp659
g82
I5
ssg83
g653
sg76
(lp660
g69
(g78
g71
NtRp661
(dp662
g74
(dp663
g82
I4
ssg83
Nsg76
(lp664
g69
(g85
g71
NtRp665
(dp666
g74
(dp667
sg83
g661
sg76
(lp668
g69
(g90
g71
NtRp669
(dp670
g74
(dp671
g94
g95
ssg83
g665
sg76
(lp672
S'app_folders'
p673
asbag69
(g90
g71
NtRp674
(dp675
g74
(dp676
g101
g102
ssg83
g665
sg76
(lp677
S':'
asbag69
(g90
g71
NtRp678
(dp679
g74
(dp680
sg83
g665
sg76
(lp681
g69
(g70
g71
NtRp682
(dp683
g74
(dp684
g82
I4
ssg83
g678
sg76
(lp685
S"set(['/home/ds-iiit/web2py/applications/Read_it/', '/home/ds-iiit/web2py/applications/welcome/', '/home/ds-iiit/web2py/applications/admin/'])"
p686
asbasbasbag69
(g85
g71
NtRp687
(dp688
g74
(dp689
sg83
g661
sg76
(lp690
g69
(g90
g71
NtRp691
(dp692
g74
(dp693
g94
g95
ssg83
g687
sg76
(lp694
S'applications_parent'
p695
asbag69
(g90
g71
NtRp696
(dp697
g74
(dp698
g101
g102
ssg83
g687
sg76
(lp699
S':'
asbag69
(g90
g71
NtRp700
(dp701
g74
(dp702
sg83
g687
sg76
(lp703
g69
(g70
g71
NtRp704
(dp705
g74
(dp706
g82
I4
ssg83
g700
sg76
(lp707
S'/home/ds-iiit/web2py'
p708
asbasbasbag69
(g85
g71
NtRp709
(dp710
g74
(dp711
sg83
g661
sg76
(lp712
g69
(g90
g71
NtRp713
(dp714
g74
(dp715
g94
g95
ssg83
g709
sg76
(lp716
S'cmd_args'
p717
asbag69
(g90
g71
NtRp718
(dp719
g74
(dp720
g101
g102
ssg83
g709
sg76
(lp721
S':'
asbag69
(g90
g71
NtRp722
(dp723
g74
(dp724
sg83
g709
sg76
(lp725
g69
(g70
g71
NtRp726
(dp727
g74
(dp728
g82
I4
ssg83
g722
sg76
(lp729
g69
(g78
g71
NtRp730
(dp731
g74
(dp732
g82
I3
ssg83
Nsg76
(lp733
sbasbasbasbag69
(g85
g71
NtRp734
(dp735
g74
(dp736
sg83
g661
sg76
(lp737
g69
(g90
g71
NtRp738
(dp739
g74
(dp740
g94
g95
ssg83
g734
sg76
(lp741
S'cmd_options'
p742
asbag69
(g90
g71
NtRp743
(dp744
g74
(dp745
g101
g102
ssg83
g734
sg76
(lp746
S':'
asbag69
(g90
g71
NtRp747
(dp748
g74
(dp749
sg83
g734
sg76
(lp750
g69
(g70
g71
NtRp751
(dp752
g74
(dp753
g82
I4
ssg83
g747
sg76
(lp754
S"<Values at 0x2adbb00: {'verbose': False, 'ip': '127.0.0.1', 'shutdown_timeout': 5, 'taskbar': False, 'port': 8000, 'maxthreads': None, 'softcron': False, 'server_name': 'DS-IIIT', 'bpython': False, 'nogui': False, 'nocron': False, 'extcron': False, 'debuglevel': 30, 'test': None, 'folder': '/home/ds-iiit/web2py', 'config': '', 'import_models': False, 'winservice': '', 'shell': None, 'run': '', 'log_filename': 'httpserver.log', 'args': [''], 'socket_timeout': 1, 'profiler_filename': None, 'ssl_private_key': '', 'password': '<ask>', 'request_queue_size': 5, 'ssl_certificate': '', 'cronjob': False, 'plain': False, 'quiet': False, 'interfaces': None, 'minthreads': None, 'timeout': 10, 'numthreads': None, 'nobanner': False, 'pid_filename': 'httpserver.pid'}>"
p755
asbasbasbag69
(g85
g71
NtRp756
(dp757
g74
(dp758
sg83
g661
sg76
(lp759
g69
(g90
g71
NtRp760
(dp761
g74
(dp762
g94
g95
ssg83
g756
sg76
(lp763
S'db_sessions'
p764
asbag69
(g90
g71
NtRp765
(dp766
g74
(dp767
g101
g102
ssg83
g756
sg76
(lp768
S':'
asbag69
(g90
g71
NtRp769
(dp770
g74
(dp771
sg83
g756
sg76
(lp772
g69
(g70
g71
NtRp773
(dp774
g74
(dp775
g82
I4
ssg83
g769
sg76
(lp776
S'set([])'
p777
asbasbasbag69
(g85
g71
NtRp778
(dp779
g74
(dp780
sg83
g661
sg76
(lp781
g69
(g90
g71
NtRp782
(dp783
g74
(dp784
g94
g95
ssg83
g778
sg76
(lp785
S'debugging'
p786
asbag69
(g90
g71
NtRp787
(dp788
g74
(dp789
g101
g102
ssg83
g778
sg76
(lp790
S':'
asbag69
(g90
g71
NtRp791
(dp792
g74
(dp793
sg83
g778
sg76
(lp794
g69
(g70
g71
NtRp795
(dp796
g74
(dp797
g82
I4
ssg83
g791
sg76
(lp798
g112
asbasbasbag69
(g85
g71
NtRp799
(dp800
g74
(dp801
sg83
g661
sg76
(lp802
g69
(g90
g71
NtRp803
(dp804
g74
(dp805
g94
g95
ssg83
g799
sg76
(lp806
S'gluon_parent'
p807
asbag69
(g90
g71
NtRp808
(dp809
g74
(dp810
g101
g102
ssg83
g799
sg76
(lp811
S':'
asbag69
(g90
g71
NtRp812
(dp813
g74
(dp814
sg83
g799
sg76
(lp815
g69
(g70
g71
NtRp816
(dp817
g74
(dp818
g82
I4
ssg83
g812
sg76
(lp819
S'/usr/share/web2py'
p820
asbasbasbag69
(g85
g71
NtRp821
(dp822
g74
(dp823
sg83
g661
sg76
(lp824
g69
(g90
g71
NtRp825
(dp826
g74
(dp827
g94
g95
ssg83
g821
sg76
(lp828
S'http_accept'
p829
asbag69
(g90
g71
NtRp830
(dp831
g74
(dp832
g101
g102
ssg83
g821
sg76
(lp833
S':'
asbag69
(g90
g71
NtRp834
(dp835
g74
(dp836
sg83
g821
sg76
(lp837
g69
(g70
g71
NtRp838
(dp839
g74
(dp840
g82
I4
ssg83
g834
sg76
(lp841
S'text/html,application/xhtml+xml,application/xml;q=0.9,*/*;q=0.8'
p842
asbasbasbag69
(g85
g71
NtRp843
(dp844
g74
(dp845
sg83
g661
sg76
(lp846
g69
(g90
g71
NtRp847
(dp848
g74
(dp849
g94
g95
ssg83
g843
sg76
(lp850
S'http_accept_encoding'
p851
asbag69
(g90
g71
NtRp852
(dp853
g74
(dp854
g101
g102
ssg83
g843
sg76
(lp855
S':'
asbag69
(g90
g71
NtRp856
(dp857
g74
(dp858
sg83
g843
sg76
(lp859
g69
(g70
g71
NtRp860
(dp861
g74
(dp862
g82
I4
ssg83
g856
sg76
(lp863
S'gzip, deflate'
p864
asbasbasbag69
(g85
g71
NtRp865
(dp866
g74
(dp867
sg83
g661
sg76
(lp868
g69
(g90
g71
NtRp869
(dp870
g74
(dp871
g94
g95
ssg83
g865
sg76
(lp872
S'http_accept_language'
p873
asbag69
(g90
g71
NtRp874
(dp875
g74
(dp876
g101
g102
ssg83
g865
sg76
(lp877
S':'
asbag69
(g90
g71
NtRp878
(dp879
g74
(dp880
sg83
g865
sg76
(lp881
g69
(g70
g71
NtRp882
(dp883
g74
(dp884
g82
I4
ssg83
g878
sg76
(lp885
S'en-US,en;q=0.5'
p886
asbasbasbag69
(g85
g71
NtRp887
(dp888
g74
(dp889
sg83
g661
sg76
(lp890
g69
(g90
g71
NtRp891
(dp892
g74
(dp893
g94
g95
ssg83
g887
sg76
(lp894
S'http_cache_control'
p895
asbag69
(g90
g71
NtRp896
(dp897
g74
(dp898
g101
g102
ssg83
g887
sg76
(lp899
S':'
asbag69
(g90
g71
NtRp900
(dp901
g74
(dp902
sg83
g887
sg76
(lp903
g69
(g70
g71
NtRp904
(dp905
g74
(dp906
g82
I4
ssg83
g900
sg76
(lp907
S'max-age=0'
p908
asbasbasbag69
(g85
g71
NtRp909
(dp910
g74
(dp911
sg83
g661
sg76
(lp912
g69
(g90
g71
NtRp913
(dp914
g74
(dp915
g94
g95
ssg83
g909
sg76
(lp916
S'http_connection'
p917
asbag69
(g90
g71
NtRp918
(dp919
g74
(dp920
g101
g102
ssg83
g909
sg76
(lp921
S':'
asbag69
(g90
g71
NtRp922
(dp923
g74
(dp924
sg83
g909
sg76
(lp925
g69
(g70
g71
NtRp926
(dp927
g74
(dp928
g82
I4
ssg83
g922
sg76
(lp929
S'keep-alive'
p930
asbasbasbag69
(g85
g71
NtRp931
(dp932
g74
(dp933
sg83
g661
sg76
(lp934
g69
(g90
g71
NtRp935
(dp936
g74
(dp937
g94
g95
ssg83
g931
sg76
(lp938
S'http_cookie'
p939
asbag69
(g90
g71
NtRp940
(dp941
g74
(dp942
g101
g102
ssg83
g931
sg76
(lp943
S':'
asbag69
(g90
g71
NtRp944
(dp945
g74
(dp946
sg83
g931
sg76
(lp947
g69
(g70
g71
NtRp948
(dp949
g74
(dp950
g82
I4
ssg83
g944
sg76
(lp951
S'session_id_read_it=127.0.0.1-3b306805-b0b8-4f0a-8f0e-2c710fd6d755; session_id_admin=127.0.0.1-b0d414bb-449e-4a00-b0e1-47ca5bec38b4'
p952
asbasbasbag69
(g85
g71
NtRp953
(dp954
g74
(dp955
sg83
g661
sg76
(lp956
g69
(g90
g71
NtRp957
(dp958
g74
(dp959
g94
g95
ssg83
g953
sg76
(lp960
S'http_host'
p961
asbag69
(g90
g71
NtRp962
(dp963
g74
(dp964
g101
g102
ssg83
g953
sg76
(lp965
S':'
asbag69
(g90
g71
NtRp966
(dp967
g74
(dp968
sg83
g953
sg76
(lp969
g69
(g70
g71
NtRp970
(dp971
g74
(dp972
g82
I4
ssg83
g966
sg76
(lp973
S'127.0.0.1:8001'
p974
asbasbasbag69
(g85
g71
NtRp975
(dp976
g74
(dp977
sg83
g661
sg76
(lp978
g69
(g90
g71
NtRp979
(dp980
g74
(dp981
g94
g95
ssg83
g975
sg76
(lp982
S'http_user_agent'
p983
asbag69
(g90
g71
NtRp984
(dp985
g74
(dp986
g101
g102
ssg83
g975
sg76
(lp987
S':'
asbag69
(g90
g71
NtRp988
(dp989
g74
(dp990
sg83
g975
sg76
(lp991
g69
(g70
g71
NtRp992
(dp993
g74
(dp994
g82
I4
ssg83
g988
sg76
(lp995
S'Mozilla/5.0 (X11; Ubuntu; Linux x86_64; rv:23.0) Gecko/20100101 Firefox/23.0'
p996
asbasbasbag69
(g85
g71
NtRp997
(dp998
g74
(dp999
sg83
g661
sg76
(lp1000
g69
(g90
g71
NtRp1001
(dp1002
g74
(dp1003
g94
g95
ssg83
g997
sg76
(lp1004
S'is_jython'
p1005
asbag69
(g90
g71
NtRp1006
(dp1007
g74
(dp1008
g101
g102
ssg83
g997
sg76
(lp1009
S':'
asbag69
(g90
g71
NtRp1010
(dp1011
g74
(dp1012
sg83
g997
sg76
(lp1013
g69
(g70
g71
NtRp1014
(dp1015
g74
(dp1016
g82
I4
ssg83
g1010
sg76
(lp1017
g112
asbasbasbag69
(g85
g71
NtRp1018
(dp1019
g74
(dp1020
sg83
g661
sg76
(lp1021
g69
(g90
g71
NtRp1022
(dp1023
g74
(dp1024
g94
g95
ssg83
g1018
sg76
(lp1025
S'is_pypy'
p1026
asbag69
(g90
g71
NtRp1027
(dp1028
g74
(dp1029
g101
g102
ssg83
g1018
sg76
(lp1030
S':'
asbag69
(g90
g71
NtRp1031
(dp1032
g74
(dp1033
sg83
g1018
sg76
(lp1034
g69
(g70
g71
NtRp1035
(dp1036
g74
(dp1037
g82
I4
ssg83
g1031
sg76
(lp1038
g112
asbasbasbag69
(g85
g71
NtRp1039
(dp1040
g74
(dp1041
sg83
g661
sg76
(lp1042
g69
(g90
g71
NtRp1043
(dp1044
g74
(dp1045
g94
g95
ssg83
g1039
sg76
(lp1046
S'path_info'
p1047
asbag69
(g90
g71
NtRp1048
(dp1049
g74
(dp1050
g101
g102
ssg83
g1039
sg76
(lp1051
S':'
asbag69
(g90
g71
NtRp1052
(dp1053
g74
(dp1054
sg83
g1039
sg76
(lp1055
g69
(g70
g71
NtRp1056
(dp1057
g74
(dp1058
g82
I4
ssg83
g1052
sg76
(lp1059
S'/Read_it/default/comments/4'
p1060
asbasbasbag69
(g85
g71
NtRp1061
(dp1062
g74
(dp1063
sg83
g661
sg76
(lp1064
g69
(g90
g71
NtRp1065
(dp1066
g74
(dp1067
g94
g95
ssg83
g1061
sg76
(lp1068
S'query_string'
p1069
asbag69
(g90
g71
NtRp1070
(dp1071
g74
(dp1072
g101
g102
ssg83
g1061
sg76
(lp1073
S':'
asbag69
(g90
g71
NtRp1074
(dp1075
g74
(dp1076
sg83
g1061
sg76
(lp1077
g69
(g70
g71
NtRp1078
(dp1079
g74
(dp1080
g82
I4
ssg83
g1074
sg76
(lp1081
S''
asbasbasbag69
(g85
g71
NtRp1082
(dp1083
g74
(dp1084
sg83
g661
sg76
(lp1085
g69
(g90
g71
NtRp1086
(dp1087
g74
(dp1088
g94
g95
ssg83
g1082
sg76
(lp1089
S'remote_addr'
p1090
asbag69
(g90
g71
NtRp1091
(dp1092
g74
(dp1093
g101
g102
ssg83
g1082
sg76
(lp1094
S':'
asbag69
(g90
g71
NtRp1095
(dp1096
g74
(dp1097
sg83
g1082
sg76
(lp1098
g69
(g70
g71
NtRp1099
(dp1100
g74
(dp1101
g82
I4
ssg83
g1095
sg76
(lp1102
g214
asbasbasbag69
(g85
g71
NtRp1103
(dp1104
g74
(dp1105
sg83
g661
sg76
(lp1106
g69
(g90
g71
NtRp1107
(dp1108
g74
(dp1109
g94
g95
ssg83
g1103
sg76
(lp1110
S'remote_port'
p1111
asbag69
(g90
g71
NtRp1112
(dp1113
g74
(dp1114
g101
g102
ssg83
g1103
sg76
(lp1115
S':'
asbag69
(g90
g71
NtRp1116
(dp1117
g74
(dp1118
sg83
g1103
sg76
(lp1119
g69
(g70
g71
NtRp1120
(dp1121
g74
(dp1122
g82
I4
ssg83
g1116
sg76
(lp1123
S'36973'
p1124
asbasbasbag69
(g85
g71
NtRp1125
(dp1126
g74
(dp1127
sg83
g661
sg76
(lp1128
g69
(g90
g71
NtRp1129
(dp1130
g74
(dp1131
g94
g95
ssg83
g1125
sg76
(lp1132
S'request_method'
p1133
asbag69
(g90
g71
NtRp1134
(dp1135
g74
(dp1136
g101
g102
ssg83
g1125
sg76
(lp1137
S':'
asbag69
(g90
g71
NtRp1138
(dp1139
g74
(dp1140
sg83
g1125
sg76
(lp1141
g69
(g70
g71
NtRp1142
(dp1143
g74
(dp1144
g82
I4
ssg83
g1138
sg76
(lp1145
S'GET'
p1146
asbasbasbag69
(g85
g71
NtRp1147
(dp1148
g74
(dp1149
sg83
g661
sg76
(lp1150
g69
(g90
g71
NtRp1151
(dp1152
g74
(dp1153
g94
g95
ssg83
g1147
sg76
(lp1154
S'script_name'
p1155
asbag69
(g90
g71
NtRp1156
(dp1157
g74
(dp1158
g101
g102
ssg83
g1147
sg76
(lp1159
S':'
asbag69
(g90
g71
NtRp1160
(dp1161
g74
(dp1162
sg83
g1147
sg76
(lp1163
g69
(g70
g71
NtRp1164
(dp1165
g74
(dp1166
g82
I4
ssg83
g1160
sg76
(lp1167
S''
asbasbasbag69
(g85
g71
NtRp1168
(dp1169
g74
(dp1170
sg83
g661
sg76
(lp1171
g69
(g90
g71
NtRp1172
(dp1173
g74
(dp1174
g94
g95
ssg83
g1168
sg76
(lp1175
S'server_name'
p1176
asbag69
(g90
g71
NtRp1177
(dp1178
g74
(dp1179
g101
g102
ssg83
g1168
sg76
(lp1180
S':'
asbag69
(g90
g71
NtRp1181
(dp1182
g74
(dp1183
sg83
g1168
sg76
(lp1184
g69
(g70
g71
NtRp1185
(dp1186
g74
(dp1187
g82
I4
ssg83
g1181
sg76
(lp1188
S'DS-IIIT'
p1189
asbasbasbag69
(g85
g71
NtRp1190
(dp1191
g74
(dp1192
sg83
g661
sg76
(lp1193
g69
(g90
g71
NtRp1194
(dp1195
g74
(dp1196
g94
g95
ssg83
g1190
sg76
(lp1197
S'server_port'
p1198
asbag69
(g90
g71
NtRp1199
(dp1200
g74
(dp1201
g101
g102
ssg83
g1190
sg76
(lp1202
S':'
asbag69
(g90
g71
NtRp1203
(dp1204
g74
(dp1205
sg83
g1190
sg76
(lp1206
g69
(g70
g71
NtRp1207
(dp1208
g74
(dp1209
g82
I4
ssg83
g1203
sg76
(lp1210
S'8001'
p1211
asbasbasbag69
(g85
g71
NtRp1212
(dp1213
g74
(dp1214
sg83
g661
sg76
(lp1215
g69
(g90
g71
NtRp1216
(dp1217
g74
(dp1218
g94
g95
ssg83
g1212
sg76
(lp1219
S'server_protocol'
p1220
asbag69
(g90
g71
NtRp1221
(dp1222
g74
(dp1223
g101
g102
ssg83
g1212
sg76
(lp1224
S':'
asbag69
(g90
g71
NtRp1225
(dp1226
g74
(dp1227
sg83
g1212
sg76
(lp1228
g69
(g70
g71
NtRp1229
(dp1230
g74
(dp1231
g82
I4
ssg83
g1225
sg76
(lp1232
S'HTTP/1.1'
p1233
asbasbasbag69
(g85
g71
NtRp1234
(dp1235
g74
(dp1236
sg83
g661
sg76
(lp1237
g69
(g90
g71
NtRp1238
(dp1239
g74
(dp1240
g94
g95
ssg83
g1234
sg76
(lp1241
S'server_software'
p1242
asbag69
(g90
g71
NtRp1243
(dp1244
g74
(dp1245
g101
g102
ssg83
g1234
sg76
(lp1246
S':'
asbag69
(g90
g71
NtRp1247
(dp1248
g74
(dp1249
sg83
g1234
sg76
(lp1250
g69
(g70
g71
NtRp1251
(dp1252
g74
(dp1253
g82
I4
ssg83
g1247
sg76
(lp1254
S'Rocket 1.2.4'
p1255
asbasbasbag69
(g85
g71
NtRp1256
(dp1257
g74
(dp1258
sg83
g661
sg76
(lp1259
g69
(g90
g71
NtRp1260
(dp1261
g74
(dp1262
g94
g95
ssg83
g1256
sg76
(lp1263
S'web2py_crontype'
p1264
asbag69
(g90
g71
NtRp1265
(dp1266
g74
(dp1267
g101
g102
ssg83
g1256
sg76
(lp1268
S':'
asbag69
(g90
g71
NtRp1269
(dp1270
g74
(dp1271
sg83
g1256
sg76
(lp1272
g69
(g70
g71
NtRp1273
(dp1274
g74
(dp1275
g82
I4
ssg83
g1269
sg76
(lp1276
S'hard'
p1277
asbasbasbag69
(g85
g71
NtRp1278
(dp1279
g74
(dp1280
sg83
g661
sg76
(lp1281
g69
(g90
g71
NtRp1282
(dp1283
g74
(dp1284
g94
g95
ssg83
g1278
sg76
(lp1285
S'web2py_path'
p1286
asbag69
(g90
g71
NtRp1287
(dp1288
g74
(dp1289
g101
g102
ssg83
g1278
sg76
(lp1290
S':'
asbag69
(g90
g71
NtRp1291
(dp1292
g74
(dp1293
sg83
g1278
sg76
(lp1294
g69
(g70
g71
NtRp1295
(dp1296
g74
(dp1297
g82
I4
ssg83
g1291
sg76
(lp1298
g708
asbasbasbag69
(g85
g71
NtRp1299
(dp1300
g74
(dp1301
sg83
g661
sg76
(lp1302
g69
(g90
g71
NtRp1303
(dp1304
g74
(dp1305
g94
g95
ssg83
g1299
sg76
(lp1306
S'web2py_version'
p1307
asbag69
(g90
g71
NtRp1308
(dp1309
g74
(dp1310
g101
g102
ssg83
g1299
sg76
(lp1311
S':'
asbag69
(g90
g71
NtRp1312
(dp1313
g74
(dp1314
sg83
g1299
sg76
(lp1315
g69
(g70
g71
NtRp1316
(dp1317
g74
(dp1318
g82
I4
ssg83
g1312
sg76
(lp1319
g69
(g78
g71
NtRp1320
(dp1321
g74
(dp1322
g82
I3
ssg83
Nsg76
(lp1323
g69
(g85
g71
NtRp1324
(dp1325
g74
(dp1326
sg83
g1320
sg76
(lp1327
g69
(g90
g71
NtRp1328
(dp1329
g74
(dp1330
sg83
g1324
sg76
(lp1331
g69
(g70
g71
NtRp1332
(dp1333
g74
(dp1334
g82
I3
ssg83
g1328
sg76
(lp1335
S'1'
asbasbasbag69
(g85
g71
NtRp1336
(dp1337
g74
(dp1338
sg83
g1320
sg76
(lp1339
g69
(g90
g71
NtRp1340
(dp1341
g74
(dp1342
sg83
g1336
sg76
(lp1343
g69
(g70
g71
NtRp1344
(dp1345
g74
(dp1346
g82
I3
ssg83
g1340
sg76
(lp1347
S'99'
p1348
asbasbasbag69
(g85
g71
NtRp1349
(dp1350
g74
(dp1351
sg83
g1320
sg76
(lp1352
g69
(g90
g71
NtRp1353
(dp1354
g74
(dp1355
sg83
g1349
sg76
(lp1356
g69
(g70
g71
NtRp1357
(dp1358
g74
(dp1359
g82
I3
ssg83
g1353
sg76
(lp1360
S'4'
asbasbasbag69
(g85
g71
NtRp1361
(dp1362
g74
(dp1363
sg83
g1320
sg76
(lp1364
g69
(g90
g71
NtRp1365
(dp1366
g74
(dp1367
sg83
g1361
sg76
(lp1368
g69
(g70
g71
NtRp1369
(dp1370
g74
(dp1371
g82
I3
ssg83
g1365
sg76
(lp1372
S'datetime.datetime(2011, 12, 14, 14, 46, 14)'
p1373
asbasbasbag69
(g85
g71
NtRp1374
(dp1375
g74
(dp1376
sg83
g1320
sg76
(lp1377
g69
(g90
g71
NtRp1378
(dp1379
g74
(dp1380
sg83
g1374
sg76
(lp1381
g69
(g70
g71
NtRp1382
(dp1383
g74
(dp1384
g82
I3
ssg83
g1378
sg76
(lp1385
S'stable'
p1386
asbasbasbasbasbasbasbag69
(g85
g71
NtRp1387
(dp1388
g74
(dp1389
sg83
g661
sg76
(lp1390
g69
(g90
g71
NtRp1391
(dp1392
g74
(dp1393
g94
g95
ssg83
g1387
sg76
(lp1394
S'wsgi_errors'
p1395
asbag69
(g90
g71
NtRp1396
(dp1397
g74
(dp1398
g101
g102
ssg83
g1387
sg76
(lp1399
S':'
asbag69
(g90
g71
NtRp1400
(dp1401
g74
(dp1402
sg83
g1387
sg76
(lp1403
g69
(g70
g71
NtRp1404
(dp1405
g74
(dp1406
g82
I4
ssg83
g1400
sg76
(lp1407
S"<open file '<stderr>', mode 'w' at 0x7fdd14f50270>"
p1408
asbasbasbag69
(g85
g71
NtRp1409
(dp1410
g74
(dp1411
sg83
g661
sg76
(lp1412
g69
(g90
g71
NtRp1413
(dp1414
g74
(dp1415
g94
g95
ssg83
g1409
sg76
(lp1416
S'wsgi_file_wrapper'
p1417
asbag69
(g90
g71
NtRp1418
(dp1419
g74
(dp1420
g101
g102
ssg83
g1409
sg76
(lp1421
S':'
asbag69
(g90
g71
NtRp1422
(dp1423
g74
(dp1424
sg83
g1409
sg76
(lp1425
g69
(g70
g71
NtRp1426
(dp1427
g74
(dp1428
g82
I4
ssg83
g1422
sg76
(lp1429
S'<class wsgiref.util.FileWrapper at 0x2a06530>'
p1430
asbasbasbag69
(g85
g71
NtRp1431
(dp1432
g74
(dp1433
sg83
g661
sg76
(lp1434
g69
(g90
g71
NtRp1435
(dp1436
g74
(dp1437
g94
g95
ssg83
g1431
sg76
(lp1438
S'wsgi_input'
p1439
asbag69
(g90
g71
NtRp1440
(dp1441
g74
(dp1442
g101
g102
ssg83
g1431
sg76
(lp1443
S':'
asbag69
(g90
g71
NtRp1444
(dp1445
g74
(dp1446
sg83
g1431
sg76
(lp1447
g69
(g70
g71
NtRp1448
(dp1449
g74
(dp1450
g82
I4
ssg83
g1444
sg76
(lp1451
S'<socket._fileobject object at 0x7fdcc03fc8d0>'
p1452
asbasbasbag69
(g85
g71
NtRp1453
(dp1454
g74
(dp1455
sg83
g661
sg76
(lp1456
g69
(g90
g71
NtRp1457
(dp1458
g74
(dp1459
g94
g95
ssg83
g1453
sg76
(lp1460
S'wsgi_multiprocess'
p1461
asbag69
(g90
g71
NtRp1462
(dp1463
g74
(dp1464
g101
g102
ssg83
g1453
sg76
(lp1465
S':'
asbag69
(g90
g71
NtRp1466
(dp1467
g74
(dp1468
sg83
g1453
sg76
(lp1469
g69
(g70
g71
NtRp1470
(dp1471
g74
(dp1472
g82
I4
ssg83
g1466
sg76
(lp1473
g112
asbasbasbag69
(g85
g71
NtRp1474
(dp1475
g74
(dp1476
sg83
g661
sg76
(lp1477
g69
(g90
g71
NtRp1478
(dp1479
g74
(dp1480
g94
g95
ssg83
g1474
sg76
(lp1481
S'wsgi_multithread'
p1482
asbag69
(g90
g71
NtRp1483
(dp1484
g74
(dp1485
g101
g102
ssg83
g1474
sg76
(lp1486
S':'
asbag69
(g90
g71
NtRp1487
(dp1488
g74
(dp1489
sg83
g1474
sg76
(lp1490
g69
(g70
g71
NtRp1491
(dp1492
g74
(dp1493
g82
I4
ssg83
g1487
sg76
(lp1494
S'True'
p1495
asbasbasbag69
(g85
g71
NtRp1496
(dp1497
g74
(dp1498
sg83
g661
sg76
(lp1499
g69
(g90
g71
NtRp1500
(dp1501
g74
(dp1502
g94
g95
ssg83
g1496
sg76
(lp1503
S'wsgi_run_once'
p1504
asbag69
(g90
g71
NtRp1505
(dp1506
g74
(dp1507
g101
g102
ssg83
g1496
sg76
(lp1508
S':'
asbag69
(g90
g71
NtRp1509
(dp1510
g74
(dp1511
sg83
g1496
sg76
(lp1512
g69
(g70
g71
NtRp1513
(dp1514
g74
(dp1515
g82
I4
ssg83
g1509
sg76
(lp1516
g112
asbasbasbag69
(g85
g71
NtRp1517
(dp1518
g74
(dp1519
sg83
g661
sg76
(lp1520
g69
(g90
g71
NtRp1521
(dp1522
g74
(dp1523
g94
g95
ssg83
g1517
sg76
(lp1524
S'wsgi_url_scheme'
p1525
asbag69
(g90
g71
NtRp1526
(dp1527
g74
(dp1528
g101
g102
ssg83
g1517
sg76
(lp1529
S':'
asbag69
(g90
g71
NtRp1530
(dp1531
g74
(dp1532
sg83
g1517
sg76
(lp1533
g69
(g70
g71
NtRp1534
(dp1535
g74
(dp1536
g82
I4
ssg83
g1530
sg76
(lp1537
S'http'
p1538
asbasbasbag69
(g85
g71
NtRp1539
(dp1540
g74
(dp1541
sg83
g661
sg76
(lp1542
g69
(g90
g71
NtRp1543
(dp1544
g74
(dp1545
g94
g95
ssg83
g1539
sg76
(lp1546
S'wsgi_version'
p1547
asbag69
(g90
g71
NtRp1548
(dp1549
g74
(dp1550
g101
g102
ssg83
g1539
sg76
(lp1551
S':'
asbag69
(g90
g71
NtRp1552
(dp1553
g74
(dp1554
sg83
g1539
sg76
(lp1555
g69
(g70
g71
NtRp1556
(dp1557
g74
(dp1558
g82
I4
ssg83
g1552
sg76
(lp1559
g69
(g78
g71
NtRp1560
(dp1561
g74
(dp1562
g82
I3
ssg83
Nsg76
(lp1563
g69
(g85
g71
NtRp1564
(dp1565
g74
(dp1566
sg83
g1560
sg76
(lp1567
g69
(g90
g71
NtRp1568
(dp1569
g74
(dp1570
sg83
g1564
sg76
(lp1571
g69
(g70
g71
NtRp1572
(dp1573
g74
(dp1574
g82
I3
ssg83
g1568
sg76
(lp1575
S'1'
asbasbasbag69
(g85
g71
NtRp1576
(dp1577
g74
(dp1578
sg83
g1560
sg76
(lp1579
g69
(g90
g71
NtRp1580
(dp1581
g74
(dp1582
sg83
g1576
sg76
(lp1583
g69
(g70
g71
NtRp1584
(dp1585
g74
(dp1586
g82
I3
ssg83
g1580
sg76
(lp1587
S'0'
asbasbasbasbasbasbasbasbasbasbasbag69
(g85
g71
NtRp1588
(dp1589
g74
(dp1590
sg83
g79
sg76
(lp1591
g69
(g90
g71
NtRp1592
(dp1593
g74
(dp1594
g94
g95
ssg83
g1588
sg76
(lp1595
S'extension'
p1596
asbag69
(g90
g71
NtRp1597
(dp1598
g74
(dp1599
g101
g102
ssg83
g1588
sg76
(lp1600
S':'
asbag69
(g90
g71
NtRp1601
(dp1602
g74
(dp1603
sg83
g1588
sg76
(lp1604
g69
(g70
g71
NtRp1605
(dp1606
g74
(dp1607
g82
I5
ssg83
g1601
sg76
(lp1608
S'html'
p1609
asbasbasbag69
(g85
g71
NtRp1610
(dp1611
g74
(dp1612
sg83
g79
sg76
(lp1613
g69
(g90
g71
NtRp1614
(dp1615
g74
(dp1616
g94
g95
ssg83
g1610
sg76
(lp1617
S'folder'
p1618
asbag69
(g90
g71
NtRp1619
(dp1620
g74
(dp1621
g101
g102
ssg83
g1610
sg76
(lp1622
S':'
asbag69
(g90
g71
NtRp1623
(dp1624
g74
(dp1625
sg83
g1610
sg76
(lp1626
g69
(g70
g71
NtRp1627
(dp1628
g74
(dp1629
g82
I5
ssg83
g1623
sg76
(lp1630
S'/home/ds-iiit/web2py/applications/Read_it/'
p1631
asbasbasbag69
(g85
g71
NtRp1632
(dp1633
g74
(dp1634
sg83
g79
sg76
(lp1635
g69
(g90
g71
NtRp1636
(dp1637
g74
(dp1638
g94
g95
ssg83
g1632
sg76
(lp1639
S'function'
p1640
asbag69
(g90
g71
NtRp1641
(dp1642
g74
(dp1643
g101
g102
ssg83
g1632
sg76
(lp1644
S':'
asbag69
(g90
g71
NtRp1645
(dp1646
g74
(dp1647
sg83
g1632
sg76
(lp1648
g69
(g70
g71
NtRp1649
(dp1650
g74
(dp1651
g82
I5
ssg83
g1645
sg76
(lp1652
S'comments'
p1653
asbasbasbag69
(g85
g71
NtRp1654
(dp1655
g74
(dp1656
sg83
g79
sg76
(lp1657
g69
(g90
g71
NtRp1658
(dp1659
g74
(dp1660
g94
g95
ssg83
g1654
sg76
(lp1661
S'get_vars'
p1662
asbag69
(g90
g71
NtRp1663
(dp1664
g74
(dp1665
g101
g102
ssg83
g1654
sg76
(lp1666
S':'
asbag69
(g90
g71
NtRp1667
(dp1668
g74
(dp1669
sg83
g1654
sg76
(lp1670
g69
(g70
g71
NtRp1671
(dp1672
g74
(dp1673
g82
I5
ssg83
g1667
sg76
(lp1674
g69
(g78
g71
NtRp1675
(dp1676
g74
(dp1677
g82
I4
ssg83
Nsg76
(lp1678
sbasbasbasbag69
(g85
g71
NtRp1679
(dp1680
g74
(dp1681
sg83
g79
sg76
(lp1682
g69
(g90
g71
NtRp1683
(dp1684
g74
(dp1685
g94
g95
ssg83
g1679
sg76
(lp1686
S'global_settings'
p1687
asbag69
(g90
g71
NtRp1688
(dp1689
g74
(dp1690
g101
g102
ssg83
g1679
sg76
(lp1691
S':'
asbag69
(g90
g71
NtRp1692
(dp1693
g74
(dp1694
sg83
g1679
sg76
(lp1695
g69
(g70
g71
NtRp1696
(dp1697
g74
(dp1698
g82
I5
ssg83
g1692
sg76
(lp1699
g69
(g78
g71
NtRp1700
(dp1701
g74
(dp1702
g82
I4
ssg83
Nsg76
(lp1703
g69
(g85
g71
NtRp1704
(dp1705
g74
(dp1706
sg83
g1700
sg76
(lp1707
g69
(g90
g71
NtRp1708
(dp1709
g74
(dp1710
g94
g95
ssg83
g1704
sg76
(lp1711
g673
asbag69
(g90
g71
NtRp1712
(dp1713
g74
(dp1714
g101
g102
ssg83
g1704
sg76
(lp1715
S':'
asbag69
(g90
g71
NtRp1716
(dp1717
g74
(dp1718
sg83
g1704
sg76
(lp1719
g69
(g70
g71
NtRp1720
(dp1721
g74
(dp1722
g82
I4
ssg83
g1716
sg76
(lp1723
S"set(['/home/ds-iiit/web2py/applications/Read_it/', '/home/ds-iiit/web2py/applications/welcome/', '/home/ds-iiit/web2py/applications/admin/'])"
p1724
asbasbasbag69
(g85
g71
NtRp1725
(dp1726
g74
(dp1727
sg83
g1700
sg76
(lp1728
g69
(g90
g71
NtRp1729
(dp1730
g74
(dp1731
g94
g95
ssg83
g1725
sg76
(lp1732
g695
asbag69
(g90
g71
NtRp1733
(dp1734
g74
(dp1735
g101
g102
ssg83
g1725
sg76
(lp1736
S':'
asbag69
(g90
g71
NtRp1737
(dp1738
g74
(dp1739
sg83
g1725
sg76
(lp1740
g69
(g70
g71
NtRp1741
(dp1742
g74
(dp1743
g82
I4
ssg83
g1737
sg76
(lp1744
g708
asbasbasbag69
(g85
g71
NtRp1745
(dp1746
g74
(dp1747
sg83
g1700
sg76
(lp1748
g69
(g90
g71
NtRp1749
(dp1750
g74
(dp1751
g94
g95
ssg83
g1745
sg76
(lp1752
g717
asbag69
(g90
g71
NtRp1753
(dp1754
g74
(dp1755
g101
g102
ssg83
g1745
sg76
(lp1756
S':'
asbag69
(g90
g71
NtRp1757
(dp1758
g74
(dp1759
sg83
g1745
sg76
(lp1760
g69
(g70
g71
NtRp1761
(dp1762
g74
(dp1763
g82
I4
ssg83
g1757
sg76
(lp1764
g69
(g78
g71
NtRp1765
(dp1766
g74
(dp1767
g82
I3
ssg83
Nsg76
(lp1768
sbasbasbasbag69
(g85
g71
NtRp1769
(dp1770
g74
(dp1771
sg83
g1700
sg76
(lp1772
g69
(g90
g71
NtRp1773
(dp1774
g74
(dp1775
g94
g95
ssg83
g1769
sg76
(lp1776
g742
asbag69
(g90
g71
NtRp1777
(dp1778
g74
(dp1779
g101
g102
ssg83
g1769
sg76
(lp1780
S':'
asbag69
(g90
g71
NtRp1781
(dp1782
g74
(dp1783
sg83
g1769
sg76
(lp1784
g69
(g70
g71
NtRp1785
(dp1786
g74
(dp1787
g82
I4
ssg83
g1781
sg76
(lp1788
S"<Values at 0x2adbb00: {'verbose': False, 'ip': '127.0.0.1', 'shutdown_timeout': 5, 'taskbar': False, 'port': 8000, 'maxthreads': None, 'softcron': False, 'server_name': 'DS-IIIT', 'bpython': False, 'nogui': False, 'nocron': False, 'extcron': False, 'debuglevel': 30, 'test': None, 'folder': '/home/ds-iiit/web2py', 'config': '', 'import_models': False, 'winservice': '', 'shell': None, 'run': '', 'log_filename': 'httpserver.log', 'args': [''], 'socket_timeout': 1, 'profiler_filename': None, 'ssl_private_key': '', 'password': '<ask>', 'request_queue_size': 5, 'ssl_certificate': '', 'cronjob': False, 'plain': False, 'quiet': False, 'interfaces': None, 'minthreads': None, 'timeout': 10, 'numthreads': None, 'nobanner': False, 'pid_filename': 'httpserver.pid'}>"
p1789
asbasbasbag69
(g85
g71
NtRp1790
(dp1791
g74
(dp1792
sg83
g1700
sg76
(lp1793
g69
(g90
g71
NtRp1794
(dp1795
g74
(dp1796
g94
g95
ssg83
g1790
sg76
(lp1797
g764
asbag69
(g90
g71
NtRp1798
(dp1799
g74
(dp1800
g101
g102
ssg83
g1790
sg76
(lp1801
S':'
asbag69
(g90
g71
NtRp1802
(dp1803
g74
(dp1804
sg83
g1790
sg76
(lp1805
g69
(g70
g71
NtRp1806
(dp1807
g74
(dp1808
g82
I4
ssg83
g1802
sg76
(lp1809
S'set([])'
p1810
asbasbasbag69
(g85
g71
NtRp1811
(dp1812
g74
(dp1813
sg83
g1700
sg76
(lp1814
g69
(g90
g71
NtRp1815
(dp1816
g74
(dp1817
g94
g95
ssg83
g1811
sg76
(lp1818
g786
asbag69
(g90
g71
NtRp1819
(dp1820
g74
(dp1821
g101
g102
ssg83
g1811
sg76
(lp1822
S':'
asbag69
(g90
g71
NtRp1823
(dp1824
g74
(dp1825
sg83
g1811
sg76
(lp1826
g69
(g70
g71
NtRp1827
(dp1828
g74
(dp1829
g82
I4
ssg83
g1823
sg76
(lp1830
g112
asbasbasbag69
(g85
g71
NtRp1831
(dp1832
g74
(dp1833
sg83
g1700
sg76
(lp1834
g69
(g90
g71
NtRp1835
(dp1836
g74
(dp1837
g94
g95
ssg83
g1831
sg76
(lp1838
g807
asbag69
(g90
g71
NtRp1839
(dp1840
g74
(dp1841
g101
g102
ssg83
g1831
sg76
(lp1842
S':'
asbag69
(g90
g71
NtRp1843
(dp1844
g74
(dp1845
sg83
g1831
sg76
(lp1846
g69
(g70
g71
NtRp1847
(dp1848
g74
(dp1849
g82
I4
ssg83
g1843
sg76
(lp1850
g820
asbasbasbag69
(g85
g71
NtRp1851
(dp1852
g74
(dp1853
sg83
g1700
sg76
(lp1854
g69
(g90
g71
NtRp1855
(dp1856
g74
(dp1857
g94
g95
ssg83
g1851
sg76
(lp1858
g1005
asbag69
(g90
g71
NtRp1859
(dp1860
g74
(dp1861
g101
g102
ssg83
g1851
sg76
(lp1862
S':'
asbag69
(g90
g71
NtRp1863
(dp1864
g74
(dp1865
sg83
g1851
sg76
(lp1866
g69
(g70
g71
NtRp1867
(dp1868
g74
(dp1869
g82
I4
ssg83
g1863
sg76
(lp1870
g112
asbasbasbag69
(g85
g71
NtRp1871
(dp1872
g74
(dp1873
sg83
g1700
sg76
(lp1874
g69
(g90
g71
NtRp1875
(dp1876
g74
(dp1877
g94
g95
ssg83
g1871
sg76
(lp1878
g1026
asbag69
(g90
g71
NtRp1879
(dp1880
g74
(dp1881
g101
g102
ssg83
g1871
sg76
(lp1882
S':'
asbag69
(g90
g71
NtRp1883
(dp1884
g74
(dp1885
sg83
g1871
sg76
(lp1886
g69
(g70
g71
NtRp1887
(dp1888
g74
(dp1889
g82
I4
ssg83
g1883
sg76
(lp1890
g112
asbasbasbag69
(g85
g71
NtRp1891
(dp1892
g74
(dp1893
sg83
g1700
sg76
(lp1894
g69
(g90
g71
NtRp1895
(dp1896
g74
(dp1897
g94
g95
ssg83
g1891
sg76
(lp1898
g1264
asbag69
(g90
g71
NtRp1899
(dp1900
g74
(dp1901
g101
g102
ssg83
g1891
sg76
(lp1902
S':'
asbag69
(g90
g71
NtRp1903
(dp1904
g74
(dp1905
sg83
g1891
sg76
(lp1906
g69
(g70
g71
NtRp1907
(dp1908
g74
(dp1909
g82
I4
ssg83
g1903
sg76
(lp1910
g1277
asbasbasbag69
(g85
g71
NtRp1911
(dp1912
g74
(dp1913
sg83
g1700
sg76
(lp1914
g69
(g90
g71
NtRp1915
(dp1916
g74
(dp1917
g94
g95
ssg83
g1911
sg76
(lp1918
g1307
asbag69
(g90
g71
NtRp1919
(dp1920
g74
(dp1921
g101
g102
ssg83
g1911
sg76
(lp1922
S':'
asbag69
(g90
g71
NtRp1923
(dp1924
g74
(dp1925
sg83
g1911
sg76
(lp1926
g69
(g70
g71
NtRp1927
(dp1928
g74
(dp1929
g82
I4
ssg83
g1923
sg76
(lp1930
g69
(g78
g71
NtRp1931
(dp1932
g74
(dp1933
g82
I3
ssg83
Nsg76
(lp1934
g69
(g85
g71
NtRp1935
(dp1936
g74
(dp1937
sg83
g1931
sg76
(lp1938
g69
(g90
g71
NtRp1939
(dp1940
g74
(dp1941
sg83
g1935
sg76
(lp1942
g69
(g70
g71
NtRp1943
(dp1944
g74
(dp1945
g82
I3
ssg83
g1939
sg76
(lp1946
S'1'
asbasbasbag69
(g85
g71
NtRp1947
(dp1948
g74
(dp1949
sg83
g1931
sg76
(lp1950
g69
(g90
g71
NtRp1951
(dp1952
g74
(dp1953
sg83
g1947
sg76
(lp1954
g69
(g70
g71
NtRp1955
(dp1956
g74
(dp1957
g82
I3
ssg83
g1951
sg76
(lp1958
S'99'
p1959
asbasbasbag69
(g85
g71
NtRp1960
(dp1961
g74
(dp1962
sg83
g1931
sg76
(lp1963
g69
(g90
g71
NtRp1964
(dp1965
g74
(dp1966
sg83
g1960
sg76
(lp1967
g69
(g70
g71
NtRp1968
(dp1969
g74
(dp1970
g82
I3
ssg83
g1964
sg76
(lp1971
S'4'
asbasbasbag69
(g85
g71
NtRp1972
(dp1973
g74
(dp1974
sg83
g1931
sg76
(lp1975
g69
(g90
g71
NtRp1976
(dp1977
g74
(dp1978
sg83
g1972
sg76
(lp1979
g69
(g70
g71
NtRp1980
(dp1981
g74
(dp1982
g82
I3
ssg83
g1976
sg76
(lp1983
S'datetime.datetime(2011, 12, 14, 14, 46, 14)'
p1984
asbasbasbag69
(g85
g71
NtRp1985
(dp1986
g74
(dp1987
sg83
g1931
sg76
(lp1988
g69
(g90
g71
NtRp1989
(dp1990
g74
(dp1991
sg83
g1985
sg76
(lp1992
g69
(g70
g71
NtRp1993
(dp1994
g74
(dp1995
g82
I3
ssg83
g1989
sg76
(lp1996
g1386
asbasbasbasbasbasbasbasbasbasbasbag69
(g85
g71
NtRp1997
(dp1998
g74
(dp1999
sg83
g79
sg76
(lp2000
g69
(g90
g71
NtRp2001
(dp2002
g74
(dp2003
g94
g95
ssg83
g1997
sg76
(lp2004
S'is_https'
p2005
asbag69
(g90
g71
NtRp2006
(dp2007
g74
(dp2008
g101
g102
ssg83
g1997
sg76
(lp2009
S':'
asbag69
(g90
g71
NtRp2010
(dp2011
g74
(dp2012
sg83
g1997
sg76
(lp2013
g69
(g70
g71
NtRp2014
(dp2015
g74
(dp2016
g82
I5
ssg83
g2010
sg76
(lp2017
g112
asbasbasbag69
(g85
g71
NtRp2018
(dp2019
g74
(dp2020
sg83
g79
sg76
(lp2021
g69
(g90
g71
NtRp2022
(dp2023
g74
(dp2024
g94
g95
ssg83
g2018
sg76
(lp2025
S'is_local'
p2026
asbag69
(g90
g71
NtRp2027
(dp2028
g74
(dp2029
g101
g102
ssg83
g2018
sg76
(lp2030
S':'
asbag69
(g90
g71
NtRp2031
(dp2032
g74
(dp2033
sg83
g2018
sg76
(lp2034
g69
(g70
g71
NtRp2035
(dp2036
g74
(dp2037
g82
I5
ssg83
g2031
sg76
(lp2038
g1495
asbasbasbag69
(g85
g71
NtRp2039
(dp2040
g74
(dp2041
sg83
g79
sg76
(lp2042
g69
(g90
g71
NtRp2043
(dp2044
g74
(dp2045
g94
g95
ssg83
g2039
sg76
(lp2046
S'is_restful'
p2047
asbag69
(g90
g71
NtRp2048
(dp2049
g74
(dp2050
g101
g102
ssg83
g2039
sg76
(lp2051
S':'
asbag69
(g90
g71
NtRp2052
(dp2053
g74
(dp2054
sg83
g2039
sg76
(lp2055
g69
(g70
g71
NtRp2056
(dp2057
g74
(dp2058
g82
I5
ssg83
g2052
sg76
(lp2059
g112
asbasbasbag69
(g85
g71
NtRp2060
(dp2061
g74
(dp2062
sg83
g79
sg76
(lp2063
g69
(g90
g71
NtRp2064
(dp2065
g74
(dp2066
g94
g95
ssg83
g2060
sg76
(lp2067
S'now'
p2068
asbag69
(g90
g71
NtRp2069
(dp2070
g74
(dp2071
g101
g102
ssg83
g2060
sg76
(lp2072
S':'
asbag69
(g90
g71
NtRp2073
(dp2074
g74
(dp2075
sg83
g2060
sg76
(lp2076
g69
(g70
g71
NtRp2077
(dp2078
g74
(dp2079
g82
I5
ssg83
g2073
sg76
(lp2080
S'datetime.datetime(2013, 8, 30, 3, 51, 2, 715925)'
p2081
asbasbasbag69
(g85
g71
NtRp2082
(dp2083
g74
(dp2084
sg83
g79
sg76
(lp2085
g69
(g90
g71
NtRp2086
(dp2087
g74
(dp2088
g94
g95
ssg83
g2082
sg76
(lp2089
S'post_vars'
p2090
asbag69
(g90
g71
NtRp2091
(dp2092
g74
(dp2093
g101
g102
ssg83
g2082
sg76
(lp2094
S':'
asbag69
(g90
g71
NtRp2095
(dp2096
g74
(dp2097
sg83
g2082
sg76
(lp2098
g69
(g70
g71
NtRp2099
(dp2100
g74
(dp2101
g82
I5
ssg83
g2095
sg76
(lp2102
g69
(g78
g71
NtRp2103
(dp2104
g74
(dp2105
g82
I4
ssg83
Nsg76
(lp2106
sbasbasbasbag69
(g85
g71
NtRp2107
(dp2108
g74
(dp2109
sg83
g79
sg76
(lp2110
g69
(g90
g71
NtRp2111
(dp2112
g74
(dp2113
g94
g95
ssg83
g2107
sg76
(lp2114
S'raw_args'
p2115
asbag69
(g90
g71
NtRp2116
(dp2117
g74
(dp2118
g101
g102
ssg83
g2107
sg76
(lp2119
S':'
asbag69
(g90
g71
NtRp2120
(dp2121
g74
(dp2122
sg83
g2107
sg76
(lp2123
g69
(g70
g71
NtRp2124
(dp2125
g74
(dp2126
g82
I5
ssg83
g2120
sg76
(lp2127
S'4'
asbasbasbag69
(g85
g71
NtRp2128
(dp2129
g74
(dp2130
sg83
g79
sg76
(lp2131
g69
(g90
g71
NtRp2132
(dp2133
g74
(dp2134
g94
g95
ssg83
g2128
sg76
(lp2135
S'url'
p2136
asbag69
(g90
g71
NtRp2137
(dp2138
g74
(dp2139
g101
g102
ssg83
g2128
sg76
(lp2140
S':'
asbag69
(g90
g71
NtRp2141
(dp2142
g74
(dp2143
sg83
g2128
sg76
(lp2144
g69
(g70
g71
NtRp2145
(dp2146
g74
(dp2147
g82
I5
ssg83
g2141
sg76
(lp2148
S'/Read_it/default/comments/4'
p2149
asbasbasbag69
(g85
g71
NtRp2150
(dp2151
g74
(dp2152
sg83
g79
sg76
(lp2153
g69
(g90
g71
NtRp2154
(dp2155
g74
(dp2156
g94
g95
ssg83
g2150
sg76
(lp2157
S'utcnow'
p2158
asbag69
(g90
g71
NtRp2159
(dp2160
g74
(dp2161
g101
g102
ssg83
g2150
sg76
(lp2162
S':'
asbag69
(g90
g71
NtRp2163
(dp2164
g74
(dp2165
sg83
g2150
sg76
(lp2166
g69
(g70
g71
NtRp2167
(dp2168
g74
(dp2169
g82
I5
ssg83
g2163
sg76
(lp2170
S'datetime.datetime(2013, 8, 29, 22, 21, 2, 715967)'
p2171
asbasbasbag69
(g85
g71
NtRp2172
(dp2173
g74
(dp2174
sg83
g79
sg76
(lp2175
g69
(g90
g71
NtRp2176
(dp2177
g74
(dp2178
g94
g95
ssg83
g2172
sg76
(lp2179
S'uuid'
p2180
asbag69
(g90
g71
NtRp2181
(dp2182
g74
(dp2183
g101
g102
ssg83
g2172
sg76
(lp2184
S':'
asbag69
(g90
g71
NtRp2185
(dp2186
g74
(dp2187
sg83
g2172
sg76
(lp2188
g69
(g70
g71
NtRp2189
(dp2190
g74
(dp2191
g82
I5
ssg83
g2185
sg76
(lp2192
S'Read_it/127.0.0.1.2013-08-30.03-51-02.366d6278-f160-4350-83db-cb4c9b66d21a'
p2193
asbasbasbag69
(g85
g71
NtRp2194
(dp2195
g74
(dp2196
sg83
g79
sg76
(lp2197
g69
(g90
g71
NtRp2198
(dp2199
g74
(dp2200
g94
g95
ssg83
g2194
sg76
(lp2201
S'vars'
p2202
asbag69
(g90
g71
NtRp2203
(dp2204
g74
(dp2205
g101
g102
ssg83
g2194
sg76
(lp2206
S':'
asbag69
(g90
g71
NtRp2207
(dp2208
g74
(dp2209
sg83
g2194
sg76
(lp2210
g69
(g70
g71
NtRp2211
(dp2212
g74
(dp2213
g82
I5
ssg83
g2207
sg76
(lp2214
g69
(g78
g71
NtRp2215
(dp2216
g74
(dp2217
g82
I4
ssg83
Nsg76
(lp2218
sbasbasbasbag69
(g85
g71
NtRp2219
(dp2220
g74
(dp2221
sg83
g79
sg76
(lp2222
g69
(g90
g71
NtRp2223
(dp2224
g74
(dp2225
g94
g95
ssg83
g2219
sg76
(lp2226
S'wsgi'
p2227
asbag69
(g90
g71
NtRp2228
(dp2229
g74
(dp2230
g101
g102
ssg83
g2219
sg76
(lp2231
S':'
asbag69
(g90
g71
NtRp2232
(dp2233
g74
(dp2234
sg83
g2219
sg76
(lp2235
g69
(g70
g71
NtRp2236
(dp2237
g74
(dp2238
g82
I5
ssg83
g2232
sg76
(lp2239
g69
(g78
g71
NtRp2240
(dp2241
g74
(dp2242
g82
I4
ssg83
Nsg76
(lp2243
g69
(g85
g71
NtRp2244
(dp2245
g74
(dp2246
sg83
g2240
sg76
(lp2247
g69
(g90
g71
NtRp2248
(dp2249
g74
(dp2250
g94
g95
ssg83
g2244
sg76
(lp2251
S'environ'
p2252
asbag69
(g90
g71
NtRp2253
(dp2254
g74
(dp2255
g101
g102
ssg83
g2244
sg76
(lp2256
S':'
asbag69
(g90
g71
NtRp2257
(dp2258
g74
(dp2259
sg83
g2244
sg76
(lp2260
g69
(g70
g71
NtRp2261
(dp2262
g74
(dp2263
g82
I4
ssg83
g2257
sg76
(lp2264
g69
(g78
g71
NtRp2265
(dp2266
g74
(dp2267
g82
I3
ssg83
Nsg76
(lp2268
g69
(g85
g71
NtRp2269
(dp2270
g74
(dp2271
sg83
g2265
sg76
(lp2272
g69
(g90
g71
NtRp2273
(dp2274
g74
(dp2275
g94
g95
ssg83
g2269
sg76
(lp2276
S'HTTP_ACCEPT'
p2277
asbag69
(g90
g71
NtRp2278
(dp2279
g74
(dp2280
g101
g102
ssg83
g2269
sg76
(lp2281
S':'
asbag69
(g90
g71
NtRp2282
(dp2283
g74
(dp2284
sg83
g2269
sg76
(lp2285
g69
(g70
g71
NtRp2286
(dp2287
g74
(dp2288
g82
I3
ssg83
g2282
sg76
(lp2289
g842
asbasbasbag69
(g85
g71
NtRp2290
(dp2291
g74
(dp2292
sg83
g2265
sg76
(lp2293
g69
(g90
g71
NtRp2294
(dp2295
g74
(dp2296
g94
g95
ssg83
g2290
sg76
(lp2297
S'HTTP_ACCEPT_ENCODING'
p2298
asbag69
(g90
g71
NtRp2299
(dp2300
g74
(dp2301
g101
g102
ssg83
g2290
sg76
(lp2302
S':'
asbag69
(g90
g71
NtRp2303
(dp2304
g74
(dp2305
sg83
g2290
sg76
(lp2306
g69
(g70
g71
NtRp2307
(dp2308
g74
(dp2309
g82
I3
ssg83
g2303
sg76
(lp2310
g864
asbasbasbag69
(g85
g71
NtRp2311
(dp2312
g74
(dp2313
sg83
g2265
sg76
(lp2314
g69
(g90
g71
NtRp2315
(dp2316
g74
(dp2317
g94
g95
ssg83
g2311
sg76
(lp2318
S'HTTP_ACCEPT_LANGUAGE'
p2319
asbag69
(g90
g71
NtRp2320
(dp2321
g74
(dp2322
g101
g102
ssg83
g2311
sg76
(lp2323
S':'
asbag69
(g90
g71
NtRp2324
(dp2325
g74
(dp2326
sg83
g2311
sg76
(lp2327
g69
(g70
g71
NtRp2328
(dp2329
g74
(dp2330
g82
I3
ssg83
g2324
sg76
(lp2331
g886
asbasbasbag69
(g85
g71
NtRp2332
(dp2333
g74
(dp2334
sg83
g2265
sg76
(lp2335
g69
(g90
g71
NtRp2336
(dp2337
g74
(dp2338
g94
g95
ssg83
g2332
sg76
(lp2339
S'HTTP_CACHE_CONTROL'
p2340
asbag69
(g90
g71
NtRp2341
(dp2342
g74
(dp2343
g101
g102
ssg83
g2332
sg76
(lp2344
S':'
asbag69
(g90
g71
NtRp2345
(dp2346
g74
(dp2347
sg83
g2332
sg76
(lp2348
g69
(g70
g71
NtRp2349
(dp2350
g74
(dp2351
g82
I3
ssg83
g2345
sg76
(lp2352
g908
asbasbasbag69
(g85
g71
NtRp2353
(dp2354
g74
(dp2355
sg83
g2265
sg76
(lp2356
g69
(g90
g71
NtRp2357
(dp2358
g74
(dp2359
g94
g95
ssg83
g2353
sg76
(lp2360
S'HTTP_CONNECTION'
p2361
asbag69
(g90
g71
NtRp2362
(dp2363
g74
(dp2364
g101
g102
ssg83
g2353
sg76
(lp2365
S':'
asbag69
(g90
g71
NtRp2366
(dp2367
g74
(dp2368
sg83
g2353
sg76
(lp2369
g69
(g70
g71
NtRp2370
(dp2371
g74
(dp2372
g82
I3
ssg83
g2366
sg76
(lp2373
g930
asbasbasbag69
(g85
g71
NtRp2374
(dp2375
g74
(dp2376
sg83
g2265
sg76
(lp2377
g69
(g90
g71
NtRp2378
(dp2379
g74
(dp2380
g94
g95
ssg83
g2374
sg76
(lp2381
S'HTTP_COOKIE'
p2382
asbag69
(g90
g71
NtRp2383
(dp2384
g74
(dp2385
g101
g102
ssg83
g2374
sg76
(lp2386
S':'
asbag69
(g90
g71
NtRp2387
(dp2388
g74
(dp2389
sg83
g2374
sg76
(lp2390
g69
(g70
g71
NtRp2391
(dp2392
g74
(dp2393
g82
I3
ssg83
g2387
sg76
(lp2394
g952
asbasbasbag69
(g85
g71
NtRp2395
(dp2396
g74
(dp2397
sg83
g2265
sg76
(lp2398
g69
(g90
g71
NtRp2399
(dp2400
g74
(dp2401
g94
g95
ssg83
g2395
sg76
(lp2402
S'HTTP_HOST'
p2403
asbag69
(g90
g71
NtRp2404
(dp2405
g74
(dp2406
g101
g102
ssg83
g2395
sg76
(lp2407
S':'
asbag69
(g90
g71
NtRp2408
(dp2409
g74
(dp2410
sg83
g2395
sg76
(lp2411
g69
(g70
g71
NtRp2412
(dp2413
g74
(dp2414
g82
I3
ssg83
g2408
sg76
(lp2415
g974
asbasbasbag69
(g85
g71
NtRp2416
(dp2417
g74
(dp2418
sg83
g2265
sg76
(lp2419
g69
(g90
g71
NtRp2420
(dp2421
g74
(dp2422
g94
g95
ssg83
g2416
sg76
(lp2423
S'HTTP_USER_AGENT'
p2424
asbag69
(g90
g71
NtRp2425
(dp2426
g74
(dp2427
g101
g102
ssg83
g2416
sg76
(lp2428
S':'
asbag69
(g90
g71
NtRp2429
(dp2430
g74
(dp2431
sg83
g2416
sg76
(lp2432
g69
(g70
g71
NtRp2433
(dp2434
g74
(dp2435
g82
I3
ssg83
g2429
sg76
(lp2436
g996
asbasbasbag69
(g85
g71
NtRp2437
(dp2438
g74
(dp2439
sg83
g2265
sg76
(lp2440
g69
(g90
g71
NtRp2441
(dp2442
g74
(dp2443
g94
g95
ssg83
g2437
sg76
(lp2444
S'PATH_INFO'
p2445
asbag69
(g90
g71
NtRp2446
(dp2447
g74
(dp2448
g101
g102
ssg83
g2437
sg76
(lp2449
S':'
asbag69
(g90
g71
NtRp2450
(dp2451
g74
(dp2452
sg83
g2437
sg76
(lp2453
g69
(g70
g71
NtRp2454
(dp2455
g74
(dp2456
g82
I3
ssg83
g2450
sg76
(lp2457
g1060
asbasbasbag69
(g85
g71
NtRp2458
(dp2459
g74
(dp2460
sg83
g2265
sg76
(lp2461
g69
(g90
g71
NtRp2462
(dp2463
g74
(dp2464
g94
g95
ssg83
g2458
sg76
(lp2465
S'QUERY_STRING'
p2466
asbag69
(g90
g71
NtRp2467
(dp2468
g74
(dp2469
g101
g102
ssg83
g2458
sg76
(lp2470
S':'
asbag69
(g90
g71
NtRp2471
(dp2472
g74
(dp2473
sg83
g2458
sg76
(lp2474
g69
(g70
g71
NtRp2475
(dp2476
g74
(dp2477
g82
I3
ssg83
g2471
sg76
(lp2478
S''
asbasbasbag69
(g85
g71
NtRp2479
(dp2480
g74
(dp2481
sg83
g2265
sg76
(lp2482
g69
(g90
g71
NtRp2483
(dp2484
g74
(dp2485
g94
g95
ssg83
g2479
sg76
(lp2486
S'REMOTE_ADDR'
p2487
asbag69
(g90
g71
NtRp2488
(dp2489
g74
(dp2490
g101
g102
ssg83
g2479
sg76
(lp2491
S':'
asbag69
(g90
g71
NtRp2492
(dp2493
g74
(dp2494
sg83
g2479
sg76
(lp2495
g69
(g70
g71
NtRp2496
(dp2497
g74
(dp2498
g82
I3
ssg83
g2492
sg76
(lp2499
g214
asbasbasbag69
(g85
g71
NtRp2500
(dp2501
g74
(dp2502
sg83
g2265
sg76
(lp2503
g69
(g90
g71
NtRp2504
(dp2505
g74
(dp2506
g94
g95
ssg83
g2500
sg76
(lp2507
S'REMOTE_PORT'
p2508
asbag69
(g90
g71
NtRp2509
(dp2510
g74
(dp2511
g101
g102
ssg83
g2500
sg76
(lp2512
S':'
asbag69
(g90
g71
NtRp2513
(dp2514
g74
(dp2515
sg83
g2500
sg76
(lp2516
g69
(g70
g71
NtRp2517
(dp2518
g74
(dp2519
g82
I3
ssg83
g2513
sg76
(lp2520
g1124
asbasbasbag69
(g85
g71
NtRp2521
(dp2522
g74
(dp2523
sg83
g2265
sg76
(lp2524
g69
(g90
g71
NtRp2525
(dp2526
g74
(dp2527
g94
g95
ssg83
g2521
sg76
(lp2528
S'REQUEST_METHOD'
p2529
asbag69
(g90
g71
NtRp2530
(dp2531
g74
(dp2532
g101
g102
ssg83
g2521
sg76
(lp2533
S':'
asbag69
(g90
g71
NtRp2534
(dp2535
g74
(dp2536
sg83
g2521
sg76
(lp2537
g69
(g70
g71
NtRp2538
(dp2539
g74
(dp2540
g82
I3
ssg83
g2534
sg76
(lp2541
g1146
asbasbasbag69
(g85
g71
NtRp2542
(dp2543
g74
(dp2544
sg83
g2265
sg76
(lp2545
g69
(g90
g71
NtRp2546
(dp2547
g74
(dp2548
g94
g95
ssg83
g2542
sg76
(lp2549
S'SCRIPT_NAME'
p2550
asbag69
(g90
g71
NtRp2551
(dp2552
g74
(dp2553
g101
g102
ssg83
g2542
sg76
(lp2554
S':'
asbag69
(g90
g71
NtRp2555
(dp2556
g74
(dp2557
sg83
g2542
sg76
(lp2558
g69
(g70
g71
NtRp2559
(dp2560
g74
(dp2561
g82
I3
ssg83
g2555
sg76
(lp2562
S''
asbasbasbag69
(g85
g71
NtRp2563
(dp2564
g74
(dp2565
sg83
g2265
sg76
(lp2566
g69
(g90
g71
NtRp2567
(dp2568
g74
(dp2569
g94
g95
ssg83
g2563
sg76
(lp2570
S'SERVER_NAME'
p2571
asbag69
(g90
g71
NtRp2572
(dp2573
g74
(dp2574
g101
g102
ssg83
g2563
sg76
(lp2575
S':'
asbag69
(g90
g71
NtRp2576
(dp2577
g74
(dp2578
sg83
g2563
sg76
(lp2579
g69
(g70
g71
NtRp2580
(dp2581
g74
(dp2582
g82
I3
ssg83
g2576
sg76
(lp2583
g1189
asbasbasbag69
(g85
g71
NtRp2584
(dp2585
g74
(dp2586
sg83
g2265
sg76
(lp2587
g69
(g90
g71
NtRp2588
(dp2589
g74
(dp2590
g94
g95
ssg83
g2584
sg76
(lp2591
S'SERVER_PORT'
p2592
asbag69
(g90
g71
NtRp2593
(dp2594
g74
(dp2595
g101
g102
ssg83
g2584
sg76
(lp2596
S':'
asbag69
(g90
g71
NtRp2597
(dp2598
g74
(dp2599
sg83
g2584
sg76
(lp2600
g69
(g70
g71
NtRp2601
(dp2602
g74
(dp2603
g82
I3
ssg83
g2597
sg76
(lp2604
g1211
asbasbasbag69
(g85
g71
NtRp2605
(dp2606
g74
(dp2607
sg83
g2265
sg76
(lp2608
g69
(g90
g71
NtRp2609
(dp2610
g74
(dp2611
g94
g95
ssg83
g2605
sg76
(lp2612
S'SERVER_PROTOCOL'
p2613
asbag69
(g90
g71
NtRp2614
(dp2615
g74
(dp2616
g101
g102
ssg83
g2605
sg76
(lp2617
S':'
asbag69
(g90
g71
NtRp2618
(dp2619
g74
(dp2620
sg83
g2605
sg76
(lp2621
g69
(g70
g71
NtRp2622
(dp2623
g74
(dp2624
g82
I3
ssg83
g2618
sg76
(lp2625
g1233
asbasbasbag69
(g85
g71
NtRp2626
(dp2627
g74
(dp2628
sg83
g2265
sg76
(lp2629
g69
(g90
g71
NtRp2630
(dp2631
g74
(dp2632
g94
g95
ssg83
g2626
sg76
(lp2633
S'SERVER_SOFTWARE'
p2634
asbag69
(g90
g71
NtRp2635
(dp2636
g74
(dp2637
g101
g102
ssg83
g2626
sg76
(lp2638
S':'
asbag69
(g90
g71
NtRp2639
(dp2640
g74
(dp2641
sg83
g2626
sg76
(lp2642
g69
(g70
g71
NtRp2643
(dp2644
g74
(dp2645
g82
I3
ssg83
g2639
sg76
(lp2646
g1255
asbasbasbag69
(g85
g71
NtRp2647
(dp2648
g74
(dp2649
sg83
g2265
sg76
(lp2650
g69
(g90
g71
NtRp2651
(dp2652
g74
(dp2653
g94
g95
ssg83
g2647
sg76
(lp2654
S'wsgi.errors'
p2655
asbag69
(g90
g71
NtRp2656
(dp2657
g74
(dp2658
g101
g102
ssg83
g2647
sg76
(lp2659
S':'
asbag69
(g90
g71
NtRp2660
(dp2661
g74
(dp2662
sg83
g2647
sg76
(lp2663
g69
(g70
g71
NtRp2664
(dp2665
g74
(dp2666
g82
I3
ssg83
g2660
sg76
(lp2667
S"<open file '<stderr>', mode 'w' at 0x7fdd14f50270>"
p2668
asbasbasbag69
(g85
g71
NtRp2669
(dp2670
g74
(dp2671
sg83
g2265
sg76
(lp2672
g69
(g90
g71
NtRp2673
(dp2674
g74
(dp2675
g94
g95
ssg83
g2669
sg76
(lp2676
S'wsgi.file_wrapper'
p2677
asbag69
(g90
g71
NtRp2678
(dp2679
g74
(dp2680
g101
g102
ssg83
g2669
sg76
(lp2681
S':'
asbag69
(g90
g71
NtRp2682
(dp2683
g74
(dp2684
sg83
g2669
sg76
(lp2685
g69
(g70
g71
NtRp2686
(dp2687
g74
(dp2688
g82
I3
ssg83
g2682
sg76
(lp2689
S'<class wsgiref.util.FileWrapper at 0x2a06530>'
p2690
asbasbasbag69
(g85
g71
NtRp2691
(dp2692
g74
(dp2693
sg83
g2265
sg76
(lp2694
g69
(g90
g71
NtRp2695
(dp2696
g74
(dp2697
g94
g95
ssg83
g2691
sg76
(lp2698
S'wsgi.input'
p2699
asbag69
(g90
g71
NtRp2700
(dp2701
g74
(dp2702
g101
g102
ssg83
g2691
sg76
(lp2703
S':'
asbag69
(g90
g71
NtRp2704
(dp2705
g74
(dp2706
sg83
g2691
sg76
(lp2707
g69
(g70
g71
NtRp2708
(dp2709
g74
(dp2710
g82
I3
ssg83
g2704
sg76
(lp2711
S'<cStringIO.StringO object at 0x7fdcc4626a08>'
p2712
asbasbasbag69
(g85
g71
NtRp2713
(dp2714
g74
(dp2715
sg83
g2265
sg76
(lp2716
g69
(g90
g71
NtRp2717
(dp2718
g74
(dp2719
g94
g95
ssg83
g2713
sg76
(lp2720
S'wsgi.multiprocess'
p2721
asbag69
(g90
g71
NtRp2722
(dp2723
g74
(dp2724
g101
g102
ssg83
g2713
sg76
(lp2725
S':'
asbag69
(g90
g71
NtRp2726
(dp2727
g74
(dp2728
sg83
g2713
sg76
(lp2729
g69
(g70
g71
NtRp2730
(dp2731
g74
(dp2732
g82
I3
ssg83
g2726
sg76
(lp2733
g112
asbasbasbag69
(g85
g71
NtRp2734
(dp2735
g74
(dp2736
sg83
g2265
sg76
(lp2737
g69
(g90
g71
NtRp2738
(dp2739
g74
(dp2740
g94
g95
ssg83
g2734
sg76
(lp2741
S'wsgi.multithread'
p2742
asbag69
(g90
g71
NtRp2743
(dp2744
g74
(dp2745
g101
g102
ssg83
g2734
sg76
(lp2746
S':'
asbag69
(g90
g71
NtRp2747
(dp2748
g74
(dp2749
sg83
g2734
sg76
(lp2750
g69
(g70
g71
NtRp2751
(dp2752
g74
(dp2753
g82
I3
ssg83
g2747
sg76
(lp2754
g1495
asbasbasbag69
(g85
g71
NtRp2755
(dp2756
g74
(dp2757
sg83
g2265
sg76
(lp2758
g69
(g90
g71
NtRp2759
(dp2760
g74
(dp2761
g94
g95
ssg83
g2755
sg76
(lp2762
S'wsgi.run_once'
p2763
asbag69
(g90
g71
NtRp2764
(dp2765
g74
(dp2766
g101
g102
ssg83
g2755
sg76
(lp2767
S':'
asbag69
(g90
g71
NtRp2768
(dp2769
g74
(dp2770
sg83
g2755
sg76
(lp2771
g69
(g70
g71
NtRp2772
(dp2773
g74
(dp2774
g82
I3
ssg83
g2768
sg76
(lp2775
g112
asbasbasbag69
(g85
g71
NtRp2776
(dp2777
g74
(dp2778
sg83
g2265
sg76
(lp2779
g69
(g90
g71
NtRp2780
(dp2781
g74
(dp2782
g94
g95
ssg83
g2776
sg76
(lp2783
S'wsgi.url_scheme'
p2784
asbag69
(g90
g71
NtRp2785
(dp2786
g74
(dp2787
g101
g102
ssg83
g2776
sg76
(lp2788
S':'
asbag69
(g90
g71
NtRp2789
(dp2790
g74
(dp2791
sg83
g2776
sg76
(lp2792
g69
(g70
g71
NtRp2793
(dp2794
g74
(dp2795
g82
I3
ssg83
g2789
sg76
(lp2796
g1538
asbasbasbag69
(g85
g71
NtRp2797
(dp2798
g74
(dp2799
sg83
g2265
sg76
(lp2800
g69
(g90
g71
NtRp2801
(dp2802
g74
(dp2803
g94
g95
ssg83
g2797
sg76
(lp2804
S'wsgi.version'
p2805
asbag69
(g90
g71
NtRp2806
(dp2807
g74
(dp2808
g101
g102
ssg83
g2797
sg76
(lp2809
S':'
asbag69
(g90
g71
NtRp2810
(dp2811
g74
(dp2812
sg83
g2797
sg76
(lp2813
g69
(g70
g71
NtRp2814
(dp2815
g74
(dp2816
g82
I3
ssg83
g2810
sg76
(lp2817
S'1'
asbasbasbasbasbasbasbasbasbasbasbasbasbsS'frames'
p2818
(lp2819
(dp2820
S'file'
p2821
S'/usr/lib/pymodules/python2.7/gluon/restricted.py'
p2822
sS'dump'
p2823
(dp2824
S'code'
p2825
S'\'response.write(\\\'<!DOCTYPE html PUBLIC "-//W3C//D...->\\\\n  </div>\\\\n </body>\\\\n</html>\\\\n\\\', escape=False)\''
p2826
sS'layer'
p2827
S"'/home/ds-iiit/web2py/applications/Read_it/views/default/comments.html'"
p2828
sS'global compile2'
p2829
S'<function compile2>'
p2830
sS'ccode'
p2831
S'undefined'
p2832
ssS'lnum'
p2833
I203
sS'lines'
p2834
(dp2835
I198
S"    environment['__file__'] = layer"
p2836
sI199
S'    try:'
p2837
sI200
S'        if type(code) == types.CodeType:'
p2838
sI201
S'            ccode = code'
p2839
sI202
S'        else:'
p2840
sI203
S'            ccode = compile2(code,layer)'
p2841
sI204
S'        exec ccode in environment'
p2842
sI205
S'    except HTTP:'
p2843
sI206
S'        raise'
p2844
sI207
S'    except RestrictedError:'
p2845
ssS'call'
p2846
S'(code=\'response.write(\\\'<!DOCTYPE html PUBLIC "-//W3C//D...->\\\\n  </div>\\\\n </body>\\\\n</html>\\\\n\\\', escape=False)\', environment={\'A\': <class \'gluon.html.A\'>, \'Auth\': <class \'gluon.tools.Auth\'>, \'B\': <class \'gluon.html.B\'>, \'BEAUTIFY\': <class \'gluon.html.BEAUTIFY\'>, \'BODY\': <class \'gluon.html.BODY\'>, \'BR\': <class \'gluon.html.BR\'>, \'BUTTON\': <class \'gluon.html.BUTTON\'>, \'CAT\': <class \'gluon.html.CAT\'>, \'CENTER\': <class \'gluon.html.CENTER\'>, \'CLEANUP\': <class \'gluon.validators.CLEANUP\'>, ...}, layer=\'/home/ds-iiit/web2py/applications/Read_it/views/default/comments.html\')'
p2847
sS'func'
p2848
S'restricted'
p2849
sa(dp2850
g2821
S'/usr/lib/pymodules/python2.7/gluon/restricted.py'
p2851
sg2823
(dp2852
S'builtincompile'
p2853
S'<built-in function compile>'
p2854
sS'code'
p2855
S'\'response.write(\\\'<!DOCTYPE html PUBLIC "-//W3C//D...->\\\\n  </div>\\\\n </body>\\\\n</html>\\\\n\\\', escape=False)\''
p2856
sS'code.rstrip'
p2857
S'<built-in method rstrip of str object>'
p2858
sS').replace'
p2859
g2832
sS'layer'
p2860
S"'/home/ds-iiit/web2py/applications/Read_it/views/default/comments.html'"
p2861
ssg2833
I189
sg2834
(dp2862
I192
S'    """'
p2863
sI193
S'    runs code in environment and returns the output. if an exception occurs'
p2864
sI184
S''
sI185
S'def compile2(code,layer):'
p2865
sI186
S'    """'
p2866
sI187
S"    The +'\\n' is necessary else compile fails when code ends in a comment."
p2867
sI188
S'    """'
p2868
sI189
S"    return compile(code.rstrip().replace('\\r\\n','\\n')+'\\n', layer, 'exec')"
p2869
sI190
S''
sI191
S"def restricted(code, environment=None, layer='Unknown'):"
p2870
ssg2846
S'(code=\'response.write(\\\'<!DOCTYPE html PUBLIC "-//W3C//D...->\\\\n  </div>\\\\n </body>\\\\n</html>\\\\n\\\', escape=False)\', layer=\'/home/ds-iiit/web2py/applications/Read_it/views/default/comments.html\')'
p2871
sg2848
S'compile2'
p2872
sasS'pyver'
p2873
S'Python 2.7.3: /usr/bin/python'
p2874
sS'session'
p2875
g69
(g70
g71
NtRp2876
(dp2877
g74
(dp2878
sg76
(lp2879
g69
(g78
g71
NtRp2880
(dp2881
g74
(dp2882
g82
I5
ssg83
Nsg76
(lp2883
g69
(g85
g71
NtRp2884
(dp2885
g74
(dp2886
sg83
g2880
sg76
(lp2887
g69
(g90
g71
NtRp2888
(dp2889
g74
(dp2890
g94
g95
ssg83
g2884
sg76
(lp2891
S'auth'
p2892
asbag69
(g90
g71
NtRp2893
(dp2894
g74
(dp2895
g101
g102
ssg83
g2884
sg76
(lp2896
S':'
asbag69
(g90
g71
NtRp2897
(dp2898
g74
(dp2899
sg83
g2884
sg76
(lp2900
g69
(g70
g71
NtRp2901
(dp2902
g74
(dp2903
g82
I5
ssg83
g2897
sg76
(lp2904
g69
(g78
g71
NtRp2905
(dp2906
g74
(dp2907
g82
I4
ssg83
Nsg76
(lp2908
g69
(g85
g71
NtRp2909
(dp2910
g74
(dp2911
sg83
g2905
sg76
(lp2912
g69
(g90
g71
NtRp2913
(dp2914
g74
(dp2915
g94
g95
ssg83
g2909
sg76
(lp2916
S'expiration'
p2917
asbag69
(g90
g71
NtRp2918
(dp2919
g74
(dp2920
g101
g102
ssg83
g2909
sg76
(lp2921
S':'
asbag69
(g90
g71
NtRp2922
(dp2923
g74
(dp2924
sg83
g2909
sg76
(lp2925
g69
(g70
g71
NtRp2926
(dp2927
g74
(dp2928
g82
I4
ssg83
g2922
sg76
(lp2929
S'2592000'
p2930
asbasbasbag69
(g85
g71
NtRp2931
(dp2932
g74
(dp2933
sg83
g2905
sg76
(lp2934
g69
(g90
g71
NtRp2935
(dp2936
g74
(dp2937
g94
g95
ssg83
g2931
sg76
(lp2938
S'hmac_key'
p2939
asbag69
(g90
g71
NtRp2940
(dp2941
g74
(dp2942
g101
g102
ssg83
g2931
sg76
(lp2943
S':'
asbag69
(g90
g71
NtRp2944
(dp2945
g74
(dp2946
sg83
g2931
sg76
(lp2947
g69
(g70
g71
NtRp2948
(dp2949
g74
(dp2950
g82
I4
ssg83
g2944
sg76
(lp2951
S'7f4648de-69a9-4141-b374-831cb1577606'
p2952
asbasbasbag69
(g85
g71
NtRp2953
(dp2954
g74
(dp2955
sg83
g2905
sg76
(lp2956
g69
(g90
g71
NtRp2957
(dp2958
g74
(dp2959
g94
g95
ssg83
g2953
sg76
(lp2960
S'last_visit'
p2961
asbag69
(g90
g71
NtRp2962
(dp2963
g74
(dp2964
g101
g102
ssg83
g2953
sg76
(lp2965
S':'
asbag69
(g90
g71
NtRp2966
(dp2967
g74
(dp2968
sg83
g2953
sg76
(lp2969
g69
(g70
g71
NtRp2970
(dp2971
g74
(dp2972
g82
I4
ssg83
g2966
sg76
(lp2973
S'datetime.datetime(2013, 8, 30, 3, 11, 0, 721773)'
p2974
asbasbasbag69
(g85
g71
NtRp2975
(dp2976
g74
(dp2977
sg83
g2905
sg76
(lp2978
g69
(g90
g71
NtRp2979
(dp2980
g74
(dp2981
g94
g95
ssg83
g2975
sg76
(lp2982
S'remember'
p2983
asbag69
(g90
g71
NtRp2984
(dp2985
g74
(dp2986
g101
g102
ssg83
g2975
sg76
(lp2987
S':'
asbag69
(g90
g71
NtRp2988
(dp2989
g74
(dp2990
sg83
g2975
sg76
(lp2991
g69
(g70
g71
NtRp2992
(dp2993
g74
(dp2994
g82
I4
ssg83
g2988
sg76
(lp2995
g112
asbasbasbag69
(g85
g71
NtRp2996
(dp2997
g74
(dp2998
sg83
g2905
sg76
(lp2999
g69
(g90
g71
NtRp3000
(dp3001
g74
(dp3002
g94
g95
ssg83
g2996
sg76
(lp3003
S'user'
p3004
asbag69
(g90
g71
NtRp3005
(dp3006
g74
(dp3007
g101
g102
ssg83
g2996
sg76
(lp3008
S':'
asbag69
(g90
g71
NtRp3009
(dp3010
g74
(dp3011
sg83
g2996
sg76
(lp3012
g69
(g70
g71
NtRp3013
(dp3014
g74
(dp3015
g82
I4
ssg83
g3009
sg76
(lp3016
g69
(g78
g71
NtRp3017
(dp3018
g74
(dp3019
g82
I3
ssg83
Nsg76
(lp3020
g69
(g85
g71
NtRp3021
(dp3022
g74
(dp3023
sg83
g3017
sg76
(lp3024
g69
(g90
g71
NtRp3025
(dp3026
g74
(dp3027
g94
g95
ssg83
g3021
sg76
(lp3028
S'email'
p3029
asbag69
(g90
g71
NtRp3030
(dp3031
g74
(dp3032
g101
g102
ssg83
g3021
sg76
(lp3033
S':'
asbag69
(g90
g71
NtRp3034
(dp3035
g74
(dp3036
sg83
g3021
sg76
(lp3037
g69
(g70
g71
NtRp3038
(dp3039
g74
(dp3040
g82
I3
ssg83
g3034
sg76
(lp3041
S'sweetdevansh@gmail.com'
p3042
asbasbasbag69
(g85
g71
NtRp3043
(dp3044
g74
(dp3045
sg83
g3017
sg76
(lp3046
g69
(g90
g71
NtRp3047
(dp3048
g74
(dp3049
g94
g95
ssg83
g3043
sg76
(lp3050
S'first_name'
p3051
asbag69
(g90
g71
NtRp3052
(dp3053
g74
(dp3054
g101
g102
ssg83
g3043
sg76
(lp3055
S':'
asbag69
(g90
g71
NtRp3056
(dp3057
g74
(dp3058
sg83
g3043
sg76
(lp3059
g69
(g70
g71
NtRp3060
(dp3061
g74
(dp3062
g82
I3
ssg83
g3056
sg76
(lp3063
S'Devansh'
p3064
asbasbasbag69
(g85
g71
NtRp3065
(dp3066
g74
(dp3067
sg83
g3017
sg76
(lp3068
g69
(g90
g71
NtRp3069
(dp3070
g74
(dp3071
g94
g95
ssg83
g3065
sg76
(lp3072
S'id'
p3073
asbag69
(g90
g71
NtRp3074
(dp3075
g74
(dp3076
g101
g102
ssg83
g3065
sg76
(lp3077
S':'
asbag69
(g90
g71
NtRp3078
(dp3079
g74
(dp3080
sg83
g3065
sg76
(lp3081
g69
(g70
g71
NtRp3082
(dp3083
g74
(dp3084
g82
I3
ssg83
g3078
sg76
(lp3085
S'1'
asbasbasbag69
(g85
g71
NtRp3086
(dp3087
g74
(dp3088
sg83
g3017
sg76
(lp3089
g69
(g90
g71
NtRp3090
(dp3091
g74
(dp3092
g94
g95
ssg83
g3086
sg76
(lp3093
S'last_name'
p3094
asbag69
(g90
g71
NtRp3095
(dp3096
g74
(dp3097
g101
g102
ssg83
g3086
sg76
(lp3098
S':'
asbag69
(g90
g71
NtRp3099
(dp3100
g74
(dp3101
sg83
g3086
sg76
(lp3102
g69
(g70
g71
NtRp3103
(dp3104
g74
(dp3105
g82
I3
ssg83
g3099
sg76
(lp3106
S'Shah'
p3107
asbasbasbag69
(g85
g71
NtRp3108
(dp3109
g74
(dp3110
sg83
g3017
sg76
(lp3111
g69
(g90
g71
NtRp3112
(dp3113
g74
(dp3114
g94
g95
ssg83
g3108
sg76
(lp3115
S'password'
p3116
asbag69
(g90
g71
NtRp3117
(dp3118
g74
(dp3119
g101
g102
ssg83
g3108
sg76
(lp3120
S':'
asbag69
(g90
g71
NtRp3121
(dp3122
g74
(dp3123
sg83
g3108
sg76
(lp3124
g69
(g70
g71
NtRp3125
(dp3126
g74
(dp3127
g82
I3
ssg83
g3121
sg76
(lp3128
S'4fa78620b77f92c7faf768350dccbc8d'
p3129
asbasbasbag69
(g85
g71
NtRp3130
(dp3131
g74
(dp3132
sg83
g3017
sg76
(lp3133
g69
(g90
g71
NtRp3134
(dp3135
g74
(dp3136
g94
g95
ssg83
g3130
sg76
(lp3137
S'registration_id'
p3138
asbag69
(g90
g71
NtRp3139
(dp3140
g74
(dp3141
g101
g102
ssg83
g3130
sg76
(lp3142
S':'
asbag69
(g90
g71
NtRp3143
(dp3144
g74
(dp3145
sg83
g3130
sg76
(lp3146
g69
(g70
g71
NtRp3147
(dp3148
g74
(dp3149
g82
I3
ssg83
g3143
sg76
(lp3150
S''
asbasbasbag69
(g85
g71
NtRp3151
(dp3152
g74
(dp3153
sg83
g3017
sg76
(lp3154
g69
(g90
g71
NtRp3155
(dp3156
g74
(dp3157
g94
g95
ssg83
g3151
sg76
(lp3158
S'registration_key'
p3159
asbag69
(g90
g71
NtRp3160
(dp3161
g74
(dp3162
g101
g102
ssg83
g3151
sg76
(lp3163
S':'
asbag69
(g90
g71
NtRp3164
(dp3165
g74
(dp3166
sg83
g3151
sg76
(lp3167
g69
(g70
g71
NtRp3168
(dp3169
g74
(dp3170
g82
I3
ssg83
g3164
sg76
(lp3171
S''
asbasbasbag69
(g85
g71
NtRp3172
(dp3173
g74
(dp3174
sg83
g3017
sg76
(lp3175
g69
(g90
g71
NtRp3176
(dp3177
g74
(dp3178
g94
g95
ssg83
g3172
sg76
(lp3179
S'reset_password_key'
p3180
asbag69
(g90
g71
NtRp3181
(dp3182
g74
(dp3183
g101
g102
ssg83
g3172
sg76
(lp3184
S':'
asbag69
(g90
g71
NtRp3185
(dp3186
g74
(dp3187
sg83
g3172
sg76
(lp3188
g69
(g70
g71
NtRp3189
(dp3190
g74
(dp3191
g82
I3
ssg83
g3185
sg76
(lp3192
S''
asbasbasbasbasbasbasbasbasbasbasbag69
(g85
g71
NtRp3193
(dp3194
g74
(dp3195
sg83
g2880
sg76
(lp3196
g69
(g90
g71
NtRp3197
(dp3198
g74
(dp3199
g94
g95
ssg83
g3193
sg76
(lp3200
S'last_query'
p3201
asbag69
(g90
g71
NtRp3202
(dp3203
g74
(dp3204
g101
g102
ssg83
g3193
sg76
(lp3205
S':'
asbag69
(g90
g71
NtRp3206
(dp3207
g74
(dp3208
sg83
g3193
sg76
(lp3209
g69
(g70
g71
NtRp3210
(dp3211
g74
(dp3212
g82
I5
ssg83
g3206
sg76
(lp3213
S'db.auth_user.id>0'
p3214
asbasbasbasbasbsS'etype'
p3215
S"<type 'exceptions.SyntaxError'>"
p3216
sS'date'
p3217
S'Fri Aug 30 03:51:02 2013'
p3218
sS'response'
p3219
g69
(g70
g71
NtRp3220
(dp3221
g74
(dp3222
sg76
(lp3223
g69
(g78
g71
NtRp3224
(dp3225
g74
(dp3226
g82
I5
ssg83
Nsg76
(lp3227
g69
(g85
g71
NtRp3228
(dp3229
g74
(dp3230
sg83
g3224
sg76
(lp3231
g69
(g90
g71
NtRp3232
(dp3233
g74
(dp3234
g94
g95
ssg83
g3228
sg76
(lp3235
g179
asbag69
(g90
g71
NtRp3236
(dp3237
g74
(dp3238
g101
g102
ssg83
g3228
sg76
(lp3239
S':'
asbag69
(g90
g71
NtRp3240
(dp3241
g74
(dp3242
sg83
g3228
sg76
(lp3243
g69
(g70
g71
NtRp3244
(dp3245
g74
(dp3246
g82
I5
ssg83
g3240
sg76
(lp3247
S'<cStringIO.StringO object at 0x7fdcbc30d1f0>'
p3248
asbasbasbag69
(g85
g71
NtRp3249
(dp3250
g74
(dp3251
sg83
g3224
sg76
(lp3252
g69
(g90
g71
NtRp3253
(dp3254
g74
(dp3255
g94
g95
ssg83
g3249
sg76
(lp3256
g245
asbag69
(g90
g71
NtRp3257
(dp3258
g74
(dp3259
g101
g102
ssg83
g3249
sg76
(lp3260
S':'
asbag69
(g90
g71
NtRp3261
(dp3262
g74
(dp3263
sg83
g3249
sg76
(lp3264
g69
(g70
g71
NtRp3265
(dp3266
g74
(dp3267
g82
I5
ssg83
g3261
sg76
(lp3268
g69
(g78
g71
NtRp3269
(dp3270
g74
(dp3271
g82
I4
ssg83
Nsg76
(lp3272
g69
(g85
g71
NtRp3273
(dp3274
g74
(dp3275
sg83
g3269
sg76
(lp3276
g69
(g90
g71
NtRp3277
(dp3278
g74
(dp3279
g94
g95
ssg83
g3273
sg76
(lp3280
S'session_id_read_it'
p3281
asbag69
(g90
g71
NtRp3282
(dp3283
g74
(dp3284
g101
g102
ssg83
g3273
sg76
(lp3285
S':'
asbag69
(g90
g71
NtRp3286
(dp3287
g74
(dp3288
sg83
g3273
sg76
(lp3289
g69
(g70
g71
NtRp3290
(dp3291
g74
(dp3292
g82
I4
ssg83
g3286
sg76
(lp3293
g69
(g78
g71
NtRp3294
(dp3295
g74
(dp3296
g82
I3
ssg83
Nsg76
(lp3297
g69
(g85
g71
NtRp3298
(dp3299
g74
(dp3300
sg83
g3294
sg76
(lp3301
g69
(g90
g71
NtRp3302
(dp3303
g74
(dp3304
g94
g95
ssg83
g3298
sg76
(lp3305
g295
asbag69
(g90
g71
NtRp3306
(dp3307
g74
(dp3308
g101
g102
ssg83
g3298
sg76
(lp3309
S':'
asbag69
(g90
g71
NtRp3310
(dp3311
g74
(dp3312
sg83
g3298
sg76
(lp3313
g69
(g70
g71
NtRp3314
(dp3315
g74
(dp3316
g82
I3
ssg83
g3310
sg76
(lp3317
S''
asbasbasbag69
(g85
g71
NtRp3318
(dp3319
g74
(dp3320
sg83
g3294
sg76
(lp3321
g69
(g90
g71
NtRp3322
(dp3323
g74
(dp3324
g94
g95
ssg83
g3318
sg76
(lp3325
g316
asbag69
(g90
g71
NtRp3326
(dp3327
g74
(dp3328
g101
g102
ssg83
g3318
sg76
(lp3329
S':'
asbag69
(g90
g71
NtRp3330
(dp3331
g74
(dp3332
sg83
g3318
sg76
(lp3333
g69
(g70
g71
NtRp3334
(dp3335
g74
(dp3336
g82
I3
ssg83
g3330
sg76
(lp3337
S''
asbasbasbag69
(g85
g71
NtRp3338
(dp3339
g74
(dp3340
sg83
g3294
sg76
(lp3341
g69
(g90
g71
NtRp3342
(dp3343
g74
(dp3344
g94
g95
ssg83
g3338
sg76
(lp3345
g337
asbag69
(g90
g71
NtRp3346
(dp3347
g74
(dp3348
g101
g102
ssg83
g3338
sg76
(lp3349
S':'
asbag69
(g90
g71
NtRp3350
(dp3351
g74
(dp3352
sg83
g3338
sg76
(lp3353
g69
(g70
g71
NtRp3354
(dp3355
g74
(dp3356
g82
I3
ssg83
g3350
sg76
(lp3357
S''
asbasbasbag69
(g85
g71
NtRp3358
(dp3359
g74
(dp3360
sg83
g3294
sg76
(lp3361
g69
(g90
g71
NtRp3362
(dp3363
g74
(dp3364
g94
g95
ssg83
g3358
sg76
(lp3365
g358
asbag69
(g90
g71
NtRp3366
(dp3367
g74
(dp3368
g101
g102
ssg83
g3358
sg76
(lp3369
S':'
asbag69
(g90
g71
NtRp3370
(dp3371
g74
(dp3372
sg83
g3358
sg76
(lp3373
g69
(g70
g71
NtRp3374
(dp3375
g74
(dp3376
g82
I3
ssg83
g3370
sg76
(lp3377
S''
asbasbasbag69
(g85
g71
NtRp3378
(dp3379
g74
(dp3380
sg83
g3294
sg76
(lp3381
g69
(g90
g71
NtRp3382
(dp3383
g74
(dp3384
g94
g95
ssg83
g3378
sg76
(lp3385
g379
asbag69
(g90
g71
NtRp3386
(dp3387
g74
(dp3388
g101
g102
ssg83
g3378
sg76
(lp3389
S':'
asbag69
(g90
g71
NtRp3390
(dp3391
g74
(dp3392
sg83
g3378
sg76
(lp3393
g69
(g70
g71
NtRp3394
(dp3395
g74
(dp3396
g82
I3
ssg83
g3390
sg76
(lp3397
S''
asbasbasbag69
(g85
g71
NtRp3398
(dp3399
g74
(dp3400
sg83
g3294
sg76
(lp3401
g69
(g90
g71
NtRp3402
(dp3403
g74
(dp3404
g94
g95
ssg83
g3398
sg76
(lp3405
g400
asbag69
(g90
g71
NtRp3406
(dp3407
g74
(dp3408
g101
g102
ssg83
g3398
sg76
(lp3409
S':'
asbag69
(g90
g71
NtRp3410
(dp3411
g74
(dp3412
sg83
g3398
sg76
(lp3413
g69
(g70
g71
NtRp3414
(dp3415
g74
(dp3416
g82
I3
ssg83
g3410
sg76
(lp3417
S'/'
asbasbasbag69
(g85
g71
NtRp3418
(dp3419
g74
(dp3420
sg83
g3294
sg76
(lp3421
g69
(g90
g71
NtRp3422
(dp3423
g74
(dp3424
g94
g95
ssg83
g3418
sg76
(lp3425
g421
asbag69
(g90
g71
NtRp3426
(dp3427
g74
(dp3428
g101
g102
ssg83
g3418
sg76
(lp3429
S':'
asbag69
(g90
g71
NtRp3430
(dp3431
g74
(dp3432
sg83
g3418
sg76
(lp3433
g69
(g70
g71
NtRp3434
(dp3435
g74
(dp3436
g82
I3
ssg83
g3430
sg76
(lp3437
S''
asbasbasbag69
(g85
g71
NtRp3438
(dp3439
g74
(dp3440
sg83
g3294
sg76
(lp3441
g69
(g90
g71
NtRp3442
(dp3443
g74
(dp3444
g94
g95
ssg83
g3438
sg76
(lp3445
g442
asbag69
(g90
g71
NtRp3446
(dp3447
g74
(dp3448
g101
g102
ssg83
g3438
sg76
(lp3449
S':'
asbag69
(g90
g71
NtRp3450
(dp3451
g74
(dp3452
sg83
g3438
sg76
(lp3453
g69
(g70
g71
NtRp3454
(dp3455
g74
(dp3456
g82
I3
ssg83
g3450
sg76
(lp3457
S''
asbasbasbasbasbasbasbasbasbasbasbag69
(g85
g71
NtRp3458
(dp3459
g74
(dp3460
sg83
g3224
sg76
(lp3461
g69
(g90
g71
NtRp3462
(dp3463
g74
(dp3464
g94
g95
ssg83
g3458
sg76
(lp3465
S'files'
p3466
asbag69
(g90
g71
NtRp3467
(dp3468
g74
(dp3469
g101
g102
ssg83
g3458
sg76
(lp3470
S':'
asbag69
(g90
g71
NtRp3471
(dp3472
g74
(dp3473
sg83
g3458
sg76
(lp3474
g69
(g70
g71
NtRp3475
(dp3476
g74
(dp3477
g82
I5
ssg83
g3471
sg76
(lp3478
g69
(g78
g71
NtRp3479
(dp3480
g74
(dp3481
g82
I4
ssg83
Nsg76
(lp3482
sbasbasbasbag69
(g85
g71
NtRp3483
(dp3484
g74
(dp3485
sg83
g3224
sg76
(lp3486
g69
(g90
g71
NtRp3487
(dp3488
g74
(dp3489
g94
g95
ssg83
g3483
sg76
(lp3490
S'flash'
p3491
asbag69
(g90
g71
NtRp3492
(dp3493
g74
(dp3494
g101
g102
ssg83
g3483
sg76
(lp3495
S':'
asbag69
(g90
g71
NtRp3496
(dp3497
g74
(dp3498
sg83
g3483
sg76
(lp3499
g69
(g70
g71
NtRp3500
(dp3501
g74
(dp3502
g82
I5
ssg83
g3496
sg76
(lp3503
S'Please post'
p3504
asbasbasbag69
(g85
g71
NtRp3505
(dp3506
g74
(dp3507
sg83
g3224
sg76
(lp3508
g69
(g90
g71
NtRp3509
(dp3510
g74
(dp3511
g94
g95
ssg83
g3505
sg76
(lp3512
S'generic_patterns'
p3513
asbag69
(g90
g71
NtRp3514
(dp3515
g74
(dp3516
g101
g102
ssg83
g3505
sg76
(lp3517
S':'
asbag69
(g90
g71
NtRp3518
(dp3519
g74
(dp3520
sg83
g3505
sg76
(lp3521
g69
(g70
g71
NtRp3522
(dp3523
g74
(dp3524
g82
I5
ssg83
g3518
sg76
(lp3525
g69
(g78
g71
NtRp3526
(dp3527
g74
(dp3528
g82
I4
ssg83
Nsg76
(lp3529
g69
(g85
g71
NtRp3530
(dp3531
g74
(dp3532
sg83
g3526
sg76
(lp3533
g69
(g90
g71
NtRp3534
(dp3535
g74
(dp3536
sg83
g3530
sg76
(lp3537
g69
(g70
g71
NtRp3538
(dp3539
g74
(dp3540
g82
I4
ssg83
g3534
sg76
(lp3541
S'*'
asbasbasbasbasbasbasbag69
(g85
g71
NtRp3542
(dp3543
g74
(dp3544
sg83
g3224
sg76
(lp3545
g69
(g90
g71
NtRp3546
(dp3547
g74
(dp3548
g94
g95
ssg83
g3542
sg76
(lp3549
S'headers'
p3550
asbag69
(g90
g71
NtRp3551
(dp3552
g74
(dp3553
g101
g102
ssg83
g3542
sg76
(lp3554
S':'
asbag69
(g90
g71
NtRp3555
(dp3556
g74
(dp3557
sg83
g3542
sg76
(lp3558
g69
(g70
g71
NtRp3559
(dp3560
g74
(dp3561
g82
I5
ssg83
g3555
sg76
(lp3562
g69
(g78
g71
NtRp3563
(dp3564
g74
(dp3565
g82
I4
ssg83
Nsg76
(lp3566
g69
(g85
g71
NtRp3567
(dp3568
g74
(dp3569
sg83
g3563
sg76
(lp3570
g69
(g90
g71
NtRp3571
(dp3572
g74
(dp3573
g94
g95
ssg83
g3567
sg76
(lp3574
S'Cache-Control'
p3575
asbag69
(g90
g71
NtRp3576
(dp3577
g74
(dp3578
g101
g102
ssg83
g3567
sg76
(lp3579
S':'
asbag69
(g90
g71
NtRp3580
(dp3581
g74
(dp3582
sg83
g3567
sg76
(lp3583
g69
(g70
g71
NtRp3584
(dp3585
g74
(dp3586
g82
I4
ssg83
g3580
sg76
(lp3587
S'no-store, no-cache, must-revalidate, post-check=0, pre-check=0'
p3588
asbasbasbag69
(g85
g71
NtRp3589
(dp3590
g74
(dp3591
sg83
g3563
sg76
(lp3592
g69
(g90
g71
NtRp3593
(dp3594
g74
(dp3595
g94
g95
ssg83
g3589
sg76
(lp3596
S'Content-Type'
p3597
asbag69
(g90
g71
NtRp3598
(dp3599
g74
(dp3600
g101
g102
ssg83
g3589
sg76
(lp3601
S':'
asbag69
(g90
g71
NtRp3602
(dp3603
g74
(dp3604
sg83
g3589
sg76
(lp3605
g69
(g70
g71
NtRp3606
(dp3607
g74
(dp3608
g82
I4
ssg83
g3602
sg76
(lp3609
S'text/html; charset=utf-8'
p3610
asbasbasbag69
(g85
g71
NtRp3611
(dp3612
g74
(dp3613
sg83
g3563
sg76
(lp3614
g69
(g90
g71
NtRp3615
(dp3616
g74
(dp3617
g94
g95
ssg83
g3611
sg76
(lp3618
S'Expires'
p3619
asbag69
(g90
g71
NtRp3620
(dp3621
g74
(dp3622
g101
g102
ssg83
g3611
sg76
(lp3623
S':'
asbag69
(g90
g71
NtRp3624
(dp3625
g74
(dp3626
sg83
g3611
sg76
(lp3627
g69
(g70
g71
NtRp3628
(dp3629
g74
(dp3630
g82
I4
ssg83
g3624
sg76
(lp3631
S'Thu, 29 Aug 2013 22:21:02 GMT'
p3632
asbasbasbag69
(g85
g71
NtRp3633
(dp3634
g74
(dp3635
sg83
g3563
sg76
(lp3636
g69
(g90
g71
NtRp3637
(dp3638
g74
(dp3639
g94
g95
ssg83
g3633
sg76
(lp3640
S'Pragma'
p3641
asbag69
(g90
g71
NtRp3642
(dp3643
g74
(dp3644
g101
g102
ssg83
g3633
sg76
(lp3645
S':'
asbag69
(g90
g71
NtRp3646
(dp3647
g74
(dp3648
sg83
g3633
sg76
(lp3649
g69
(g70
g71
NtRp3650
(dp3651
g74
(dp3652
g82
I4
ssg83
g3646
sg76
(lp3653
S'no-cache'
p3654
asbasbasbag69
(g85
g71
NtRp3655
(dp3656
g74
(dp3657
sg83
g3563
sg76
(lp3658
g69
(g90
g71
NtRp3659
(dp3660
g74
(dp3661
g94
g95
ssg83
g3655
sg76
(lp3662
S'X-Powered-By'
p3663
asbag69
(g90
g71
NtRp3664
(dp3665
g74
(dp3666
g101
g102
ssg83
g3655
sg76
(lp3667
S':'
asbag69
(g90
g71
NtRp3668
(dp3669
g74
(dp3670
sg83
g3655
sg76
(lp3671
g69
(g70
g71
NtRp3672
(dp3673
g74
(dp3674
g82
I4
ssg83
g3668
sg76
(lp3675
S'web2py'
p3676
asbasbasbasbasbasbasbag69
(g85
g71
NtRp3677
(dp3678
g74
(dp3679
sg83
g3224
sg76
(lp3680
g69
(g90
g71
NtRp3681
(dp3682
g74
(dp3683
g94
g95
ssg83
g3677
sg76
(lp3684
S'menu'
p3685
asbag69
(g90
g71
NtRp3686
(dp3687
g74
(dp3688
g101
g102
ssg83
g3677
sg76
(lp3689
S':'
asbag69
(g90
g71
NtRp3690
(dp3691
g74
(dp3692
sg83
g3677
sg76
(lp3693
g69
(g70
g71
NtRp3694
(dp3695
g74
(dp3696
g82
I5
ssg83
g3690
sg76
(lp3697
g69
(g78
g71
NtRp3698
(dp3699
g74
(dp3700
g82
I4
ssg83
Nsg76
(lp3701
g69
(g85
g71
NtRp3702
(dp3703
g74
(dp3704
sg83
g3698
sg76
(lp3705
g69
(g90
g71
NtRp3706
(dp3707
g74
(dp3708
sg83
g3702
sg76
(lp3709
g69
(g70
g71
NtRp3710
(dp3711
g74
(dp3712
g82
I4
ssg83
g3706
sg76
(lp3713
g69
(g78
g71
NtRp3714
(dp3715
g74
(dp3716
g82
I3
ssg83
Nsg76
(lp3717
g69
(g85
g71
NtRp3718
(dp3719
g74
(dp3720
sg83
g3714
sg76
(lp3721
g69
(g90
g71
NtRp3722
(dp3723
g74
(dp3724
sg83
g3718
sg76
(lp3725
g69
(g70
g71
NtRp3726
(dp3727
g74
(dp3728
g82
I3
ssg83
g3722
sg76
(lp3729
cgluon.languages
lazyT_unpickle
p3730
(S't\x04\x00\x00\x00Home'
tRp3731
asbasbasbag69
(g85
g71
NtRp3732
(dp3733
g74
(dp3734
sg83
g3714
sg76
(lp3735
g69
(g90
g71
NtRp3736
(dp3737
g74
(dp3738
sg83
g3732
sg76
(lp3739
g69
(g70
g71
NtRp3740
(dp3741
g74
(dp3742
g82
I3
ssg83
g3736
sg76
(lp3743
g112
asbasbasbag69
(g85
g71
NtRp3744
(dp3745
g74
(dp3746
sg83
g3714
sg76
(lp3747
g69
(g90
g71
NtRp3748
(dp3749
g74
(dp3750
sg83
g3744
sg76
(lp3751
g69
(g70
g71
NtRp3752
(dp3753
g74
(dp3754
g82
I3
ssg83
g3748
sg76
(lp3755
S'/Read_it/default/index'
p3756
asbasbasbag69
(g85
g71
NtRp3757
(dp3758
g74
(dp3759
sg83
g3714
sg76
(lp3760
g69
(g90
g71
NtRp3761
(dp3762
g74
(dp3763
sg83
g3757
sg76
(lp3764
g69
(g70
g71
NtRp3765
(dp3766
g74
(dp3767
g82
I3
ssg83
g3761
sg76
(lp3768
g69
(g78
g71
NtRp3769
(dp3770
g74
(dp3771
g82
I2
ssg83
Nsg76
(lp3772
sbasbasbasbasbasbasbasbag69
(g85
g71
NtRp3773
(dp3774
g74
(dp3775
sg83
g3698
sg76
(lp3776
g69
(g90
g71
NtRp3777
(dp3778
g74
(dp3779
sg83
g3773
sg76
(lp3780
g69
(g70
g71
NtRp3781
(dp3782
g74
(dp3783
g82
I4
ssg83
g3777
sg76
(lp3784
g69
(g78
g71
NtRp3785
(dp3786
g74
(dp3787
g82
I3
ssg83
Nsg76
(lp3788
g69
(g85
g71
NtRp3789
(dp3790
g74
(dp3791
sg83
g3785
sg76
(lp3792
g69
(g90
g71
NtRp3793
(dp3794
g74
(dp3795
sg83
g3789
sg76
(lp3796
g69
(g70
g71
NtRp3797
(dp3798
g74
(dp3799
g82
I3
ssg83
g3793
sg76
(lp3800
g69
(cgluon.html
SPAN
p3801
g71
NtRp3802
(dp3803
g74
(dp3804
g94
S'color:yellow'
p3805
ssg83
Nsg76
(lp3806
g3676
asbasbasbasbag69
(g85
g71
NtRp3807
(dp3808
g74
(dp3809
sg83
g3785
sg76
(lp3810
g69
(g90
g71
NtRp3811
(dp3812
g74
(dp3813
sg83
g3807
sg76
(lp3814
g69
(g70
g71
NtRp3815
(dp3816
g74
(dp3817
g82
I3
ssg83
g3811
sg76
(lp3818
g112
asbasbasbag69
(g85
g71
NtRp3819
(dp3820
g74
(dp3821
sg83
g3785
sg76
(lp3822
g69
(g90
g71
NtRp3823
(dp3824
g74
(dp3825
sg83
g3819
sg76
(lp3826
g69
(g70
g71
NtRp3827
(dp3828
g74
(dp3829
g82
I3
ssg83
g3823
sg76
(lp3830
S'None'
p3831
asbasbasbag69
(g85
g71
NtRp3832
(dp3833
g74
(dp3834
sg83
g3785
sg76
(lp3835
g69
(g90
g71
NtRp3836
(dp3837
g74
(dp3838
sg83
g3832
sg76
(lp3839
g69
(g70
g71
NtRp3840
(dp3841
g74
(dp3842
g82
I3
ssg83
g3836
sg76
(lp3843
g69
(g78
g71
NtRp3844
(dp3845
g74
(dp3846
g82
I2
ssg83
Nsg76
(lp3847
g69
(g85
g71
NtRp3848
(dp3849
g74
(dp3850
sg83
g3844
sg76
(lp3851
g69
(g90
g71
NtRp3852
(dp3853
g74
(dp3854
sg83
g3848
sg76
(lp3855
g69
(g70
g71
NtRp3856
(dp3857
g74
(dp3858
g82
I2
ssg83
g3852
sg76
(lp3859
g69
(g78
g71
NtRp3860
(dp3861
g74
(dp3862
g82
I1
ssg83
Nsg76
(lp3863
g69
(g85
g71
NtRp3864
(dp3865
g74
(dp3866
sg83
g3860
sg76
(lp3867
g69
(g90
g71
NtRp3868
(dp3869
g74
(dp3870
sg83
g3864
sg76
(lp3871
g69
(g70
g71
NtRp3872
(dp3873
g74
(dp3874
g82
I1
ssg83
g3868
sg76
(lp3875
g3730
(S's\x08\x00\x00\x00My Sites'
tRp3876
asbasbasbag69
(g85
g71
NtRp3877
(dp3878
g74
(dp3879
sg83
g3860
sg76
(lp3880
g69
(g90
g71
NtRp3881
(dp3882
g74
(dp3883
sg83
g3877
sg76
(lp3884
g69
(g70
g71
NtRp3885
(dp3886
g74
(dp3887
g82
I1
ssg83
g3881
sg76
(lp3888
I00
asbasbasbag69
(g85
g71
NtRp3889
(dp3890
g74
(dp3891
sg83
g3860
sg76
(lp3892
g69
(g90
g71
NtRp3893
(dp3894
g74
(dp3895
sg83
g3889
sg76
(lp3896
g69
(g70
g71
NtRp3897
(dp3898
g74
(dp3899
g82
I1
ssg83
g3893
sg76
(lp3900
S'/admin/default/site'
p3901
asbasbasbasbasbasbasbag69
(g85
g71
NtRp3902
(dp3903
g74
(dp3904
sg83
g3844
sg76
(lp3905
g69
(g90
g71
NtRp3906
(dp3907
g74
(dp3908
sg83
g3902
sg76
(lp3909
g69
(g70
g71
NtRp3910
(dp3911
g74
(dp3912
g82
I2
ssg83
g3906
sg76
(lp3913
g69
(g78
g71
NtRp3914
(dp3915
g74
(dp3916
g82
I1
ssg83
Nsg76
(lp3917
g69
(g85
g71
NtRp3918
(dp3919
g74
(dp3920
sg83
g3914
sg76
(lp3921
g69
(g90
g71
NtRp3922
(dp3923
g74
(dp3924
sg83
g3918
sg76
(lp3925
g69
(g70
g71
NtRp3926
(dp3927
g74
(dp3928
g82
I1
ssg83
g3922
sg76
(lp3929
g3730
(S's\x08\x00\x00\x00This App'
tRp3930
asbasbasbag69
(g85
g71
NtRp3931
(dp3932
g74
(dp3933
sg83
g3914
sg76
(lp3934
g69
(g90
g71
NtRp3935
(dp3936
g74
(dp3937
sg83
g3931
sg76
(lp3938
g69
(g70
g71
NtRp3939
(dp3940
g74
(dp3941
g82
I1
ssg83
g3935
sg76
(lp3942
I00
asbasbasbag69
(g85
g71
NtRp3943
(dp3944
g74
(dp3945
sg83
g3914
sg76
(lp3946
g69
(g90
g71
NtRp3947
(dp3948
g74
(dp3949
sg83
g3943
sg76
(lp3950
g69
(g70
g71
NtRp3951
(dp3952
g74
(dp3953
g82
I1
ssg83
g3947
sg76
(lp3954
S'/admin/default/design/Read_it'
p3955
asbasbasbag69
(g85
g71
NtRp3956
(dp3957
g74
(dp3958
sg83
g3914
sg76
(lp3959
g69
(g90
g71
NtRp3960
(dp3961
g74
(dp3962
sg83
g3956
sg76
(lp3963
g69
(g70
g71
NtRp3964
(dp3965
g74
(dp3966
g82
I1
ssg83
g3960
sg76
(lp3967
(lp3968
(g3730
(S't\n\x00\x00\x00Controller'
tRp3969
I00
S'/admin/default/edit/Read_it/controllers/default.py'
tp3970
a(g3730
(S't\x04\x00\x00\x00View'
tRp3971
I00
S'/admin/default/edit/Read_it/views/default/comments.html'
tp3972
a(g3730
(S't\x06\x00\x00\x00Layout'
tRp3973
I00
S'/admin/default/edit/Read_it/views/layout.html'
tp3974
a(g3730
(S't\n\x00\x00\x00Stylesheet'
tRp3975
I00
S'/admin/default/edit/Read_it/static/css/web2py.css'
tp3976
a(g3730
(S's\x08\x00\x00\x00DB Model'
tRp3977
I00
S'/admin/default/edit/Read_it/models/db.py'
tp3978
a(g3730
(S's\n\x00\x00\x00Menu Model'
tRp3979
I00
S'/admin/default/edit/Read_it/models/menu.py'
tp3980
a(g3730
(S't\x08\x00\x00\x00Database'
tRp3981
I00
S'/Read_it/appadmin/index'
tp3982
a(g3730
(S't\x06\x00\x00\x00Errors'
tRp3983
I00
S'/admin/default/errors/Read_it'
tp3984
a(g3730
(S't\x05\x00\x00\x00About'
tRp3985
I00
S'/admin/default/about/Read_it'
tp3986
aasbasbasbasbasbasbasbag69
(g85
g71
NtRp3987
(dp3988
g74
(dp3989
sg83
g3844
sg76
(lp3990
g69
(g90
g71
NtRp3991
(dp3992
g74
(dp3993
sg83
g3987
sg76
(lp3994
g69
(g70
g71
NtRp3995
(dp3996
g74
(dp3997
g82
I2
ssg83
g3991
sg76
(lp3998
g69
(g78
g71
NtRp3999
(dp4000
g74
(dp4001
g82
I1
ssg83
Nsg76
(lp4002
g69
(g85
g71
NtRp4003
(dp4004
g74
(dp4005
sg83
g3999
sg76
(lp4006
g69
(g90
g71
NtRp4007
(dp4008
g74
(dp4009
sg83
g4003
sg76
(lp4010
g69
(g70
g71
NtRp4011
(dp4012
g74
(dp4013
g82
I1
ssg83
g4007
sg76
(lp4014
S'web2py.com'
p4015
asbasbasbag69
(g85
g71
NtRp4016
(dp4017
g74
(dp4018
sg83
g3999
sg76
(lp4019
g69
(g90
g71
NtRp4020
(dp4021
g74
(dp4022
sg83
g4016
sg76
(lp4023
g69
(g70
g71
NtRp4024
(dp4025
g74
(dp4026
g82
I1
ssg83
g4020
sg76
(lp4027
I00
asbasbasbag69
(g85
g71
NtRp4028
(dp4029
g74
(dp4030
sg83
g3999
sg76
(lp4031
g69
(g90
g71
NtRp4032
(dp4033
g74
(dp4034
sg83
g4028
sg76
(lp4035
g69
(g70
g71
NtRp4036
(dp4037
g74
(dp4038
g82
I1
ssg83
g4032
sg76
(lp4039
S'http://www.web2py.com'
p4040
asbasbasbag69
(g85
g71
NtRp4041
(dp4042
g74
(dp4043
sg83
g3999
sg76
(lp4044
g69
(g90
g71
NtRp4045
(dp4046
g74
(dp4047
sg83
g4041
sg76
(lp4048
g69
(g70
g71
NtRp4049
(dp4050
g74
(dp4051
g82
I1
ssg83
g4045
sg76
(lp4052
(lp4053
(g3730
(S't\x08\x00\x00\x00Download'
tRp4054
I00
S'http://www.web2py.com/examples/default/download'
p4055
tp4056
a(g3730
(S't\x07\x00\x00\x00Support'
tRp4057
I00
S'http://www.web2py.com/examples/default/support'
p4058
tp4059
a(g3730
(S't\x04\x00\x00\x00Demo'
tRp4060
I00
S'http://web2py.com/demo_admin'
p4061
tp4062
a(g3730
(S's\x0e\x00\x00\x00Quick Examples'
tRp4063
I00
S'http://web2py.com/examples/default/examples'
p4064
tp4065
a(g3730
(S't\x03\x00\x00\x00FAQ'
tRp4066
I00
S'http://web2py.com/AlterEgo'
p4067
tp4068
a(g3730
(S't\x06\x00\x00\x00Videos'
tRp4069
I00
S'http://www.web2py.com/examples/default/videos/'
p4070
tp4071
a(g3730
(S's\x11\x00\x00\x00Free Applications'
tRp4072
I00
S'http://web2py.com/appliances'
p4073
tp4074
a(g3730
(S't\x07\x00\x00\x00Plugins'
tRp4075
I00
S'http://web2py.com/plugins'
p4076
tp4077
a(g3730
(S't\x07\x00\x00\x00Layouts'
tRp4078
I00
S'http://web2py.com/layouts'
p4079
tp4080
a(g3730
(S't\x07\x00\x00\x00Recipes'
tRp4081
I00
S'http://web2pyslices.com/'
p4082
tp4083
a(g3730
(S't\x08\x00\x00\x00Semantic'
tRp4084
I00
S'http://web2py.com/semantic'
p4085
tp4086
aasbasbasbasbasbasbasbag69
(g85
g71
NtRp4087
(dp4088
g74
(dp4089
sg83
g3844
sg76
(lp4090
g69
(g90
g71
NtRp4091
(dp4092
g74
(dp4093
sg83
g4087
sg76
(lp4094
g69
(g70
g71
NtRp4095
(dp4096
g74
(dp4097
g82
I2
ssg83
g4091
sg76
(lp4098
g69
(g78
g71
NtRp4099
(dp4100
g74
(dp4101
g82
I1
ssg83
Nsg76
(lp4102
g69
(g85
g71
NtRp4103
(dp4104
g74
(dp4105
sg83
g4099
sg76
(lp4106
g69
(g90
g71
NtRp4107
(dp4108
g74
(dp4109
sg83
g4103
sg76
(lp4110
g69
(g70
g71
NtRp4111
(dp4112
g74
(dp4113
g82
I1
ssg83
g4107
sg76
(lp4114
g3730
(S't\r\x00\x00\x00Documentation'
tRp4115
asbasbasbag69
(g85
g71
NtRp4116
(dp4117
g74
(dp4118
sg83
g4099
sg76
(lp4119
g69
(g90
g71
NtRp4120
(dp4121
g74
(dp4122
sg83
g4116
sg76
(lp4123
g69
(g70
g71
NtRp4124
(dp4125
g74
(dp4126
g82
I1
ssg83
g4120
sg76
(lp4127
I00
asbasbasbag69
(g85
g71
NtRp4128
(dp4129
g74
(dp4130
sg83
g4099
sg76
(lp4131
g69
(g90
g71
NtRp4132
(dp4133
g74
(dp4134
sg83
g4128
sg76
(lp4135
g69
(g70
g71
NtRp4136
(dp4137
g74
(dp4138
g82
I1
ssg83
g4132
sg76
(lp4139
S'http://www.web2py.com/book'
p4140
asbasbasbag69
(g85
g71
NtRp4141
(dp4142
g74
(dp4143
sg83
g4099
sg76
(lp4144
g69
(g90
g71
NtRp4145
(dp4146
g74
(dp4147
sg83
g4141
sg76
(lp4148
g69
(g70
g71
NtRp4149
(dp4150
g74
(dp4151
g82
I1
ssg83
g4145
sg76
(lp4152
(lp4153
(g3730
(S't\x07\x00\x00\x00Preface'
tRp4154
I00
S'http://www.web2py.com/book/default/chapter/00'
p4155
tp4156
a(g3730
(S't\x0c\x00\x00\x00Introduction'
tRp4157
I00
S'http://www.web2py.com/book/default/chapter/01'
p4158
tp4159
a(g3730
(S't\x06\x00\x00\x00Python'
tRp4160
I00
S'http://www.web2py.com/book/default/chapter/02'
p4161
tp4162
a(g3730
(S't\x08\x00\x00\x00Overview'
tRp4163
I00
S'http://www.web2py.com/book/default/chapter/03'
p4164
tp4165
a(g3730
(S's\x08\x00\x00\x00The Core'
tRp4166
I00
S'http://www.web2py.com/book/default/chapter/04'
p4167
tp4168
a(g3730
(S's\t\x00\x00\x00The Views'
tRp4169
I00
S'http://www.web2py.com/book/default/chapter/05'
p4170
tp4171
a(g3730
(S't\x08\x00\x00\x00Database'
tRp4172
I00
S'http://www.web2py.com/book/default/chapter/06'
p4173
tp4174
a(g3730
(S's\x14\x00\x00\x00Forms and Validators'
tRp4175
I00
S'http://www.web2py.com/book/default/chapter/07'
p4176
tp4177
a(g3730
(S's\r\x00\x00\x00Email and SMS'
tRp4178
I00
S'http://www.web2py.com/book/default/chapter/08'
p4179
tp4180
a(g3730
(S's\x0e\x00\x00\x00Access Control'
tRp4181
I00
S'http://www.web2py.com/book/default/chapter/09'
p4182
tp4183
a(g3730
(S't\x08\x00\x00\x00Services'
tRp4184
I00
S'http://www.web2py.com/book/default/chapter/10'
p4185
tp4186
a(g3730
(S's\x0c\x00\x00\x00Ajax Recipes'
tRp4187
I00
S'http://www.web2py.com/book/default/chapter/11'
p4188
tp4189
a(g3730
(S's\x16\x00\x00\x00Components and Plugins'
tRp4190
I00
S'http://www.web2py.com/book/default/chapter/12'
p4191
tp4192
a(g3730
(S's\x12\x00\x00\x00Deployment Recipes'
tRp4193
I00
S'http://www.web2py.com/book/default/chapter/13'
p4194
tp4195
a(g3730
(S's\r\x00\x00\x00Other Recipes'
tRp4196
I00
S'http://www.web2py.com/book/default/chapter/14'
p4197
tp4198
a(g3730
(S's\r\x00\x00\x00Buy this book'
tRp4199
I00
S'http://stores.lulu.com/web2py'
p4200
tp4201
aasbasbasbasbasbasbasbag69
(g85
g71
NtRp4202
(dp4203
g74
(dp4204
sg83
g3844
sg76
(lp4205
g69
(g90
g71
NtRp4206
(dp4207
g74
(dp4208
sg83
g4202
sg76
(lp4209
g69
(g70
g71
NtRp4210
(dp4211
g74
(dp4212
g82
I2
ssg83
g4206
sg76
(lp4213
g69
(g78
g71
NtRp4214
(dp4215
g74
(dp4216
g82
I1
ssg83
Nsg76
(lp4217
g69
(g85
g71
NtRp4218
(dp4219
g74
(dp4220
sg83
g4214
sg76
(lp4221
g69
(g90
g71
NtRp4222
(dp4223
g74
(dp4224
sg83
g4218
sg76
(lp4225
g69
(g70
g71
NtRp4226
(dp4227
g74
(dp4228
g82
I1
ssg83
g4222
sg76
(lp4229
g3730
(S't\t\x00\x00\x00Community'
tRp4230
asbasbasbag69
(g85
g71
NtRp4231
(dp4232
g74
(dp4233
sg83
g4214
sg76
(lp4234
g69
(g90
g71
NtRp4235
(dp4236
g74
(dp4237
sg83
g4231
sg76
(lp4238
g69
(g70
g71
NtRp4239
(dp4240
g74
(dp4241
g82
I1
ssg83
g4235
sg76
(lp4242
I00
asbasbasbag69
(g85
g71
NtRp4243
(dp4244
g74
(dp4245
sg83
g4214
sg76
(lp4246
g69
(g90
g71
NtRp4247
(dp4248
g74
(dp4249
sg83
g4243
sg76
(lp4250
g69
(g70
g71
NtRp4251
(dp4252
g74
(dp4253
g82
I1
ssg83
g4247
sg76
(lp4254
Nasbasbasbag69
(g85
g71
NtRp4255
(dp4256
g74
(dp4257
sg83
g4214
sg76
(lp4258
g69
(g90
g71
NtRp4259
(dp4260
g74
(dp4261
sg83
g4255
sg76
(lp4262
g69
(g70
g71
NtRp4263
(dp4264
g74
(dp4265
g82
I1
ssg83
g4259
sg76
(lp4266
(lp4267
(g3730
(S't\x06\x00\x00\x00Groups'
tRp4268
I00
S'http://www.web2py.com/examples/default/usergroups'
p4269
tp4270
a(g3730
(S't\x07\x00\x00\x00Twitter'
tRp4271
I00
S'http://twitter.com/web2py'
p4272
tp4273
a(g3730
(S's\t\x00\x00\x00Live Chat'
tRp4274
I00
S'http://webchat.freenode.net/?channels=web2py'
p4275
tp4276
aasbasbasbasbasbasbasbag69
(g85
g71
NtRp4277
(dp4278
g74
(dp4279
sg83
g3844
sg76
(lp4280
g69
(g90
g71
NtRp4281
(dp4282
g74
(dp4283
sg83
g4277
sg76
(lp4284
g69
(g70
g71
NtRp4285
(dp4286
g74
(dp4287
g82
I2
ssg83
g4281
sg76
(lp4288
g69
(g78
g71
NtRp4289
(dp4290
g74
(dp4291
g82
I1
ssg83
Nsg76
(lp4292
g69
(g85
g71
NtRp4293
(dp4294
g74
(dp4295
sg83
g4289
sg76
(lp4296
g69
(g90
g71
NtRp4297
(dp4298
g74
(dp4299
sg83
g4293
sg76
(lp4300
g69
(g70
g71
NtRp4301
(dp4302
g74
(dp4303
g82
I1
ssg83
g4297
sg76
(lp4304
g3730
(S't\x07\x00\x00\x00Plugins'
tRp4305
asbasbasbag69
(g85
g71
NtRp4306
(dp4307
g74
(dp4308
sg83
g4289
sg76
(lp4309
g69
(g90
g71
NtRp4310
(dp4311
g74
(dp4312
sg83
g4306
sg76
(lp4313
g69
(g70
g71
NtRp4314
(dp4315
g74
(dp4316
g82
I1
ssg83
g4310
sg76
(lp4317
I00
asbasbasbag69
(g85
g71
NtRp4318
(dp4319
g74
(dp4320
sg83
g4289
sg76
(lp4321
g69
(g90
g71
NtRp4322
(dp4323
g74
(dp4324
sg83
g4318
sg76
(lp4325
g69
(g70
g71
NtRp4326
(dp4327
g74
(dp4328
g82
I1
ssg83
g4322
sg76
(lp4329
Nasbasbasbag69
(g85
g71
NtRp4330
(dp4331
g74
(dp4332
sg83
g4289
sg76
(lp4333
g69
(g90
g71
NtRp4334
(dp4335
g74
(dp4336
sg83
g4330
sg76
(lp4337
g69
(g70
g71
NtRp4338
(dp4339
g74
(dp4340
g82
I1
ssg83
g4334
sg76
(lp4341
(lp4342
(S'plugin_wiki'
p4343
I00
S'http://web2py.com/examples/default/download'
p4344
tp4345
a(g3730
(S's\r\x00\x00\x00Other Plugins'
tRp4346
I00
g4076
tp4347
a(g3730
(S's\x0e\x00\x00\x00Layout Plugins'
tRp4348
I00
g4079
tp4349
aasbasbasbasbasbasbasbasbasbasbasbasbasbasbasbasbasbasbasbag69
(g85
g71
NtRp4350
(dp4351
g74
(dp4352
sg83
g3224
sg76
(lp4353
g69
(g90
g71
NtRp4354
(dp4355
g74
(dp4356
g94
g95
ssg83
g4350
sg76
(lp4357
S'meta'
p4358
asbag69
(g90
g71
NtRp4359
(dp4360
g74
(dp4361
g101
g102
ssg83
g4350
sg76
(lp4362
S':'
asbag69
(g90
g71
NtRp4363
(dp4364
g74
(dp4365
sg83
g4350
sg76
(lp4366
g69
(g70
g71
NtRp4367
(dp4368
g74
(dp4369
g82
I5
ssg83
g4363
sg76
(lp4370
g69
(g78
g71
NtRp4371
(dp4372
g74
(dp4373
g82
I4
ssg83
Nsg76
(lp4374
g69
(g85
g71
NtRp4375
(dp4376
g74
(dp4377
sg83
g4371
sg76
(lp4378
g69
(g90
g71
NtRp4379
(dp4380
g74
(dp4381
g94
g95
ssg83
g4375
sg76
(lp4382
S'author'
p4383
asbag69
(g90
g71
NtRp4384
(dp4385
g74
(dp4386
g101
g102
ssg83
g4375
sg76
(lp4387
S':'
asbag69
(g90
g71
NtRp4388
(dp4389
g74
(dp4390
sg83
g4375
sg76
(lp4391
g69
(g70
g71
NtRp4392
(dp4393
g74
(dp4394
g82
I4
ssg83
g4388
sg76
(lp4395
S'Your Name <you@example.com>'
p4396
asbasbasbag69
(g85
g71
NtRp4397
(dp4398
g74
(dp4399
sg83
g4371
sg76
(lp4400
g69
(g90
g71
NtRp4401
(dp4402
g74
(dp4403
g94
g95
ssg83
g4397
sg76
(lp4404
S'copyright'
p4405
asbag69
(g90
g71
NtRp4406
(dp4407
g74
(dp4408
g101
g102
ssg83
g4397
sg76
(lp4409
S':'
asbag69
(g90
g71
NtRp4410
(dp4411
g74
(dp4412
sg83
g4397
sg76
(lp4413
g69
(g70
g71
NtRp4414
(dp4415
g74
(dp4416
g82
I4
ssg83
g4410
sg76
(lp4417
S'Copyright 2011'
p4418
asbasbasbag69
(g85
g71
NtRp4419
(dp4420
g74
(dp4421
sg83
g4371
sg76
(lp4422
g69
(g90
g71
NtRp4423
(dp4424
g74
(dp4425
g94
g95
ssg83
g4419
sg76
(lp4426
S'description'
p4427
asbag69
(g90
g71
NtRp4428
(dp4429
g74
(dp4430
g101
g102
ssg83
g4419
sg76
(lp4431
S':'
asbag69
(g90
g71
NtRp4432
(dp4433
g74
(dp4434
sg83
g4419
sg76
(lp4435
g69
(g70
g71
NtRp4436
(dp4437
g74
(dp4438
g82
I4
ssg83
g4432
sg76
(lp4439
S'a cool new app'
p4440
asbasbasbag69
(g85
g71
NtRp4441
(dp4442
g74
(dp4443
sg83
g4371
sg76
(lp4444
g69
(g90
g71
NtRp4445
(dp4446
g74
(dp4447
g94
g95
ssg83
g4441
sg76
(lp4448
S'generator'
p4449
asbag69
(g90
g71
NtRp4450
(dp4451
g74
(dp4452
g101
g102
ssg83
g4441
sg76
(lp4453
S':'
asbag69
(g90
g71
NtRp4454
(dp4455
g74
(dp4456
sg83
g4441
sg76
(lp4457
g69
(g70
g71
NtRp4458
(dp4459
g74
(dp4460
g82
I4
ssg83
g4454
sg76
(lp4461
S'Web2py Web Framework'
p4462
asbasbasbag69
(g85
g71
NtRp4463
(dp4464
g74
(dp4465
sg83
g4371
sg76
(lp4466
g69
(g90
g71
NtRp4467
(dp4468
g74
(dp4469
g94
g95
ssg83
g4463
sg76
(lp4470
S'keywords'
p4471
asbag69
(g90
g71
NtRp4472
(dp4473
g74
(dp4474
g101
g102
ssg83
g4463
sg76
(lp4475
S':'
asbag69
(g90
g71
NtRp4476
(dp4477
g74
(dp4478
sg83
g4463
sg76
(lp4479
g69
(g70
g71
NtRp4480
(dp4481
g74
(dp4482
g82
I4
ssg83
g4476
sg76
(lp4483
S'web2py, python, framework'
p4484
asbasbasbasbasbasbasbag69
(g85
g71
NtRp4485
(dp4486
g74
(dp4487
sg83
g3224
sg76
(lp4488
g69
(g90
g71
NtRp4489
(dp4490
g74
(dp4491
g94
g95
ssg83
g4485
sg76
(lp4492
S'postprocessing'
p4493
asbag69
(g90
g71
NtRp4494
(dp4495
g74
(dp4496
g101
g102
ssg83
g4485
sg76
(lp4497
S':'
asbag69
(g90
g71
NtRp4498
(dp4499
g74
(dp4500
sg83
g4485
sg76
(lp4501
g69
(g70
g71
NtRp4502
(dp4503
g74
(dp4504
g82
I5
ssg83
g4498
sg76
(lp4505
g69
(g78
g71
NtRp4506
(dp4507
g74
(dp4508
g82
I4
ssg83
Nsg76
(lp4509
sbasbasbasbag69
(g85
g71
NtRp4510
(dp4511
g74
(dp4512
sg83
g3224
sg76
(lp4513
g69
(g90
g71
NtRp4514
(dp4515
g74
(dp4516
g94
g95
ssg83
g4510
sg76
(lp4517
S'session_file'
p4518
asbag69
(g90
g71
NtRp4519
(dp4520
g74
(dp4521
g101
g102
ssg83
g4510
sg76
(lp4522
S':'
asbag69
(g90
g71
NtRp4523
(dp4524
g74
(dp4525
sg83
g4510
sg76
(lp4526
g69
(g70
g71
NtRp4527
(dp4528
g74
(dp4529
g82
I5
ssg83
g4523
sg76
(lp4530
S"<open file '/home/ds-iiit/web2py/applications/Read_it/sessions/127.0.0.1-3b306805-b0b8-4f0a-8f0e-2c710fd6d755', mode 'rb+' at 0x7fdcc03b4db0>"
p4531
asbasbasbag69
(g85
g71
NtRp4532
(dp4533
g74
(dp4534
sg83
g3224
sg76
(lp4535
g69
(g90
g71
NtRp4536
(dp4537
g74
(dp4538
g94
g95
ssg83
g4532
sg76
(lp4539
S'session_filename'
p4540
asbag69
(g90
g71
NtRp4541
(dp4542
g74
(dp4543
g101
g102
ssg83
g4532
sg76
(lp4544
S':'
asbag69
(g90
g71
NtRp4545
(dp4546
g74
(dp4547
sg83
g4532
sg76
(lp4548
g69
(g70
g71
NtRp4549
(dp4550
g74
(dp4551
g82
I5
ssg83
g4545
sg76
(lp4552
S'/home/ds-iiit/web2py/applications/Read_it/sessions/127.0.0.1-3b306805-b0b8-4f0a-8f0e-2c710fd6d755'
p4553
asbasbasbag69
(g85
g71
NtRp4554
(dp4555
g74
(dp4556
sg83
g3224
sg76
(lp4557
g69
(g90
g71
NtRp4558
(dp4559
g74
(dp4560
g94
g95
ssg83
g4554
sg76
(lp4561
S'session_id'
p4562
asbag69
(g90
g71
NtRp4563
(dp4564
g74
(dp4565
g101
g102
ssg83
g4554
sg76
(lp4566
S':'
asbag69
(g90
g71
NtRp4567
(dp4568
g74
(dp4569
sg83
g4554
sg76
(lp4570
g69
(g70
g71
NtRp4571
(dp4572
g74
(dp4573
g82
I5
ssg83
g4567
sg76
(lp4574
S'127.0.0.1-3b306805-b0b8-4f0a-8f0e-2c710fd6d755'
p4575
asbasbasbag69
(g85
g71
NtRp4576
(dp4577
g74
(dp4578
sg83
g3224
sg76
(lp4579
g69
(g90
g71
NtRp4580
(dp4581
g74
(dp4582
g94
g95
ssg83
g4576
sg76
(lp4583
S'session_id_name'
p4584
asbag69
(g90
g71
NtRp4585
(dp4586
g74
(dp4587
g101
g102
ssg83
g4576
sg76
(lp4588
S':'
asbag69
(g90
g71
NtRp4589
(dp4590
g74
(dp4591
sg83
g4576
sg76
(lp4592
g69
(g70
g71
NtRp4593
(dp4594
g74
(dp4595
g82
I5
ssg83
g4589
sg76
(lp4596
g3281
asbasbasbag69
(g85
g71
NtRp4597
(dp4598
g74
(dp4599
sg83
g3224
sg76
(lp4600
g69
(g90
g71
NtRp4601
(dp4602
g74
(dp4603
g94
g95
ssg83
g4597
sg76
(lp4604
S'session_locked'
p4605
asbag69
(g90
g71
NtRp4606
(dp4607
g74
(dp4608
g101
g102
ssg83
g4597
sg76
(lp4609
S':'
asbag69
(g90
g71
NtRp4610
(dp4611
g74
(dp4612
sg83
g4597
sg76
(lp4613
g69
(g70
g71
NtRp4614
(dp4615
g74
(dp4616
g82
I5
ssg83
g4610
sg76
(lp4617
g1495
asbasbasbag69
(g85
g71
NtRp4618
(dp4619
g74
(dp4620
sg83
g3224
sg76
(lp4621
g69
(g90
g71
NtRp4622
(dp4623
g74
(dp4624
g94
g95
ssg83
g4618
sg76
(lp4625
S'session_new'
p4626
asbag69
(g90
g71
NtRp4627
(dp4628
g74
(dp4629
g101
g102
ssg83
g4618
sg76
(lp4630
S':'
asbag69
(g90
g71
NtRp4631
(dp4632
g74
(dp4633
sg83
g4618
sg76
(lp4634
g69
(g70
g71
NtRp4635
(dp4636
g74
(dp4637
g82
I5
ssg83
g4631
sg76
(lp4638
g112
asbasbasbag69
(g85
g71
NtRp4639
(dp4640
g74
(dp4641
sg83
g3224
sg76
(lp4642
g69
(g90
g71
NtRp4643
(dp4644
g74
(dp4645
g94
g95
ssg83
g4639
sg76
(lp4646
S'status'
p4647
asbag69
(g90
g71
NtRp4648
(dp4649
g74
(dp4650
g101
g102
ssg83
g4639
sg76
(lp4651
S':'
asbag69
(g90
g71
NtRp4652
(dp4653
g74
(dp4654
sg83
g4639
sg76
(lp4655
g69
(g70
g71
NtRp4656
(dp4657
g74
(dp4658
g82
I5
ssg83
g4652
sg76
(lp4659
S'200'
p4660
asbasbasbag69
(g85
g71
NtRp4661
(dp4662
g74
(dp4663
sg83
g3224
sg76
(lp4664
g69
(g90
g71
NtRp4665
(dp4666
g74
(dp4667
g94
g95
ssg83
g4661
sg76
(lp4668
S'subtitle'
p4669
asbag69
(g90
g71
NtRp4670
(dp4671
g74
(dp4672
g101
g102
ssg83
g4661
sg76
(lp4673
S':'
asbag69
(g90
g71
NtRp4674
(dp4675
g74
(dp4676
sg83
g4661
sg76
(lp4677
g69
(g70
g71
NtRp4678
(dp4679
g74
(dp4680
g82
I5
ssg83
g4674
sg76
(lp4681
g3730
(S's\r\x00\x00\x00customize me!'
tRp4682
asbasbasbag69
(g85
g71
NtRp4683
(dp4684
g74
(dp4685
sg83
g3224
sg76
(lp4686
g69
(g90
g71
NtRp4687
(dp4688
g74
(dp4689
g94
g95
ssg83
g4683
sg76
(lp4690
S'title'
p4691
asbag69
(g90
g71
NtRp4692
(dp4693
g74
(dp4694
g101
g102
ssg83
g4683
sg76
(lp4695
S':'
asbag69
(g90
g71
NtRp4696
(dp4697
g74
(dp4698
sg83
g4683
sg76
(lp4699
g69
(g70
g71
NtRp4700
(dp4701
g74
(dp4702
g82
I5
ssg83
g4696
sg76
(lp4703
S'Read It'
p4704
asbasbasbag69
(g85
g71
NtRp4705
(dp4706
g74
(dp4707
sg83
g3224
sg76
(lp4708
g69
(g90
g71
NtRp4709
(dp4710
g74
(dp4711
g94
g95
ssg83
g4705
sg76
(lp4712
g2180
asbag69
(g90
g71
NtRp4713
(dp4714
g74
(dp4715
g101
g102
ssg83
g4705
sg76
(lp4716
S':'
asbag69
(g90
g71
NtRp4717
(dp4718
g74
(dp4719
sg83
g4705
sg76
(lp4720
g69
(g70
g71
NtRp4721
(dp4722
g74
(dp4723
g82
I5
ssg83
g4717
sg76
(lp4724
g2193
asbasbasbag69
(g85
g71
NtRp4725
(dp4726
g74
(dp4727
sg83
g3224
sg76
(lp4728
g69
(g90
g71
NtRp4729
(dp4730
g74
(dp4731
g94
g95
ssg83
g4725
sg76
(lp4732
S'view'
p4733
asbag69
(g90
g71
NtRp4734
(dp4735
g74
(dp4736
g101
g102
ssg83
g4725
sg76
(lp4737
S':'
asbag69
(g90
g71
NtRp4738
(dp4739
g74
(dp4740
sg83
g4725
sg76
(lp4741
g69
(g70
g71
NtRp4742
(dp4743
g74
(dp4744
g82
I5
ssg83
g4738
sg76
(lp4745
S'default/comments.html'
p4746
asbasbasbasbasbsS'locals'
p4747
(dp4748
g4
S"'/home/ds-iiit/web2py/applications/Read_it/views/default/comments.html'"
p4749
sg6
S'\'response.write(\\\'<!DOCTYPE html PUBLIC "-//W3C//D...->\\\\n  </div>\\\\n </body>\\\\n</html>\\\\n\\\', escape=False)\''
p4750
sssS'traceback'
p4751
S'Traceback (most recent call last):\n  File "/usr/lib/pymodules/python2.7/gluon/restricted.py", line 203, in restricted\n    ccode = compile2(code,layer)\n  File "/usr/lib/pymodules/python2.7/gluon/restricted.py", line 189, in compile2\n    return compile(code.rstrip().replace(\'\\r\\n\',\'\\n\')+\'\\n\', layer, \'exec\')\n  File "/home/ds-iiit/web2py/applications/Read_it/views/default/comments.html", line 30\n    i=results[0] if results:\n                           ^\nSyntaxError: invalid syntax\n'
p4752
s.