(dp1
S'output'
p2
S"<type 'exceptions.SyntaxError'> invalid syntax (comments.html, line 34)"
p3
sS'layer'
p4
S'/home/ds-iiit/web2py/applications/Read_it/views/default/comments.html'
p5
sS'code'
p6
S'response.write(\'<!DOCTYPE html PUBLIC "-//W3C//DTD XHTML 1.0 Strict//EN" "http://www.w3.org/TR/xhtml1/DTD/xhtml1-strict.dtd">\\n<!--\\n\\nDesign by Free CSS Templates\\nhttp://www.freecsstemplates.org\\nReleased for free under a Creative Commons Attribution 2.5 License\\n\\nTitle      : Cup of Coffee\\nVersion    : 1.0\\nReleased   : 20081207\\nDescription: A two-column, fixed-width and lightweight template ideal for 1024x768 resolutions. Suitable for blogs and small websites.\\n\\n-->\\n<html xmlns="http://www.w3.org/1999/xhtml">\\n <head>\\n  <title>\\n\\tReddit clone, Devansh Shah\\n  </title>\\n  \', escape=False)\nresponse.files.append(URL(request.application,\'static\',\'plugin_layouts/layouts/CupofCoffee/default.css\'))\nresponse.write(\'\\n  \', escape=False)\nresponse.files.append(URL(\'static\',\'plugin_layouts/superfish.js\'))\nresponse.write(\'\\n  \', escape=False)\nresponse.write(\'<script type="text/javascript"><!--\\n    // These variables are used by the web2py_ajax_init function in web2py_ajax.js (which is loaded below).\\n    var w2p_ajax_confirm_message = "\', escape=False)\nresponse.write(T(\'Are you sure you want to delete this object?\'))\nresponse.write(\'";\\n    var w2p_ajax_date_format = "\', escape=False)\nresponse.write(T(\'%Y-%m-%d\'))\nresponse.write(\'";\\n    var w2p_ajax_datetime_format = "\', escape=False)\nresponse.write(T(\'%Y-%m-%d %H:%M:%S\'))\nresponse.write(\'";\\n    //--></script>\\n\', escape=False)\nresponse.files.insert(0,URL(\'static\',\'js/jquery.js\'))\nresponse.files.insert(1,URL(\'static\',\'css/calendar.css\'))\nresponse.files.insert(2,URL(\'static\',\'js/calendar.js\'))\nresponse.files.insert(3,URL(\'static\',\'js/web2py.js\'))\nresponse.include_meta()\nresponse.include_files()\nresponse.write(\'\\n\', escape=False)\nresponse.write(\'\\n  <style>\\nul.web2py-menu-vertical { width: 300px; position: relative; top:1em; left:1em;  z-index:30; border:0; margin:0; padding: 0; list-style: none; text-decoration: none;}\\nul.web2py-menu-vertical li { margin:0; padding:0; border:0; width: 300px; background: black; text-align:left;}\\nul.web2py-menu-vertical li a { margin:0; padding: 1px 3px 1px 3px; border:0; width: 300px; color: white; font-size:12px;}\\ndiv.flash { position: fixed; float: right; padding: 10px; top: 10px; right: 30px; opacity: 0.75; margin: 10px 10px 10px 10px; text-align: center; clear: both; color: #fff; font-size: 11pt; text-align: center; vertical-align: middle; cursor: pointer; background: black; border: 2px solid #fff; -moz-border-radius: 5px; -webkit-border-radius: 5px; z-index: 2; }\\ndiv.error { background-color: red; color: white; padding: 3px; }\\n.auth_navbar { text-align:right; z-index:20; position: absolute; top: 2px; right:100px; border:0; padding:0 }\\n  </style>\\n </head>\\n <body>\\n  <!-- start header -->\\n  \', escape=False)\ntry:\n    response.write(auth.navbar(action=URL(\'default\',\'user\')))\nexcept:pass\nresponse.write(\'\\n\\n  <div id="wrapper">\\n   <!-- start header -->\\n   <div id="header">\\n<!--    <div id="menu">\\n     \', escape=False)\nresponse.write(MENU(response.menu,_class=\'web2py-menu\'))\nresponse.write(\'\\n    <script>\\n      jQuery(document).ready(function(){jQuery(\\\'ul.web2py-menu\\\').superfish({delay:400});});\\n    </script>\\n    </div> -->\\n   </div>\\n   <!-- end header -->\\n   <div id="logo">\\n    <h1>\\n    <a href="listall.html"> Read-it-over </a>\\n    </h1>\\n    <h2>\\n     Your News, Your way.\\n    </h2>\\n   </div>\\n   <!-- start page -->\\n   <div id="page">\\n    <!-- start content -->\\n    <div id="content">\\n     <div class="flash">\', escape=False)\nresponse.write(response.flash or \'\')\nresponse.write(\'</div>\\n     \', escape=False)\nresponse.write(\'\\n<ol>\\n\', escape=False)\nfor i in results:\n    response.write(\'\\n<li>\\n\', escape=False)\n    response.write(i[\'Comments\'])\n    response.write(\' posted by \', escape=False)\n    response.write(i[\'Auth.id\')\n    response.write(\' at \', escape=False)\n    response.write(i[\'Date\'])\n    response.write(\'\\n<br />\\n</li>\\n\', escape=False)\n    pass\nresponse.write(\'\\n</ol>\\n\', escape=False)\nresponse.write(form)\nresponse.write(\'\\n\', escape=False)\nresponse.write(\'\\n    </div>\\n    <!-- end content -->\\n    <!-- start sidebar -->\\n    <div id="sidebar">\\n     <ul>\\n      <li id="search">\\n       <h2>\\n        Search\\n       </h2>\\n       <form method="get" action="search.html">\\n        <fieldset>\\n         <input type="text" id="s" name="s" value="" />\\n         <input type="submit" id="x" value="Search" />\\n        </fieldset>\\n       </form>\\n      </li>\\n      <li>\\n       <h2>\\n        Categories:\\n       </h2>\\n       <ol>\\n\\t\', escape=False)\nfor i in cat:\n    response.write(\'\\n        <li>\\n         <a href="list_cat/\', escape=False)\n    response.write(i)\n    response.write(\'">\\n          \', escape=False)\n    response.write(i)\n    response.write(\'\\n         </a>\\n        </li>\\n\\t\', escape=False)\n    pass\nresponse.write(\'\\n       </ol>\\n      </li>\\n     </ul>\\n    </div>\\n    <!-- end sidebar -->\\n    <div style="clear: both;">\\n     &nbsp;\\n    </div>\\n   </div>\\n   <!-- end page -->\\n   <!-- start footer -->\\n   <div id="footer">\\n    <div id="footer-wrap">\\n     <p id="legal">\\n       Devansh T Shah, &copy;2013<br/> Design by\\n       CSS Templates\\n     </p>\\n    </div>\\n   </div>\\n   <!-- end footer -->\\n  </div>\\n </body>\\n</html>\\n\', escape=False)'
p7
sS'snapshot'
p8
(dp9
S'exception'
p10
(dp11
S'__getslice__'
p12
S"<method-wrapper '__getslice__' of exceptions.SyntaxError object>"
p13
sS'text'
p14
S'"    response.write(i[\'Auth.id\')\\n"'
p15
sS'__str__'
p16
S"<method-wrapper '__str__' of exceptions.SyntaxError object>"
p17
sS'__reduce__'
p18
S'<built-in method __reduce__ of exceptions.SyntaxError object>'
p19
sS'__dict__'
p20
S'{}'
p21
sS'__sizeof__'
p22
S'<built-in method __sizeof__ of exceptions.SyntaxError object>'
p23
sS'__init__'
p24
S"<method-wrapper '__init__' of exceptions.SyntaxError object>"
p25
sS'__setattr__'
p26
S"<method-wrapper '__setattr__' of exceptions.SyntaxError object>"
p27
sS'__reduce_ex__'
p28
S'<built-in method __reduce_ex__ of exceptions.SyntaxError object>'
p29
sS'__new__'
p30
S'<built-in method __new__ of type object>'
p31
sS'__format__'
p32
S'<built-in method __format__ of exceptions.SyntaxError object>'
p33
sS'__class__'
p34
S"<type 'exceptions.SyntaxError'>"
p35
sS'filename'
p36
S"'/home/ds-iiit/web2py/applications/Read_it/views/default/comments.html'"
p37
sS'lineno'
p38
S'34'
p39
sS'msg'
p40
S"'invalid syntax'"
p41
sS'__doc__'
p42
S"'Invalid syntax.'"
p43
sS'__getitem__'
p44
S"<method-wrapper '__getitem__' of exceptions.SyntaxError object>"
p45
sS'__setstate__'
p46
S'<built-in method __setstate__ of exceptions.SyntaxError object>'
p47
sS'__getattribute__'
p48
S"<method-wrapper '__getattribute__' of exceptions.SyntaxError object>"
p49
sS'print_file_and_line'
p50
S'None'
p51
sS'args'
p52
S'(\'invalid syntax\', (\'/home/ds-iiit/web2py/applications/Read_it/views/default/comments.html\', 34, 31, "    response.write(i[\'Auth.id\')\\n"))'
p53
sS'__subclasshook__'
p54
S'<built-in method __subclasshook__ of type object>'
p55
sS'offset'
p56
S'31'
p57
sS'__unicode__'
p58
S'<built-in method __unicode__ of exceptions.SyntaxError object>'
p59
sS'__delattr__'
p60
S"<method-wrapper '__delattr__' of exceptions.SyntaxError object>"
p61
sS'__repr__'
p62
S"<method-wrapper '__repr__' of exceptions.SyntaxError object>"
p63
sS'__hash__'
p64
S"<method-wrapper '__hash__' of exceptions.SyntaxError object>"
p65
ssS'evalue'
p66
S'invalid syntax (comments.html, line 34)'
p67
sS'request'
p68
ccopy_reg
_reconstructor
p69
(cgluon.html
BEAUTIFY
p70
c__builtin__
object
p71
NtRp72
(dp73
S'attributes'
p74
(dp75
sS'components'
p76
(lp77
g69
(cgluon.html
TABLE
p78
g71
NtRp79
(dp80
g74
(dp81
S'level'
p82
I5
ssS'parent'
p83
Nsg76
(lp84
g69
(cgluon.html
TR
p85
g71
NtRp86
(dp87
g74
(dp88
sg83
g79
sg76
(lp89
g69
(cgluon.html
TD
p90
g71
NtRp91
(dp92
g74
(dp93
S'_style'
p94
S'font-weight:bold;vertical-align:top'
p95
ssg83
g86
sg76
(lp96
S'ajax'
p97
asbag69
(g90
g71
NtRp98
(dp99
g74
(dp100
S'_valign'
p101
S'top'
p102
ssg83
g86
sg76
(lp103
S':'
asbag69
(g90
g71
NtRp104
(dp105
g74
(dp106
sg83
g86
sg76
(lp107
g69
(g70
g71
NtRp108
(dp109
g74
(dp110
g82
I5
ssg83
g104
sg76
(lp111
S'False'
p112
asbasbasbag69
(g85
g71
NtRp113
(dp114
g74
(dp115
sg83
g79
sg76
(lp116
g69
(g90
g71
NtRp117
(dp118
g74
(dp119
g94
g95
ssg83
g113
sg76
(lp120
S'application'
p121
asbag69
(g90
g71
NtRp122
(dp123
g74
(dp124
g101
g102
ssg83
g113
sg76
(lp125
S':'
asbag69
(g90
g71
NtRp126
(dp127
g74
(dp128
sg83
g113
sg76
(lp129
g69
(g70
g71
NtRp130
(dp131
g74
(dp132
g82
I5
ssg83
g126
sg76
(lp133
S'Read_it'
p134
asbasbasbag69
(g85
g71
NtRp135
(dp136
g74
(dp137
sg83
g79
sg76
(lp138
g69
(g90
g71
NtRp139
(dp140
g74
(dp141
g94
g95
ssg83
g135
sg76
(lp142
g52
asbag69
(g90
g71
NtRp143
(dp144
g74
(dp145
g101
g102
ssg83
g135
sg76
(lp146
S':'
asbag69
(g90
g71
NtRp147
(dp148
g74
(dp149
sg83
g135
sg76
(lp150
g69
(g70
g71
NtRp151
(dp152
g74
(dp153
g82
I5
ssg83
g147
sg76
(lp154
g69
(g78
g71
NtRp155
(dp156
g74
(dp157
g82
I4
ssg83
Nsg76
(lp158
g69
(g85
g71
NtRp159
(dp160
g74
(dp161
sg83
g155
sg76
(lp162
g69
(g90
g71
NtRp163
(dp164
g74
(dp165
sg83
g159
sg76
(lp166
g69
(g70
g71
NtRp167
(dp168
g74
(dp169
g82
I4
ssg83
g163
sg76
(lp170
S'3'
asbasbasbasbasbasbasbag69
(g85
g71
NtRp171
(dp172
g74
(dp173
sg83
g79
sg76
(lp174
g69
(g90
g71
NtRp175
(dp176
g74
(dp177
g94
g95
ssg83
g171
sg76
(lp178
S'body'
p179
asbag69
(g90
g71
NtRp180
(dp181
g74
(dp182
g101
g102
ssg83
g171
sg76
(lp183
S':'
asbag69
(g90
g71
NtRp184
(dp185
g74
(dp186
sg83
g171
sg76
(lp187
g69
(g70
g71
NtRp188
(dp189
g74
(dp190
g82
I5
ssg83
g184
sg76
(lp191
S'<cStringIO.StringO object at 0x7fdcbc31f768>'
p192
asbasbasbag69
(g85
g71
NtRp193
(dp194
g74
(dp195
sg83
g79
sg76
(lp196
g69
(g90
g71
NtRp197
(dp198
g74
(dp199
g94
g95
ssg83
g193
sg76
(lp200
S'client'
p201
asbag69
(g90
g71
NtRp202
(dp203
g74
(dp204
g101
g102
ssg83
g193
sg76
(lp205
S':'
asbag69
(g90
g71
NtRp206
(dp207
g74
(dp208
sg83
g193
sg76
(lp209
g69
(g70
g71
NtRp210
(dp211
g74
(dp212
g82
I5
ssg83
g206
sg76
(lp213
S'127.0.0.1'
p214
asbasbasbag69
(g85
g71
NtRp215
(dp216
g74
(dp217
sg83
g79
sg76
(lp218
g69
(g90
g71
NtRp219
(dp220
g74
(dp221
g94
g95
ssg83
g215
sg76
(lp222
S'controller'
p223
asbag69
(g90
g71
NtRp224
(dp225
g74
(dp226
g101
g102
ssg83
g215
sg76
(lp227
S':'
asbag69
(g90
g71
NtRp228
(dp229
g74
(dp230
sg83
g215
sg76
(lp231
g69
(g70
g71
NtRp232
(dp233
g74
(dp234
g82
I5
ssg83
g228
sg76
(lp235
S'default'
p236
asbasbasbag69
(g85
g71
NtRp237
(dp238
g74
(dp239
sg83
g79
sg76
(lp240
g69
(g90
g71
NtRp241
(dp242
g74
(dp243
g94
g95
ssg83
g237
sg76
(lp244
S'cookies'
p245
asbag69
(g90
g71
NtRp246
(dp247
g74
(dp248
g101
g102
ssg83
g237
sg76
(lp249
S':'
asbag69
(g90
g71
NtRp250
(dp251
g74
(dp252
sg83
g237
sg76
(lp253
g69
(g70
g71
NtRp254
(dp255
g74
(dp256
g82
I5
ssg83
g250
sg76
(lp257
g69
(g78
g71
NtRp258
(dp259
g74
(dp260
g82
I4
ssg83
Nsg76
(lp261
g69
(g85
g71
NtRp262
(dp263
g74
(dp264
sg83
g258
sg76
(lp265
g69
(g90
g71
NtRp266
(dp267
g74
(dp268
g94
g95
ssg83
g262
sg76
(lp269
S'session_id_admin'
p270
asbag69
(g90
g71
NtRp271
(dp272
g74
(dp273
g101
g102
ssg83
g262
sg76
(lp274
S':'
asbag69
(g90
g71
NtRp275
(dp276
g74
(dp277
sg83
g262
sg76
(lp278
g69
(g70
g71
NtRp279
(dp280
g74
(dp281
g82
I4
ssg83
g275
sg76
(lp282
g69
(g78
g71
NtRp283
(dp284
g74
(dp285
g82
I3
ssg83
Nsg76
(lp286
g69
(g85
g71
NtRp287
(dp288
g74
(dp289
sg83
g283
sg76
(lp290
g69
(g90
g71
NtRp291
(dp292
g74
(dp293
g94
g95
ssg83
g287
sg76
(lp294
S'comment'
p295
asbag69
(g90
g71
NtRp296
(dp297
g74
(dp298
g101
g102
ssg83
g287
sg76
(lp299
S':'
asbag69
(g90
g71
NtRp300
(dp301
g74
(dp302
sg83
g287
sg76
(lp303
g69
(g70
g71
NtRp304
(dp305
g74
(dp306
g82
I3
ssg83
g300
sg76
(lp307
S''
asbasbasbag69
(g85
g71
NtRp308
(dp309
g74
(dp310
sg83
g283
sg76
(lp311
g69
(g90
g71
NtRp312
(dp313
g74
(dp314
g94
g95
ssg83
g308
sg76
(lp315
S'domain'
p316
asbag69
(g90
g71
NtRp317
(dp318
g74
(dp319
g101
g102
ssg83
g308
sg76
(lp320
S':'
asbag69
(g90
g71
NtRp321
(dp322
g74
(dp323
sg83
g308
sg76
(lp324
g69
(g70
g71
NtRp325
(dp326
g74
(dp327
g82
I3
ssg83
g321
sg76
(lp328
S''
asbasbasbag69
(g85
g71
NtRp329
(dp330
g74
(dp331
sg83
g283
sg76
(lp332
g69
(g90
g71
NtRp333
(dp334
g74
(dp335
g94
g95
ssg83
g329
sg76
(lp336
S'expires'
p337
asbag69
(g90
g71
NtRp338
(dp339
g74
(dp340
g101
g102
ssg83
g329
sg76
(lp341
S':'
asbag69
(g90
g71
NtRp342
(dp343
g74
(dp344
sg83
g329
sg76
(lp345
g69
(g70
g71
NtRp346
(dp347
g74
(dp348
g82
I3
ssg83
g342
sg76
(lp349
S''
asbasbasbag69
(g85
g71
NtRp350
(dp351
g74
(dp352
sg83
g283
sg76
(lp353
g69
(g90
g71
NtRp354
(dp355
g74
(dp356
g94
g95
ssg83
g350
sg76
(lp357
S'httponly'
p358
asbag69
(g90
g71
NtRp359
(dp360
g74
(dp361
g101
g102
ssg83
g350
sg76
(lp362
S':'
asbag69
(g90
g71
NtRp363
(dp364
g74
(dp365
sg83
g350
sg76
(lp366
g69
(g70
g71
NtRp367
(dp368
g74
(dp369
g82
I3
ssg83
g363
sg76
(lp370
S''
asbasbasbag69
(g85
g71
NtRp371
(dp372
g74
(dp373
sg83
g283
sg76
(lp374
g69
(g90
g71
NtRp375
(dp376
g74
(dp377
g94
g95
ssg83
g371
sg76
(lp378
S'max-age'
p379
asbag69
(g90
g71
NtRp380
(dp381
g74
(dp382
g101
g102
ssg83
g371
sg76
(lp383
S':'
asbag69
(g90
g71
NtRp384
(dp385
g74
(dp386
sg83
g371
sg76
(lp387
g69
(g70
g71
NtRp388
(dp389
g74
(dp390
g82
I3
ssg83
g384
sg76
(lp391
S''
asbasbasbag69
(g85
g71
NtRp392
(dp393
g74
(dp394
sg83
g283
sg76
(lp395
g69
(g90
g71
NtRp396
(dp397
g74
(dp398
g94
g95
ssg83
g392
sg76
(lp399
S'path'
p400
asbag69
(g90
g71
NtRp401
(dp402
g74
(dp403
g101
g102
ssg83
g392
sg76
(lp404
S':'
asbag69
(g90
g71
NtRp405
(dp406
g74
(dp407
sg83
g392
sg76
(lp408
g69
(g70
g71
NtRp409
(dp410
g74
(dp411
g82
I3
ssg83
g405
sg76
(lp412
S''
asbasbasbag69
(g85
g71
NtRp413
(dp414
g74
(dp415
sg83
g283
sg76
(lp416
g69
(g90
g71
NtRp417
(dp418
g74
(dp419
g94
g95
ssg83
g413
sg76
(lp420
S'secure'
p421
asbag69
(g90
g71
NtRp422
(dp423
g74
(dp424
g101
g102
ssg83
g413
sg76
(lp425
S':'
asbag69
(g90
g71
NtRp426
(dp427
g74
(dp428
sg83
g413
sg76
(lp429
g69
(g70
g71
NtRp430
(dp431
g74
(dp432
g82
I3
ssg83
g426
sg76
(lp433
S''
asbasbasbag69
(g85
g71
NtRp434
(dp435
g74
(dp436
sg83
g283
sg76
(lp437
g69
(g90
g71
NtRp438
(dp439
g74
(dp440
g94
g95
ssg83
g434
sg76
(lp441
S'version'
p442
asbag69
(g90
g71
NtRp443
(dp444
g74
(dp445
g101
g102
ssg83
g434
sg76
(lp446
S':'
asbag69
(g90
g71
NtRp447
(dp448
g74
(dp449
sg83
g434
sg76
(lp450
g69
(g70
g71
NtRp451
(dp452
g74
(dp453
g82
I3
ssg83
g447
sg76
(lp454
S''
asbasbasbasbasbasbasbag69
(g85
g71
NtRp455
(dp456
g74
(dp457
sg83
g258
sg76
(lp458
g69
(g90
g71
NtRp459
(dp460
g74
(dp461
g94
g95
ssg83
g455
sg76
(lp462
S'session_id_read_it'
p463
asbag69
(g90
g71
NtRp464
(dp465
g74
(dp466
g101
g102
ssg83
g455
sg76
(lp467
S':'
asbag69
(g90
g71
NtRp468
(dp469
g74
(dp470
sg83
g455
sg76
(lp471
g69
(g70
g71
NtRp472
(dp473
g74
(dp474
g82
I4
ssg83
g468
sg76
(lp475
g69
(g78
g71
NtRp476
(dp477
g74
(dp478
g82
I3
ssg83
Nsg76
(lp479
g69
(g85
g71
NtRp480
(dp481
g74
(dp482
sg83
g476
sg76
(lp483
g69
(g90
g71
NtRp484
(dp485
g74
(dp486
g94
g95
ssg83
g480
sg76
(lp487
g295
asbag69
(g90
g71
NtRp488
(dp489
g74
(dp490
g101
g102
ssg83
g480
sg76
(lp491
S':'
asbag69
(g90
g71
NtRp492
(dp493
g74
(dp494
sg83
g480
sg76
(lp495
g69
(g70
g71
NtRp496
(dp497
g74
(dp498
g82
I3
ssg83
g492
sg76
(lp499
S''
asbasbasbag69
(g85
g71
NtRp500
(dp501
g74
(dp502
sg83
g476
sg76
(lp503
g69
(g90
g71
NtRp504
(dp505
g74
(dp506
g94
g95
ssg83
g500
sg76
(lp507
g316
asbag69
(g90
g71
NtRp508
(dp509
g74
(dp510
g101
g102
ssg83
g500
sg76
(lp511
S':'
asbag69
(g90
g71
NtRp512
(dp513
g74
(dp514
sg83
g500
sg76
(lp515
g69
(g70
g71
NtRp516
(dp517
g74
(dp518
g82
I3
ssg83
g512
sg76
(lp519
S''
asbasbasbag69
(g85
g71
NtRp520
(dp521
g74
(dp522
sg83
g476
sg76
(lp523
g69
(g90
g71
NtRp524
(dp525
g74
(dp526
g94
g95
ssg83
g520
sg76
(lp527
g337
asbag69
(g90
g71
NtRp528
(dp529
g74
(dp530
g101
g102
ssg83
g520
sg76
(lp531
S':'
asbag69
(g90
g71
NtRp532
(dp533
g74
(dp534
sg83
g520
sg76
(lp535
g69
(g70
g71
NtRp536
(dp537
g74
(dp538
g82
I3
ssg83
g532
sg76
(lp539
S''
asbasbasbag69
(g85
g71
NtRp540
(dp541
g74
(dp542
sg83
g476
sg76
(lp543
g69
(g90
g71
NtRp544
(dp545
g74
(dp546
g94
g95
ssg83
g540
sg76
(lp547
g358
asbag69
(g90
g71
NtRp548
(dp549
g74
(dp550
g101
g102
ssg83
g540
sg76
(lp551
S':'
asbag69
(g90
g71
NtRp552
(dp553
g74
(dp554
sg83
g540
sg76
(lp555
g69
(g70
g71
NtRp556
(dp557
g74
(dp558
g82
I3
ssg83
g552
sg76
(lp559
S''
asbasbasbag69
(g85
g71
NtRp560
(dp561
g74
(dp562
sg83
g476
sg76
(lp563
g69
(g90
g71
NtRp564
(dp565
g74
(dp566
g94
g95
ssg83
g560
sg76
(lp567
g379
asbag69
(g90
g71
NtRp568
(dp569
g74
(dp570
g101
g102
ssg83
g560
sg76
(lp571
S':'
asbag69
(g90
g71
NtRp572
(dp573
g74
(dp574
sg83
g560
sg76
(lp575
g69
(g70
g71
NtRp576
(dp577
g74
(dp578
g82
I3
ssg83
g572
sg76
(lp579
S''
asbasbasbag69
(g85
g71
NtRp580
(dp581
g74
(dp582
sg83
g476
sg76
(lp583
g69
(g90
g71
NtRp584
(dp585
g74
(dp586
g94
g95
ssg83
g580
sg76
(lp587
g400
asbag69
(g90
g71
NtRp588
(dp589
g74
(dp590
g101
g102
ssg83
g580
sg76
(lp591
S':'
asbag69
(g90
g71
NtRp592
(dp593
g74
(dp594
sg83
g580
sg76
(lp595
g69
(g70
g71
NtRp596
(dp597
g74
(dp598
g82
I3
ssg83
g592
sg76
(lp599
S''
asbasbasbag69
(g85
g71
NtRp600
(dp601
g74
(dp602
sg83
g476
sg76
(lp603
g69
(g90
g71
NtRp604
(dp605
g74
(dp606
g94
g95
ssg83
g600
sg76
(lp607
g421
asbag69
(g90
g71
NtRp608
(dp609
g74
(dp610
g101
g102
ssg83
g600
sg76
(lp611
S':'
asbag69
(g90
g71
NtRp612
(dp613
g74
(dp614
sg83
g600
sg76
(lp615
g69
(g70
g71
NtRp616
(dp617
g74
(dp618
g82
I3
ssg83
g612
sg76
(lp619
S''
asbasbasbag69
(g85
g71
NtRp620
(dp621
g74
(dp622
sg83
g476
sg76
(lp623
g69
(g90
g71
NtRp624
(dp625
g74
(dp626
g94
g95
ssg83
g620
sg76
(lp627
g442
asbag69
(g90
g71
NtRp628
(dp629
g74
(dp630
g101
g102
ssg83
g620
sg76
(lp631
S':'
asbag69
(g90
g71
NtRp632
(dp633
g74
(dp634
sg83
g620
sg76
(lp635
g69
(g70
g71
NtRp636
(dp637
g74
(dp638
g82
I3
ssg83
g632
sg76
(lp639
S''
asbasbasbasbasbasbasbasbasbasbasbag69
(g85
g71
NtRp640
(dp641
g74
(dp642
sg83
g79
sg76
(lp643
g69
(g90
g71
NtRp644
(dp645
g74
(dp646
g94
g95
ssg83
g640
sg76
(lp647
S'env'
p648
asbag69
(g90
g71
NtRp649
(dp650
g74
(dp651
g101
g102
ssg83
g640
sg76
(lp652
S':'
asbag69
(g90
g71
NtRp653
(dp654
g74
(dp655
sg83
g640
sg76
(lp656
g69
(g70
g71
NtRp657
(dp658
g74
(dp659
g82
I5
ssg83
g653
sg76
(lp660
g69
(g78
g71
NtRp661
(dp662
g74
(dp663
g82
I4
ssg83
Nsg76
(lp664
g69
(g85
g71
NtRp665
(dp666
g74
(dp667
sg83
g661
sg76
(lp668
g69
(g90
g71
NtRp669
(dp670
g74
(dp671
g94
g95
ssg83
g665
sg76
(lp672
S'app_folders'
p673
asbag69
(g90
g71
NtRp674
(dp675
g74
(dp676
g101
g102
ssg83
g665
sg76
(lp677
S':'
asbag69
(g90
g71
NtRp678
(dp679
g74
(dp680
sg83
g665
sg76
(lp681
g69
(g70
g71
NtRp682
(dp683
g74
(dp684
g82
I4
ssg83
g678
sg76
(lp685
S"set(['/home/ds-iiit/web2py/applications/Read_it/', '/home/ds-iiit/web2py/applications/welcome/', '/home/ds-iiit/web2py/applications/admin/'])"
p686
asbasbasbag69
(g85
g71
NtRp687
(dp688
g74
(dp689
sg83
g661
sg76
(lp690
g69
(g90
g71
NtRp691
(dp692
g74
(dp693
g94
g95
ssg83
g687
sg76
(lp694
S'applications_parent'
p695
asbag69
(g90
g71
NtRp696
(dp697
g74
(dp698
g101
g102
ssg83
g687
sg76
(lp699
S':'
asbag69
(g90
g71
NtRp700
(dp701
g74
(dp702
sg83
g687
sg76
(lp703
g69
(g70
g71
NtRp704
(dp705
g74
(dp706
g82
I4
ssg83
g700
sg76
(lp707
S'/home/ds-iiit/web2py'
p708
asbasbasbag69
(g85
g71
NtRp709
(dp710
g74
(dp711
sg83
g661
sg76
(lp712
g69
(g90
g71
NtRp713
(dp714
g74
(dp715
g94
g95
ssg83
g709
sg76
(lp716
S'cmd_args'
p717
asbag69
(g90
g71
NtRp718
(dp719
g74
(dp720
g101
g102
ssg83
g709
sg76
(lp721
S':'
asbag69
(g90
g71
NtRp722
(dp723
g74
(dp724
sg83
g709
sg76
(lp725
g69
(g70
g71
NtRp726
(dp727
g74
(dp728
g82
I4
ssg83
g722
sg76
(lp729
g69
(g78
g71
NtRp730
(dp731
g74
(dp732
g82
I3
ssg83
Nsg76
(lp733
sbasbasbasbag69
(g85
g71
NtRp734
(dp735
g74
(dp736
sg83
g661
sg76
(lp737
g69
(g90
g71
NtRp738
(dp739
g74
(dp740
g94
g95
ssg83
g734
sg76
(lp741
S'cmd_options'
p742
asbag69
(g90
g71
NtRp743
(dp744
g74
(dp745
g101
g102
ssg83
g734
sg76
(lp746
S':'
asbag69
(g90
g71
NtRp747
(dp748
g74
(dp749
sg83
g734
sg76
(lp750
g69
(g70
g71
NtRp751
(dp752
g74
(dp753
g82
I4
ssg83
g747
sg76
(lp754
S"<Values at 0x2adbb00: {'verbose': False, 'ip': '127.0.0.1', 'shutdown_timeout': 5, 'taskbar': False, 'port': 8000, 'maxthreads': None, 'softcron': False, 'server_name': 'DS-IIIT', 'bpython': False, 'nogui': False, 'nocron': False, 'extcron': False, 'debuglevel': 30, 'test': None, 'folder': '/home/ds-iiit/web2py', 'config': '', 'import_models': False, 'winservice': '', 'shell': None, 'run': '', 'log_filename': 'httpserver.log', 'args': [''], 'socket_timeout': 1, 'profiler_filename': None, 'ssl_private_key': '', 'password': '<ask>', 'request_queue_size': 5, 'ssl_certificate': '', 'cronjob': False, 'plain': False, 'quiet': False, 'interfaces': None, 'minthreads': None, 'timeout': 10, 'numthreads': None, 'nobanner': False, 'pid_filename': 'httpserver.pid'}>"
p755
asbasbasbag69
(g85
g71
NtRp756
(dp757
g74
(dp758
sg83
g661
sg76
(lp759
g69
(g90
g71
NtRp760
(dp761
g74
(dp762
g94
g95
ssg83
g756
sg76
(lp763
S'db_sessions'
p764
asbag69
(g90
g71
NtRp765
(dp766
g74
(dp767
g101
g102
ssg83
g756
sg76
(lp768
S':'
asbag69
(g90
g71
NtRp769
(dp770
g74
(dp771
sg83
g756
sg76
(lp772
g69
(g70
g71
NtRp773
(dp774
g74
(dp775
g82
I4
ssg83
g769
sg76
(lp776
S'set([])'
p777
asbasbasbag69
(g85
g71
NtRp778
(dp779
g74
(dp780
sg83
g661
sg76
(lp781
g69
(g90
g71
NtRp782
(dp783
g74
(dp784
g94
g95
ssg83
g778
sg76
(lp785
S'debugging'
p786
asbag69
(g90
g71
NtRp787
(dp788
g74
(dp789
g101
g102
ssg83
g778
sg76
(lp790
S':'
asbag69
(g90
g71
NtRp791
(dp792
g74
(dp793
sg83
g778
sg76
(lp794
g69
(g70
g71
NtRp795
(dp796
g74
(dp797
g82
I4
ssg83
g791
sg76
(lp798
g112
asbasbasbag69
(g85
g71
NtRp799
(dp800
g74
(dp801
sg83
g661
sg76
(lp802
g69
(g90
g71
NtRp803
(dp804
g74
(dp805
g94
g95
ssg83
g799
sg76
(lp806
S'gluon_parent'
p807
asbag69
(g90
g71
NtRp808
(dp809
g74
(dp810
g101
g102
ssg83
g799
sg76
(lp811
S':'
asbag69
(g90
g71
NtRp812
(dp813
g74
(dp814
sg83
g799
sg76
(lp815
g69
(g70
g71
NtRp816
(dp817
g74
(dp818
g82
I4
ssg83
g812
sg76
(lp819
S'/usr/share/web2py'
p820
asbasbasbag69
(g85
g71
NtRp821
(dp822
g74
(dp823
sg83
g661
sg76
(lp824
g69
(g90
g71
NtRp825
(dp826
g74
(dp827
g94
g95
ssg83
g821
sg76
(lp828
S'http_accept'
p829
asbag69
(g90
g71
NtRp830
(dp831
g74
(dp832
g101
g102
ssg83
g821
sg76
(lp833
S':'
asbag69
(g90
g71
NtRp834
(dp835
g74
(dp836
sg83
g821
sg76
(lp837
g69
(g70
g71
NtRp838
(dp839
g74
(dp840
g82
I4
ssg83
g834
sg76
(lp841
S'text/html,application/xhtml+xml,application/xml;q=0.9,*/*;q=0.8'
p842
asbasbasbag69
(g85
g71
NtRp843
(dp844
g74
(dp845
sg83
g661
sg76
(lp846
g69
(g90
g71
NtRp847
(dp848
g74
(dp849
g94
g95
ssg83
g843
sg76
(lp850
S'http_accept_encoding'
p851
asbag69
(g90
g71
NtRp852
(dp853
g74
(dp854
g101
g102
ssg83
g843
sg76
(lp855
S':'
asbag69
(g90
g71
NtRp856
(dp857
g74
(dp858
sg83
g843
sg76
(lp859
g69
(g70
g71
NtRp860
(dp861
g74
(dp862
g82
I4
ssg83
g856
sg76
(lp863
S'gzip, deflate'
p864
asbasbasbag69
(g85
g71
NtRp865
(dp866
g74
(dp867
sg83
g661
sg76
(lp868
g69
(g90
g71
NtRp869
(dp870
g74
(dp871
g94
g95
ssg83
g865
sg76
(lp872
S'http_accept_language'
p873
asbag69
(g90
g71
NtRp874
(dp875
g74
(dp876
g101
g102
ssg83
g865
sg76
(lp877
S':'
asbag69
(g90
g71
NtRp878
(dp879
g74
(dp880
sg83
g865
sg76
(lp881
g69
(g70
g71
NtRp882
(dp883
g74
(dp884
g82
I4
ssg83
g878
sg76
(lp885
S'en-US,en;q=0.5'
p886
asbasbasbag69
(g85
g71
NtRp887
(dp888
g74
(dp889
sg83
g661
sg76
(lp890
g69
(g90
g71
NtRp891
(dp892
g74
(dp893
g94
g95
ssg83
g887
sg76
(lp894
S'http_connection'
p895
asbag69
(g90
g71
NtRp896
(dp897
g74
(dp898
g101
g102
ssg83
g887
sg76
(lp899
S':'
asbag69
(g90
g71
NtRp900
(dp901
g74
(dp902
sg83
g887
sg76
(lp903
g69
(g70
g71
NtRp904
(dp905
g74
(dp906
g82
I4
ssg83
g900
sg76
(lp907
S'keep-alive'
p908
asbasbasbag69
(g85
g71
NtRp909
(dp910
g74
(dp911
sg83
g661
sg76
(lp912
g69
(g90
g71
NtRp913
(dp914
g74
(dp915
g94
g95
ssg83
g909
sg76
(lp916
S'http_cookie'
p917
asbag69
(g90
g71
NtRp918
(dp919
g74
(dp920
g101
g102
ssg83
g909
sg76
(lp921
S':'
asbag69
(g90
g71
NtRp922
(dp923
g74
(dp924
sg83
g909
sg76
(lp925
g69
(g70
g71
NtRp926
(dp927
g74
(dp928
g82
I4
ssg83
g922
sg76
(lp929
S'session_id_read_it=127.0.0.1-1d23be20-d15f-43b9-8205-6d89a2d5f38a; session_id_admin=127.0.0.1-0e5803e3-e35d-4dd8-a16a-c5af417d33fb'
p930
asbasbasbag69
(g85
g71
NtRp931
(dp932
g74
(dp933
sg83
g661
sg76
(lp934
g69
(g90
g71
NtRp935
(dp936
g74
(dp937
g94
g95
ssg83
g931
sg76
(lp938
S'http_host'
p939
asbag69
(g90
g71
NtRp940
(dp941
g74
(dp942
g101
g102
ssg83
g931
sg76
(lp943
S':'
asbag69
(g90
g71
NtRp944
(dp945
g74
(dp946
sg83
g931
sg76
(lp947
g69
(g70
g71
NtRp948
(dp949
g74
(dp950
g82
I4
ssg83
g944
sg76
(lp951
S'127.0.0.1:8001'
p952
asbasbasbag69
(g85
g71
NtRp953
(dp954
g74
(dp955
sg83
g661
sg76
(lp956
g69
(g90
g71
NtRp957
(dp958
g74
(dp959
g94
g95
ssg83
g953
sg76
(lp960
S'http_user_agent'
p961
asbag69
(g90
g71
NtRp962
(dp963
g74
(dp964
g101
g102
ssg83
g953
sg76
(lp965
S':'
asbag69
(g90
g71
NtRp966
(dp967
g74
(dp968
sg83
g953
sg76
(lp969
g69
(g70
g71
NtRp970
(dp971
g74
(dp972
g82
I4
ssg83
g966
sg76
(lp973
S'Mozilla/5.0 (X11; Ubuntu; Linux x86_64; rv:23.0) Gecko/20100101 Firefox/23.0'
p974
asbasbasbag69
(g85
g71
NtRp975
(dp976
g74
(dp977
sg83
g661
sg76
(lp978
g69
(g90
g71
NtRp979
(dp980
g74
(dp981
g94
g95
ssg83
g975
sg76
(lp982
S'is_jython'
p983
asbag69
(g90
g71
NtRp984
(dp985
g74
(dp986
g101
g102
ssg83
g975
sg76
(lp987
S':'
asbag69
(g90
g71
NtRp988
(dp989
g74
(dp990
sg83
g975
sg76
(lp991
g69
(g70
g71
NtRp992
(dp993
g74
(dp994
g82
I4
ssg83
g988
sg76
(lp995
g112
asbasbasbag69
(g85
g71
NtRp996
(dp997
g74
(dp998
sg83
g661
sg76
(lp999
g69
(g90
g71
NtRp1000
(dp1001
g74
(dp1002
g94
g95
ssg83
g996
sg76
(lp1003
S'is_pypy'
p1004
asbag69
(g90
g71
NtRp1005
(dp1006
g74
(dp1007
g101
g102
ssg83
g996
sg76
(lp1008
S':'
asbag69
(g90
g71
NtRp1009
(dp1010
g74
(dp1011
sg83
g996
sg76
(lp1012
g69
(g70
g71
NtRp1013
(dp1014
g74
(dp1015
g82
I4
ssg83
g1009
sg76
(lp1016
g112
asbasbasbag69
(g85
g71
NtRp1017
(dp1018
g74
(dp1019
sg83
g661
sg76
(lp1020
g69
(g90
g71
NtRp1021
(dp1022
g74
(dp1023
g94
g95
ssg83
g1017
sg76
(lp1024
S'path_info'
p1025
asbag69
(g90
g71
NtRp1026
(dp1027
g74
(dp1028
g101
g102
ssg83
g1017
sg76
(lp1029
S':'
asbag69
(g90
g71
NtRp1030
(dp1031
g74
(dp1032
sg83
g1017
sg76
(lp1033
g69
(g70
g71
NtRp1034
(dp1035
g74
(dp1036
g82
I4
ssg83
g1030
sg76
(lp1037
S'/Read_it/default/comments/3'
p1038
asbasbasbag69
(g85
g71
NtRp1039
(dp1040
g74
(dp1041
sg83
g661
sg76
(lp1042
g69
(g90
g71
NtRp1043
(dp1044
g74
(dp1045
g94
g95
ssg83
g1039
sg76
(lp1046
S'query_string'
p1047
asbag69
(g90
g71
NtRp1048
(dp1049
g74
(dp1050
g101
g102
ssg83
g1039
sg76
(lp1051
S':'
asbag69
(g90
g71
NtRp1052
(dp1053
g74
(dp1054
sg83
g1039
sg76
(lp1055
g69
(g70
g71
NtRp1056
(dp1057
g74
(dp1058
g82
I4
ssg83
g1052
sg76
(lp1059
S''
asbasbasbag69
(g85
g71
NtRp1060
(dp1061
g74
(dp1062
sg83
g661
sg76
(lp1063
g69
(g90
g71
NtRp1064
(dp1065
g74
(dp1066
g94
g95
ssg83
g1060
sg76
(lp1067
S'remote_addr'
p1068
asbag69
(g90
g71
NtRp1069
(dp1070
g74
(dp1071
g101
g102
ssg83
g1060
sg76
(lp1072
S':'
asbag69
(g90
g71
NtRp1073
(dp1074
g74
(dp1075
sg83
g1060
sg76
(lp1076
g69
(g70
g71
NtRp1077
(dp1078
g74
(dp1079
g82
I4
ssg83
g1073
sg76
(lp1080
g214
asbasbasbag69
(g85
g71
NtRp1081
(dp1082
g74
(dp1083
sg83
g661
sg76
(lp1084
g69
(g90
g71
NtRp1085
(dp1086
g74
(dp1087
g94
g95
ssg83
g1081
sg76
(lp1088
S'remote_port'
p1089
asbag69
(g90
g71
NtRp1090
(dp1091
g74
(dp1092
g101
g102
ssg83
g1081
sg76
(lp1093
S':'
asbag69
(g90
g71
NtRp1094
(dp1095
g74
(dp1096
sg83
g1081
sg76
(lp1097
g69
(g70
g71
NtRp1098
(dp1099
g74
(dp1100
g82
I4
ssg83
g1094
sg76
(lp1101
S'36318'
p1102
asbasbasbag69
(g85
g71
NtRp1103
(dp1104
g74
(dp1105
sg83
g661
sg76
(lp1106
g69
(g90
g71
NtRp1107
(dp1108
g74
(dp1109
g94
g95
ssg83
g1103
sg76
(lp1110
S'request_method'
p1111
asbag69
(g90
g71
NtRp1112
(dp1113
g74
(dp1114
g101
g102
ssg83
g1103
sg76
(lp1115
S':'
asbag69
(g90
g71
NtRp1116
(dp1117
g74
(dp1118
sg83
g1103
sg76
(lp1119
g69
(g70
g71
NtRp1120
(dp1121
g74
(dp1122
g82
I4
ssg83
g1116
sg76
(lp1123
S'GET'
p1124
asbasbasbag69
(g85
g71
NtRp1125
(dp1126
g74
(dp1127
sg83
g661
sg76
(lp1128
g69
(g90
g71
NtRp1129
(dp1130
g74
(dp1131
g94
g95
ssg83
g1125
sg76
(lp1132
S'script_name'
p1133
asbag69
(g90
g71
NtRp1134
(dp1135
g74
(dp1136
g101
g102
ssg83
g1125
sg76
(lp1137
S':'
asbag69
(g90
g71
NtRp1138
(dp1139
g74
(dp1140
sg83
g1125
sg76
(lp1141
g69
(g70
g71
NtRp1142
(dp1143
g74
(dp1144
g82
I4
ssg83
g1138
sg76
(lp1145
S''
asbasbasbag69
(g85
g71
NtRp1146
(dp1147
g74
(dp1148
sg83
g661
sg76
(lp1149
g69
(g90
g71
NtRp1150
(dp1151
g74
(dp1152
g94
g95
ssg83
g1146
sg76
(lp1153
S'server_name'
p1154
asbag69
(g90
g71
NtRp1155
(dp1156
g74
(dp1157
g101
g102
ssg83
g1146
sg76
(lp1158
S':'
asbag69
(g90
g71
NtRp1159
(dp1160
g74
(dp1161
sg83
g1146
sg76
(lp1162
g69
(g70
g71
NtRp1163
(dp1164
g74
(dp1165
g82
I4
ssg83
g1159
sg76
(lp1166
S'DS-IIIT'
p1167
asbasbasbag69
(g85
g71
NtRp1168
(dp1169
g74
(dp1170
sg83
g661
sg76
(lp1171
g69
(g90
g71
NtRp1172
(dp1173
g74
(dp1174
g94
g95
ssg83
g1168
sg76
(lp1175
S'server_port'
p1176
asbag69
(g90
g71
NtRp1177
(dp1178
g74
(dp1179
g101
g102
ssg83
g1168
sg76
(lp1180
S':'
asbag69
(g90
g71
NtRp1181
(dp1182
g74
(dp1183
sg83
g1168
sg76
(lp1184
g69
(g70
g71
NtRp1185
(dp1186
g74
(dp1187
g82
I4
ssg83
g1181
sg76
(lp1188
S'8001'
p1189
asbasbasbag69
(g85
g71
NtRp1190
(dp1191
g74
(dp1192
sg83
g661
sg76
(lp1193
g69
(g90
g71
NtRp1194
(dp1195
g74
(dp1196
g94
g95
ssg83
g1190
sg76
(lp1197
S'server_protocol'
p1198
asbag69
(g90
g71
NtRp1199
(dp1200
g74
(dp1201
g101
g102
ssg83
g1190
sg76
(lp1202
S':'
asbag69
(g90
g71
NtRp1203
(dp1204
g74
(dp1205
sg83
g1190
sg76
(lp1206
g69
(g70
g71
NtRp1207
(dp1208
g74
(dp1209
g82
I4
ssg83
g1203
sg76
(lp1210
S'HTTP/1.1'
p1211
asbasbasbag69
(g85
g71
NtRp1212
(dp1213
g74
(dp1214
sg83
g661
sg76
(lp1215
g69
(g90
g71
NtRp1216
(dp1217
g74
(dp1218
g94
g95
ssg83
g1212
sg76
(lp1219
S'server_software'
p1220
asbag69
(g90
g71
NtRp1221
(dp1222
g74
(dp1223
g101
g102
ssg83
g1212
sg76
(lp1224
S':'
asbag69
(g90
g71
NtRp1225
(dp1226
g74
(dp1227
sg83
g1212
sg76
(lp1228
g69
(g70
g71
NtRp1229
(dp1230
g74
(dp1231
g82
I4
ssg83
g1225
sg76
(lp1232
S'Rocket 1.2.4'
p1233
asbasbasbag69
(g85
g71
NtRp1234
(dp1235
g74
(dp1236
sg83
g661
sg76
(lp1237
g69
(g90
g71
NtRp1238
(dp1239
g74
(dp1240
g94
g95
ssg83
g1234
sg76
(lp1241
S'web2py_crontype'
p1242
asbag69
(g90
g71
NtRp1243
(dp1244
g74
(dp1245
g101
g102
ssg83
g1234
sg76
(lp1246
S':'
asbag69
(g90
g71
NtRp1247
(dp1248
g74
(dp1249
sg83
g1234
sg76
(lp1250
g69
(g70
g71
NtRp1251
(dp1252
g74
(dp1253
g82
I4
ssg83
g1247
sg76
(lp1254
S'hard'
p1255
asbasbasbag69
(g85
g71
NtRp1256
(dp1257
g74
(dp1258
sg83
g661
sg76
(lp1259
g69
(g90
g71
NtRp1260
(dp1261
g74
(dp1262
g94
g95
ssg83
g1256
sg76
(lp1263
S'web2py_path'
p1264
asbag69
(g90
g71
NtRp1265
(dp1266
g74
(dp1267
g101
g102
ssg83
g1256
sg76
(lp1268
S':'
asbag69
(g90
g71
NtRp1269
(dp1270
g74
(dp1271
sg83
g1256
sg76
(lp1272
g69
(g70
g71
NtRp1273
(dp1274
g74
(dp1275
g82
I4
ssg83
g1269
sg76
(lp1276
g708
asbasbasbag69
(g85
g71
NtRp1277
(dp1278
g74
(dp1279
sg83
g661
sg76
(lp1280
g69
(g90
g71
NtRp1281
(dp1282
g74
(dp1283
g94
g95
ssg83
g1277
sg76
(lp1284
S'web2py_version'
p1285
asbag69
(g90
g71
NtRp1286
(dp1287
g74
(dp1288
g101
g102
ssg83
g1277
sg76
(lp1289
S':'
asbag69
(g90
g71
NtRp1290
(dp1291
g74
(dp1292
sg83
g1277
sg76
(lp1293
g69
(g70
g71
NtRp1294
(dp1295
g74
(dp1296
g82
I4
ssg83
g1290
sg76
(lp1297
g69
(g78
g71
NtRp1298
(dp1299
g74
(dp1300
g82
I3
ssg83
Nsg76
(lp1301
g69
(g85
g71
NtRp1302
(dp1303
g74
(dp1304
sg83
g1298
sg76
(lp1305
g69
(g90
g71
NtRp1306
(dp1307
g74
(dp1308
sg83
g1302
sg76
(lp1309
g69
(g70
g71
NtRp1310
(dp1311
g74
(dp1312
g82
I3
ssg83
g1306
sg76
(lp1313
S'1'
asbasbasbag69
(g85
g71
NtRp1314
(dp1315
g74
(dp1316
sg83
g1298
sg76
(lp1317
g69
(g90
g71
NtRp1318
(dp1319
g74
(dp1320
sg83
g1314
sg76
(lp1321
g69
(g70
g71
NtRp1322
(dp1323
g74
(dp1324
g82
I3
ssg83
g1318
sg76
(lp1325
S'99'
p1326
asbasbasbag69
(g85
g71
NtRp1327
(dp1328
g74
(dp1329
sg83
g1298
sg76
(lp1330
g69
(g90
g71
NtRp1331
(dp1332
g74
(dp1333
sg83
g1327
sg76
(lp1334
g69
(g70
g71
NtRp1335
(dp1336
g74
(dp1337
g82
I3
ssg83
g1331
sg76
(lp1338
S'4'
asbasbasbag69
(g85
g71
NtRp1339
(dp1340
g74
(dp1341
sg83
g1298
sg76
(lp1342
g69
(g90
g71
NtRp1343
(dp1344
g74
(dp1345
sg83
g1339
sg76
(lp1346
g69
(g70
g71
NtRp1347
(dp1348
g74
(dp1349
g82
I3
ssg83
g1343
sg76
(lp1350
S'datetime.datetime(2011, 12, 14, 14, 46, 14)'
p1351
asbasbasbag69
(g85
g71
NtRp1352
(dp1353
g74
(dp1354
sg83
g1298
sg76
(lp1355
g69
(g90
g71
NtRp1356
(dp1357
g74
(dp1358
sg83
g1352
sg76
(lp1359
g69
(g70
g71
NtRp1360
(dp1361
g74
(dp1362
g82
I3
ssg83
g1356
sg76
(lp1363
S'stable'
p1364
asbasbasbasbasbasbasbag69
(g85
g71
NtRp1365
(dp1366
g74
(dp1367
sg83
g661
sg76
(lp1368
g69
(g90
g71
NtRp1369
(dp1370
g74
(dp1371
g94
g95
ssg83
g1365
sg76
(lp1372
S'wsgi_errors'
p1373
asbag69
(g90
g71
NtRp1374
(dp1375
g74
(dp1376
g101
g102
ssg83
g1365
sg76
(lp1377
S':'
asbag69
(g90
g71
NtRp1378
(dp1379
g74
(dp1380
sg83
g1365
sg76
(lp1381
g69
(g70
g71
NtRp1382
(dp1383
g74
(dp1384
g82
I4
ssg83
g1378
sg76
(lp1385
S"<open file '<stderr>', mode 'w' at 0x7fdd14f50270>"
p1386
asbasbasbag69
(g85
g71
NtRp1387
(dp1388
g74
(dp1389
sg83
g661
sg76
(lp1390
g69
(g90
g71
NtRp1391
(dp1392
g74
(dp1393
g94
g95
ssg83
g1387
sg76
(lp1394
S'wsgi_file_wrapper'
p1395
asbag69
(g90
g71
NtRp1396
(dp1397
g74
(dp1398
g101
g102
ssg83
g1387
sg76
(lp1399
S':'
asbag69
(g90
g71
NtRp1400
(dp1401
g74
(dp1402
sg83
g1387
sg76
(lp1403
g69
(g70
g71
NtRp1404
(dp1405
g74
(dp1406
g82
I4
ssg83
g1400
sg76
(lp1407
S'<class wsgiref.util.FileWrapper at 0x2a06530>'
p1408
asbasbasbag69
(g85
g71
NtRp1409
(dp1410
g74
(dp1411
sg83
g661
sg76
(lp1412
g69
(g90
g71
NtRp1413
(dp1414
g74
(dp1415
g94
g95
ssg83
g1409
sg76
(lp1416
S'wsgi_input'
p1417
asbag69
(g90
g71
NtRp1418
(dp1419
g74
(dp1420
g101
g102
ssg83
g1409
sg76
(lp1421
S':'
asbag69
(g90
g71
NtRp1422
(dp1423
g74
(dp1424
sg83
g1409
sg76
(lp1425
g69
(g70
g71
NtRp1426
(dp1427
g74
(dp1428
g82
I4
ssg83
g1422
sg76
(lp1429
S'<socket._fileobject object at 0x7fdcc41c7f50>'
p1430
asbasbasbag69
(g85
g71
NtRp1431
(dp1432
g74
(dp1433
sg83
g661
sg76
(lp1434
g69
(g90
g71
NtRp1435
(dp1436
g74
(dp1437
g94
g95
ssg83
g1431
sg76
(lp1438
S'wsgi_multiprocess'
p1439
asbag69
(g90
g71
NtRp1440
(dp1441
g74
(dp1442
g101
g102
ssg83
g1431
sg76
(lp1443
S':'
asbag69
(g90
g71
NtRp1444
(dp1445
g74
(dp1446
sg83
g1431
sg76
(lp1447
g69
(g70
g71
NtRp1448
(dp1449
g74
(dp1450
g82
I4
ssg83
g1444
sg76
(lp1451
g112
asbasbasbag69
(g85
g71
NtRp1452
(dp1453
g74
(dp1454
sg83
g661
sg76
(lp1455
g69
(g90
g71
NtRp1456
(dp1457
g74
(dp1458
g94
g95
ssg83
g1452
sg76
(lp1459
S'wsgi_multithread'
p1460
asbag69
(g90
g71
NtRp1461
(dp1462
g74
(dp1463
g101
g102
ssg83
g1452
sg76
(lp1464
S':'
asbag69
(g90
g71
NtRp1465
(dp1466
g74
(dp1467
sg83
g1452
sg76
(lp1468
g69
(g70
g71
NtRp1469
(dp1470
g74
(dp1471
g82
I4
ssg83
g1465
sg76
(lp1472
S'True'
p1473
asbasbasbag69
(g85
g71
NtRp1474
(dp1475
g74
(dp1476
sg83
g661
sg76
(lp1477
g69
(g90
g71
NtRp1478
(dp1479
g74
(dp1480
g94
g95
ssg83
g1474
sg76
(lp1481
S'wsgi_run_once'
p1482
asbag69
(g90
g71
NtRp1483
(dp1484
g74
(dp1485
g101
g102
ssg83
g1474
sg76
(lp1486
S':'
asbag69
(g90
g71
NtRp1487
(dp1488
g74
(dp1489
sg83
g1474
sg76
(lp1490
g69
(g70
g71
NtRp1491
(dp1492
g74
(dp1493
g82
I4
ssg83
g1487
sg76
(lp1494
g112
asbasbasbag69
(g85
g71
NtRp1495
(dp1496
g74
(dp1497
sg83
g661
sg76
(lp1498
g69
(g90
g71
NtRp1499
(dp1500
g74
(dp1501
g94
g95
ssg83
g1495
sg76
(lp1502
S'wsgi_url_scheme'
p1503
asbag69
(g90
g71
NtRp1504
(dp1505
g74
(dp1506
g101
g102
ssg83
g1495
sg76
(lp1507
S':'
asbag69
(g90
g71
NtRp1508
(dp1509
g74
(dp1510
sg83
g1495
sg76
(lp1511
g69
(g70
g71
NtRp1512
(dp1513
g74
(dp1514
g82
I4
ssg83
g1508
sg76
(lp1515
S'http'
p1516
asbasbasbag69
(g85
g71
NtRp1517
(dp1518
g74
(dp1519
sg83
g661
sg76
(lp1520
g69
(g90
g71
NtRp1521
(dp1522
g74
(dp1523
g94
g95
ssg83
g1517
sg76
(lp1524
S'wsgi_version'
p1525
asbag69
(g90
g71
NtRp1526
(dp1527
g74
(dp1528
g101
g102
ssg83
g1517
sg76
(lp1529
S':'
asbag69
(g90
g71
NtRp1530
(dp1531
g74
(dp1532
sg83
g1517
sg76
(lp1533
g69
(g70
g71
NtRp1534
(dp1535
g74
(dp1536
g82
I4
ssg83
g1530
sg76
(lp1537
g69
(g78
g71
NtRp1538
(dp1539
g74
(dp1540
g82
I3
ssg83
Nsg76
(lp1541
g69
(g85
g71
NtRp1542
(dp1543
g74
(dp1544
sg83
g1538
sg76
(lp1545
g69
(g90
g71
NtRp1546
(dp1547
g74
(dp1548
sg83
g1542
sg76
(lp1549
g69
(g70
g71
NtRp1550
(dp1551
g74
(dp1552
g82
I3
ssg83
g1546
sg76
(lp1553
S'1'
asbasbasbag69
(g85
g71
NtRp1554
(dp1555
g74
(dp1556
sg83
g1538
sg76
(lp1557
g69
(g90
g71
NtRp1558
(dp1559
g74
(dp1560
sg83
g1554
sg76
(lp1561
g69
(g70
g71
NtRp1562
(dp1563
g74
(dp1564
g82
I3
ssg83
g1558
sg76
(lp1565
S'0'
asbasbasbasbasbasbasbasbasbasbasbag69
(g85
g71
NtRp1566
(dp1567
g74
(dp1568
sg83
g79
sg76
(lp1569
g69
(g90
g71
NtRp1570
(dp1571
g74
(dp1572
g94
g95
ssg83
g1566
sg76
(lp1573
S'extension'
p1574
asbag69
(g90
g71
NtRp1575
(dp1576
g74
(dp1577
g101
g102
ssg83
g1566
sg76
(lp1578
S':'
asbag69
(g90
g71
NtRp1579
(dp1580
g74
(dp1581
sg83
g1566
sg76
(lp1582
g69
(g70
g71
NtRp1583
(dp1584
g74
(dp1585
g82
I5
ssg83
g1579
sg76
(lp1586
S'html'
p1587
asbasbasbag69
(g85
g71
NtRp1588
(dp1589
g74
(dp1590
sg83
g79
sg76
(lp1591
g69
(g90
g71
NtRp1592
(dp1593
g74
(dp1594
g94
g95
ssg83
g1588
sg76
(lp1595
S'folder'
p1596
asbag69
(g90
g71
NtRp1597
(dp1598
g74
(dp1599
g101
g102
ssg83
g1588
sg76
(lp1600
S':'
asbag69
(g90
g71
NtRp1601
(dp1602
g74
(dp1603
sg83
g1588
sg76
(lp1604
g69
(g70
g71
NtRp1605
(dp1606
g74
(dp1607
g82
I5
ssg83
g1601
sg76
(lp1608
S'/home/ds-iiit/web2py/applications/Read_it/'
p1609
asbasbasbag69
(g85
g71
NtRp1610
(dp1611
g74
(dp1612
sg83
g79
sg76
(lp1613
g69
(g90
g71
NtRp1614
(dp1615
g74
(dp1616
g94
g95
ssg83
g1610
sg76
(lp1617
S'function'
p1618
asbag69
(g90
g71
NtRp1619
(dp1620
g74
(dp1621
g101
g102
ssg83
g1610
sg76
(lp1622
S':'
asbag69
(g90
g71
NtRp1623
(dp1624
g74
(dp1625
sg83
g1610
sg76
(lp1626
g69
(g70
g71
NtRp1627
(dp1628
g74
(dp1629
g82
I5
ssg83
g1623
sg76
(lp1630
S'comments'
p1631
asbasbasbag69
(g85
g71
NtRp1632
(dp1633
g74
(dp1634
sg83
g79
sg76
(lp1635
g69
(g90
g71
NtRp1636
(dp1637
g74
(dp1638
g94
g95
ssg83
g1632
sg76
(lp1639
S'get_vars'
p1640
asbag69
(g90
g71
NtRp1641
(dp1642
g74
(dp1643
g101
g102
ssg83
g1632
sg76
(lp1644
S':'
asbag69
(g90
g71
NtRp1645
(dp1646
g74
(dp1647
sg83
g1632
sg76
(lp1648
g69
(g70
g71
NtRp1649
(dp1650
g74
(dp1651
g82
I5
ssg83
g1645
sg76
(lp1652
g69
(g78
g71
NtRp1653
(dp1654
g74
(dp1655
g82
I4
ssg83
Nsg76
(lp1656
sbasbasbasbag69
(g85
g71
NtRp1657
(dp1658
g74
(dp1659
sg83
g79
sg76
(lp1660
g69
(g90
g71
NtRp1661
(dp1662
g74
(dp1663
g94
g95
ssg83
g1657
sg76
(lp1664
S'global_settings'
p1665
asbag69
(g90
g71
NtRp1666
(dp1667
g74
(dp1668
g101
g102
ssg83
g1657
sg76
(lp1669
S':'
asbag69
(g90
g71
NtRp1670
(dp1671
g74
(dp1672
sg83
g1657
sg76
(lp1673
g69
(g70
g71
NtRp1674
(dp1675
g74
(dp1676
g82
I5
ssg83
g1670
sg76
(lp1677
g69
(g78
g71
NtRp1678
(dp1679
g74
(dp1680
g82
I4
ssg83
Nsg76
(lp1681
g69
(g85
g71
NtRp1682
(dp1683
g74
(dp1684
sg83
g1678
sg76
(lp1685
g69
(g90
g71
NtRp1686
(dp1687
g74
(dp1688
g94
g95
ssg83
g1682
sg76
(lp1689
g673
asbag69
(g90
g71
NtRp1690
(dp1691
g74
(dp1692
g101
g102
ssg83
g1682
sg76
(lp1693
S':'
asbag69
(g90
g71
NtRp1694
(dp1695
g74
(dp1696
sg83
g1682
sg76
(lp1697
g69
(g70
g71
NtRp1698
(dp1699
g74
(dp1700
g82
I4
ssg83
g1694
sg76
(lp1701
S"set(['/home/ds-iiit/web2py/applications/Read_it/', '/home/ds-iiit/web2py/applications/welcome/', '/home/ds-iiit/web2py/applications/admin/'])"
p1702
asbasbasbag69
(g85
g71
NtRp1703
(dp1704
g74
(dp1705
sg83
g1678
sg76
(lp1706
g69
(g90
g71
NtRp1707
(dp1708
g74
(dp1709
g94
g95
ssg83
g1703
sg76
(lp1710
g695
asbag69
(g90
g71
NtRp1711
(dp1712
g74
(dp1713
g101
g102
ssg83
g1703
sg76
(lp1714
S':'
asbag69
(g90
g71
NtRp1715
(dp1716
g74
(dp1717
sg83
g1703
sg76
(lp1718
g69
(g70
g71
NtRp1719
(dp1720
g74
(dp1721
g82
I4
ssg83
g1715
sg76
(lp1722
g708
asbasbasbag69
(g85
g71
NtRp1723
(dp1724
g74
(dp1725
sg83
g1678
sg76
(lp1726
g69
(g90
g71
NtRp1727
(dp1728
g74
(dp1729
g94
g95
ssg83
g1723
sg76
(lp1730
g717
asbag69
(g90
g71
NtRp1731
(dp1732
g74
(dp1733
g101
g102
ssg83
g1723
sg76
(lp1734
S':'
asbag69
(g90
g71
NtRp1735
(dp1736
g74
(dp1737
sg83
g1723
sg76
(lp1738
g69
(g70
g71
NtRp1739
(dp1740
g74
(dp1741
g82
I4
ssg83
g1735
sg76
(lp1742
g69
(g78
g71
NtRp1743
(dp1744
g74
(dp1745
g82
I3
ssg83
Nsg76
(lp1746
sbasbasbasbag69
(g85
g71
NtRp1747
(dp1748
g74
(dp1749
sg83
g1678
sg76
(lp1750
g69
(g90
g71
NtRp1751
(dp1752
g74
(dp1753
g94
g95
ssg83
g1747
sg76
(lp1754
g742
asbag69
(g90
g71
NtRp1755
(dp1756
g74
(dp1757
g101
g102
ssg83
g1747
sg76
(lp1758
S':'
asbag69
(g90
g71
NtRp1759
(dp1760
g74
(dp1761
sg83
g1747
sg76
(lp1762
g69
(g70
g71
NtRp1763
(dp1764
g74
(dp1765
g82
I4
ssg83
g1759
sg76
(lp1766
S"<Values at 0x2adbb00: {'verbose': False, 'ip': '127.0.0.1', 'shutdown_timeout': 5, 'taskbar': False, 'port': 8000, 'maxthreads': None, 'softcron': False, 'server_name': 'DS-IIIT', 'bpython': False, 'nogui': False, 'nocron': False, 'extcron': False, 'debuglevel': 30, 'test': None, 'folder': '/home/ds-iiit/web2py', 'config': '', 'import_models': False, 'winservice': '', 'shell': None, 'run': '', 'log_filename': 'httpserver.log', 'args': [''], 'socket_timeout': 1, 'profiler_filename': None, 'ssl_private_key': '', 'password': '<ask>', 'request_queue_size': 5, 'ssl_certificate': '', 'cronjob': False, 'plain': False, 'quiet': False, 'interfaces': None, 'minthreads': None, 'timeout': 10, 'numthreads': None, 'nobanner': False, 'pid_filename': 'httpserver.pid'}>"
p1767
asbasbasbag69
(g85
g71
NtRp1768
(dp1769
g74
(dp1770
sg83
g1678
sg76
(lp1771
g69
(g90
g71
NtRp1772
(dp1773
g74
(dp1774
g94
g95
ssg83
g1768
sg76
(lp1775
g764
asbag69
(g90
g71
NtRp1776
(dp1777
g74
(dp1778
g101
g102
ssg83
g1768
sg76
(lp1779
S':'
asbag69
(g90
g71
NtRp1780
(dp1781
g74
(dp1782
sg83
g1768
sg76
(lp1783
g69
(g70
g71
NtRp1784
(dp1785
g74
(dp1786
g82
I4
ssg83
g1780
sg76
(lp1787
S'set([])'
p1788
asbasbasbag69
(g85
g71
NtRp1789
(dp1790
g74
(dp1791
sg83
g1678
sg76
(lp1792
g69
(g90
g71
NtRp1793
(dp1794
g74
(dp1795
g94
g95
ssg83
g1789
sg76
(lp1796
g786
asbag69
(g90
g71
NtRp1797
(dp1798
g74
(dp1799
g101
g102
ssg83
g1789
sg76
(lp1800
S':'
asbag69
(g90
g71
NtRp1801
(dp1802
g74
(dp1803
sg83
g1789
sg76
(lp1804
g69
(g70
g71
NtRp1805
(dp1806
g74
(dp1807
g82
I4
ssg83
g1801
sg76
(lp1808
g112
asbasbasbag69
(g85
g71
NtRp1809
(dp1810
g74
(dp1811
sg83
g1678
sg76
(lp1812
g69
(g90
g71
NtRp1813
(dp1814
g74
(dp1815
g94
g95
ssg83
g1809
sg76
(lp1816
g807
asbag69
(g90
g71
NtRp1817
(dp1818
g74
(dp1819
g101
g102
ssg83
g1809
sg76
(lp1820
S':'
asbag69
(g90
g71
NtRp1821
(dp1822
g74
(dp1823
sg83
g1809
sg76
(lp1824
g69
(g70
g71
NtRp1825
(dp1826
g74
(dp1827
g82
I4
ssg83
g1821
sg76
(lp1828
g820
asbasbasbag69
(g85
g71
NtRp1829
(dp1830
g74
(dp1831
sg83
g1678
sg76
(lp1832
g69
(g90
g71
NtRp1833
(dp1834
g74
(dp1835
g94
g95
ssg83
g1829
sg76
(lp1836
g983
asbag69
(g90
g71
NtRp1837
(dp1838
g74
(dp1839
g101
g102
ssg83
g1829
sg76
(lp1840
S':'
asbag69
(g90
g71
NtRp1841
(dp1842
g74
(dp1843
sg83
g1829
sg76
(lp1844
g69
(g70
g71
NtRp1845
(dp1846
g74
(dp1847
g82
I4
ssg83
g1841
sg76
(lp1848
g112
asbasbasbag69
(g85
g71
NtRp1849
(dp1850
g74
(dp1851
sg83
g1678
sg76
(lp1852
g69
(g90
g71
NtRp1853
(dp1854
g74
(dp1855
g94
g95
ssg83
g1849
sg76
(lp1856
g1004
asbag69
(g90
g71
NtRp1857
(dp1858
g74
(dp1859
g101
g102
ssg83
g1849
sg76
(lp1860
S':'
asbag69
(g90
g71
NtRp1861
(dp1862
g74
(dp1863
sg83
g1849
sg76
(lp1864
g69
(g70
g71
NtRp1865
(dp1866
g74
(dp1867
g82
I4
ssg83
g1861
sg76
(lp1868
g112
asbasbasbag69
(g85
g71
NtRp1869
(dp1870
g74
(dp1871
sg83
g1678
sg76
(lp1872
g69
(g90
g71
NtRp1873
(dp1874
g74
(dp1875
g94
g95
ssg83
g1869
sg76
(lp1876
g1242
asbag69
(g90
g71
NtRp1877
(dp1878
g74
(dp1879
g101
g102
ssg83
g1869
sg76
(lp1880
S':'
asbag69
(g90
g71
NtRp1881
(dp1882
g74
(dp1883
sg83
g1869
sg76
(lp1884
g69
(g70
g71
NtRp1885
(dp1886
g74
(dp1887
g82
I4
ssg83
g1881
sg76
(lp1888
g1255
asbasbasbag69
(g85
g71
NtRp1889
(dp1890
g74
(dp1891
sg83
g1678
sg76
(lp1892
g69
(g90
g71
NtRp1893
(dp1894
g74
(dp1895
g94
g95
ssg83
g1889
sg76
(lp1896
g1285
asbag69
(g90
g71
NtRp1897
(dp1898
g74
(dp1899
g101
g102
ssg83
g1889
sg76
(lp1900
S':'
asbag69
(g90
g71
NtRp1901
(dp1902
g74
(dp1903
sg83
g1889
sg76
(lp1904
g69
(g70
g71
NtRp1905
(dp1906
g74
(dp1907
g82
I4
ssg83
g1901
sg76
(lp1908
g69
(g78
g71
NtRp1909
(dp1910
g74
(dp1911
g82
I3
ssg83
Nsg76
(lp1912
g69
(g85
g71
NtRp1913
(dp1914
g74
(dp1915
sg83
g1909
sg76
(lp1916
g69
(g90
g71
NtRp1917
(dp1918
g74
(dp1919
sg83
g1913
sg76
(lp1920
g69
(g70
g71
NtRp1921
(dp1922
g74
(dp1923
g82
I3
ssg83
g1917
sg76
(lp1924
S'1'
asbasbasbag69
(g85
g71
NtRp1925
(dp1926
g74
(dp1927
sg83
g1909
sg76
(lp1928
g69
(g90
g71
NtRp1929
(dp1930
g74
(dp1931
sg83
g1925
sg76
(lp1932
g69
(g70
g71
NtRp1933
(dp1934
g74
(dp1935
g82
I3
ssg83
g1929
sg76
(lp1936
S'99'
p1937
asbasbasbag69
(g85
g71
NtRp1938
(dp1939
g74
(dp1940
sg83
g1909
sg76
(lp1941
g69
(g90
g71
NtRp1942
(dp1943
g74
(dp1944
sg83
g1938
sg76
(lp1945
g69
(g70
g71
NtRp1946
(dp1947
g74
(dp1948
g82
I3
ssg83
g1942
sg76
(lp1949
S'4'
asbasbasbag69
(g85
g71
NtRp1950
(dp1951
g74
(dp1952
sg83
g1909
sg76
(lp1953
g69
(g90
g71
NtRp1954
(dp1955
g74
(dp1956
sg83
g1950
sg76
(lp1957
g69
(g70
g71
NtRp1958
(dp1959
g74
(dp1960
g82
I3
ssg83
g1954
sg76
(lp1961
S'datetime.datetime(2011, 12, 14, 14, 46, 14)'
p1962
asbasbasbag69
(g85
g71
NtRp1963
(dp1964
g74
(dp1965
sg83
g1909
sg76
(lp1966
g69
(g90
g71
NtRp1967
(dp1968
g74
(dp1969
sg83
g1963
sg76
(lp1970
g69
(g70
g71
NtRp1971
(dp1972
g74
(dp1973
g82
I3
ssg83
g1967
sg76
(lp1974
g1364
asbasbasbasbasbasbasbasbasbasbasbag69
(g85
g71
NtRp1975
(dp1976
g74
(dp1977
sg83
g79
sg76
(lp1978
g69
(g90
g71
NtRp1979
(dp1980
g74
(dp1981
g94
g95
ssg83
g1975
sg76
(lp1982
S'is_https'
p1983
asbag69
(g90
g71
NtRp1984
(dp1985
g74
(dp1986
g101
g102
ssg83
g1975
sg76
(lp1987
S':'
asbag69
(g90
g71
NtRp1988
(dp1989
g74
(dp1990
sg83
g1975
sg76
(lp1991
g69
(g70
g71
NtRp1992
(dp1993
g74
(dp1994
g82
I5
ssg83
g1988
sg76
(lp1995
g112
asbasbasbag69
(g85
g71
NtRp1996
(dp1997
g74
(dp1998
sg83
g79
sg76
(lp1999
g69
(g90
g71
NtRp2000
(dp2001
g74
(dp2002
g94
g95
ssg83
g1996
sg76
(lp2003
S'is_local'
p2004
asbag69
(g90
g71
NtRp2005
(dp2006
g74
(dp2007
g101
g102
ssg83
g1996
sg76
(lp2008
S':'
asbag69
(g90
g71
NtRp2009
(dp2010
g74
(dp2011
sg83
g1996
sg76
(lp2012
g69
(g70
g71
NtRp2013
(dp2014
g74
(dp2015
g82
I5
ssg83
g2009
sg76
(lp2016
g1473
asbasbasbag69
(g85
g71
NtRp2017
(dp2018
g74
(dp2019
sg83
g79
sg76
(lp2020
g69
(g90
g71
NtRp2021
(dp2022
g74
(dp2023
g94
g95
ssg83
g2017
sg76
(lp2024
S'is_restful'
p2025
asbag69
(g90
g71
NtRp2026
(dp2027
g74
(dp2028
g101
g102
ssg83
g2017
sg76
(lp2029
S':'
asbag69
(g90
g71
NtRp2030
(dp2031
g74
(dp2032
sg83
g2017
sg76
(lp2033
g69
(g70
g71
NtRp2034
(dp2035
g74
(dp2036
g82
I5
ssg83
g2030
sg76
(lp2037
g112
asbasbasbag69
(g85
g71
NtRp2038
(dp2039
g74
(dp2040
sg83
g79
sg76
(lp2041
g69
(g90
g71
NtRp2042
(dp2043
g74
(dp2044
g94
g95
ssg83
g2038
sg76
(lp2045
S'now'
p2046
asbag69
(g90
g71
NtRp2047
(dp2048
g74
(dp2049
g101
g102
ssg83
g2038
sg76
(lp2050
S':'
asbag69
(g90
g71
NtRp2051
(dp2052
g74
(dp2053
sg83
g2038
sg76
(lp2054
g69
(g70
g71
NtRp2055
(dp2056
g74
(dp2057
g82
I5
ssg83
g2051
sg76
(lp2058
S'datetime.datetime(2013, 8, 30, 2, 55, 34, 905002)'
p2059
asbasbasbag69
(g85
g71
NtRp2060
(dp2061
g74
(dp2062
sg83
g79
sg76
(lp2063
g69
(g90
g71
NtRp2064
(dp2065
g74
(dp2066
g94
g95
ssg83
g2060
sg76
(lp2067
S'post_vars'
p2068
asbag69
(g90
g71
NtRp2069
(dp2070
g74
(dp2071
g101
g102
ssg83
g2060
sg76
(lp2072
S':'
asbag69
(g90
g71
NtRp2073
(dp2074
g74
(dp2075
sg83
g2060
sg76
(lp2076
g69
(g70
g71
NtRp2077
(dp2078
g74
(dp2079
g82
I5
ssg83
g2073
sg76
(lp2080
g69
(g78
g71
NtRp2081
(dp2082
g74
(dp2083
g82
I4
ssg83
Nsg76
(lp2084
sbasbasbasbag69
(g85
g71
NtRp2085
(dp2086
g74
(dp2087
sg83
g79
sg76
(lp2088
g69
(g90
g71
NtRp2089
(dp2090
g74
(dp2091
g94
g95
ssg83
g2085
sg76
(lp2092
S'raw_args'
p2093
asbag69
(g90
g71
NtRp2094
(dp2095
g74
(dp2096
g101
g102
ssg83
g2085
sg76
(lp2097
S':'
asbag69
(g90
g71
NtRp2098
(dp2099
g74
(dp2100
sg83
g2085
sg76
(lp2101
g69
(g70
g71
NtRp2102
(dp2103
g74
(dp2104
g82
I5
ssg83
g2098
sg76
(lp2105
S'3'
asbasbasbag69
(g85
g71
NtRp2106
(dp2107
g74
(dp2108
sg83
g79
sg76
(lp2109
g69
(g90
g71
NtRp2110
(dp2111
g74
(dp2112
g94
g95
ssg83
g2106
sg76
(lp2113
S'url'
p2114
asbag69
(g90
g71
NtRp2115
(dp2116
g74
(dp2117
g101
g102
ssg83
g2106
sg76
(lp2118
S':'
asbag69
(g90
g71
NtRp2119
(dp2120
g74
(dp2121
sg83
g2106
sg76
(lp2122
g69
(g70
g71
NtRp2123
(dp2124
g74
(dp2125
g82
I5
ssg83
g2119
sg76
(lp2126
S'/Read_it/default/comments/3'
p2127
asbasbasbag69
(g85
g71
NtRp2128
(dp2129
g74
(dp2130
sg83
g79
sg76
(lp2131
g69
(g90
g71
NtRp2132
(dp2133
g74
(dp2134
g94
g95
ssg83
g2128
sg76
(lp2135
S'utcnow'
p2136
asbag69
(g90
g71
NtRp2137
(dp2138
g74
(dp2139
g101
g102
ssg83
g2128
sg76
(lp2140
S':'
asbag69
(g90
g71
NtRp2141
(dp2142
g74
(dp2143
sg83
g2128
sg76
(lp2144
g69
(g70
g71
NtRp2145
(dp2146
g74
(dp2147
g82
I5
ssg83
g2141
sg76
(lp2148
S'datetime.datetime(2013, 8, 29, 21, 25, 34, 905023)'
p2149
asbasbasbag69
(g85
g71
NtRp2150
(dp2151
g74
(dp2152
sg83
g79
sg76
(lp2153
g69
(g90
g71
NtRp2154
(dp2155
g74
(dp2156
g94
g95
ssg83
g2150
sg76
(lp2157
S'uuid'
p2158
asbag69
(g90
g71
NtRp2159
(dp2160
g74
(dp2161
g101
g102
ssg83
g2150
sg76
(lp2162
S':'
asbag69
(g90
g71
NtRp2163
(dp2164
g74
(dp2165
sg83
g2150
sg76
(lp2166
g69
(g70
g71
NtRp2167
(dp2168
g74
(dp2169
g82
I5
ssg83
g2163
sg76
(lp2170
S'Read_it/127.0.0.1.2013-08-30.02-55-34.1a47f22c-8459-43b1-967a-b5d45b12bf30'
p2171
asbasbasbag69
(g85
g71
NtRp2172
(dp2173
g74
(dp2174
sg83
g79
sg76
(lp2175
g69
(g90
g71
NtRp2176
(dp2177
g74
(dp2178
g94
g95
ssg83
g2172
sg76
(lp2179
S'vars'
p2180
asbag69
(g90
g71
NtRp2181
(dp2182
g74
(dp2183
g101
g102
ssg83
g2172
sg76
(lp2184
S':'
asbag69
(g90
g71
NtRp2185
(dp2186
g74
(dp2187
sg83
g2172
sg76
(lp2188
g69
(g70
g71
NtRp2189
(dp2190
g74
(dp2191
g82
I5
ssg83
g2185
sg76
(lp2192
g69
(g78
g71
NtRp2193
(dp2194
g74
(dp2195
g82
I4
ssg83
Nsg76
(lp2196
sbasbasbasbag69
(g85
g71
NtRp2197
(dp2198
g74
(dp2199
sg83
g79
sg76
(lp2200
g69
(g90
g71
NtRp2201
(dp2202
g74
(dp2203
g94
g95
ssg83
g2197
sg76
(lp2204
S'wsgi'
p2205
asbag69
(g90
g71
NtRp2206
(dp2207
g74
(dp2208
g101
g102
ssg83
g2197
sg76
(lp2209
S':'
asbag69
(g90
g71
NtRp2210
(dp2211
g74
(dp2212
sg83
g2197
sg76
(lp2213
g69
(g70
g71
NtRp2214
(dp2215
g74
(dp2216
g82
I5
ssg83
g2210
sg76
(lp2217
g69
(g78
g71
NtRp2218
(dp2219
g74
(dp2220
g82
I4
ssg83
Nsg76
(lp2221
g69
(g85
g71
NtRp2222
(dp2223
g74
(dp2224
sg83
g2218
sg76
(lp2225
g69
(g90
g71
NtRp2226
(dp2227
g74
(dp2228
g94
g95
ssg83
g2222
sg76
(lp2229
S'environ'
p2230
asbag69
(g90
g71
NtRp2231
(dp2232
g74
(dp2233
g101
g102
ssg83
g2222
sg76
(lp2234
S':'
asbag69
(g90
g71
NtRp2235
(dp2236
g74
(dp2237
sg83
g2222
sg76
(lp2238
g69
(g70
g71
NtRp2239
(dp2240
g74
(dp2241
g82
I4
ssg83
g2235
sg76
(lp2242
g69
(g78
g71
NtRp2243
(dp2244
g74
(dp2245
g82
I3
ssg83
Nsg76
(lp2246
g69
(g85
g71
NtRp2247
(dp2248
g74
(dp2249
sg83
g2243
sg76
(lp2250
g69
(g90
g71
NtRp2251
(dp2252
g74
(dp2253
g94
g95
ssg83
g2247
sg76
(lp2254
S'HTTP_ACCEPT'
p2255
asbag69
(g90
g71
NtRp2256
(dp2257
g74
(dp2258
g101
g102
ssg83
g2247
sg76
(lp2259
S':'
asbag69
(g90
g71
NtRp2260
(dp2261
g74
(dp2262
sg83
g2247
sg76
(lp2263
g69
(g70
g71
NtRp2264
(dp2265
g74
(dp2266
g82
I3
ssg83
g2260
sg76
(lp2267
g842
asbasbasbag69
(g85
g71
NtRp2268
(dp2269
g74
(dp2270
sg83
g2243
sg76
(lp2271
g69
(g90
g71
NtRp2272
(dp2273
g74
(dp2274
g94
g95
ssg83
g2268
sg76
(lp2275
S'HTTP_ACCEPT_ENCODING'
p2276
asbag69
(g90
g71
NtRp2277
(dp2278
g74
(dp2279
g101
g102
ssg83
g2268
sg76
(lp2280
S':'
asbag69
(g90
g71
NtRp2281
(dp2282
g74
(dp2283
sg83
g2268
sg76
(lp2284
g69
(g70
g71
NtRp2285
(dp2286
g74
(dp2287
g82
I3
ssg83
g2281
sg76
(lp2288
g864
asbasbasbag69
(g85
g71
NtRp2289
(dp2290
g74
(dp2291
sg83
g2243
sg76
(lp2292
g69
(g90
g71
NtRp2293
(dp2294
g74
(dp2295
g94
g95
ssg83
g2289
sg76
(lp2296
S'HTTP_ACCEPT_LANGUAGE'
p2297
asbag69
(g90
g71
NtRp2298
(dp2299
g74
(dp2300
g101
g102
ssg83
g2289
sg76
(lp2301
S':'
asbag69
(g90
g71
NtRp2302
(dp2303
g74
(dp2304
sg83
g2289
sg76
(lp2305
g69
(g70
g71
NtRp2306
(dp2307
g74
(dp2308
g82
I3
ssg83
g2302
sg76
(lp2309
g886
asbasbasbag69
(g85
g71
NtRp2310
(dp2311
g74
(dp2312
sg83
g2243
sg76
(lp2313
g69
(g90
g71
NtRp2314
(dp2315
g74
(dp2316
g94
g95
ssg83
g2310
sg76
(lp2317
S'HTTP_CONNECTION'
p2318
asbag69
(g90
g71
NtRp2319
(dp2320
g74
(dp2321
g101
g102
ssg83
g2310
sg76
(lp2322
S':'
asbag69
(g90
g71
NtRp2323
(dp2324
g74
(dp2325
sg83
g2310
sg76
(lp2326
g69
(g70
g71
NtRp2327
(dp2328
g74
(dp2329
g82
I3
ssg83
g2323
sg76
(lp2330
g908
asbasbasbag69
(g85
g71
NtRp2331
(dp2332
g74
(dp2333
sg83
g2243
sg76
(lp2334
g69
(g90
g71
NtRp2335
(dp2336
g74
(dp2337
g94
g95
ssg83
g2331
sg76
(lp2338
S'HTTP_COOKIE'
p2339
asbag69
(g90
g71
NtRp2340
(dp2341
g74
(dp2342
g101
g102
ssg83
g2331
sg76
(lp2343
S':'
asbag69
(g90
g71
NtRp2344
(dp2345
g74
(dp2346
sg83
g2331
sg76
(lp2347
g69
(g70
g71
NtRp2348
(dp2349
g74
(dp2350
g82
I3
ssg83
g2344
sg76
(lp2351
g930
asbasbasbag69
(g85
g71
NtRp2352
(dp2353
g74
(dp2354
sg83
g2243
sg76
(lp2355
g69
(g90
g71
NtRp2356
(dp2357
g74
(dp2358
g94
g95
ssg83
g2352
sg76
(lp2359
S'HTTP_HOST'
p2360
asbag69
(g90
g71
NtRp2361
(dp2362
g74
(dp2363
g101
g102
ssg83
g2352
sg76
(lp2364
S':'
asbag69
(g90
g71
NtRp2365
(dp2366
g74
(dp2367
sg83
g2352
sg76
(lp2368
g69
(g70
g71
NtRp2369
(dp2370
g74
(dp2371
g82
I3
ssg83
g2365
sg76
(lp2372
g952
asbasbasbag69
(g85
g71
NtRp2373
(dp2374
g74
(dp2375
sg83
g2243
sg76
(lp2376
g69
(g90
g71
NtRp2377
(dp2378
g74
(dp2379
g94
g95
ssg83
g2373
sg76
(lp2380
S'HTTP_USER_AGENT'
p2381
asbag69
(g90
g71
NtRp2382
(dp2383
g74
(dp2384
g101
g102
ssg83
g2373
sg76
(lp2385
S':'
asbag69
(g90
g71
NtRp2386
(dp2387
g74
(dp2388
sg83
g2373
sg76
(lp2389
g69
(g70
g71
NtRp2390
(dp2391
g74
(dp2392
g82
I3
ssg83
g2386
sg76
(lp2393
g974
asbasbasbag69
(g85
g71
NtRp2394
(dp2395
g74
(dp2396
sg83
g2243
sg76
(lp2397
g69
(g90
g71
NtRp2398
(dp2399
g74
(dp2400
g94
g95
ssg83
g2394
sg76
(lp2401
S'PATH_INFO'
p2402
asbag69
(g90
g71
NtRp2403
(dp2404
g74
(dp2405
g101
g102
ssg83
g2394
sg76
(lp2406
S':'
asbag69
(g90
g71
NtRp2407
(dp2408
g74
(dp2409
sg83
g2394
sg76
(lp2410
g69
(g70
g71
NtRp2411
(dp2412
g74
(dp2413
g82
I3
ssg83
g2407
sg76
(lp2414
g1038
asbasbasbag69
(g85
g71
NtRp2415
(dp2416
g74
(dp2417
sg83
g2243
sg76
(lp2418
g69
(g90
g71
NtRp2419
(dp2420
g74
(dp2421
g94
g95
ssg83
g2415
sg76
(lp2422
S'QUERY_STRING'
p2423
asbag69
(g90
g71
NtRp2424
(dp2425
g74
(dp2426
g101
g102
ssg83
g2415
sg76
(lp2427
S':'
asbag69
(g90
g71
NtRp2428
(dp2429
g74
(dp2430
sg83
g2415
sg76
(lp2431
g69
(g70
g71
NtRp2432
(dp2433
g74
(dp2434
g82
I3
ssg83
g2428
sg76
(lp2435
S''
asbasbasbag69
(g85
g71
NtRp2436
(dp2437
g74
(dp2438
sg83
g2243
sg76
(lp2439
g69
(g90
g71
NtRp2440
(dp2441
g74
(dp2442
g94
g95
ssg83
g2436
sg76
(lp2443
S'REMOTE_ADDR'
p2444
asbag69
(g90
g71
NtRp2445
(dp2446
g74
(dp2447
g101
g102
ssg83
g2436
sg76
(lp2448
S':'
asbag69
(g90
g71
NtRp2449
(dp2450
g74
(dp2451
sg83
g2436
sg76
(lp2452
g69
(g70
g71
NtRp2453
(dp2454
g74
(dp2455
g82
I3
ssg83
g2449
sg76
(lp2456
g214
asbasbasbag69
(g85
g71
NtRp2457
(dp2458
g74
(dp2459
sg83
g2243
sg76
(lp2460
g69
(g90
g71
NtRp2461
(dp2462
g74
(dp2463
g94
g95
ssg83
g2457
sg76
(lp2464
S'REMOTE_PORT'
p2465
asbag69
(g90
g71
NtRp2466
(dp2467
g74
(dp2468
g101
g102
ssg83
g2457
sg76
(lp2469
S':'
asbag69
(g90
g71
NtRp2470
(dp2471
g74
(dp2472
sg83
g2457
sg76
(lp2473
g69
(g70
g71
NtRp2474
(dp2475
g74
(dp2476
g82
I3
ssg83
g2470
sg76
(lp2477
g1102
asbasbasbag69
(g85
g71
NtRp2478
(dp2479
g74
(dp2480
sg83
g2243
sg76
(lp2481
g69
(g90
g71
NtRp2482
(dp2483
g74
(dp2484
g94
g95
ssg83
g2478
sg76
(lp2485
S'REQUEST_METHOD'
p2486
asbag69
(g90
g71
NtRp2487
(dp2488
g74
(dp2489
g101
g102
ssg83
g2478
sg76
(lp2490
S':'
asbag69
(g90
g71
NtRp2491
(dp2492
g74
(dp2493
sg83
g2478
sg76
(lp2494
g69
(g70
g71
NtRp2495
(dp2496
g74
(dp2497
g82
I3
ssg83
g2491
sg76
(lp2498
g1124
asbasbasbag69
(g85
g71
NtRp2499
(dp2500
g74
(dp2501
sg83
g2243
sg76
(lp2502
g69
(g90
g71
NtRp2503
(dp2504
g74
(dp2505
g94
g95
ssg83
g2499
sg76
(lp2506
S'SCRIPT_NAME'
p2507
asbag69
(g90
g71
NtRp2508
(dp2509
g74
(dp2510
g101
g102
ssg83
g2499
sg76
(lp2511
S':'
asbag69
(g90
g71
NtRp2512
(dp2513
g74
(dp2514
sg83
g2499
sg76
(lp2515
g69
(g70
g71
NtRp2516
(dp2517
g74
(dp2518
g82
I3
ssg83
g2512
sg76
(lp2519
S''
asbasbasbag69
(g85
g71
NtRp2520
(dp2521
g74
(dp2522
sg83
g2243
sg76
(lp2523
g69
(g90
g71
NtRp2524
(dp2525
g74
(dp2526
g94
g95
ssg83
g2520
sg76
(lp2527
S'SERVER_NAME'
p2528
asbag69
(g90
g71
NtRp2529
(dp2530
g74
(dp2531
g101
g102
ssg83
g2520
sg76
(lp2532
S':'
asbag69
(g90
g71
NtRp2533
(dp2534
g74
(dp2535
sg83
g2520
sg76
(lp2536
g69
(g70
g71
NtRp2537
(dp2538
g74
(dp2539
g82
I3
ssg83
g2533
sg76
(lp2540
g1167
asbasbasbag69
(g85
g71
NtRp2541
(dp2542
g74
(dp2543
sg83
g2243
sg76
(lp2544
g69
(g90
g71
NtRp2545
(dp2546
g74
(dp2547
g94
g95
ssg83
g2541
sg76
(lp2548
S'SERVER_PORT'
p2549
asbag69
(g90
g71
NtRp2550
(dp2551
g74
(dp2552
g101
g102
ssg83
g2541
sg76
(lp2553
S':'
asbag69
(g90
g71
NtRp2554
(dp2555
g74
(dp2556
sg83
g2541
sg76
(lp2557
g69
(g70
g71
NtRp2558
(dp2559
g74
(dp2560
g82
I3
ssg83
g2554
sg76
(lp2561
g1189
asbasbasbag69
(g85
g71
NtRp2562
(dp2563
g74
(dp2564
sg83
g2243
sg76
(lp2565
g69
(g90
g71
NtRp2566
(dp2567
g74
(dp2568
g94
g95
ssg83
g2562
sg76
(lp2569
S'SERVER_PROTOCOL'
p2570
asbag69
(g90
g71
NtRp2571
(dp2572
g74
(dp2573
g101
g102
ssg83
g2562
sg76
(lp2574
S':'
asbag69
(g90
g71
NtRp2575
(dp2576
g74
(dp2577
sg83
g2562
sg76
(lp2578
g69
(g70
g71
NtRp2579
(dp2580
g74
(dp2581
g82
I3
ssg83
g2575
sg76
(lp2582
g1211
asbasbasbag69
(g85
g71
NtRp2583
(dp2584
g74
(dp2585
sg83
g2243
sg76
(lp2586
g69
(g90
g71
NtRp2587
(dp2588
g74
(dp2589
g94
g95
ssg83
g2583
sg76
(lp2590
S'SERVER_SOFTWARE'
p2591
asbag69
(g90
g71
NtRp2592
(dp2593
g74
(dp2594
g101
g102
ssg83
g2583
sg76
(lp2595
S':'
asbag69
(g90
g71
NtRp2596
(dp2597
g74
(dp2598
sg83
g2583
sg76
(lp2599
g69
(g70
g71
NtRp2600
(dp2601
g74
(dp2602
g82
I3
ssg83
g2596
sg76
(lp2603
g1233
asbasbasbag69
(g85
g71
NtRp2604
(dp2605
g74
(dp2606
sg83
g2243
sg76
(lp2607
g69
(g90
g71
NtRp2608
(dp2609
g74
(dp2610
g94
g95
ssg83
g2604
sg76
(lp2611
S'wsgi.errors'
p2612
asbag69
(g90
g71
NtRp2613
(dp2614
g74
(dp2615
g101
g102
ssg83
g2604
sg76
(lp2616
S':'
asbag69
(g90
g71
NtRp2617
(dp2618
g74
(dp2619
sg83
g2604
sg76
(lp2620
g69
(g70
g71
NtRp2621
(dp2622
g74
(dp2623
g82
I3
ssg83
g2617
sg76
(lp2624
S"<open file '<stderr>', mode 'w' at 0x7fdd14f50270>"
p2625
asbasbasbag69
(g85
g71
NtRp2626
(dp2627
g74
(dp2628
sg83
g2243
sg76
(lp2629
g69
(g90
g71
NtRp2630
(dp2631
g74
(dp2632
g94
g95
ssg83
g2626
sg76
(lp2633
S'wsgi.file_wrapper'
p2634
asbag69
(g90
g71
NtRp2635
(dp2636
g74
(dp2637
g101
g102
ssg83
g2626
sg76
(lp2638
S':'
asbag69
(g90
g71
NtRp2639
(dp2640
g74
(dp2641
sg83
g2626
sg76
(lp2642
g69
(g70
g71
NtRp2643
(dp2644
g74
(dp2645
g82
I3
ssg83
g2639
sg76
(lp2646
S'<class wsgiref.util.FileWrapper at 0x2a06530>'
p2647
asbasbasbag69
(g85
g71
NtRp2648
(dp2649
g74
(dp2650
sg83
g2243
sg76
(lp2651
g69
(g90
g71
NtRp2652
(dp2653
g74
(dp2654
g94
g95
ssg83
g2648
sg76
(lp2655
S'wsgi.input'
p2656
asbag69
(g90
g71
NtRp2657
(dp2658
g74
(dp2659
g101
g102
ssg83
g2648
sg76
(lp2660
S':'
asbag69
(g90
g71
NtRp2661
(dp2662
g74
(dp2663
sg83
g2648
sg76
(lp2664
g69
(g70
g71
NtRp2665
(dp2666
g74
(dp2667
g82
I3
ssg83
g2661
sg76
(lp2668
S'<cStringIO.StringO object at 0x7fdcbc31f768>'
p2669
asbasbasbag69
(g85
g71
NtRp2670
(dp2671
g74
(dp2672
sg83
g2243
sg76
(lp2673
g69
(g90
g71
NtRp2674
(dp2675
g74
(dp2676
g94
g95
ssg83
g2670
sg76
(lp2677
S'wsgi.multiprocess'
p2678
asbag69
(g90
g71
NtRp2679
(dp2680
g74
(dp2681
g101
g102
ssg83
g2670
sg76
(lp2682
S':'
asbag69
(g90
g71
NtRp2683
(dp2684
g74
(dp2685
sg83
g2670
sg76
(lp2686
g69
(g70
g71
NtRp2687
(dp2688
g74
(dp2689
g82
I3
ssg83
g2683
sg76
(lp2690
g112
asbasbasbag69
(g85
g71
NtRp2691
(dp2692
g74
(dp2693
sg83
g2243
sg76
(lp2694
g69
(g90
g71
NtRp2695
(dp2696
g74
(dp2697
g94
g95
ssg83
g2691
sg76
(lp2698
S'wsgi.multithread'
p2699
asbag69
(g90
g71
NtRp2700
(dp2701
g74
(dp2702
g101
g102
ssg83
g2691
sg76
(lp2703
S':'
asbag69
(g90
g71
NtRp2704
(dp2705
g74
(dp2706
sg83
g2691
sg76
(lp2707
g69
(g70
g71
NtRp2708
(dp2709
g74
(dp2710
g82
I3
ssg83
g2704
sg76
(lp2711
g1473
asbasbasbag69
(g85
g71
NtRp2712
(dp2713
g74
(dp2714
sg83
g2243
sg76
(lp2715
g69
(g90
g71
NtRp2716
(dp2717
g74
(dp2718
g94
g95
ssg83
g2712
sg76
(lp2719
S'wsgi.run_once'
p2720
asbag69
(g90
g71
NtRp2721
(dp2722
g74
(dp2723
g101
g102
ssg83
g2712
sg76
(lp2724
S':'
asbag69
(g90
g71
NtRp2725
(dp2726
g74
(dp2727
sg83
g2712
sg76
(lp2728
g69
(g70
g71
NtRp2729
(dp2730
g74
(dp2731
g82
I3
ssg83
g2725
sg76
(lp2732
g112
asbasbasbag69
(g85
g71
NtRp2733
(dp2734
g74
(dp2735
sg83
g2243
sg76
(lp2736
g69
(g90
g71
NtRp2737
(dp2738
g74
(dp2739
g94
g95
ssg83
g2733
sg76
(lp2740
S'wsgi.url_scheme'
p2741
asbag69
(g90
g71
NtRp2742
(dp2743
g74
(dp2744
g101
g102
ssg83
g2733
sg76
(lp2745
S':'
asbag69
(g90
g71
NtRp2746
(dp2747
g74
(dp2748
sg83
g2733
sg76
(lp2749
g69
(g70
g71
NtRp2750
(dp2751
g74
(dp2752
g82
I3
ssg83
g2746
sg76
(lp2753
g1516
asbasbasbag69
(g85
g71
NtRp2754
(dp2755
g74
(dp2756
sg83
g2243
sg76
(lp2757
g69
(g90
g71
NtRp2758
(dp2759
g74
(dp2760
g94
g95
ssg83
g2754
sg76
(lp2761
S'wsgi.version'
p2762
asbag69
(g90
g71
NtRp2763
(dp2764
g74
(dp2765
g101
g102
ssg83
g2754
sg76
(lp2766
S':'
asbag69
(g90
g71
NtRp2767
(dp2768
g74
(dp2769
sg83
g2754
sg76
(lp2770
g69
(g70
g71
NtRp2771
(dp2772
g74
(dp2773
g82
I3
ssg83
g2767
sg76
(lp2774
S'1'
asbasbasbasbasbasbasbasbasbasbasbasbasbsS'frames'
p2775
(lp2776
(dp2777
S'file'
p2778
S'/usr/lib/pymodules/python2.7/gluon/restricted.py'
p2779
sS'dump'
p2780
(dp2781
S'code'
p2782
S'\'response.write(\\\'<!DOCTYPE html PUBLIC "-//W3C//D...->\\\\n  </div>\\\\n </body>\\\\n</html>\\\\n\\\', escape=False)\''
p2783
sS'layer'
p2784
S"'/home/ds-iiit/web2py/applications/Read_it/views/default/comments.html'"
p2785
sS'global compile2'
p2786
S'<function compile2>'
p2787
sS'ccode'
p2788
S'undefined'
p2789
ssS'lnum'
p2790
I203
sS'lines'
p2791
(dp2792
I198
S"    environment['__file__'] = layer"
p2793
sI199
S'    try:'
p2794
sI200
S'        if type(code) == types.CodeType:'
p2795
sI201
S'            ccode = code'
p2796
sI202
S'        else:'
p2797
sI203
S'            ccode = compile2(code,layer)'
p2798
sI204
S'        exec ccode in environment'
p2799
sI205
S'    except HTTP:'
p2800
sI206
S'        raise'
p2801
sI207
S'    except RestrictedError:'
p2802
ssS'call'
p2803
S'(code=\'response.write(\\\'<!DOCTYPE html PUBLIC "-//W3C//D...->\\\\n  </div>\\\\n </body>\\\\n</html>\\\\n\\\', escape=False)\', environment={\'A\': <class \'gluon.html.A\'>, \'Auth\': <class \'gluon.tools.Auth\'>, \'B\': <class \'gluon.html.B\'>, \'BEAUTIFY\': <class \'gluon.html.BEAUTIFY\'>, \'BODY\': <class \'gluon.html.BODY\'>, \'BR\': <class \'gluon.html.BR\'>, \'BUTTON\': <class \'gluon.html.BUTTON\'>, \'CAT\': <class \'gluon.html.CAT\'>, \'CENTER\': <class \'gluon.html.CENTER\'>, \'CLEANUP\': <class \'gluon.validators.CLEANUP\'>, ...}, layer=\'/home/ds-iiit/web2py/applications/Read_it/views/default/comments.html\')'
p2804
sS'func'
p2805
S'restricted'
p2806
sa(dp2807
g2778
S'/usr/lib/pymodules/python2.7/gluon/restricted.py'
p2808
sg2780
(dp2809
S'builtincompile'
p2810
S'<built-in function compile>'
p2811
sS'code'
p2812
S'\'response.write(\\\'<!DOCTYPE html PUBLIC "-//W3C//D...->\\\\n  </div>\\\\n </body>\\\\n</html>\\\\n\\\', escape=False)\''
p2813
sS'code.rstrip'
p2814
S'<built-in method rstrip of str object>'
p2815
sS').replace'
p2816
g2789
sS'layer'
p2817
S"'/home/ds-iiit/web2py/applications/Read_it/views/default/comments.html'"
p2818
ssg2790
I189
sg2791
(dp2819
I192
S'    """'
p2820
sI193
S'    runs code in environment and returns the output. if an exception occurs'
p2821
sI184
S''
sI185
S'def compile2(code,layer):'
p2822
sI186
S'    """'
p2823
sI187
S"    The +'\\n' is necessary else compile fails when code ends in a comment."
p2824
sI188
S'    """'
p2825
sI189
S"    return compile(code.rstrip().replace('\\r\\n','\\n')+'\\n', layer, 'exec')"
p2826
sI190
S''
sI191
S"def restricted(code, environment=None, layer='Unknown'):"
p2827
ssg2803
S'(code=\'response.write(\\\'<!DOCTYPE html PUBLIC "-//W3C//D...->\\\\n  </div>\\\\n </body>\\\\n</html>\\\\n\\\', escape=False)\', layer=\'/home/ds-iiit/web2py/applications/Read_it/views/default/comments.html\')'
p2828
sg2805
S'compile2'
p2829
sasS'pyver'
p2830
S'Python 2.7.3: /usr/bin/python'
p2831
sS'session'
p2832
g69
(g70
g71
NtRp2833
(dp2834
g74
(dp2835
sg76
(lp2836
g69
(g78
g71
NtRp2837
(dp2838
g74
(dp2839
g82
I5
ssg83
Nsg76
(lp2840
sbasbsS'etype'
p2841
S"<type 'exceptions.SyntaxError'>"
p2842
sS'date'
p2843
S'Fri Aug 30 02:55:34 2013'
p2844
sS'response'
p2845
g69
(g70
g71
NtRp2846
(dp2847
g74
(dp2848
sg76
(lp2849
g69
(g78
g71
NtRp2850
(dp2851
g74
(dp2852
g82
I5
ssg83
Nsg76
(lp2853
g69
(g85
g71
NtRp2854
(dp2855
g74
(dp2856
sg83
g2850
sg76
(lp2857
g69
(g90
g71
NtRp2858
(dp2859
g74
(dp2860
g94
g95
ssg83
g2854
sg76
(lp2861
g179
asbag69
(g90
g71
NtRp2862
(dp2863
g74
(dp2864
g101
g102
ssg83
g2854
sg76
(lp2865
S':'
asbag69
(g90
g71
NtRp2866
(dp2867
g74
(dp2868
sg83
g2854
sg76
(lp2869
g69
(g70
g71
NtRp2870
(dp2871
g74
(dp2872
g82
I5
ssg83
g2866
sg76
(lp2873
S'<cStringIO.StringO object at 0x7fdce0330b90>'
p2874
asbasbasbag69
(g85
g71
NtRp2875
(dp2876
g74
(dp2877
sg83
g2850
sg76
(lp2878
g69
(g90
g71
NtRp2879
(dp2880
g74
(dp2881
g94
g95
ssg83
g2875
sg76
(lp2882
g245
asbag69
(g90
g71
NtRp2883
(dp2884
g74
(dp2885
g101
g102
ssg83
g2875
sg76
(lp2886
S':'
asbag69
(g90
g71
NtRp2887
(dp2888
g74
(dp2889
sg83
g2875
sg76
(lp2890
g69
(g70
g71
NtRp2891
(dp2892
g74
(dp2893
g82
I5
ssg83
g2887
sg76
(lp2894
g69
(g78
g71
NtRp2895
(dp2896
g74
(dp2897
g82
I4
ssg83
Nsg76
(lp2898
g69
(g85
g71
NtRp2899
(dp2900
g74
(dp2901
sg83
g2895
sg76
(lp2902
g69
(g90
g71
NtRp2903
(dp2904
g74
(dp2905
g94
g95
ssg83
g2899
sg76
(lp2906
S'session_id_read_it'
p2907
asbag69
(g90
g71
NtRp2908
(dp2909
g74
(dp2910
g101
g102
ssg83
g2899
sg76
(lp2911
S':'
asbag69
(g90
g71
NtRp2912
(dp2913
g74
(dp2914
sg83
g2899
sg76
(lp2915
g69
(g70
g71
NtRp2916
(dp2917
g74
(dp2918
g82
I4
ssg83
g2912
sg76
(lp2919
g69
(g78
g71
NtRp2920
(dp2921
g74
(dp2922
g82
I3
ssg83
Nsg76
(lp2923
g69
(g85
g71
NtRp2924
(dp2925
g74
(dp2926
sg83
g2920
sg76
(lp2927
g69
(g90
g71
NtRp2928
(dp2929
g74
(dp2930
g94
g95
ssg83
g2924
sg76
(lp2931
g295
asbag69
(g90
g71
NtRp2932
(dp2933
g74
(dp2934
g101
g102
ssg83
g2924
sg76
(lp2935
S':'
asbag69
(g90
g71
NtRp2936
(dp2937
g74
(dp2938
sg83
g2924
sg76
(lp2939
g69
(g70
g71
NtRp2940
(dp2941
g74
(dp2942
g82
I3
ssg83
g2936
sg76
(lp2943
S''
asbasbasbag69
(g85
g71
NtRp2944
(dp2945
g74
(dp2946
sg83
g2920
sg76
(lp2947
g69
(g90
g71
NtRp2948
(dp2949
g74
(dp2950
g94
g95
ssg83
g2944
sg76
(lp2951
g316
asbag69
(g90
g71
NtRp2952
(dp2953
g74
(dp2954
g101
g102
ssg83
g2944
sg76
(lp2955
S':'
asbag69
(g90
g71
NtRp2956
(dp2957
g74
(dp2958
sg83
g2944
sg76
(lp2959
g69
(g70
g71
NtRp2960
(dp2961
g74
(dp2962
g82
I3
ssg83
g2956
sg76
(lp2963
S''
asbasbasbag69
(g85
g71
NtRp2964
(dp2965
g74
(dp2966
sg83
g2920
sg76
(lp2967
g69
(g90
g71
NtRp2968
(dp2969
g74
(dp2970
g94
g95
ssg83
g2964
sg76
(lp2971
g337
asbag69
(g90
g71
NtRp2972
(dp2973
g74
(dp2974
g101
g102
ssg83
g2964
sg76
(lp2975
S':'
asbag69
(g90
g71
NtRp2976
(dp2977
g74
(dp2978
sg83
g2964
sg76
(lp2979
g69
(g70
g71
NtRp2980
(dp2981
g74
(dp2982
g82
I3
ssg83
g2976
sg76
(lp2983
S''
asbasbasbag69
(g85
g71
NtRp2984
(dp2985
g74
(dp2986
sg83
g2920
sg76
(lp2987
g69
(g90
g71
NtRp2988
(dp2989
g74
(dp2990
g94
g95
ssg83
g2984
sg76
(lp2991
g358
asbag69
(g90
g71
NtRp2992
(dp2993
g74
(dp2994
g101
g102
ssg83
g2984
sg76
(lp2995
S':'
asbag69
(g90
g71
NtRp2996
(dp2997
g74
(dp2998
sg83
g2984
sg76
(lp2999
g69
(g70
g71
NtRp3000
(dp3001
g74
(dp3002
g82
I3
ssg83
g2996
sg76
(lp3003
S''
asbasbasbag69
(g85
g71
NtRp3004
(dp3005
g74
(dp3006
sg83
g2920
sg76
(lp3007
g69
(g90
g71
NtRp3008
(dp3009
g74
(dp3010
g94
g95
ssg83
g3004
sg76
(lp3011
g379
asbag69
(g90
g71
NtRp3012
(dp3013
g74
(dp3014
g101
g102
ssg83
g3004
sg76
(lp3015
S':'
asbag69
(g90
g71
NtRp3016
(dp3017
g74
(dp3018
sg83
g3004
sg76
(lp3019
g69
(g70
g71
NtRp3020
(dp3021
g74
(dp3022
g82
I3
ssg83
g3016
sg76
(lp3023
S''
asbasbasbag69
(g85
g71
NtRp3024
(dp3025
g74
(dp3026
sg83
g2920
sg76
(lp3027
g69
(g90
g71
NtRp3028
(dp3029
g74
(dp3030
g94
g95
ssg83
g3024
sg76
(lp3031
g400
asbag69
(g90
g71
NtRp3032
(dp3033
g74
(dp3034
g101
g102
ssg83
g3024
sg76
(lp3035
S':'
asbag69
(g90
g71
NtRp3036
(dp3037
g74
(dp3038
sg83
g3024
sg76
(lp3039
g69
(g70
g71
NtRp3040
(dp3041
g74
(dp3042
g82
I3
ssg83
g3036
sg76
(lp3043
S'/'
asbasbasbag69
(g85
g71
NtRp3044
(dp3045
g74
(dp3046
sg83
g2920
sg76
(lp3047
g69
(g90
g71
NtRp3048
(dp3049
g74
(dp3050
g94
g95
ssg83
g3044
sg76
(lp3051
g421
asbag69
(g90
g71
NtRp3052
(dp3053
g74
(dp3054
g101
g102
ssg83
g3044
sg76
(lp3055
S':'
asbag69
(g90
g71
NtRp3056
(dp3057
g74
(dp3058
sg83
g3044
sg76
(lp3059
g69
(g70
g71
NtRp3060
(dp3061
g74
(dp3062
g82
I3
ssg83
g3056
sg76
(lp3063
S''
asbasbasbag69
(g85
g71
NtRp3064
(dp3065
g74
(dp3066
sg83
g2920
sg76
(lp3067
g69
(g90
g71
NtRp3068
(dp3069
g74
(dp3070
g94
g95
ssg83
g3064
sg76
(lp3071
g442
asbag69
(g90
g71
NtRp3072
(dp3073
g74
(dp3074
g101
g102
ssg83
g3064
sg76
(lp3075
S':'
asbag69
(g90
g71
NtRp3076
(dp3077
g74
(dp3078
sg83
g3064
sg76
(lp3079
g69
(g70
g71
NtRp3080
(dp3081
g74
(dp3082
g82
I3
ssg83
g3076
sg76
(lp3083
S''
asbasbasbasbasbasbasbasbasbasbasbag69
(g85
g71
NtRp3084
(dp3085
g74
(dp3086
sg83
g2850
sg76
(lp3087
g69
(g90
g71
NtRp3088
(dp3089
g74
(dp3090
g94
g95
ssg83
g3084
sg76
(lp3091
S'files'
p3092
asbag69
(g90
g71
NtRp3093
(dp3094
g74
(dp3095
g101
g102
ssg83
g3084
sg76
(lp3096
S':'
asbag69
(g90
g71
NtRp3097
(dp3098
g74
(dp3099
sg83
g3084
sg76
(lp3100
g69
(g70
g71
NtRp3101
(dp3102
g74
(dp3103
g82
I5
ssg83
g3097
sg76
(lp3104
g69
(g78
g71
NtRp3105
(dp3106
g74
(dp3107
g82
I4
ssg83
Nsg76
(lp3108
sbasbasbasbag69
(g85
g71
NtRp3109
(dp3110
g74
(dp3111
sg83
g2850
sg76
(lp3112
g69
(g90
g71
NtRp3113
(dp3114
g74
(dp3115
g94
g95
ssg83
g3109
sg76
(lp3116
S'flash'
p3117
asbag69
(g90
g71
NtRp3118
(dp3119
g74
(dp3120
g101
g102
ssg83
g3109
sg76
(lp3121
S':'
asbag69
(g90
g71
NtRp3122
(dp3123
g74
(dp3124
sg83
g3109
sg76
(lp3125
g69
(g70
g71
NtRp3126
(dp3127
g74
(dp3128
g82
I5
ssg83
g3122
sg76
(lp3129
S'Comment posted'
p3130
asbasbasbag69
(g85
g71
NtRp3131
(dp3132
g74
(dp3133
sg83
g2850
sg76
(lp3134
g69
(g90
g71
NtRp3135
(dp3136
g74
(dp3137
g94
g95
ssg83
g3131
sg76
(lp3138
S'generic_patterns'
p3139
asbag69
(g90
g71
NtRp3140
(dp3141
g74
(dp3142
g101
g102
ssg83
g3131
sg76
(lp3143
S':'
asbag69
(g90
g71
NtRp3144
(dp3145
g74
(dp3146
sg83
g3131
sg76
(lp3147
g69
(g70
g71
NtRp3148
(dp3149
g74
(dp3150
g82
I5
ssg83
g3144
sg76
(lp3151
g69
(g78
g71
NtRp3152
(dp3153
g74
(dp3154
g82
I4
ssg83
Nsg76
(lp3155
g69
(g85
g71
NtRp3156
(dp3157
g74
(dp3158
sg83
g3152
sg76
(lp3159
g69
(g90
g71
NtRp3160
(dp3161
g74
(dp3162
sg83
g3156
sg76
(lp3163
g69
(g70
g71
NtRp3164
(dp3165
g74
(dp3166
g82
I4
ssg83
g3160
sg76
(lp3167
S'*'
asbasbasbasbasbasbasbag69
(g85
g71
NtRp3168
(dp3169
g74
(dp3170
sg83
g2850
sg76
(lp3171
g69
(g90
g71
NtRp3172
(dp3173
g74
(dp3174
g94
g95
ssg83
g3168
sg76
(lp3175
S'headers'
p3176
asbag69
(g90
g71
NtRp3177
(dp3178
g74
(dp3179
g101
g102
ssg83
g3168
sg76
(lp3180
S':'
asbag69
(g90
g71
NtRp3181
(dp3182
g74
(dp3183
sg83
g3168
sg76
(lp3184
g69
(g70
g71
NtRp3185
(dp3186
g74
(dp3187
g82
I5
ssg83
g3181
sg76
(lp3188
g69
(g78
g71
NtRp3189
(dp3190
g74
(dp3191
g82
I4
ssg83
Nsg76
(lp3192
g69
(g85
g71
NtRp3193
(dp3194
g74
(dp3195
sg83
g3189
sg76
(lp3196
g69
(g90
g71
NtRp3197
(dp3198
g74
(dp3199
g94
g95
ssg83
g3193
sg76
(lp3200
S'Cache-Control'
p3201
asbag69
(g90
g71
NtRp3202
(dp3203
g74
(dp3204
g101
g102
ssg83
g3193
sg76
(lp3205
S':'
asbag69
(g90
g71
NtRp3206
(dp3207
g74
(dp3208
sg83
g3193
sg76
(lp3209
g69
(g70
g71
NtRp3210
(dp3211
g74
(dp3212
g82
I4
ssg83
g3206
sg76
(lp3213
S'no-store, no-cache, must-revalidate, post-check=0, pre-check=0'
p3214
asbasbasbag69
(g85
g71
NtRp3215
(dp3216
g74
(dp3217
sg83
g3189
sg76
(lp3218
g69
(g90
g71
NtRp3219
(dp3220
g74
(dp3221
g94
g95
ssg83
g3215
sg76
(lp3222
S'Content-Type'
p3223
asbag69
(g90
g71
NtRp3224
(dp3225
g74
(dp3226
g101
g102
ssg83
g3215
sg76
(lp3227
S':'
asbag69
(g90
g71
NtRp3228
(dp3229
g74
(dp3230
sg83
g3215
sg76
(lp3231
g69
(g70
g71
NtRp3232
(dp3233
g74
(dp3234
g82
I4
ssg83
g3228
sg76
(lp3235
S'text/html; charset=utf-8'
p3236
asbasbasbag69
(g85
g71
NtRp3237
(dp3238
g74
(dp3239
sg83
g3189
sg76
(lp3240
g69
(g90
g71
NtRp3241
(dp3242
g74
(dp3243
g94
g95
ssg83
g3237
sg76
(lp3244
S'Expires'
p3245
asbag69
(g90
g71
NtRp3246
(dp3247
g74
(dp3248
g101
g102
ssg83
g3237
sg76
(lp3249
S':'
asbag69
(g90
g71
NtRp3250
(dp3251
g74
(dp3252
sg83
g3237
sg76
(lp3253
g69
(g70
g71
NtRp3254
(dp3255
g74
(dp3256
g82
I4
ssg83
g3250
sg76
(lp3257
S'Thu, 29 Aug 2013 21:25:34 GMT'
p3258
asbasbasbag69
(g85
g71
NtRp3259
(dp3260
g74
(dp3261
sg83
g3189
sg76
(lp3262
g69
(g90
g71
NtRp3263
(dp3264
g74
(dp3265
g94
g95
ssg83
g3259
sg76
(lp3266
S'Pragma'
p3267
asbag69
(g90
g71
NtRp3268
(dp3269
g74
(dp3270
g101
g102
ssg83
g3259
sg76
(lp3271
S':'
asbag69
(g90
g71
NtRp3272
(dp3273
g74
(dp3274
sg83
g3259
sg76
(lp3275
g69
(g70
g71
NtRp3276
(dp3277
g74
(dp3278
g82
I4
ssg83
g3272
sg76
(lp3279
S'no-cache'
p3280
asbasbasbag69
(g85
g71
NtRp3281
(dp3282
g74
(dp3283
sg83
g3189
sg76
(lp3284
g69
(g90
g71
NtRp3285
(dp3286
g74
(dp3287
g94
g95
ssg83
g3281
sg76
(lp3288
S'X-Powered-By'
p3289
asbag69
(g90
g71
NtRp3290
(dp3291
g74
(dp3292
g101
g102
ssg83
g3281
sg76
(lp3293
S':'
asbag69
(g90
g71
NtRp3294
(dp3295
g74
(dp3296
sg83
g3281
sg76
(lp3297
g69
(g70
g71
NtRp3298
(dp3299
g74
(dp3300
g82
I4
ssg83
g3294
sg76
(lp3301
S'web2py'
p3302
asbasbasbasbasbasbasbag69
(g85
g71
NtRp3303
(dp3304
g74
(dp3305
sg83
g2850
sg76
(lp3306
g69
(g90
g71
NtRp3307
(dp3308
g74
(dp3309
g94
g95
ssg83
g3303
sg76
(lp3310
S'menu'
p3311
asbag69
(g90
g71
NtRp3312
(dp3313
g74
(dp3314
g101
g102
ssg83
g3303
sg76
(lp3315
S':'
asbag69
(g90
g71
NtRp3316
(dp3317
g74
(dp3318
sg83
g3303
sg76
(lp3319
g69
(g70
g71
NtRp3320
(dp3321
g74
(dp3322
g82
I5
ssg83
g3316
sg76
(lp3323
g69
(g78
g71
NtRp3324
(dp3325
g74
(dp3326
g82
I4
ssg83
Nsg76
(lp3327
g69
(g85
g71
NtRp3328
(dp3329
g74
(dp3330
sg83
g3324
sg76
(lp3331
g69
(g90
g71
NtRp3332
(dp3333
g74
(dp3334
sg83
g3328
sg76
(lp3335
g69
(g70
g71
NtRp3336
(dp3337
g74
(dp3338
g82
I4
ssg83
g3332
sg76
(lp3339
g69
(g78
g71
NtRp3340
(dp3341
g74
(dp3342
g82
I3
ssg83
Nsg76
(lp3343
g69
(g85
g71
NtRp3344
(dp3345
g74
(dp3346
sg83
g3340
sg76
(lp3347
g69
(g90
g71
NtRp3348
(dp3349
g74
(dp3350
sg83
g3344
sg76
(lp3351
g69
(g70
g71
NtRp3352
(dp3353
g74
(dp3354
g82
I3
ssg83
g3348
sg76
(lp3355
cgluon.languages
lazyT_unpickle
p3356
(S't\x04\x00\x00\x00Home'
tRp3357
asbasbasbag69
(g85
g71
NtRp3358
(dp3359
g74
(dp3360
sg83
g3340
sg76
(lp3361
g69
(g90
g71
NtRp3362
(dp3363
g74
(dp3364
sg83
g3358
sg76
(lp3365
g69
(g70
g71
NtRp3366
(dp3367
g74
(dp3368
g82
I3
ssg83
g3362
sg76
(lp3369
g112
asbasbasbag69
(g85
g71
NtRp3370
(dp3371
g74
(dp3372
sg83
g3340
sg76
(lp3373
g69
(g90
g71
NtRp3374
(dp3375
g74
(dp3376
sg83
g3370
sg76
(lp3377
g69
(g70
g71
NtRp3378
(dp3379
g74
(dp3380
g82
I3
ssg83
g3374
sg76
(lp3381
S'/Read_it/default/index'
p3382
asbasbasbag69
(g85
g71
NtRp3383
(dp3384
g74
(dp3385
sg83
g3340
sg76
(lp3386
g69
(g90
g71
NtRp3387
(dp3388
g74
(dp3389
sg83
g3383
sg76
(lp3390
g69
(g70
g71
NtRp3391
(dp3392
g74
(dp3393
g82
I3
ssg83
g3387
sg76
(lp3394
g69
(g78
g71
NtRp3395
(dp3396
g74
(dp3397
g82
I2
ssg83
Nsg76
(lp3398
sbasbasbasbasbasbasbasbag69
(g85
g71
NtRp3399
(dp3400
g74
(dp3401
sg83
g3324
sg76
(lp3402
g69
(g90
g71
NtRp3403
(dp3404
g74
(dp3405
sg83
g3399
sg76
(lp3406
g69
(g70
g71
NtRp3407
(dp3408
g74
(dp3409
g82
I4
ssg83
g3403
sg76
(lp3410
g69
(g78
g71
NtRp3411
(dp3412
g74
(dp3413
g82
I3
ssg83
Nsg76
(lp3414
g69
(g85
g71
NtRp3415
(dp3416
g74
(dp3417
sg83
g3411
sg76
(lp3418
g69
(g90
g71
NtRp3419
(dp3420
g74
(dp3421
sg83
g3415
sg76
(lp3422
g69
(g70
g71
NtRp3423
(dp3424
g74
(dp3425
g82
I3
ssg83
g3419
sg76
(lp3426
g69
(cgluon.html
SPAN
p3427
g71
NtRp3428
(dp3429
g74
(dp3430
g94
S'color:yellow'
p3431
ssg83
Nsg76
(lp3432
g3302
asbasbasbasbag69
(g85
g71
NtRp3433
(dp3434
g74
(dp3435
sg83
g3411
sg76
(lp3436
g69
(g90
g71
NtRp3437
(dp3438
g74
(dp3439
sg83
g3433
sg76
(lp3440
g69
(g70
g71
NtRp3441
(dp3442
g74
(dp3443
g82
I3
ssg83
g3437
sg76
(lp3444
g112
asbasbasbag69
(g85
g71
NtRp3445
(dp3446
g74
(dp3447
sg83
g3411
sg76
(lp3448
g69
(g90
g71
NtRp3449
(dp3450
g74
(dp3451
sg83
g3445
sg76
(lp3452
g69
(g70
g71
NtRp3453
(dp3454
g74
(dp3455
g82
I3
ssg83
g3449
sg76
(lp3456
S'None'
p3457
asbasbasbag69
(g85
g71
NtRp3458
(dp3459
g74
(dp3460
sg83
g3411
sg76
(lp3461
g69
(g90
g71
NtRp3462
(dp3463
g74
(dp3464
sg83
g3458
sg76
(lp3465
g69
(g70
g71
NtRp3466
(dp3467
g74
(dp3468
g82
I3
ssg83
g3462
sg76
(lp3469
g69
(g78
g71
NtRp3470
(dp3471
g74
(dp3472
g82
I2
ssg83
Nsg76
(lp3473
g69
(g85
g71
NtRp3474
(dp3475
g74
(dp3476
sg83
g3470
sg76
(lp3477
g69
(g90
g71
NtRp3478
(dp3479
g74
(dp3480
sg83
g3474
sg76
(lp3481
g69
(g70
g71
NtRp3482
(dp3483
g74
(dp3484
g82
I2
ssg83
g3478
sg76
(lp3485
g69
(g78
g71
NtRp3486
(dp3487
g74
(dp3488
g82
I1
ssg83
Nsg76
(lp3489
g69
(g85
g71
NtRp3490
(dp3491
g74
(dp3492
sg83
g3486
sg76
(lp3493
g69
(g90
g71
NtRp3494
(dp3495
g74
(dp3496
sg83
g3490
sg76
(lp3497
g69
(g70
g71
NtRp3498
(dp3499
g74
(dp3500
g82
I1
ssg83
g3494
sg76
(lp3501
g3356
(S's\x08\x00\x00\x00My Sites'
tRp3502
asbasbasbag69
(g85
g71
NtRp3503
(dp3504
g74
(dp3505
sg83
g3486
sg76
(lp3506
g69
(g90
g71
NtRp3507
(dp3508
g74
(dp3509
sg83
g3503
sg76
(lp3510
g69
(g70
g71
NtRp3511
(dp3512
g74
(dp3513
g82
I1
ssg83
g3507
sg76
(lp3514
I00
asbasbasbag69
(g85
g71
NtRp3515
(dp3516
g74
(dp3517
sg83
g3486
sg76
(lp3518
g69
(g90
g71
NtRp3519
(dp3520
g74
(dp3521
sg83
g3515
sg76
(lp3522
g69
(g70
g71
NtRp3523
(dp3524
g74
(dp3525
g82
I1
ssg83
g3519
sg76
(lp3526
S'/admin/default/site'
p3527
asbasbasbasbasbasbasbag69
(g85
g71
NtRp3528
(dp3529
g74
(dp3530
sg83
g3470
sg76
(lp3531
g69
(g90
g71
NtRp3532
(dp3533
g74
(dp3534
sg83
g3528
sg76
(lp3535
g69
(g70
g71
NtRp3536
(dp3537
g74
(dp3538
g82
I2
ssg83
g3532
sg76
(lp3539
g69
(g78
g71
NtRp3540
(dp3541
g74
(dp3542
g82
I1
ssg83
Nsg76
(lp3543
g69
(g85
g71
NtRp3544
(dp3545
g74
(dp3546
sg83
g3540
sg76
(lp3547
g69
(g90
g71
NtRp3548
(dp3549
g74
(dp3550
sg83
g3544
sg76
(lp3551
g69
(g70
g71
NtRp3552
(dp3553
g74
(dp3554
g82
I1
ssg83
g3548
sg76
(lp3555
g3356
(S's\x08\x00\x00\x00This App'
tRp3556
asbasbasbag69
(g85
g71
NtRp3557
(dp3558
g74
(dp3559
sg83
g3540
sg76
(lp3560
g69
(g90
g71
NtRp3561
(dp3562
g74
(dp3563
sg83
g3557
sg76
(lp3564
g69
(g70
g71
NtRp3565
(dp3566
g74
(dp3567
g82
I1
ssg83
g3561
sg76
(lp3568
I00
asbasbasbag69
(g85
g71
NtRp3569
(dp3570
g74
(dp3571
sg83
g3540
sg76
(lp3572
g69
(g90
g71
NtRp3573
(dp3574
g74
(dp3575
sg83
g3569
sg76
(lp3576
g69
(g70
g71
NtRp3577
(dp3578
g74
(dp3579
g82
I1
ssg83
g3573
sg76
(lp3580
S'/admin/default/design/Read_it'
p3581
asbasbasbag69
(g85
g71
NtRp3582
(dp3583
g74
(dp3584
sg83
g3540
sg76
(lp3585
g69
(g90
g71
NtRp3586
(dp3587
g74
(dp3588
sg83
g3582
sg76
(lp3589
g69
(g70
g71
NtRp3590
(dp3591
g74
(dp3592
g82
I1
ssg83
g3586
sg76
(lp3593
(lp3594
(g3356
(S't\n\x00\x00\x00Controller'
tRp3595
I00
S'/admin/default/edit/Read_it/controllers/default.py'
tp3596
a(g3356
(S't\x04\x00\x00\x00View'
tRp3597
I00
S'/admin/default/edit/Read_it/views/default/comments.html'
tp3598
a(g3356
(S't\x06\x00\x00\x00Layout'
tRp3599
I00
S'/admin/default/edit/Read_it/views/layout.html'
tp3600
a(g3356
(S't\n\x00\x00\x00Stylesheet'
tRp3601
I00
S'/admin/default/edit/Read_it/static/css/web2py.css'
tp3602
a(g3356
(S's\x08\x00\x00\x00DB Model'
tRp3603
I00
S'/admin/default/edit/Read_it/models/db.py'
tp3604
a(g3356
(S's\n\x00\x00\x00Menu Model'
tRp3605
I00
S'/admin/default/edit/Read_it/models/menu.py'
tp3606
a(g3356
(S't\x08\x00\x00\x00Database'
tRp3607
I00
S'/Read_it/appadmin/index'
tp3608
a(g3356
(S't\x06\x00\x00\x00Errors'
tRp3609
I00
S'/admin/default/errors/Read_it'
tp3610
a(g3356
(S't\x05\x00\x00\x00About'
tRp3611
I00
S'/admin/default/about/Read_it'
tp3612
aasbasbasbasbasbasbasbag69
(g85
g71
NtRp3613
(dp3614
g74
(dp3615
sg83
g3470
sg76
(lp3616
g69
(g90
g71
NtRp3617
(dp3618
g74
(dp3619
sg83
g3613
sg76
(lp3620
g69
(g70
g71
NtRp3621
(dp3622
g74
(dp3623
g82
I2
ssg83
g3617
sg76
(lp3624
g69
(g78
g71
NtRp3625
(dp3626
g74
(dp3627
g82
I1
ssg83
Nsg76
(lp3628
g69
(g85
g71
NtRp3629
(dp3630
g74
(dp3631
sg83
g3625
sg76
(lp3632
g69
(g90
g71
NtRp3633
(dp3634
g74
(dp3635
sg83
g3629
sg76
(lp3636
g69
(g70
g71
NtRp3637
(dp3638
g74
(dp3639
g82
I1
ssg83
g3633
sg76
(lp3640
S'web2py.com'
p3641
asbasbasbag69
(g85
g71
NtRp3642
(dp3643
g74
(dp3644
sg83
g3625
sg76
(lp3645
g69
(g90
g71
NtRp3646
(dp3647
g74
(dp3648
sg83
g3642
sg76
(lp3649
g69
(g70
g71
NtRp3650
(dp3651
g74
(dp3652
g82
I1
ssg83
g3646
sg76
(lp3653
I00
asbasbasbag69
(g85
g71
NtRp3654
(dp3655
g74
(dp3656
sg83
g3625
sg76
(lp3657
g69
(g90
g71
NtRp3658
(dp3659
g74
(dp3660
sg83
g3654
sg76
(lp3661
g69
(g70
g71
NtRp3662
(dp3663
g74
(dp3664
g82
I1
ssg83
g3658
sg76
(lp3665
S'http://www.web2py.com'
p3666
asbasbasbag69
(g85
g71
NtRp3667
(dp3668
g74
(dp3669
sg83
g3625
sg76
(lp3670
g69
(g90
g71
NtRp3671
(dp3672
g74
(dp3673
sg83
g3667
sg76
(lp3674
g69
(g70
g71
NtRp3675
(dp3676
g74
(dp3677
g82
I1
ssg83
g3671
sg76
(lp3678
(lp3679
(g3356
(S't\x08\x00\x00\x00Download'
tRp3680
I00
S'http://www.web2py.com/examples/default/download'
p3681
tp3682
a(g3356
(S't\x07\x00\x00\x00Support'
tRp3683
I00
S'http://www.web2py.com/examples/default/support'
p3684
tp3685
a(g3356
(S't\x04\x00\x00\x00Demo'
tRp3686
I00
S'http://web2py.com/demo_admin'
p3687
tp3688
a(g3356
(S's\x0e\x00\x00\x00Quick Examples'
tRp3689
I00
S'http://web2py.com/examples/default/examples'
p3690
tp3691
a(g3356
(S't\x03\x00\x00\x00FAQ'
tRp3692
I00
S'http://web2py.com/AlterEgo'
p3693
tp3694
a(g3356
(S't\x06\x00\x00\x00Videos'
tRp3695
I00
S'http://www.web2py.com/examples/default/videos/'
p3696
tp3697
a(g3356
(S's\x11\x00\x00\x00Free Applications'
tRp3698
I00
S'http://web2py.com/appliances'
p3699
tp3700
a(g3356
(S't\x07\x00\x00\x00Plugins'
tRp3701
I00
S'http://web2py.com/plugins'
p3702
tp3703
a(g3356
(S't\x07\x00\x00\x00Layouts'
tRp3704
I00
S'http://web2py.com/layouts'
p3705
tp3706
a(g3356
(S't\x07\x00\x00\x00Recipes'
tRp3707
I00
S'http://web2pyslices.com/'
p3708
tp3709
a(g3356
(S't\x08\x00\x00\x00Semantic'
tRp3710
I00
S'http://web2py.com/semantic'
p3711
tp3712
aasbasbasbasbasbasbasbag69
(g85
g71
NtRp3713
(dp3714
g74
(dp3715
sg83
g3470
sg76
(lp3716
g69
(g90
g71
NtRp3717
(dp3718
g74
(dp3719
sg83
g3713
sg76
(lp3720
g69
(g70
g71
NtRp3721
(dp3722
g74
(dp3723
g82
I2
ssg83
g3717
sg76
(lp3724
g69
(g78
g71
NtRp3725
(dp3726
g74
(dp3727
g82
I1
ssg83
Nsg76
(lp3728
g69
(g85
g71
NtRp3729
(dp3730
g74
(dp3731
sg83
g3725
sg76
(lp3732
g69
(g90
g71
NtRp3733
(dp3734
g74
(dp3735
sg83
g3729
sg76
(lp3736
g69
(g70
g71
NtRp3737
(dp3738
g74
(dp3739
g82
I1
ssg83
g3733
sg76
(lp3740
g3356
(S't\r\x00\x00\x00Documentation'
tRp3741
asbasbasbag69
(g85
g71
NtRp3742
(dp3743
g74
(dp3744
sg83
g3725
sg76
(lp3745
g69
(g90
g71
NtRp3746
(dp3747
g74
(dp3748
sg83
g3742
sg76
(lp3749
g69
(g70
g71
NtRp3750
(dp3751
g74
(dp3752
g82
I1
ssg83
g3746
sg76
(lp3753
I00
asbasbasbag69
(g85
g71
NtRp3754
(dp3755
g74
(dp3756
sg83
g3725
sg76
(lp3757
g69
(g90
g71
NtRp3758
(dp3759
g74
(dp3760
sg83
g3754
sg76
(lp3761
g69
(g70
g71
NtRp3762
(dp3763
g74
(dp3764
g82
I1
ssg83
g3758
sg76
(lp3765
S'http://www.web2py.com/book'
p3766
asbasbasbag69
(g85
g71
NtRp3767
(dp3768
g74
(dp3769
sg83
g3725
sg76
(lp3770
g69
(g90
g71
NtRp3771
(dp3772
g74
(dp3773
sg83
g3767
sg76
(lp3774
g69
(g70
g71
NtRp3775
(dp3776
g74
(dp3777
g82
I1
ssg83
g3771
sg76
(lp3778
(lp3779
(g3356
(S't\x07\x00\x00\x00Preface'
tRp3780
I00
S'http://www.web2py.com/book/default/chapter/00'
p3781
tp3782
a(g3356
(S't\x0c\x00\x00\x00Introduction'
tRp3783
I00
S'http://www.web2py.com/book/default/chapter/01'
p3784
tp3785
a(g3356
(S't\x06\x00\x00\x00Python'
tRp3786
I00
S'http://www.web2py.com/book/default/chapter/02'
p3787
tp3788
a(g3356
(S't\x08\x00\x00\x00Overview'
tRp3789
I00
S'http://www.web2py.com/book/default/chapter/03'
p3790
tp3791
a(g3356
(S's\x08\x00\x00\x00The Core'
tRp3792
I00
S'http://www.web2py.com/book/default/chapter/04'
p3793
tp3794
a(g3356
(S's\t\x00\x00\x00The Views'
tRp3795
I00
S'http://www.web2py.com/book/default/chapter/05'
p3796
tp3797
a(g3356
(S't\x08\x00\x00\x00Database'
tRp3798
I00
S'http://www.web2py.com/book/default/chapter/06'
p3799
tp3800
a(g3356
(S's\x14\x00\x00\x00Forms and Validators'
tRp3801
I00
S'http://www.web2py.com/book/default/chapter/07'
p3802
tp3803
a(g3356
(S's\r\x00\x00\x00Email and SMS'
tRp3804
I00
S'http://www.web2py.com/book/default/chapter/08'
p3805
tp3806
a(g3356
(S's\x0e\x00\x00\x00Access Control'
tRp3807
I00
S'http://www.web2py.com/book/default/chapter/09'
p3808
tp3809
a(g3356
(S't\x08\x00\x00\x00Services'
tRp3810
I00
S'http://www.web2py.com/book/default/chapter/10'
p3811
tp3812
a(g3356
(S's\x0c\x00\x00\x00Ajax Recipes'
tRp3813
I00
S'http://www.web2py.com/book/default/chapter/11'
p3814
tp3815
a(g3356
(S's\x16\x00\x00\x00Components and Plugins'
tRp3816
I00
S'http://www.web2py.com/book/default/chapter/12'
p3817
tp3818
a(g3356
(S's\x12\x00\x00\x00Deployment Recipes'
tRp3819
I00
S'http://www.web2py.com/book/default/chapter/13'
p3820
tp3821
a(g3356
(S's\r\x00\x00\x00Other Recipes'
tRp3822
I00
S'http://www.web2py.com/book/default/chapter/14'
p3823
tp3824
a(g3356
(S's\r\x00\x00\x00Buy this book'
tRp3825
I00
S'http://stores.lulu.com/web2py'
p3826
tp3827
aasbasbasbasbasbasbasbag69
(g85
g71
NtRp3828
(dp3829
g74
(dp3830
sg83
g3470
sg76
(lp3831
g69
(g90
g71
NtRp3832
(dp3833
g74
(dp3834
sg83
g3828
sg76
(lp3835
g69
(g70
g71
NtRp3836
(dp3837
g74
(dp3838
g82
I2
ssg83
g3832
sg76
(lp3839
g69
(g78
g71
NtRp3840
(dp3841
g74
(dp3842
g82
I1
ssg83
Nsg76
(lp3843
g69
(g85
g71
NtRp3844
(dp3845
g74
(dp3846
sg83
g3840
sg76
(lp3847
g69
(g90
g71
NtRp3848
(dp3849
g74
(dp3850
sg83
g3844
sg76
(lp3851
g69
(g70
g71
NtRp3852
(dp3853
g74
(dp3854
g82
I1
ssg83
g3848
sg76
(lp3855
g3356
(S't\t\x00\x00\x00Community'
tRp3856
asbasbasbag69
(g85
g71
NtRp3857
(dp3858
g74
(dp3859
sg83
g3840
sg76
(lp3860
g69
(g90
g71
NtRp3861
(dp3862
g74
(dp3863
sg83
g3857
sg76
(lp3864
g69
(g70
g71
NtRp3865
(dp3866
g74
(dp3867
g82
I1
ssg83
g3861
sg76
(lp3868
I00
asbasbasbag69
(g85
g71
NtRp3869
(dp3870
g74
(dp3871
sg83
g3840
sg76
(lp3872
g69
(g90
g71
NtRp3873
(dp3874
g74
(dp3875
sg83
g3869
sg76
(lp3876
g69
(g70
g71
NtRp3877
(dp3878
g74
(dp3879
g82
I1
ssg83
g3873
sg76
(lp3880
Nasbasbasbag69
(g85
g71
NtRp3881
(dp3882
g74
(dp3883
sg83
g3840
sg76
(lp3884
g69
(g90
g71
NtRp3885
(dp3886
g74
(dp3887
sg83
g3881
sg76
(lp3888
g69
(g70
g71
NtRp3889
(dp3890
g74
(dp3891
g82
I1
ssg83
g3885
sg76
(lp3892
(lp3893
(g3356
(S't\x06\x00\x00\x00Groups'
tRp3894
I00
S'http://www.web2py.com/examples/default/usergroups'
p3895
tp3896
a(g3356
(S't\x07\x00\x00\x00Twitter'
tRp3897
I00
S'http://twitter.com/web2py'
p3898
tp3899
a(g3356
(S's\t\x00\x00\x00Live Chat'
tRp3900
I00
S'http://webchat.freenode.net/?channels=web2py'
p3901
tp3902
aasbasbasbasbasbasbasbag69
(g85
g71
NtRp3903
(dp3904
g74
(dp3905
sg83
g3470
sg76
(lp3906
g69
(g90
g71
NtRp3907
(dp3908
g74
(dp3909
sg83
g3903
sg76
(lp3910
g69
(g70
g71
NtRp3911
(dp3912
g74
(dp3913
g82
I2
ssg83
g3907
sg76
(lp3914
g69
(g78
g71
NtRp3915
(dp3916
g74
(dp3917
g82
I1
ssg83
Nsg76
(lp3918
g69
(g85
g71
NtRp3919
(dp3920
g74
(dp3921
sg83
g3915
sg76
(lp3922
g69
(g90
g71
NtRp3923
(dp3924
g74
(dp3925
sg83
g3919
sg76
(lp3926
g69
(g70
g71
NtRp3927
(dp3928
g74
(dp3929
g82
I1
ssg83
g3923
sg76
(lp3930
g3356
(S't\x07\x00\x00\x00Plugins'
tRp3931
asbasbasbag69
(g85
g71
NtRp3932
(dp3933
g74
(dp3934
sg83
g3915
sg76
(lp3935
g69
(g90
g71
NtRp3936
(dp3937
g74
(dp3938
sg83
g3932
sg76
(lp3939
g69
(g70
g71
NtRp3940
(dp3941
g74
(dp3942
g82
I1
ssg83
g3936
sg76
(lp3943
I00
asbasbasbag69
(g85
g71
NtRp3944
(dp3945
g74
(dp3946
sg83
g3915
sg76
(lp3947
g69
(g90
g71
NtRp3948
(dp3949
g74
(dp3950
sg83
g3944
sg76
(lp3951
g69
(g70
g71
NtRp3952
(dp3953
g74
(dp3954
g82
I1
ssg83
g3948
sg76
(lp3955
Nasbasbasbag69
(g85
g71
NtRp3956
(dp3957
g74
(dp3958
sg83
g3915
sg76
(lp3959
g69
(g90
g71
NtRp3960
(dp3961
g74
(dp3962
sg83
g3956
sg76
(lp3963
g69
(g70
g71
NtRp3964
(dp3965
g74
(dp3966
g82
I1
ssg83
g3960
sg76
(lp3967
(lp3968
(S'plugin_wiki'
p3969
I00
S'http://web2py.com/examples/default/download'
p3970
tp3971
a(g3356
(S's\r\x00\x00\x00Other Plugins'
tRp3972
I00
g3702
tp3973
a(g3356
(S's\x0e\x00\x00\x00Layout Plugins'
tRp3974
I00
g3705
tp3975
aasbasbasbasbasbasbasbasbasbasbasbasbasbasbasbasbasbasbasbag69
(g85
g71
NtRp3976
(dp3977
g74
(dp3978
sg83
g2850
sg76
(lp3979
g69
(g90
g71
NtRp3980
(dp3981
g74
(dp3982
g94
g95
ssg83
g3976
sg76
(lp3983
S'meta'
p3984
asbag69
(g90
g71
NtRp3985
(dp3986
g74
(dp3987
g101
g102
ssg83
g3976
sg76
(lp3988
S':'
asbag69
(g90
g71
NtRp3989
(dp3990
g74
(dp3991
sg83
g3976
sg76
(lp3992
g69
(g70
g71
NtRp3993
(dp3994
g74
(dp3995
g82
I5
ssg83
g3989
sg76
(lp3996
g69
(g78
g71
NtRp3997
(dp3998
g74
(dp3999
g82
I4
ssg83
Nsg76
(lp4000
g69
(g85
g71
NtRp4001
(dp4002
g74
(dp4003
sg83
g3997
sg76
(lp4004
g69
(g90
g71
NtRp4005
(dp4006
g74
(dp4007
g94
g95
ssg83
g4001
sg76
(lp4008
S'author'
p4009
asbag69
(g90
g71
NtRp4010
(dp4011
g74
(dp4012
g101
g102
ssg83
g4001
sg76
(lp4013
S':'
asbag69
(g90
g71
NtRp4014
(dp4015
g74
(dp4016
sg83
g4001
sg76
(lp4017
g69
(g70
g71
NtRp4018
(dp4019
g74
(dp4020
g82
I4
ssg83
g4014
sg76
(lp4021
S'Your Name <you@example.com>'
p4022
asbasbasbag69
(g85
g71
NtRp4023
(dp4024
g74
(dp4025
sg83
g3997
sg76
(lp4026
g69
(g90
g71
NtRp4027
(dp4028
g74
(dp4029
g94
g95
ssg83
g4023
sg76
(lp4030
S'copyright'
p4031
asbag69
(g90
g71
NtRp4032
(dp4033
g74
(dp4034
g101
g102
ssg83
g4023
sg76
(lp4035
S':'
asbag69
(g90
g71
NtRp4036
(dp4037
g74
(dp4038
sg83
g4023
sg76
(lp4039
g69
(g70
g71
NtRp4040
(dp4041
g74
(dp4042
g82
I4
ssg83
g4036
sg76
(lp4043
S'Copyright 2011'
p4044
asbasbasbag69
(g85
g71
NtRp4045
(dp4046
g74
(dp4047
sg83
g3997
sg76
(lp4048
g69
(g90
g71
NtRp4049
(dp4050
g74
(dp4051
g94
g95
ssg83
g4045
sg76
(lp4052
S'description'
p4053
asbag69
(g90
g71
NtRp4054
(dp4055
g74
(dp4056
g101
g102
ssg83
g4045
sg76
(lp4057
S':'
asbag69
(g90
g71
NtRp4058
(dp4059
g74
(dp4060
sg83
g4045
sg76
(lp4061
g69
(g70
g71
NtRp4062
(dp4063
g74
(dp4064
g82
I4
ssg83
g4058
sg76
(lp4065
S'a cool new app'
p4066
asbasbasbag69
(g85
g71
NtRp4067
(dp4068
g74
(dp4069
sg83
g3997
sg76
(lp4070
g69
(g90
g71
NtRp4071
(dp4072
g74
(dp4073
g94
g95
ssg83
g4067
sg76
(lp4074
S'generator'
p4075
asbag69
(g90
g71
NtRp4076
(dp4077
g74
(dp4078
g101
g102
ssg83
g4067
sg76
(lp4079
S':'
asbag69
(g90
g71
NtRp4080
(dp4081
g74
(dp4082
sg83
g4067
sg76
(lp4083
g69
(g70
g71
NtRp4084
(dp4085
g74
(dp4086
g82
I4
ssg83
g4080
sg76
(lp4087
S'Web2py Web Framework'
p4088
asbasbasbag69
(g85
g71
NtRp4089
(dp4090
g74
(dp4091
sg83
g3997
sg76
(lp4092
g69
(g90
g71
NtRp4093
(dp4094
g74
(dp4095
g94
g95
ssg83
g4089
sg76
(lp4096
S'keywords'
p4097
asbag69
(g90
g71
NtRp4098
(dp4099
g74
(dp4100
g101
g102
ssg83
g4089
sg76
(lp4101
S':'
asbag69
(g90
g71
NtRp4102
(dp4103
g74
(dp4104
sg83
g4089
sg76
(lp4105
g69
(g70
g71
NtRp4106
(dp4107
g74
(dp4108
g82
I4
ssg83
g4102
sg76
(lp4109
S'web2py, python, framework'
p4110
asbasbasbasbasbasbasbag69
(g85
g71
NtRp4111
(dp4112
g74
(dp4113
sg83
g2850
sg76
(lp4114
g69
(g90
g71
NtRp4115
(dp4116
g74
(dp4117
g94
g95
ssg83
g4111
sg76
(lp4118
S'postprocessing'
p4119
asbag69
(g90
g71
NtRp4120
(dp4121
g74
(dp4122
g101
g102
ssg83
g4111
sg76
(lp4123
S':'
asbag69
(g90
g71
NtRp4124
(dp4125
g74
(dp4126
sg83
g4111
sg76
(lp4127
g69
(g70
g71
NtRp4128
(dp4129
g74
(dp4130
g82
I5
ssg83
g4124
sg76
(lp4131
g69
(g78
g71
NtRp4132
(dp4133
g74
(dp4134
g82
I4
ssg83
Nsg76
(lp4135
sbasbasbasbag69
(g85
g71
NtRp4136
(dp4137
g74
(dp4138
sg83
g2850
sg76
(lp4139
g69
(g90
g71
NtRp4140
(dp4141
g74
(dp4142
g94
g95
ssg83
g4136
sg76
(lp4143
S'session_filename'
p4144
asbag69
(g90
g71
NtRp4145
(dp4146
g74
(dp4147
g101
g102
ssg83
g4136
sg76
(lp4148
S':'
asbag69
(g90
g71
NtRp4149
(dp4150
g74
(dp4151
sg83
g4136
sg76
(lp4152
g69
(g70
g71
NtRp4153
(dp4154
g74
(dp4155
g82
I5
ssg83
g4149
sg76
(lp4156
S'/home/ds-iiit/web2py/applications/Read_it/sessions/127.0.0.1-2063ee7d-6e0a-48b2-8fd3-9efc367be203'
p4157
asbasbasbag69
(g85
g71
NtRp4158
(dp4159
g74
(dp4160
sg83
g2850
sg76
(lp4161
g69
(g90
g71
NtRp4162
(dp4163
g74
(dp4164
g94
g95
ssg83
g4158
sg76
(lp4165
S'session_id'
p4166
asbag69
(g90
g71
NtRp4167
(dp4168
g74
(dp4169
g101
g102
ssg83
g4158
sg76
(lp4170
S':'
asbag69
(g90
g71
NtRp4171
(dp4172
g74
(dp4173
sg83
g4158
sg76
(lp4174
g69
(g70
g71
NtRp4175
(dp4176
g74
(dp4177
g82
I5
ssg83
g4171
sg76
(lp4178
S'127.0.0.1-2063ee7d-6e0a-48b2-8fd3-9efc367be203'
p4179
asbasbasbag69
(g85
g71
NtRp4180
(dp4181
g74
(dp4182
sg83
g2850
sg76
(lp4183
g69
(g90
g71
NtRp4184
(dp4185
g74
(dp4186
g94
g95
ssg83
g4180
sg76
(lp4187
S'session_id_name'
p4188
asbag69
(g90
g71
NtRp4189
(dp4190
g74
(dp4191
g101
g102
ssg83
g4180
sg76
(lp4192
S':'
asbag69
(g90
g71
NtRp4193
(dp4194
g74
(dp4195
sg83
g4180
sg76
(lp4196
g69
(g70
g71
NtRp4197
(dp4198
g74
(dp4199
g82
I5
ssg83
g4193
sg76
(lp4200
g2907
asbasbasbag69
(g85
g71
NtRp4201
(dp4202
g74
(dp4203
sg83
g2850
sg76
(lp4204
g69
(g90
g71
NtRp4205
(dp4206
g74
(dp4207
g94
g95
ssg83
g4201
sg76
(lp4208
S'session_new'
p4209
asbag69
(g90
g71
NtRp4210
(dp4211
g74
(dp4212
g101
g102
ssg83
g4201
sg76
(lp4213
S':'
asbag69
(g90
g71
NtRp4214
(dp4215
g74
(dp4216
sg83
g4201
sg76
(lp4217
g69
(g70
g71
NtRp4218
(dp4219
g74
(dp4220
g82
I5
ssg83
g4214
sg76
(lp4221
g1473
asbasbasbag69
(g85
g71
NtRp4222
(dp4223
g74
(dp4224
sg83
g2850
sg76
(lp4225
g69
(g90
g71
NtRp4226
(dp4227
g74
(dp4228
g94
g95
ssg83
g4222
sg76
(lp4229
S'status'
p4230
asbag69
(g90
g71
NtRp4231
(dp4232
g74
(dp4233
g101
g102
ssg83
g4222
sg76
(lp4234
S':'
asbag69
(g90
g71
NtRp4235
(dp4236
g74
(dp4237
sg83
g4222
sg76
(lp4238
g69
(g70
g71
NtRp4239
(dp4240
g74
(dp4241
g82
I5
ssg83
g4235
sg76
(lp4242
S'200'
p4243
asbasbasbag69
(g85
g71
NtRp4244
(dp4245
g74
(dp4246
sg83
g2850
sg76
(lp4247
g69
(g90
g71
NtRp4248
(dp4249
g74
(dp4250
g94
g95
ssg83
g4244
sg76
(lp4251
S'subtitle'
p4252
asbag69
(g90
g71
NtRp4253
(dp4254
g74
(dp4255
g101
g102
ssg83
g4244
sg76
(lp4256
S':'
asbag69
(g90
g71
NtRp4257
(dp4258
g74
(dp4259
sg83
g4244
sg76
(lp4260
g69
(g70
g71
NtRp4261
(dp4262
g74
(dp4263
g82
I5
ssg83
g4257
sg76
(lp4264
g3356
(S's\r\x00\x00\x00customize me!'
tRp4265
asbasbasbag69
(g85
g71
NtRp4266
(dp4267
g74
(dp4268
sg83
g2850
sg76
(lp4269
g69
(g90
g71
NtRp4270
(dp4271
g74
(dp4272
g94
g95
ssg83
g4266
sg76
(lp4273
S'title'
p4274
asbag69
(g90
g71
NtRp4275
(dp4276
g74
(dp4277
g101
g102
ssg83
g4266
sg76
(lp4278
S':'
asbag69
(g90
g71
NtRp4279
(dp4280
g74
(dp4281
sg83
g4266
sg76
(lp4282
g69
(g70
g71
NtRp4283
(dp4284
g74
(dp4285
g82
I5
ssg83
g4279
sg76
(lp4286
S'Read It'
p4287
asbasbasbag69
(g85
g71
NtRp4288
(dp4289
g74
(dp4290
sg83
g2850
sg76
(lp4291
g69
(g90
g71
NtRp4292
(dp4293
g74
(dp4294
g94
g95
ssg83
g4288
sg76
(lp4295
g2158
asbag69
(g90
g71
NtRp4296
(dp4297
g74
(dp4298
g101
g102
ssg83
g4288
sg76
(lp4299
S':'
asbag69
(g90
g71
NtRp4300
(dp4301
g74
(dp4302
sg83
g4288
sg76
(lp4303
g69
(g70
g71
NtRp4304
(dp4305
g74
(dp4306
g82
I5
ssg83
g4300
sg76
(lp4307
g2171
asbasbasbag69
(g85
g71
NtRp4308
(dp4309
g74
(dp4310
sg83
g2850
sg76
(lp4311
g69
(g90
g71
NtRp4312
(dp4313
g74
(dp4314
g94
g95
ssg83
g4308
sg76
(lp4315
S'view'
p4316
asbag69
(g90
g71
NtRp4317
(dp4318
g74
(dp4319
g101
g102
ssg83
g4308
sg76
(lp4320
S':'
asbag69
(g90
g71
NtRp4321
(dp4322
g74
(dp4323
sg83
g4308
sg76
(lp4324
g69
(g70
g71
NtRp4325
(dp4326
g74
(dp4327
g82
I5
ssg83
g4321
sg76
(lp4328
S'default/comments.html'
p4329
asbasbasbasbasbsS'locals'
p4330
(dp4331
g4
S"'/home/ds-iiit/web2py/applications/Read_it/views/default/comments.html'"
p4332
sg6
S'\'response.write(\\\'<!DOCTYPE html PUBLIC "-//W3C//D...->\\\\n  </div>\\\\n </body>\\\\n</html>\\\\n\\\', escape=False)\''
p4333
sssS'traceback'
p4334
S'Traceback (most recent call last):\n  File "/usr/lib/pymodules/python2.7/gluon/restricted.py", line 203, in restricted\n    ccode = compile2(code,layer)\n  File "/usr/lib/pymodules/python2.7/gluon/restricted.py", line 189, in compile2\n    return compile(code.rstrip().replace(\'\\r\\n\',\'\\n\')+\'\\n\', layer, \'exec\')\n  File "/home/ds-iiit/web2py/applications/Read_it/views/default/comments.html", line 34\n    response.write(i[\'Auth.id\')\n                              ^\nSyntaxError: invalid syntax\n'
p4335
s.