(dp1
S'output'
p2
S'missing "pass" in view'
p3
sS'layer'
p4
S'ParserContainer'
p5
sS'code'
p6
S'response.write(\'<!DOCTYPE html PUBLIC "-//W3C//DTD XHTML 1.0 Strict//EN" "http://www.w3.org/TR/xhtml1/DTD/xhtml1-strict.dtd">\\n<!--\\n\\nDesign by Free CSS Templates\\nhttp://www.freecsstemplates.org\\nReleased for free under a Creative Commons Attribution 2.5 License\\n\\nTitle      : Cup of Coffee\\nVersion    : 1.0\\nReleased   : 20081207\\nDescription: A two-column, fixed-width and lightweight template ideal for 1024x768 resolutions. Suitable for blogs and small websites.\\n\\n-->\\n<html xmlns="http://www.w3.org/1999/xhtml">\\n <head>\\n  <title>\\n\\tReddit clone, Devansh Shah\\n  </title>\\n  \', escape=False)\nresponse.files.append(URL(request.application,\'static\',\'plugin_layouts/layouts/CupofCoffee/default.css\'))\nresponse.write(\'\\n  \', escape=False)\nresponse.files.append(URL(\'static\',\'plugin_layouts/superfish.js\'))\nresponse.write(\'\\n  \', escape=False)\nresponse.write(\'<script type="text/javascript"><!--\\n    // These variables are used by the web2py_ajax_init function in web2py_ajax.js (which is loaded below).\\n    var w2p_ajax_confirm_message = "\', escape=False)\nresponse.write(T(\'Are you sure you want to delete this object?\'))\nresponse.write(\'";\\n    var w2p_ajax_date_format = "\', escape=False)\nresponse.write(T(\'%Y-%m-%d\'))\nresponse.write(\'";\\n    var w2p_ajax_datetime_format = "\', escape=False)\nresponse.write(T(\'%Y-%m-%d %H:%M:%S\'))\nresponse.write(\'";\\n    //--></script>\\n\', escape=False)\nresponse.files.insert(0,URL(\'static\',\'js/jquery.js\'))\nresponse.files.insert(1,URL(\'static\',\'css/calendar.css\'))\nresponse.files.insert(2,URL(\'static\',\'js/calendar.js\'))\nresponse.files.insert(3,URL(\'static\',\'js/web2py.js\'))\nresponse.include_meta()\nresponse.include_files()\nresponse.write(\'\\n\', escape=False)\nresponse.write(\'\\n  <style>\\nul.web2py-menu-vertical { width: 300px; position: relative; top:1em; left:1em;  z-index:30; border:0; margin:0; padding: 0; list-style: none; text-decoration: none;}\\nul.web2py-menu-vertical li { margin:0; padding:0; border:0; width: 300px; background: black; text-align:left;}\\nul.web2py-menu-vertical li a { margin:0; padding: 1px 3px 1px 3px; border:0; width: 300px; color: white; font-size:12px;}\\ndiv.flash { position: fixed; float: right; padding: 10px; top: 10px; right: 30px; opacity: 0.75; margin: 10px 10px 10px 10px; text-align: center; clear: both; color: #fff; font-size: 11pt; text-align: center; vertical-align: middle; cursor: pointer; background: black; border: 2px solid #fff; -moz-border-radius: 5px; -webkit-border-radius: 5px; z-index: 2; }\\ndiv.error { background-color: red; color: white; padding: 3px; }\\n.auth_navbar { text-align:right; z-index:20; position: absolute; top: 2px; right:100px; border:0; padding:0 }\\n  </style>\\n </head>\\n <body>\\n  <!-- start header -->\\n  \', escape=False)\ntry:\n    response.write(auth.navbar(action=URL(\'default\',\'user\')))\nexcept:pass\nresponse.write(\'\\n\\n  <div id="wrapper">\\n   <!-- start header -->\\n   <div id="header">\\n<!--    <div id="menu">\\n     \', escape=False)\nresponse.write(MENU(response.menu,_class=\'web2py-menu\'))\nresponse.write(\'\\n    <script>\\n      jQuery(document).ready(function(){jQuery(\\\'ul.web2py-menu\\\').superfish({delay:400});});\\n    </script>\\n    </div> -->\\n   </div>\\n   <!-- end header -->\\n   <div id="logo">\\n    <h1>\\n    <a href="listall.html"> Read-it-over </a>\\n    </h1>\\n    <h2>\\n     Your News, Your way.\\n    </h2>\\n   </div>\\n   <!-- start page -->\\n   <div id="page">\\n    <!-- start content -->\\n    <div id="content">\\n     <div class="flash">\', escape=False)\nresponse.write(response.flash or \'\')\nresponse.write(\'</div>\\n     \', escape=False)\nresponse.write(\'\\n<li>\\n<frameset>\\n<a href=\', escape=False)\nresponse.write(i[\'Item.URL\'])\nresponse.write(\'>  \', escape=False)\nresponse.write(i[\'Heading\'])\nresponse.write(\' </a>\\n<br />\\n<br />\\n\', escape=False)\nif i[\'Item.Multimedia\'] is not None:\n    response.write(\'\\n<video src=\', escape=False)\n    response.write(i[\'Multimedia\'])\n    response.write(\' width="320" height="200" controls preload></video>\\n<embed\\nwidth="400" height="300"\\nsrc=\', escape=False)\n    response.write(i[\'Multimedia\'])\n    response.write(\'\\ntype="application/x-shockwave-flash">\\n</embed\\n>\\n<br/>\\n<a href="points/\', escape=False)\n    response.write(i[\'Item.id\'])\n    response.write(\'/5" value="Like"> Like\\n</a><br/>\\n<a href="points/\', escape=False)\n    response.write(i[\'Item.id\'])\n    response.write(\'/-3" value="DisLike"> DisLike\\n</a><br/>\\n<ol>\\n\', escape=False)\n    for i in results:\n        response.write(\'\\n<li>\\n<h3> \', escape=False)\n        response.write(i[\'Comments.Comment\'])\n        response.write(\' <h3> <br/>\\n<h5 align="right"> posted by \', escape=False)\n        response.write(i[\'auth_user.first_name\'])\n        response.write(\' on \', escape=False)\n        response.write(i[\'Comments.Date\'])\n        response.write(\' </h5>\\n<hr />\\n</li>\\n\', escape=False)\n        pass\n    response.write(\'\\n</ol>\\n\', escape=False)\n    response.write(form)\n    response.write(\'\\n\', escape=False)\n    response.write(\'\\n    </div>\\n    <!-- end content -->\\n    <!-- start sidebar -->\\n    <div id="sidebar">\\n     <ul>\\n      <li id="search">\\n       <h2>\\n        Search\\n       </h2>\\n       <form method="get" action="search.html">\\n        <fieldset>\\n         <input type="text" id="s" name="s" value="" />\\n         <input type="submit" id="x" value="Search" />\\n        </fieldset>\\n       </form>\\n      </li>\\n      <li>\\n       <h2>\\n        Categories:\\n       </h2>\\n       <ol>\\n\\t\', escape=False)\n    for i in cat:\n        response.write(\'\\n        <li>\\n         <a href="list_cat/\', escape=False)\n        response.write(i)\n        response.write(\'">\\n          \', escape=False)\n        response.write(i)\n        response.write(\'\\n         </a>\\n        </li>\\n\\t\', escape=False)\n        pass\n    response.write(\'\\n       </ol>\\n      </li>\\n     </ul>\\n    </div>\\n    <!-- end sidebar -->\\n    <div style="clear: both;">\\n     &nbsp;\\n    </div>\\n   </div>\\n   <!-- end page -->\\n   <!-- start footer -->\\n   <div id="footer">\\n    <div id="footer-wrap">\\n     <p id="legal">\\n       Devansh T Shah, &copy;2013<br/> Design by\\n       CSS Templates\\n     </p>\\n    </div>\\n   </div>\\n   <!-- end footer -->\\n  </div>\\n </body>\\n</html>\\n\', escape=False)'
p7
sS'snapshot'
p8
(dp9
S'exception'
p10
(dp11
S'__module__'
p12
S"'gluon.rocket'"
p13
sS'__getslice__'
p14
S"<method-wrapper '__getslice__' of SocketTimeout object>"
p15
sS'__str__'
p16
S"<method-wrapper '__str__' of SocketTimeout object>"
p17
sS'__reduce__'
p18
S'<built-in method __reduce__ of SocketTimeout object>'
p19
sS'__dict__'
p20
S'{}'
p21
sS'__sizeof__'
p22
S'<built-in method __sizeof__ of SocketTimeout object>'
p23
sS'__weakref__'
p24
S'None'
p25
sS'__init__'
p26
S"<method-wrapper '__init__' of SocketTimeout object>"
p27
sS'__setattr__'
p28
S"<method-wrapper '__setattr__' of SocketTimeout object>"
p29
sS'__reduce_ex__'
p30
S'<built-in method __reduce_ex__ of SocketTimeout object>'
p31
sS'__new__'
p32
S'<built-in method __new__ of type object>'
p33
sS'__format__'
p34
S'<built-in method __format__ of SocketTimeout object>'
p35
sS'__class__'
p36
S"<class 'gluon.rocket.SocketTimeout'>"
p37
sS'__doc__'
p38
S"'Exception for when a socket times out between requests.'"
p39
sS'__getitem__'
p40
S"<method-wrapper '__getitem__' of SocketTimeout object>"
p41
sS'__setstate__'
p42
S'<built-in method __setstate__ of SocketTimeout object>'
p43
sS'__getattribute__'
p44
S"<method-wrapper '__getattribute__' of SocketTimeout object>"
p45
sS'args'
p46
S"('Socket timed out before request.',)"
p47
sS'__subclasshook__'
p48
S'<built-in method __subclasshook__ of type object>'
p49
sS'__unicode__'
p50
S'<built-in method __unicode__ of SocketTimeout object>'
p51
sS'__delattr__'
p52
S"<method-wrapper '__delattr__' of SocketTimeout object>"
p53
sS'__repr__'
p54
S"<method-wrapper '__repr__' of SocketTimeout object>"
p55
sS'__hash__'
p56
S"<method-wrapper '__hash__' of SocketTimeout object>"
p57
ssS'evalue'
p58
S'Socket timed out before request.'
p59
sS'frames'
p60
(lp61
(dp62
S'file'
p63
S'/usr/lib/pymodules/python2.7/gluon/rocket.py'
p64
sS'dump'
p65
(dp66
S'self'
p67
S'<WSGIWorker(Thread-9, started daemon 140586426300160)>'
p68
sS'conn'
p69
S'<gluon.rocket.Connection object>'
p70
sS'self.run_app'
p71
S'<bound method WSGIWorker.run_app of <WSGIWorker(Thread-9, started daemon 140586426300160)>>'
p72
ssS'lnum'
p73
I1302
sS'lines'
p74
(dp75
I1297
S'            # Enter connection serve loop'
p76
sI1298
S'            while True:'
p77
sI1299
S'                if __debug__:'
p78
sI1300
S"                    self.err_log.debug('Serving a request')"
p79
sI1301
S'                try:'
p80
sI1302
S'                    self.run_app(conn)'
p81
sI1303
S'                    log_info = dict(client_ip = conn.client_addr,'
p82
sI1304
S"                                    time = datetime.now().strftime('%c'),"
p83
sI1305
S"                                    status = self.status.split(' ')[0],"
p84
sI1306
S'                                    size = self.size,'
p85
ssS'call'
p86
S'(self=<WSGIWorker(Thread-9, started daemon 140586426300160)>)'
p87
sS'func'
p88
S'run'
p89
sa(dp90
g63
S'/usr/lib/pymodules/python2.7/gluon/rocket.py'
p91
sg65
(dp92
S'self'
p93
S'<WSGIWorker(Thread-9, started daemon 140586426300160)>'
p94
sS'self.environ'
p95
S"{'HTTP_ACCEPT': 'text/html,application/xhtml+xml,application/xml;q=0.9,*/*;q=0.8', 'HTTP_ACCEPT_ENCODING': 'gzip, deflate', 'HTTP_ACCEPT_LANGUAGE': 'en-US,en;q=0.5', 'HTTP_CONNECTION': 'keep-alive', 'HTTP_COOKIE': 'session_id_read_it=127.0.0.1-3b306805-b0b8-4f0a-...in=127.0.0.1-b0d414bb-449e-4a00-b0e1-47ca5bec38b4', 'HTTP_HOST': '127.0.0.1:8001', 'HTTP_USER_AGENT': 'Mozilla/5.0 (X11; Ubuntu; Linux x86_64; rv:23.0) Gecko/20100101 Firefox/23.0', 'PATH_INFO': '/Read_it/default/comments/4', 'QUERY_STRING': '', 'REMOTE_ADDR': '127.0.0.1', ...}"
p96
sS'sock_file'
p97
S'<socket._fileobject object>'
p98
sS'environ'
p99
S'undefined'
p100
sS'self.build_environ'
p101
S'<bound method WSGIWorker.build_environ of <WSGIWorker(Thread-9, started daemon 140586426300160)>>'
p102
sS'conn'
p103
S'<gluon.rocket.Connection object>'
p104
ssg73
I1986
sg74
(dp105
I1984
S'        try:'
p106
sI1985
S'            # Read the headers and build our WSGI environment'
p107
sI1986
S'            self.environ = environ = self.build_environ(sock_file, conn)'
p108
sI1987
S''
sI1988
S'            # Handle 100 Continue'
p109
sI1989
S"            if environ.get('HTTP_EXPECT', '') == '100-continue':"
p110
sI1990
S"                res = environ['SERVER_PROTOCOL'] + ' 100 Continue\\r\\n\\r\\n'"
p111
sI1981
S'        else:'
p112
sI1982
S'            sock_file = conn.makefile(BUF_SIZE)'
p113
sI1983
S''
ssg86
S'(self=<WSGIWorker(Thread-9, started daemon 140586426300160)>, conn=<gluon.rocket.Connection object>)'
p114
sg88
S'run_app'
p115
sa(dp116
g63
S'/usr/lib/pymodules/python2.7/gluon/rocket.py'
p117
sg65
(dp118
S'sock_file'
p119
S'<socket._fileobject object>'
p120
sS'self.read_request_line'
p121
S'<bound method WSGIWorker.read_request_line of <W...orker(Thread-9, started daemon 140586426300160)>>'
p122
sS'self'
p123
S'<WSGIWorker(Thread-9, started daemon 140586426300160)>'
p124
sS'request'
p125
g100
ssg73
I1807
sg74
(dp126
I1802
S'                                      "wsgiorg.futures": executor.futures})'
p127
sI1803
S''
sI1804
S'    def build_environ(self, sock_file, conn):'
p128
sI1805
S'        """ Build the execution environment. """'
p129
sI1806
S'        # Grab the request line'
p130
sI1807
S'        request = self.read_request_line(sock_file)'
p131
sI1808
S''
sI1809
S'        # Copy the Base Environment'
p132
sI1810
S'        environ = self.base_environ.copy()'
p133
sI1811
S''
ssg86
S'(self=<WSGIWorker(Thread-9, started daemon 140586426300160)>, sock_file=<socket._fileobject object>, conn=<gluon.rocket.Connection object>)'
p134
sg88
S'build_environ'
p135
sa(dp136
g63
S'/usr/lib/pymodules/python2.7/gluon/rocket.py'
p137
sg65
(dp138
S'global SocketTimeout'
p139
S"<class 'gluon.rocket.SocketTimeout'>"
p140
ssg73
I1376
sg74
(dp141
I1376
S'            raise SocketTimeout("Socket timed out before request.")'
p142
sI1377
S''
sI1378
S'        d = d.strip()'
p143
sI1379
S''
sI1380
S'        if not d:'
p144
sI1371
S''
sI1372
S'                d = sock_file.readline()'
p145
sI1373
S'                if PY3K:'
p146
sI1374
S"                    d = d.decode('ISO-8859-1')"
p147
sI1375
S'        except socket.timeout:'
p148
ssg86
S'(self=<WSGIWorker(Thread-9, started daemon 140586426300160)>, sock_file=<socket._fileobject object>)'
p149
sg88
S'read_request_line'
p150
sasS'pyver'
p151
S'Python 2.7.3: /usr/bin/python'
p152
sS'etype'
p153
S"<class 'gluon.rocket.SocketTimeout'>"
p154
sS'date'
p155
S'Fri Aug 30 03:48:54 2013'
p156
sS'locals'
p157
(dp158
S'sock_file'
p159
S'<socket._fileobject object>'
p160
sS'self'
p161
S'<WSGIWorker(Thread-9, started daemon 140586426300160)>'
p162
sssS'traceback'
p163
S'Traceback (most recent call last):\n  File "/usr/lib/pymodules/python2.7/gluon/rocket.py", line 1302, in run\n    self.run_app(conn)\n  File "/usr/lib/pymodules/python2.7/gluon/rocket.py", line 1986, in run_app\n    self.environ = environ = self.build_environ(sock_file, conn)\n  File "/usr/lib/pymodules/python2.7/gluon/rocket.py", line 1807, in build_environ\n    request = self.read_request_line(sock_file)\n  File "/usr/lib/pymodules/python2.7/gluon/rocket.py", line 1376, in read_request_line\n    raise SocketTimeout("Socket timed out before request.")\nSocketTimeout: Socket timed out before request.\n'
p164
s.