(dp1
S'output'
p2
S"<type 'exceptions.KeyError'> 'Comment'"
p3
sS'layer'
p4
S'/home/ds-iiit/web2py/applications/Read_it/views/default/comments.html'
p5
sS'code'
p6
S'response.write(\'<!DOCTYPE html PUBLIC "-//W3C//DTD XHTML 1.0 Strict//EN" "http://www.w3.org/TR/xhtml1/DTD/xhtml1-strict.dtd">\\n<!--\\n\\nDesign by Free CSS Templates\\nhttp://www.freecsstemplates.org\\nReleased for free under a Creative Commons Attribution 2.5 License\\n\\nTitle      : Cup of Coffee\\nVersion    : 1.0\\nReleased   : 20081207\\nDescription: A two-column, fixed-width and lightweight template ideal for 1024x768 resolutions. Suitable for blogs and small websites.\\n\\n-->\\n<html xmlns="http://www.w3.org/1999/xhtml">\\n <head>\\n  <title>\\n\\tReddit clone, Devansh Shah\\n  </title>\\n  \', escape=False)\nresponse.files.append(URL(request.application,\'static\',\'plugin_layouts/layouts/CupofCoffee/default.css\'))\nresponse.write(\'\\n  \', escape=False)\nresponse.files.append(URL(\'static\',\'plugin_layouts/superfish.js\'))\nresponse.write(\'\\n  \', escape=False)\nresponse.write(\'<script type="text/javascript"><!--\\n    // These variables are used by the web2py_ajax_init function in web2py_ajax.js (which is loaded below).\\n    var w2p_ajax_confirm_message = "\', escape=False)\nresponse.write(T(\'Are you sure you want to delete this object?\'))\nresponse.write(\'";\\n    var w2p_ajax_date_format = "\', escape=False)\nresponse.write(T(\'%Y-%m-%d\'))\nresponse.write(\'";\\n    var w2p_ajax_datetime_format = "\', escape=False)\nresponse.write(T(\'%Y-%m-%d %H:%M:%S\'))\nresponse.write(\'";\\n    //--></script>\\n\', escape=False)\nresponse.files.insert(0,URL(\'static\',\'js/jquery.js\'))\nresponse.files.insert(1,URL(\'static\',\'css/calendar.css\'))\nresponse.files.insert(2,URL(\'static\',\'js/calendar.js\'))\nresponse.files.insert(3,URL(\'static\',\'js/web2py.js\'))\nresponse.include_meta()\nresponse.include_files()\nresponse.write(\'\\n\', escape=False)\nresponse.write(\'\\n  <style>\\nul.web2py-menu-vertical { width: 300px; position: relative; top:1em; left:1em;  z-index:30; border:0; margin:0; padding: 0; list-style: none; text-decoration: none;}\\nul.web2py-menu-vertical li { margin:0; padding:0; border:0; width: 300px; background: black; text-align:left;}\\nul.web2py-menu-vertical li a { margin:0; padding: 1px 3px 1px 3px; border:0; width: 300px; color: white; font-size:12px;}\\ndiv.flash { position: fixed; float: right; padding: 10px; top: 10px; right: 30px; opacity: 0.75; margin: 10px 10px 10px 10px; text-align: center; clear: both; color: #fff; font-size: 11pt; text-align: center; vertical-align: middle; cursor: pointer; background: black; border: 2px solid #fff; -moz-border-radius: 5px; -webkit-border-radius: 5px; z-index: 2; }\\ndiv.error { background-color: red; color: white; padding: 3px; }\\n.auth_navbar { text-align:right; z-index:20; position: absolute; top: 2px; right:100px; border:0; padding:0 }\\n  </style>\\n </head>\\n <body>\\n  <!-- start header -->\\n  \', escape=False)\ntry:\n    response.write(auth.navbar(action=URL(\'default\',\'user\')))\nexcept:pass\nresponse.write(\'\\n\\n  <div id="wrapper">\\n   <!-- start header -->\\n   <div id="header">\\n<!--    <div id="menu">\\n     \', escape=False)\nresponse.write(MENU(response.menu,_class=\'web2py-menu\'))\nresponse.write(\'\\n    <script>\\n      jQuery(document).ready(function(){jQuery(\\\'ul.web2py-menu\\\').superfish({delay:400});});\\n    </script>\\n    </div> -->\\n   </div>\\n   <!-- end header -->\\n   <div id="logo">\\n    <h1>\\n    <a href="listall.html"> Read-it-over </a>\\n    </h1>\\n    <h2>\\n     Your News, Your way.\\n    </h2>\\n   </div>\\n   <!-- start page -->\\n   <div id="page">\\n    <!-- start content -->\\n    <div id="content">\\n     <div class="flash">\', escape=False)\nresponse.write(response.flash or \'\')\nresponse.write(\'</div>\\n     \', escape=False)\nresponse.write(\'\\n<ol>\\n\', escape=False)\nfor i in results:\n    response.write(\'\\n<li>\\n<h3> \', escape=False)\n    response.write(i[\'Comment\'])\n    response.write(\' <h3> <br/>\\n<h5 align="right"> posted by \', escape=False)\n    response.write(i[\'AuthID\'])\n    response.write(\' on \', escape=False)\n    response.write(i[\'Date\'])\n    response.write(\' </h5>\\n<hr />\\n</li>\\n\', escape=False)\n    pass\nresponse.write(\'\\n</ol>\\n\', escape=False)\nresponse.write(form)\nresponse.write(\'\\n\', escape=False)\nresponse.write(\'\\n    </div>\\n    <!-- end content -->\\n    <!-- start sidebar -->\\n    <div id="sidebar">\\n     <ul>\\n      <li id="search">\\n       <h2>\\n        Search\\n       </h2>\\n       <form method="get" action="search.html">\\n        <fieldset>\\n         <input type="text" id="s" name="s" value="" />\\n         <input type="submit" id="x" value="Search" />\\n        </fieldset>\\n       </form>\\n      </li>\\n      <li>\\n       <h2>\\n        Categories:\\n       </h2>\\n       <ol>\\n\\t\', escape=False)\nfor i in cat:\n    response.write(\'\\n        <li>\\n         <a href="list_cat/\', escape=False)\n    response.write(i)\n    response.write(\'">\\n          \', escape=False)\n    response.write(i)\n    response.write(\'\\n         </a>\\n        </li>\\n\\t\', escape=False)\n    pass\nresponse.write(\'\\n       </ol>\\n      </li>\\n     </ul>\\n    </div>\\n    <!-- end sidebar -->\\n    <div style="clear: both;">\\n     &nbsp;\\n    </div>\\n   </div>\\n   <!-- end page -->\\n   <!-- start footer -->\\n   <div id="footer">\\n    <div id="footer-wrap">\\n     <p id="legal">\\n       Devansh T Shah, &copy;2013<br/> Design by\\n       CSS Templates\\n     </p>\\n    </div>\\n   </div>\\n   <!-- end footer -->\\n  </div>\\n </body>\\n</html>\\n\', escape=False)'
p7
sS'snapshot'
p8
(dp9
S'exception'
p10
(dp11
S'__hash__'
p12
S"<method-wrapper '__hash__' of exceptions.KeyError object>"
p13
sS'__setattr__'
p14
S"<method-wrapper '__setattr__' of exceptions.KeyError object>"
p15
sS'__reduce_ex__'
p16
S'<built-in method __reduce_ex__ of exceptions.KeyError object>'
p17
sS'__getslice__'
p18
S"<method-wrapper '__getslice__' of exceptions.KeyError object>"
p19
sS'__getitem__'
p20
S"<method-wrapper '__getitem__' of exceptions.KeyError object>"
p21
sS'__setstate__'
p22
S'<built-in method __setstate__ of exceptions.KeyError object>'
p23
sS'args'
p24
S"('Comment',)"
p25
sS'__reduce__'
p26
S'<built-in method __reduce__ of exceptions.KeyError object>'
p27
sS'__str__'
p28
S"<method-wrapper '__str__' of exceptions.KeyError object>"
p29
sS'__format__'
p30
S'<built-in method __format__ of exceptions.KeyError object>'
p31
sS'__getattribute__'
p32
S"<method-wrapper '__getattribute__' of exceptions.KeyError object>"
p33
sS'__class__'
p34
S"<type 'exceptions.KeyError'>"
p35
sS'__unicode__'
p36
S'<built-in method __unicode__ of exceptions.KeyError object>'
p37
sS'__delattr__'
p38
S"<method-wrapper '__delattr__' of exceptions.KeyError object>"
p39
sS'__subclasshook__'
p40
S'<built-in method __subclasshook__ of type object>'
p41
sS'__repr__'
p42
S"<method-wrapper '__repr__' of exceptions.KeyError object>"
p43
sS'__dict__'
p44
S'{}'
p45
sS'__sizeof__'
p46
S'<built-in method __sizeof__ of exceptions.KeyError object>'
p47
sS'__doc__'
p48
S"'Mapping key not found.'"
p49
sS'__init__'
p50
S"<method-wrapper '__init__' of exceptions.KeyError object>"
p51
sS'__new__'
p52
S'<built-in method __new__ of type object>'
p53
ssS'evalue'
p54
S"'Comment'"
p55
sS'request'
p56
ccopy_reg
_reconstructor
p57
(cgluon.html
BEAUTIFY
p58
c__builtin__
object
p59
NtRp60
(dp61
S'attributes'
p62
(dp63
sS'components'
p64
(lp65
g57
(cgluon.html
TABLE
p66
g59
NtRp67
(dp68
g62
(dp69
S'level'
p70
I5
ssS'parent'
p71
Nsg64
(lp72
g57
(cgluon.html
TR
p73
g59
NtRp74
(dp75
g62
(dp76
sg71
g67
sg64
(lp77
g57
(cgluon.html
TD
p78
g59
NtRp79
(dp80
g62
(dp81
S'_style'
p82
S'font-weight:bold;vertical-align:top'
p83
ssg71
g74
sg64
(lp84
S'ajax'
p85
asbag57
(g78
g59
NtRp86
(dp87
g62
(dp88
S'_valign'
p89
S'top'
p90
ssg71
g74
sg64
(lp91
S':'
asbag57
(g78
g59
NtRp92
(dp93
g62
(dp94
sg71
g74
sg64
(lp95
g57
(g58
g59
NtRp96
(dp97
g62
(dp98
g70
I5
ssg71
g92
sg64
(lp99
S'False'
p100
asbasbasbag57
(g73
g59
NtRp101
(dp102
g62
(dp103
sg71
g67
sg64
(lp104
g57
(g78
g59
NtRp105
(dp106
g62
(dp107
g82
g83
ssg71
g101
sg64
(lp108
S'application'
p109
asbag57
(g78
g59
NtRp110
(dp111
g62
(dp112
g89
g90
ssg71
g101
sg64
(lp113
S':'
asbag57
(g78
g59
NtRp114
(dp115
g62
(dp116
sg71
g101
sg64
(lp117
g57
(g58
g59
NtRp118
(dp119
g62
(dp120
g70
I5
ssg71
g114
sg64
(lp121
S'Read_it'
p122
asbasbasbag57
(g73
g59
NtRp123
(dp124
g62
(dp125
sg71
g67
sg64
(lp126
g57
(g78
g59
NtRp127
(dp128
g62
(dp129
g82
g83
ssg71
g123
sg64
(lp130
g24
asbag57
(g78
g59
NtRp131
(dp132
g62
(dp133
g89
g90
ssg71
g123
sg64
(lp134
S':'
asbag57
(g78
g59
NtRp135
(dp136
g62
(dp137
sg71
g123
sg64
(lp138
g57
(g58
g59
NtRp139
(dp140
g62
(dp141
g70
I5
ssg71
g135
sg64
(lp142
g57
(g66
g59
NtRp143
(dp144
g62
(dp145
g70
I4
ssg71
Nsg64
(lp146
g57
(g73
g59
NtRp147
(dp148
g62
(dp149
sg71
g143
sg64
(lp150
g57
(g78
g59
NtRp151
(dp152
g62
(dp153
sg71
g147
sg64
(lp154
g57
(g58
g59
NtRp155
(dp156
g62
(dp157
g70
I4
ssg71
g151
sg64
(lp158
S'4'
asbasbasbasbasbasbasbag57
(g73
g59
NtRp159
(dp160
g62
(dp161
sg71
g67
sg64
(lp162
g57
(g78
g59
NtRp163
(dp164
g62
(dp165
g82
g83
ssg71
g159
sg64
(lp166
S'body'
p167
asbag57
(g78
g59
NtRp168
(dp169
g62
(dp170
g89
g90
ssg71
g159
sg64
(lp171
S':'
asbag57
(g78
g59
NtRp172
(dp173
g62
(dp174
sg71
g159
sg64
(lp175
g57
(g58
g59
NtRp176
(dp177
g62
(dp178
g70
I5
ssg71
g172
sg64
(lp179
S'<cStringIO.StringO object at 0x7fdcc46268f0>'
p180
asbasbasbag57
(g73
g59
NtRp181
(dp182
g62
(dp183
sg71
g67
sg64
(lp184
g57
(g78
g59
NtRp185
(dp186
g62
(dp187
g82
g83
ssg71
g181
sg64
(lp188
S'client'
p189
asbag57
(g78
g59
NtRp190
(dp191
g62
(dp192
g89
g90
ssg71
g181
sg64
(lp193
S':'
asbag57
(g78
g59
NtRp194
(dp195
g62
(dp196
sg71
g181
sg64
(lp197
g57
(g58
g59
NtRp198
(dp199
g62
(dp200
g70
I5
ssg71
g194
sg64
(lp201
S'127.0.0.1'
p202
asbasbasbag57
(g73
g59
NtRp203
(dp204
g62
(dp205
sg71
g67
sg64
(lp206
g57
(g78
g59
NtRp207
(dp208
g62
(dp209
g82
g83
ssg71
g203
sg64
(lp210
S'controller'
p211
asbag57
(g78
g59
NtRp212
(dp213
g62
(dp214
g89
g90
ssg71
g203
sg64
(lp215
S':'
asbag57
(g78
g59
NtRp216
(dp217
g62
(dp218
sg71
g203
sg64
(lp219
g57
(g58
g59
NtRp220
(dp221
g62
(dp222
g70
I5
ssg71
g216
sg64
(lp223
S'default'
p224
asbasbasbag57
(g73
g59
NtRp225
(dp226
g62
(dp227
sg71
g67
sg64
(lp228
g57
(g78
g59
NtRp229
(dp230
g62
(dp231
g82
g83
ssg71
g225
sg64
(lp232
S'cookies'
p233
asbag57
(g78
g59
NtRp234
(dp235
g62
(dp236
g89
g90
ssg71
g225
sg64
(lp237
S':'
asbag57
(g78
g59
NtRp238
(dp239
g62
(dp240
sg71
g225
sg64
(lp241
g57
(g58
g59
NtRp242
(dp243
g62
(dp244
g70
I5
ssg71
g238
sg64
(lp245
g57
(g66
g59
NtRp246
(dp247
g62
(dp248
g70
I4
ssg71
Nsg64
(lp249
g57
(g73
g59
NtRp250
(dp251
g62
(dp252
sg71
g246
sg64
(lp253
g57
(g78
g59
NtRp254
(dp255
g62
(dp256
g82
g83
ssg71
g250
sg64
(lp257
S'session_id_admin'
p258
asbag57
(g78
g59
NtRp259
(dp260
g62
(dp261
g89
g90
ssg71
g250
sg64
(lp262
S':'
asbag57
(g78
g59
NtRp263
(dp264
g62
(dp265
sg71
g250
sg64
(lp266
g57
(g58
g59
NtRp267
(dp268
g62
(dp269
g70
I4
ssg71
g263
sg64
(lp270
g57
(g66
g59
NtRp271
(dp272
g62
(dp273
g70
I3
ssg71
Nsg64
(lp274
g57
(g73
g59
NtRp275
(dp276
g62
(dp277
sg71
g271
sg64
(lp278
g57
(g78
g59
NtRp279
(dp280
g62
(dp281
g82
g83
ssg71
g275
sg64
(lp282
S'comment'
p283
asbag57
(g78
g59
NtRp284
(dp285
g62
(dp286
g89
g90
ssg71
g275
sg64
(lp287
S':'
asbag57
(g78
g59
NtRp288
(dp289
g62
(dp290
sg71
g275
sg64
(lp291
g57
(g58
g59
NtRp292
(dp293
g62
(dp294
g70
I3
ssg71
g288
sg64
(lp295
S''
asbasbasbag57
(g73
g59
NtRp296
(dp297
g62
(dp298
sg71
g271
sg64
(lp299
g57
(g78
g59
NtRp300
(dp301
g62
(dp302
g82
g83
ssg71
g296
sg64
(lp303
S'domain'
p304
asbag57
(g78
g59
NtRp305
(dp306
g62
(dp307
g89
g90
ssg71
g296
sg64
(lp308
S':'
asbag57
(g78
g59
NtRp309
(dp310
g62
(dp311
sg71
g296
sg64
(lp312
g57
(g58
g59
NtRp313
(dp314
g62
(dp315
g70
I3
ssg71
g309
sg64
(lp316
S''
asbasbasbag57
(g73
g59
NtRp317
(dp318
g62
(dp319
sg71
g271
sg64
(lp320
g57
(g78
g59
NtRp321
(dp322
g62
(dp323
g82
g83
ssg71
g317
sg64
(lp324
S'expires'
p325
asbag57
(g78
g59
NtRp326
(dp327
g62
(dp328
g89
g90
ssg71
g317
sg64
(lp329
S':'
asbag57
(g78
g59
NtRp330
(dp331
g62
(dp332
sg71
g317
sg64
(lp333
g57
(g58
g59
NtRp334
(dp335
g62
(dp336
g70
I3
ssg71
g330
sg64
(lp337
S''
asbasbasbag57
(g73
g59
NtRp338
(dp339
g62
(dp340
sg71
g271
sg64
(lp341
g57
(g78
g59
NtRp342
(dp343
g62
(dp344
g82
g83
ssg71
g338
sg64
(lp345
S'httponly'
p346
asbag57
(g78
g59
NtRp347
(dp348
g62
(dp349
g89
g90
ssg71
g338
sg64
(lp350
S':'
asbag57
(g78
g59
NtRp351
(dp352
g62
(dp353
sg71
g338
sg64
(lp354
g57
(g58
g59
NtRp355
(dp356
g62
(dp357
g70
I3
ssg71
g351
sg64
(lp358
S''
asbasbasbag57
(g73
g59
NtRp359
(dp360
g62
(dp361
sg71
g271
sg64
(lp362
g57
(g78
g59
NtRp363
(dp364
g62
(dp365
g82
g83
ssg71
g359
sg64
(lp366
S'max-age'
p367
asbag57
(g78
g59
NtRp368
(dp369
g62
(dp370
g89
g90
ssg71
g359
sg64
(lp371
S':'
asbag57
(g78
g59
NtRp372
(dp373
g62
(dp374
sg71
g359
sg64
(lp375
g57
(g58
g59
NtRp376
(dp377
g62
(dp378
g70
I3
ssg71
g372
sg64
(lp379
S''
asbasbasbag57
(g73
g59
NtRp380
(dp381
g62
(dp382
sg71
g271
sg64
(lp383
g57
(g78
g59
NtRp384
(dp385
g62
(dp386
g82
g83
ssg71
g380
sg64
(lp387
S'path'
p388
asbag57
(g78
g59
NtRp389
(dp390
g62
(dp391
g89
g90
ssg71
g380
sg64
(lp392
S':'
asbag57
(g78
g59
NtRp393
(dp394
g62
(dp395
sg71
g380
sg64
(lp396
g57
(g58
g59
NtRp397
(dp398
g62
(dp399
g70
I3
ssg71
g393
sg64
(lp400
S''
asbasbasbag57
(g73
g59
NtRp401
(dp402
g62
(dp403
sg71
g271
sg64
(lp404
g57
(g78
g59
NtRp405
(dp406
g62
(dp407
g82
g83
ssg71
g401
sg64
(lp408
S'secure'
p409
asbag57
(g78
g59
NtRp410
(dp411
g62
(dp412
g89
g90
ssg71
g401
sg64
(lp413
S':'
asbag57
(g78
g59
NtRp414
(dp415
g62
(dp416
sg71
g401
sg64
(lp417
g57
(g58
g59
NtRp418
(dp419
g62
(dp420
g70
I3
ssg71
g414
sg64
(lp421
S''
asbasbasbag57
(g73
g59
NtRp422
(dp423
g62
(dp424
sg71
g271
sg64
(lp425
g57
(g78
g59
NtRp426
(dp427
g62
(dp428
g82
g83
ssg71
g422
sg64
(lp429
S'version'
p430
asbag57
(g78
g59
NtRp431
(dp432
g62
(dp433
g89
g90
ssg71
g422
sg64
(lp434
S':'
asbag57
(g78
g59
NtRp435
(dp436
g62
(dp437
sg71
g422
sg64
(lp438
g57
(g58
g59
NtRp439
(dp440
g62
(dp441
g70
I3
ssg71
g435
sg64
(lp442
S''
asbasbasbasbasbasbasbag57
(g73
g59
NtRp443
(dp444
g62
(dp445
sg71
g246
sg64
(lp446
g57
(g78
g59
NtRp447
(dp448
g62
(dp449
g82
g83
ssg71
g443
sg64
(lp450
S'session_id_read_it'
p451
asbag57
(g78
g59
NtRp452
(dp453
g62
(dp454
g89
g90
ssg71
g443
sg64
(lp455
S':'
asbag57
(g78
g59
NtRp456
(dp457
g62
(dp458
sg71
g443
sg64
(lp459
g57
(g58
g59
NtRp460
(dp461
g62
(dp462
g70
I4
ssg71
g456
sg64
(lp463
g57
(g66
g59
NtRp464
(dp465
g62
(dp466
g70
I3
ssg71
Nsg64
(lp467
g57
(g73
g59
NtRp468
(dp469
g62
(dp470
sg71
g464
sg64
(lp471
g57
(g78
g59
NtRp472
(dp473
g62
(dp474
g82
g83
ssg71
g468
sg64
(lp475
g283
asbag57
(g78
g59
NtRp476
(dp477
g62
(dp478
g89
g90
ssg71
g468
sg64
(lp479
S':'
asbag57
(g78
g59
NtRp480
(dp481
g62
(dp482
sg71
g468
sg64
(lp483
g57
(g58
g59
NtRp484
(dp485
g62
(dp486
g70
I3
ssg71
g480
sg64
(lp487
S''
asbasbasbag57
(g73
g59
NtRp488
(dp489
g62
(dp490
sg71
g464
sg64
(lp491
g57
(g78
g59
NtRp492
(dp493
g62
(dp494
g82
g83
ssg71
g488
sg64
(lp495
g304
asbag57
(g78
g59
NtRp496
(dp497
g62
(dp498
g89
g90
ssg71
g488
sg64
(lp499
S':'
asbag57
(g78
g59
NtRp500
(dp501
g62
(dp502
sg71
g488
sg64
(lp503
g57
(g58
g59
NtRp504
(dp505
g62
(dp506
g70
I3
ssg71
g500
sg64
(lp507
S''
asbasbasbag57
(g73
g59
NtRp508
(dp509
g62
(dp510
sg71
g464
sg64
(lp511
g57
(g78
g59
NtRp512
(dp513
g62
(dp514
g82
g83
ssg71
g508
sg64
(lp515
g325
asbag57
(g78
g59
NtRp516
(dp517
g62
(dp518
g89
g90
ssg71
g508
sg64
(lp519
S':'
asbag57
(g78
g59
NtRp520
(dp521
g62
(dp522
sg71
g508
sg64
(lp523
g57
(g58
g59
NtRp524
(dp525
g62
(dp526
g70
I3
ssg71
g520
sg64
(lp527
S''
asbasbasbag57
(g73
g59
NtRp528
(dp529
g62
(dp530
sg71
g464
sg64
(lp531
g57
(g78
g59
NtRp532
(dp533
g62
(dp534
g82
g83
ssg71
g528
sg64
(lp535
g346
asbag57
(g78
g59
NtRp536
(dp537
g62
(dp538
g89
g90
ssg71
g528
sg64
(lp539
S':'
asbag57
(g78
g59
NtRp540
(dp541
g62
(dp542
sg71
g528
sg64
(lp543
g57
(g58
g59
NtRp544
(dp545
g62
(dp546
g70
I3
ssg71
g540
sg64
(lp547
S''
asbasbasbag57
(g73
g59
NtRp548
(dp549
g62
(dp550
sg71
g464
sg64
(lp551
g57
(g78
g59
NtRp552
(dp553
g62
(dp554
g82
g83
ssg71
g548
sg64
(lp555
g367
asbag57
(g78
g59
NtRp556
(dp557
g62
(dp558
g89
g90
ssg71
g548
sg64
(lp559
S':'
asbag57
(g78
g59
NtRp560
(dp561
g62
(dp562
sg71
g548
sg64
(lp563
g57
(g58
g59
NtRp564
(dp565
g62
(dp566
g70
I3
ssg71
g560
sg64
(lp567
S''
asbasbasbag57
(g73
g59
NtRp568
(dp569
g62
(dp570
sg71
g464
sg64
(lp571
g57
(g78
g59
NtRp572
(dp573
g62
(dp574
g82
g83
ssg71
g568
sg64
(lp575
g388
asbag57
(g78
g59
NtRp576
(dp577
g62
(dp578
g89
g90
ssg71
g568
sg64
(lp579
S':'
asbag57
(g78
g59
NtRp580
(dp581
g62
(dp582
sg71
g568
sg64
(lp583
g57
(g58
g59
NtRp584
(dp585
g62
(dp586
g70
I3
ssg71
g580
sg64
(lp587
S''
asbasbasbag57
(g73
g59
NtRp588
(dp589
g62
(dp590
sg71
g464
sg64
(lp591
g57
(g78
g59
NtRp592
(dp593
g62
(dp594
g82
g83
ssg71
g588
sg64
(lp595
g409
asbag57
(g78
g59
NtRp596
(dp597
g62
(dp598
g89
g90
ssg71
g588
sg64
(lp599
S':'
asbag57
(g78
g59
NtRp600
(dp601
g62
(dp602
sg71
g588
sg64
(lp603
g57
(g58
g59
NtRp604
(dp605
g62
(dp606
g70
I3
ssg71
g600
sg64
(lp607
S''
asbasbasbag57
(g73
g59
NtRp608
(dp609
g62
(dp610
sg71
g464
sg64
(lp611
g57
(g78
g59
NtRp612
(dp613
g62
(dp614
g82
g83
ssg71
g608
sg64
(lp615
g430
asbag57
(g78
g59
NtRp616
(dp617
g62
(dp618
g89
g90
ssg71
g608
sg64
(lp619
S':'
asbag57
(g78
g59
NtRp620
(dp621
g62
(dp622
sg71
g608
sg64
(lp623
g57
(g58
g59
NtRp624
(dp625
g62
(dp626
g70
I3
ssg71
g620
sg64
(lp627
S''
asbasbasbasbasbasbasbasbasbasbasbag57
(g73
g59
NtRp628
(dp629
g62
(dp630
sg71
g67
sg64
(lp631
g57
(g78
g59
NtRp632
(dp633
g62
(dp634
g82
g83
ssg71
g628
sg64
(lp635
S'env'
p636
asbag57
(g78
g59
NtRp637
(dp638
g62
(dp639
g89
g90
ssg71
g628
sg64
(lp640
S':'
asbag57
(g78
g59
NtRp641
(dp642
g62
(dp643
sg71
g628
sg64
(lp644
g57
(g58
g59
NtRp645
(dp646
g62
(dp647
g70
I5
ssg71
g641
sg64
(lp648
g57
(g66
g59
NtRp649
(dp650
g62
(dp651
g70
I4
ssg71
Nsg64
(lp652
g57
(g73
g59
NtRp653
(dp654
g62
(dp655
sg71
g649
sg64
(lp656
g57
(g78
g59
NtRp657
(dp658
g62
(dp659
g82
g83
ssg71
g653
sg64
(lp660
S'app_folders'
p661
asbag57
(g78
g59
NtRp662
(dp663
g62
(dp664
g89
g90
ssg71
g653
sg64
(lp665
S':'
asbag57
(g78
g59
NtRp666
(dp667
g62
(dp668
sg71
g653
sg64
(lp669
g57
(g58
g59
NtRp670
(dp671
g62
(dp672
g70
I4
ssg71
g666
sg64
(lp673
S"set(['/home/ds-iiit/web2py/applications/Read_it/', '/home/ds-iiit/web2py/applications/welcome/', '/home/ds-iiit/web2py/applications/admin/'])"
p674
asbasbasbag57
(g73
g59
NtRp675
(dp676
g62
(dp677
sg71
g649
sg64
(lp678
g57
(g78
g59
NtRp679
(dp680
g62
(dp681
g82
g83
ssg71
g675
sg64
(lp682
S'applications_parent'
p683
asbag57
(g78
g59
NtRp684
(dp685
g62
(dp686
g89
g90
ssg71
g675
sg64
(lp687
S':'
asbag57
(g78
g59
NtRp688
(dp689
g62
(dp690
sg71
g675
sg64
(lp691
g57
(g58
g59
NtRp692
(dp693
g62
(dp694
g70
I4
ssg71
g688
sg64
(lp695
S'/home/ds-iiit/web2py'
p696
asbasbasbag57
(g73
g59
NtRp697
(dp698
g62
(dp699
sg71
g649
sg64
(lp700
g57
(g78
g59
NtRp701
(dp702
g62
(dp703
g82
g83
ssg71
g697
sg64
(lp704
S'cmd_args'
p705
asbag57
(g78
g59
NtRp706
(dp707
g62
(dp708
g89
g90
ssg71
g697
sg64
(lp709
S':'
asbag57
(g78
g59
NtRp710
(dp711
g62
(dp712
sg71
g697
sg64
(lp713
g57
(g58
g59
NtRp714
(dp715
g62
(dp716
g70
I4
ssg71
g710
sg64
(lp717
g57
(g66
g59
NtRp718
(dp719
g62
(dp720
g70
I3
ssg71
Nsg64
(lp721
sbasbasbasbag57
(g73
g59
NtRp722
(dp723
g62
(dp724
sg71
g649
sg64
(lp725
g57
(g78
g59
NtRp726
(dp727
g62
(dp728
g82
g83
ssg71
g722
sg64
(lp729
S'cmd_options'
p730
asbag57
(g78
g59
NtRp731
(dp732
g62
(dp733
g89
g90
ssg71
g722
sg64
(lp734
S':'
asbag57
(g78
g59
NtRp735
(dp736
g62
(dp737
sg71
g722
sg64
(lp738
g57
(g58
g59
NtRp739
(dp740
g62
(dp741
g70
I4
ssg71
g735
sg64
(lp742
S"<Values at 0x2adbb00: {'verbose': False, 'ip': '127.0.0.1', 'shutdown_timeout': 5, 'taskbar': False, 'port': 8000, 'maxthreads': None, 'softcron': False, 'server_name': 'DS-IIIT', 'bpython': False, 'nogui': False, 'nocron': False, 'extcron': False, 'debuglevel': 30, 'test': None, 'folder': '/home/ds-iiit/web2py', 'config': '', 'import_models': False, 'winservice': '', 'shell': None, 'run': '', 'log_filename': 'httpserver.log', 'args': [''], 'socket_timeout': 1, 'profiler_filename': None, 'ssl_private_key': '', 'password': '<ask>', 'request_queue_size': 5, 'ssl_certificate': '', 'cronjob': False, 'plain': False, 'quiet': False, 'interfaces': None, 'minthreads': None, 'timeout': 10, 'numthreads': None, 'nobanner': False, 'pid_filename': 'httpserver.pid'}>"
p743
asbasbasbag57
(g73
g59
NtRp744
(dp745
g62
(dp746
sg71
g649
sg64
(lp747
g57
(g78
g59
NtRp748
(dp749
g62
(dp750
g82
g83
ssg71
g744
sg64
(lp751
S'db_sessions'
p752
asbag57
(g78
g59
NtRp753
(dp754
g62
(dp755
g89
g90
ssg71
g744
sg64
(lp756
S':'
asbag57
(g78
g59
NtRp757
(dp758
g62
(dp759
sg71
g744
sg64
(lp760
g57
(g58
g59
NtRp761
(dp762
g62
(dp763
g70
I4
ssg71
g757
sg64
(lp764
S'set([])'
p765
asbasbasbag57
(g73
g59
NtRp766
(dp767
g62
(dp768
sg71
g649
sg64
(lp769
g57
(g78
g59
NtRp770
(dp771
g62
(dp772
g82
g83
ssg71
g766
sg64
(lp773
S'debugging'
p774
asbag57
(g78
g59
NtRp775
(dp776
g62
(dp777
g89
g90
ssg71
g766
sg64
(lp778
S':'
asbag57
(g78
g59
NtRp779
(dp780
g62
(dp781
sg71
g766
sg64
(lp782
g57
(g58
g59
NtRp783
(dp784
g62
(dp785
g70
I4
ssg71
g779
sg64
(lp786
g100
asbasbasbag57
(g73
g59
NtRp787
(dp788
g62
(dp789
sg71
g649
sg64
(lp790
g57
(g78
g59
NtRp791
(dp792
g62
(dp793
g82
g83
ssg71
g787
sg64
(lp794
S'gluon_parent'
p795
asbag57
(g78
g59
NtRp796
(dp797
g62
(dp798
g89
g90
ssg71
g787
sg64
(lp799
S':'
asbag57
(g78
g59
NtRp800
(dp801
g62
(dp802
sg71
g787
sg64
(lp803
g57
(g58
g59
NtRp804
(dp805
g62
(dp806
g70
I4
ssg71
g800
sg64
(lp807
S'/usr/share/web2py'
p808
asbasbasbag57
(g73
g59
NtRp809
(dp810
g62
(dp811
sg71
g649
sg64
(lp812
g57
(g78
g59
NtRp813
(dp814
g62
(dp815
g82
g83
ssg71
g809
sg64
(lp816
S'http_accept'
p817
asbag57
(g78
g59
NtRp818
(dp819
g62
(dp820
g89
g90
ssg71
g809
sg64
(lp821
S':'
asbag57
(g78
g59
NtRp822
(dp823
g62
(dp824
sg71
g809
sg64
(lp825
g57
(g58
g59
NtRp826
(dp827
g62
(dp828
g70
I4
ssg71
g822
sg64
(lp829
S'text/html,application/xhtml+xml,application/xml;q=0.9,*/*;q=0.8'
p830
asbasbasbag57
(g73
g59
NtRp831
(dp832
g62
(dp833
sg71
g649
sg64
(lp834
g57
(g78
g59
NtRp835
(dp836
g62
(dp837
g82
g83
ssg71
g831
sg64
(lp838
S'http_accept_encoding'
p839
asbag57
(g78
g59
NtRp840
(dp841
g62
(dp842
g89
g90
ssg71
g831
sg64
(lp843
S':'
asbag57
(g78
g59
NtRp844
(dp845
g62
(dp846
sg71
g831
sg64
(lp847
g57
(g58
g59
NtRp848
(dp849
g62
(dp850
g70
I4
ssg71
g844
sg64
(lp851
S'gzip, deflate'
p852
asbasbasbag57
(g73
g59
NtRp853
(dp854
g62
(dp855
sg71
g649
sg64
(lp856
g57
(g78
g59
NtRp857
(dp858
g62
(dp859
g82
g83
ssg71
g853
sg64
(lp860
S'http_accept_language'
p861
asbag57
(g78
g59
NtRp862
(dp863
g62
(dp864
g89
g90
ssg71
g853
sg64
(lp865
S':'
asbag57
(g78
g59
NtRp866
(dp867
g62
(dp868
sg71
g853
sg64
(lp869
g57
(g58
g59
NtRp870
(dp871
g62
(dp872
g70
I4
ssg71
g866
sg64
(lp873
S'en-US,en;q=0.5'
p874
asbasbasbag57
(g73
g59
NtRp875
(dp876
g62
(dp877
sg71
g649
sg64
(lp878
g57
(g78
g59
NtRp879
(dp880
g62
(dp881
g82
g83
ssg71
g875
sg64
(lp882
S'http_cache_control'
p883
asbag57
(g78
g59
NtRp884
(dp885
g62
(dp886
g89
g90
ssg71
g875
sg64
(lp887
S':'
asbag57
(g78
g59
NtRp888
(dp889
g62
(dp890
sg71
g875
sg64
(lp891
g57
(g58
g59
NtRp892
(dp893
g62
(dp894
g70
I4
ssg71
g888
sg64
(lp895
S'max-age=0'
p896
asbasbasbag57
(g73
g59
NtRp897
(dp898
g62
(dp899
sg71
g649
sg64
(lp900
g57
(g78
g59
NtRp901
(dp902
g62
(dp903
g82
g83
ssg71
g897
sg64
(lp904
S'http_connection'
p905
asbag57
(g78
g59
NtRp906
(dp907
g62
(dp908
g89
g90
ssg71
g897
sg64
(lp909
S':'
asbag57
(g78
g59
NtRp910
(dp911
g62
(dp912
sg71
g897
sg64
(lp913
g57
(g58
g59
NtRp914
(dp915
g62
(dp916
g70
I4
ssg71
g910
sg64
(lp917
S'keep-alive'
p918
asbasbasbag57
(g73
g59
NtRp919
(dp920
g62
(dp921
sg71
g649
sg64
(lp922
g57
(g78
g59
NtRp923
(dp924
g62
(dp925
g82
g83
ssg71
g919
sg64
(lp926
S'http_cookie'
p927
asbag57
(g78
g59
NtRp928
(dp929
g62
(dp930
g89
g90
ssg71
g919
sg64
(lp931
S':'
asbag57
(g78
g59
NtRp932
(dp933
g62
(dp934
sg71
g919
sg64
(lp935
g57
(g58
g59
NtRp936
(dp937
g62
(dp938
g70
I4
ssg71
g932
sg64
(lp939
S'session_id_read_it=127.0.0.1-3b306805-b0b8-4f0a-8f0e-2c710fd6d755; session_id_admin=127.0.0.1-b0d414bb-449e-4a00-b0e1-47ca5bec38b4'
p940
asbasbasbag57
(g73
g59
NtRp941
(dp942
g62
(dp943
sg71
g649
sg64
(lp944
g57
(g78
g59
NtRp945
(dp946
g62
(dp947
g82
g83
ssg71
g941
sg64
(lp948
S'http_host'
p949
asbag57
(g78
g59
NtRp950
(dp951
g62
(dp952
g89
g90
ssg71
g941
sg64
(lp953
S':'
asbag57
(g78
g59
NtRp954
(dp955
g62
(dp956
sg71
g941
sg64
(lp957
g57
(g58
g59
NtRp958
(dp959
g62
(dp960
g70
I4
ssg71
g954
sg64
(lp961
S'127.0.0.1:8001'
p962
asbasbasbag57
(g73
g59
NtRp963
(dp964
g62
(dp965
sg71
g649
sg64
(lp966
g57
(g78
g59
NtRp967
(dp968
g62
(dp969
g82
g83
ssg71
g963
sg64
(lp970
S'http_user_agent'
p971
asbag57
(g78
g59
NtRp972
(dp973
g62
(dp974
g89
g90
ssg71
g963
sg64
(lp975
S':'
asbag57
(g78
g59
NtRp976
(dp977
g62
(dp978
sg71
g963
sg64
(lp979
g57
(g58
g59
NtRp980
(dp981
g62
(dp982
g70
I4
ssg71
g976
sg64
(lp983
S'Mozilla/5.0 (X11; Ubuntu; Linux x86_64; rv:23.0) Gecko/20100101 Firefox/23.0'
p984
asbasbasbag57
(g73
g59
NtRp985
(dp986
g62
(dp987
sg71
g649
sg64
(lp988
g57
(g78
g59
NtRp989
(dp990
g62
(dp991
g82
g83
ssg71
g985
sg64
(lp992
S'is_jython'
p993
asbag57
(g78
g59
NtRp994
(dp995
g62
(dp996
g89
g90
ssg71
g985
sg64
(lp997
S':'
asbag57
(g78
g59
NtRp998
(dp999
g62
(dp1000
sg71
g985
sg64
(lp1001
g57
(g58
g59
NtRp1002
(dp1003
g62
(dp1004
g70
I4
ssg71
g998
sg64
(lp1005
g100
asbasbasbag57
(g73
g59
NtRp1006
(dp1007
g62
(dp1008
sg71
g649
sg64
(lp1009
g57
(g78
g59
NtRp1010
(dp1011
g62
(dp1012
g82
g83
ssg71
g1006
sg64
(lp1013
S'is_pypy'
p1014
asbag57
(g78
g59
NtRp1015
(dp1016
g62
(dp1017
g89
g90
ssg71
g1006
sg64
(lp1018
S':'
asbag57
(g78
g59
NtRp1019
(dp1020
g62
(dp1021
sg71
g1006
sg64
(lp1022
g57
(g58
g59
NtRp1023
(dp1024
g62
(dp1025
g70
I4
ssg71
g1019
sg64
(lp1026
g100
asbasbasbag57
(g73
g59
NtRp1027
(dp1028
g62
(dp1029
sg71
g649
sg64
(lp1030
g57
(g78
g59
NtRp1031
(dp1032
g62
(dp1033
g82
g83
ssg71
g1027
sg64
(lp1034
S'path_info'
p1035
asbag57
(g78
g59
NtRp1036
(dp1037
g62
(dp1038
g89
g90
ssg71
g1027
sg64
(lp1039
S':'
asbag57
(g78
g59
NtRp1040
(dp1041
g62
(dp1042
sg71
g1027
sg64
(lp1043
g57
(g58
g59
NtRp1044
(dp1045
g62
(dp1046
g70
I4
ssg71
g1040
sg64
(lp1047
S'/Read_it/default/comments/4'
p1048
asbasbasbag57
(g73
g59
NtRp1049
(dp1050
g62
(dp1051
sg71
g649
sg64
(lp1052
g57
(g78
g59
NtRp1053
(dp1054
g62
(dp1055
g82
g83
ssg71
g1049
sg64
(lp1056
S'query_string'
p1057
asbag57
(g78
g59
NtRp1058
(dp1059
g62
(dp1060
g89
g90
ssg71
g1049
sg64
(lp1061
S':'
asbag57
(g78
g59
NtRp1062
(dp1063
g62
(dp1064
sg71
g1049
sg64
(lp1065
g57
(g58
g59
NtRp1066
(dp1067
g62
(dp1068
g70
I4
ssg71
g1062
sg64
(lp1069
S''
asbasbasbag57
(g73
g59
NtRp1070
(dp1071
g62
(dp1072
sg71
g649
sg64
(lp1073
g57
(g78
g59
NtRp1074
(dp1075
g62
(dp1076
g82
g83
ssg71
g1070
sg64
(lp1077
S'remote_addr'
p1078
asbag57
(g78
g59
NtRp1079
(dp1080
g62
(dp1081
g89
g90
ssg71
g1070
sg64
(lp1082
S':'
asbag57
(g78
g59
NtRp1083
(dp1084
g62
(dp1085
sg71
g1070
sg64
(lp1086
g57
(g58
g59
NtRp1087
(dp1088
g62
(dp1089
g70
I4
ssg71
g1083
sg64
(lp1090
g202
asbasbasbag57
(g73
g59
NtRp1091
(dp1092
g62
(dp1093
sg71
g649
sg64
(lp1094
g57
(g78
g59
NtRp1095
(dp1096
g62
(dp1097
g82
g83
ssg71
g1091
sg64
(lp1098
S'remote_port'
p1099
asbag57
(g78
g59
NtRp1100
(dp1101
g62
(dp1102
g89
g90
ssg71
g1091
sg64
(lp1103
S':'
asbag57
(g78
g59
NtRp1104
(dp1105
g62
(dp1106
sg71
g1091
sg64
(lp1107
g57
(g58
g59
NtRp1108
(dp1109
g62
(dp1110
g70
I4
ssg71
g1104
sg64
(lp1111
S'36905'
p1112
asbasbasbag57
(g73
g59
NtRp1113
(dp1114
g62
(dp1115
sg71
g649
sg64
(lp1116
g57
(g78
g59
NtRp1117
(dp1118
g62
(dp1119
g82
g83
ssg71
g1113
sg64
(lp1120
S'request_method'
p1121
asbag57
(g78
g59
NtRp1122
(dp1123
g62
(dp1124
g89
g90
ssg71
g1113
sg64
(lp1125
S':'
asbag57
(g78
g59
NtRp1126
(dp1127
g62
(dp1128
sg71
g1113
sg64
(lp1129
g57
(g58
g59
NtRp1130
(dp1131
g62
(dp1132
g70
I4
ssg71
g1126
sg64
(lp1133
S'GET'
p1134
asbasbasbag57
(g73
g59
NtRp1135
(dp1136
g62
(dp1137
sg71
g649
sg64
(lp1138
g57
(g78
g59
NtRp1139
(dp1140
g62
(dp1141
g82
g83
ssg71
g1135
sg64
(lp1142
S'script_name'
p1143
asbag57
(g78
g59
NtRp1144
(dp1145
g62
(dp1146
g89
g90
ssg71
g1135
sg64
(lp1147
S':'
asbag57
(g78
g59
NtRp1148
(dp1149
g62
(dp1150
sg71
g1135
sg64
(lp1151
g57
(g58
g59
NtRp1152
(dp1153
g62
(dp1154
g70
I4
ssg71
g1148
sg64
(lp1155
S''
asbasbasbag57
(g73
g59
NtRp1156
(dp1157
g62
(dp1158
sg71
g649
sg64
(lp1159
g57
(g78
g59
NtRp1160
(dp1161
g62
(dp1162
g82
g83
ssg71
g1156
sg64
(lp1163
S'server_name'
p1164
asbag57
(g78
g59
NtRp1165
(dp1166
g62
(dp1167
g89
g90
ssg71
g1156
sg64
(lp1168
S':'
asbag57
(g78
g59
NtRp1169
(dp1170
g62
(dp1171
sg71
g1156
sg64
(lp1172
g57
(g58
g59
NtRp1173
(dp1174
g62
(dp1175
g70
I4
ssg71
g1169
sg64
(lp1176
S'DS-IIIT'
p1177
asbasbasbag57
(g73
g59
NtRp1178
(dp1179
g62
(dp1180
sg71
g649
sg64
(lp1181
g57
(g78
g59
NtRp1182
(dp1183
g62
(dp1184
g82
g83
ssg71
g1178
sg64
(lp1185
S'server_port'
p1186
asbag57
(g78
g59
NtRp1187
(dp1188
g62
(dp1189
g89
g90
ssg71
g1178
sg64
(lp1190
S':'
asbag57
(g78
g59
NtRp1191
(dp1192
g62
(dp1193
sg71
g1178
sg64
(lp1194
g57
(g58
g59
NtRp1195
(dp1196
g62
(dp1197
g70
I4
ssg71
g1191
sg64
(lp1198
S'8001'
p1199
asbasbasbag57
(g73
g59
NtRp1200
(dp1201
g62
(dp1202
sg71
g649
sg64
(lp1203
g57
(g78
g59
NtRp1204
(dp1205
g62
(dp1206
g82
g83
ssg71
g1200
sg64
(lp1207
S'server_protocol'
p1208
asbag57
(g78
g59
NtRp1209
(dp1210
g62
(dp1211
g89
g90
ssg71
g1200
sg64
(lp1212
S':'
asbag57
(g78
g59
NtRp1213
(dp1214
g62
(dp1215
sg71
g1200
sg64
(lp1216
g57
(g58
g59
NtRp1217
(dp1218
g62
(dp1219
g70
I4
ssg71
g1213
sg64
(lp1220
S'HTTP/1.1'
p1221
asbasbasbag57
(g73
g59
NtRp1222
(dp1223
g62
(dp1224
sg71
g649
sg64
(lp1225
g57
(g78
g59
NtRp1226
(dp1227
g62
(dp1228
g82
g83
ssg71
g1222
sg64
(lp1229
S'server_software'
p1230
asbag57
(g78
g59
NtRp1231
(dp1232
g62
(dp1233
g89
g90
ssg71
g1222
sg64
(lp1234
S':'
asbag57
(g78
g59
NtRp1235
(dp1236
g62
(dp1237
sg71
g1222
sg64
(lp1238
g57
(g58
g59
NtRp1239
(dp1240
g62
(dp1241
g70
I4
ssg71
g1235
sg64
(lp1242
S'Rocket 1.2.4'
p1243
asbasbasbag57
(g73
g59
NtRp1244
(dp1245
g62
(dp1246
sg71
g649
sg64
(lp1247
g57
(g78
g59
NtRp1248
(dp1249
g62
(dp1250
g82
g83
ssg71
g1244
sg64
(lp1251
S'web2py_crontype'
p1252
asbag57
(g78
g59
NtRp1253
(dp1254
g62
(dp1255
g89
g90
ssg71
g1244
sg64
(lp1256
S':'
asbag57
(g78
g59
NtRp1257
(dp1258
g62
(dp1259
sg71
g1244
sg64
(lp1260
g57
(g58
g59
NtRp1261
(dp1262
g62
(dp1263
g70
I4
ssg71
g1257
sg64
(lp1264
S'hard'
p1265
asbasbasbag57
(g73
g59
NtRp1266
(dp1267
g62
(dp1268
sg71
g649
sg64
(lp1269
g57
(g78
g59
NtRp1270
(dp1271
g62
(dp1272
g82
g83
ssg71
g1266
sg64
(lp1273
S'web2py_path'
p1274
asbag57
(g78
g59
NtRp1275
(dp1276
g62
(dp1277
g89
g90
ssg71
g1266
sg64
(lp1278
S':'
asbag57
(g78
g59
NtRp1279
(dp1280
g62
(dp1281
sg71
g1266
sg64
(lp1282
g57
(g58
g59
NtRp1283
(dp1284
g62
(dp1285
g70
I4
ssg71
g1279
sg64
(lp1286
g696
asbasbasbag57
(g73
g59
NtRp1287
(dp1288
g62
(dp1289
sg71
g649
sg64
(lp1290
g57
(g78
g59
NtRp1291
(dp1292
g62
(dp1293
g82
g83
ssg71
g1287
sg64
(lp1294
S'web2py_version'
p1295
asbag57
(g78
g59
NtRp1296
(dp1297
g62
(dp1298
g89
g90
ssg71
g1287
sg64
(lp1299
S':'
asbag57
(g78
g59
NtRp1300
(dp1301
g62
(dp1302
sg71
g1287
sg64
(lp1303
g57
(g58
g59
NtRp1304
(dp1305
g62
(dp1306
g70
I4
ssg71
g1300
sg64
(lp1307
g57
(g66
g59
NtRp1308
(dp1309
g62
(dp1310
g70
I3
ssg71
Nsg64
(lp1311
g57
(g73
g59
NtRp1312
(dp1313
g62
(dp1314
sg71
g1308
sg64
(lp1315
g57
(g78
g59
NtRp1316
(dp1317
g62
(dp1318
sg71
g1312
sg64
(lp1319
g57
(g58
g59
NtRp1320
(dp1321
g62
(dp1322
g70
I3
ssg71
g1316
sg64
(lp1323
S'1'
asbasbasbag57
(g73
g59
NtRp1324
(dp1325
g62
(dp1326
sg71
g1308
sg64
(lp1327
g57
(g78
g59
NtRp1328
(dp1329
g62
(dp1330
sg71
g1324
sg64
(lp1331
g57
(g58
g59
NtRp1332
(dp1333
g62
(dp1334
g70
I3
ssg71
g1328
sg64
(lp1335
S'99'
p1336
asbasbasbag57
(g73
g59
NtRp1337
(dp1338
g62
(dp1339
sg71
g1308
sg64
(lp1340
g57
(g78
g59
NtRp1341
(dp1342
g62
(dp1343
sg71
g1337
sg64
(lp1344
g57
(g58
g59
NtRp1345
(dp1346
g62
(dp1347
g70
I3
ssg71
g1341
sg64
(lp1348
S'4'
asbasbasbag57
(g73
g59
NtRp1349
(dp1350
g62
(dp1351
sg71
g1308
sg64
(lp1352
g57
(g78
g59
NtRp1353
(dp1354
g62
(dp1355
sg71
g1349
sg64
(lp1356
g57
(g58
g59
NtRp1357
(dp1358
g62
(dp1359
g70
I3
ssg71
g1353
sg64
(lp1360
S'datetime.datetime(2011, 12, 14, 14, 46, 14)'
p1361
asbasbasbag57
(g73
g59
NtRp1362
(dp1363
g62
(dp1364
sg71
g1308
sg64
(lp1365
g57
(g78
g59
NtRp1366
(dp1367
g62
(dp1368
sg71
g1362
sg64
(lp1369
g57
(g58
g59
NtRp1370
(dp1371
g62
(dp1372
g70
I3
ssg71
g1366
sg64
(lp1373
S'stable'
p1374
asbasbasbasbasbasbasbag57
(g73
g59
NtRp1375
(dp1376
g62
(dp1377
sg71
g649
sg64
(lp1378
g57
(g78
g59
NtRp1379
(dp1380
g62
(dp1381
g82
g83
ssg71
g1375
sg64
(lp1382
S'wsgi_errors'
p1383
asbag57
(g78
g59
NtRp1384
(dp1385
g62
(dp1386
g89
g90
ssg71
g1375
sg64
(lp1387
S':'
asbag57
(g78
g59
NtRp1388
(dp1389
g62
(dp1390
sg71
g1375
sg64
(lp1391
g57
(g58
g59
NtRp1392
(dp1393
g62
(dp1394
g70
I4
ssg71
g1388
sg64
(lp1395
S"<open file '<stderr>', mode 'w' at 0x7fdd14f50270>"
p1396
asbasbasbag57
(g73
g59
NtRp1397
(dp1398
g62
(dp1399
sg71
g649
sg64
(lp1400
g57
(g78
g59
NtRp1401
(dp1402
g62
(dp1403
g82
g83
ssg71
g1397
sg64
(lp1404
S'wsgi_file_wrapper'
p1405
asbag57
(g78
g59
NtRp1406
(dp1407
g62
(dp1408
g89
g90
ssg71
g1397
sg64
(lp1409
S':'
asbag57
(g78
g59
NtRp1410
(dp1411
g62
(dp1412
sg71
g1397
sg64
(lp1413
g57
(g58
g59
NtRp1414
(dp1415
g62
(dp1416
g70
I4
ssg71
g1410
sg64
(lp1417
S'<class wsgiref.util.FileWrapper at 0x2a06530>'
p1418
asbasbasbag57
(g73
g59
NtRp1419
(dp1420
g62
(dp1421
sg71
g649
sg64
(lp1422
g57
(g78
g59
NtRp1423
(dp1424
g62
(dp1425
g82
g83
ssg71
g1419
sg64
(lp1426
S'wsgi_input'
p1427
asbag57
(g78
g59
NtRp1428
(dp1429
g62
(dp1430
g89
g90
ssg71
g1419
sg64
(lp1431
S':'
asbag57
(g78
g59
NtRp1432
(dp1433
g62
(dp1434
sg71
g1419
sg64
(lp1435
g57
(g58
g59
NtRp1436
(dp1437
g62
(dp1438
g70
I4
ssg71
g1432
sg64
(lp1439
S'<socket._fileobject object at 0x7fdcc864cdd0>'
p1440
asbasbasbag57
(g73
g59
NtRp1441
(dp1442
g62
(dp1443
sg71
g649
sg64
(lp1444
g57
(g78
g59
NtRp1445
(dp1446
g62
(dp1447
g82
g83
ssg71
g1441
sg64
(lp1448
S'wsgi_multiprocess'
p1449
asbag57
(g78
g59
NtRp1450
(dp1451
g62
(dp1452
g89
g90
ssg71
g1441
sg64
(lp1453
S':'
asbag57
(g78
g59
NtRp1454
(dp1455
g62
(dp1456
sg71
g1441
sg64
(lp1457
g57
(g58
g59
NtRp1458
(dp1459
g62
(dp1460
g70
I4
ssg71
g1454
sg64
(lp1461
g100
asbasbasbag57
(g73
g59
NtRp1462
(dp1463
g62
(dp1464
sg71
g649
sg64
(lp1465
g57
(g78
g59
NtRp1466
(dp1467
g62
(dp1468
g82
g83
ssg71
g1462
sg64
(lp1469
S'wsgi_multithread'
p1470
asbag57
(g78
g59
NtRp1471
(dp1472
g62
(dp1473
g89
g90
ssg71
g1462
sg64
(lp1474
S':'
asbag57
(g78
g59
NtRp1475
(dp1476
g62
(dp1477
sg71
g1462
sg64
(lp1478
g57
(g58
g59
NtRp1479
(dp1480
g62
(dp1481
g70
I4
ssg71
g1475
sg64
(lp1482
S'True'
p1483
asbasbasbag57
(g73
g59
NtRp1484
(dp1485
g62
(dp1486
sg71
g649
sg64
(lp1487
g57
(g78
g59
NtRp1488
(dp1489
g62
(dp1490
g82
g83
ssg71
g1484
sg64
(lp1491
S'wsgi_run_once'
p1492
asbag57
(g78
g59
NtRp1493
(dp1494
g62
(dp1495
g89
g90
ssg71
g1484
sg64
(lp1496
S':'
asbag57
(g78
g59
NtRp1497
(dp1498
g62
(dp1499
sg71
g1484
sg64
(lp1500
g57
(g58
g59
NtRp1501
(dp1502
g62
(dp1503
g70
I4
ssg71
g1497
sg64
(lp1504
g100
asbasbasbag57
(g73
g59
NtRp1505
(dp1506
g62
(dp1507
sg71
g649
sg64
(lp1508
g57
(g78
g59
NtRp1509
(dp1510
g62
(dp1511
g82
g83
ssg71
g1505
sg64
(lp1512
S'wsgi_url_scheme'
p1513
asbag57
(g78
g59
NtRp1514
(dp1515
g62
(dp1516
g89
g90
ssg71
g1505
sg64
(lp1517
S':'
asbag57
(g78
g59
NtRp1518
(dp1519
g62
(dp1520
sg71
g1505
sg64
(lp1521
g57
(g58
g59
NtRp1522
(dp1523
g62
(dp1524
g70
I4
ssg71
g1518
sg64
(lp1525
S'http'
p1526
asbasbasbag57
(g73
g59
NtRp1527
(dp1528
g62
(dp1529
sg71
g649
sg64
(lp1530
g57
(g78
g59
NtRp1531
(dp1532
g62
(dp1533
g82
g83
ssg71
g1527
sg64
(lp1534
S'wsgi_version'
p1535
asbag57
(g78
g59
NtRp1536
(dp1537
g62
(dp1538
g89
g90
ssg71
g1527
sg64
(lp1539
S':'
asbag57
(g78
g59
NtRp1540
(dp1541
g62
(dp1542
sg71
g1527
sg64
(lp1543
g57
(g58
g59
NtRp1544
(dp1545
g62
(dp1546
g70
I4
ssg71
g1540
sg64
(lp1547
g57
(g66
g59
NtRp1548
(dp1549
g62
(dp1550
g70
I3
ssg71
Nsg64
(lp1551
g57
(g73
g59
NtRp1552
(dp1553
g62
(dp1554
sg71
g1548
sg64
(lp1555
g57
(g78
g59
NtRp1556
(dp1557
g62
(dp1558
sg71
g1552
sg64
(lp1559
g57
(g58
g59
NtRp1560
(dp1561
g62
(dp1562
g70
I3
ssg71
g1556
sg64
(lp1563
S'1'
asbasbasbag57
(g73
g59
NtRp1564
(dp1565
g62
(dp1566
sg71
g1548
sg64
(lp1567
g57
(g78
g59
NtRp1568
(dp1569
g62
(dp1570
sg71
g1564
sg64
(lp1571
g57
(g58
g59
NtRp1572
(dp1573
g62
(dp1574
g70
I3
ssg71
g1568
sg64
(lp1575
S'0'
asbasbasbasbasbasbasbasbasbasbasbag57
(g73
g59
NtRp1576
(dp1577
g62
(dp1578
sg71
g67
sg64
(lp1579
g57
(g78
g59
NtRp1580
(dp1581
g62
(dp1582
g82
g83
ssg71
g1576
sg64
(lp1583
S'extension'
p1584
asbag57
(g78
g59
NtRp1585
(dp1586
g62
(dp1587
g89
g90
ssg71
g1576
sg64
(lp1588
S':'
asbag57
(g78
g59
NtRp1589
(dp1590
g62
(dp1591
sg71
g1576
sg64
(lp1592
g57
(g58
g59
NtRp1593
(dp1594
g62
(dp1595
g70
I5
ssg71
g1589
sg64
(lp1596
S'html'
p1597
asbasbasbag57
(g73
g59
NtRp1598
(dp1599
g62
(dp1600
sg71
g67
sg64
(lp1601
g57
(g78
g59
NtRp1602
(dp1603
g62
(dp1604
g82
g83
ssg71
g1598
sg64
(lp1605
S'folder'
p1606
asbag57
(g78
g59
NtRp1607
(dp1608
g62
(dp1609
g89
g90
ssg71
g1598
sg64
(lp1610
S':'
asbag57
(g78
g59
NtRp1611
(dp1612
g62
(dp1613
sg71
g1598
sg64
(lp1614
g57
(g58
g59
NtRp1615
(dp1616
g62
(dp1617
g70
I5
ssg71
g1611
sg64
(lp1618
S'/home/ds-iiit/web2py/applications/Read_it/'
p1619
asbasbasbag57
(g73
g59
NtRp1620
(dp1621
g62
(dp1622
sg71
g67
sg64
(lp1623
g57
(g78
g59
NtRp1624
(dp1625
g62
(dp1626
g82
g83
ssg71
g1620
sg64
(lp1627
S'function'
p1628
asbag57
(g78
g59
NtRp1629
(dp1630
g62
(dp1631
g89
g90
ssg71
g1620
sg64
(lp1632
S':'
asbag57
(g78
g59
NtRp1633
(dp1634
g62
(dp1635
sg71
g1620
sg64
(lp1636
g57
(g58
g59
NtRp1637
(dp1638
g62
(dp1639
g70
I5
ssg71
g1633
sg64
(lp1640
S'comments'
p1641
asbasbasbag57
(g73
g59
NtRp1642
(dp1643
g62
(dp1644
sg71
g67
sg64
(lp1645
g57
(g78
g59
NtRp1646
(dp1647
g62
(dp1648
g82
g83
ssg71
g1642
sg64
(lp1649
S'get_vars'
p1650
asbag57
(g78
g59
NtRp1651
(dp1652
g62
(dp1653
g89
g90
ssg71
g1642
sg64
(lp1654
S':'
asbag57
(g78
g59
NtRp1655
(dp1656
g62
(dp1657
sg71
g1642
sg64
(lp1658
g57
(g58
g59
NtRp1659
(dp1660
g62
(dp1661
g70
I5
ssg71
g1655
sg64
(lp1662
g57
(g66
g59
NtRp1663
(dp1664
g62
(dp1665
g70
I4
ssg71
Nsg64
(lp1666
sbasbasbasbag57
(g73
g59
NtRp1667
(dp1668
g62
(dp1669
sg71
g67
sg64
(lp1670
g57
(g78
g59
NtRp1671
(dp1672
g62
(dp1673
g82
g83
ssg71
g1667
sg64
(lp1674
S'global_settings'
p1675
asbag57
(g78
g59
NtRp1676
(dp1677
g62
(dp1678
g89
g90
ssg71
g1667
sg64
(lp1679
S':'
asbag57
(g78
g59
NtRp1680
(dp1681
g62
(dp1682
sg71
g1667
sg64
(lp1683
g57
(g58
g59
NtRp1684
(dp1685
g62
(dp1686
g70
I5
ssg71
g1680
sg64
(lp1687
g57
(g66
g59
NtRp1688
(dp1689
g62
(dp1690
g70
I4
ssg71
Nsg64
(lp1691
g57
(g73
g59
NtRp1692
(dp1693
g62
(dp1694
sg71
g1688
sg64
(lp1695
g57
(g78
g59
NtRp1696
(dp1697
g62
(dp1698
g82
g83
ssg71
g1692
sg64
(lp1699
g661
asbag57
(g78
g59
NtRp1700
(dp1701
g62
(dp1702
g89
g90
ssg71
g1692
sg64
(lp1703
S':'
asbag57
(g78
g59
NtRp1704
(dp1705
g62
(dp1706
sg71
g1692
sg64
(lp1707
g57
(g58
g59
NtRp1708
(dp1709
g62
(dp1710
g70
I4
ssg71
g1704
sg64
(lp1711
S"set(['/home/ds-iiit/web2py/applications/Read_it/', '/home/ds-iiit/web2py/applications/welcome/', '/home/ds-iiit/web2py/applications/admin/'])"
p1712
asbasbasbag57
(g73
g59
NtRp1713
(dp1714
g62
(dp1715
sg71
g1688
sg64
(lp1716
g57
(g78
g59
NtRp1717
(dp1718
g62
(dp1719
g82
g83
ssg71
g1713
sg64
(lp1720
g683
asbag57
(g78
g59
NtRp1721
(dp1722
g62
(dp1723
g89
g90
ssg71
g1713
sg64
(lp1724
S':'
asbag57
(g78
g59
NtRp1725
(dp1726
g62
(dp1727
sg71
g1713
sg64
(lp1728
g57
(g58
g59
NtRp1729
(dp1730
g62
(dp1731
g70
I4
ssg71
g1725
sg64
(lp1732
g696
asbasbasbag57
(g73
g59
NtRp1733
(dp1734
g62
(dp1735
sg71
g1688
sg64
(lp1736
g57
(g78
g59
NtRp1737
(dp1738
g62
(dp1739
g82
g83
ssg71
g1733
sg64
(lp1740
g705
asbag57
(g78
g59
NtRp1741
(dp1742
g62
(dp1743
g89
g90
ssg71
g1733
sg64
(lp1744
S':'
asbag57
(g78
g59
NtRp1745
(dp1746
g62
(dp1747
sg71
g1733
sg64
(lp1748
g57
(g58
g59
NtRp1749
(dp1750
g62
(dp1751
g70
I4
ssg71
g1745
sg64
(lp1752
g57
(g66
g59
NtRp1753
(dp1754
g62
(dp1755
g70
I3
ssg71
Nsg64
(lp1756
sbasbasbasbag57
(g73
g59
NtRp1757
(dp1758
g62
(dp1759
sg71
g1688
sg64
(lp1760
g57
(g78
g59
NtRp1761
(dp1762
g62
(dp1763
g82
g83
ssg71
g1757
sg64
(lp1764
g730
asbag57
(g78
g59
NtRp1765
(dp1766
g62
(dp1767
g89
g90
ssg71
g1757
sg64
(lp1768
S':'
asbag57
(g78
g59
NtRp1769
(dp1770
g62
(dp1771
sg71
g1757
sg64
(lp1772
g57
(g58
g59
NtRp1773
(dp1774
g62
(dp1775
g70
I4
ssg71
g1769
sg64
(lp1776
S"<Values at 0x2adbb00: {'verbose': False, 'ip': '127.0.0.1', 'shutdown_timeout': 5, 'taskbar': False, 'port': 8000, 'maxthreads': None, 'softcron': False, 'server_name': 'DS-IIIT', 'bpython': False, 'nogui': False, 'nocron': False, 'extcron': False, 'debuglevel': 30, 'test': None, 'folder': '/home/ds-iiit/web2py', 'config': '', 'import_models': False, 'winservice': '', 'shell': None, 'run': '', 'log_filename': 'httpserver.log', 'args': [''], 'socket_timeout': 1, 'profiler_filename': None, 'ssl_private_key': '', 'password': '<ask>', 'request_queue_size': 5, 'ssl_certificate': '', 'cronjob': False, 'plain': False, 'quiet': False, 'interfaces': None, 'minthreads': None, 'timeout': 10, 'numthreads': None, 'nobanner': False, 'pid_filename': 'httpserver.pid'}>"
p1777
asbasbasbag57
(g73
g59
NtRp1778
(dp1779
g62
(dp1780
sg71
g1688
sg64
(lp1781
g57
(g78
g59
NtRp1782
(dp1783
g62
(dp1784
g82
g83
ssg71
g1778
sg64
(lp1785
g752
asbag57
(g78
g59
NtRp1786
(dp1787
g62
(dp1788
g89
g90
ssg71
g1778
sg64
(lp1789
S':'
asbag57
(g78
g59
NtRp1790
(dp1791
g62
(dp1792
sg71
g1778
sg64
(lp1793
g57
(g58
g59
NtRp1794
(dp1795
g62
(dp1796
g70
I4
ssg71
g1790
sg64
(lp1797
S'set([])'
p1798
asbasbasbag57
(g73
g59
NtRp1799
(dp1800
g62
(dp1801
sg71
g1688
sg64
(lp1802
g57
(g78
g59
NtRp1803
(dp1804
g62
(dp1805
g82
g83
ssg71
g1799
sg64
(lp1806
g774
asbag57
(g78
g59
NtRp1807
(dp1808
g62
(dp1809
g89
g90
ssg71
g1799
sg64
(lp1810
S':'
asbag57
(g78
g59
NtRp1811
(dp1812
g62
(dp1813
sg71
g1799
sg64
(lp1814
g57
(g58
g59
NtRp1815
(dp1816
g62
(dp1817
g70
I4
ssg71
g1811
sg64
(lp1818
g100
asbasbasbag57
(g73
g59
NtRp1819
(dp1820
g62
(dp1821
sg71
g1688
sg64
(lp1822
g57
(g78
g59
NtRp1823
(dp1824
g62
(dp1825
g82
g83
ssg71
g1819
sg64
(lp1826
g795
asbag57
(g78
g59
NtRp1827
(dp1828
g62
(dp1829
g89
g90
ssg71
g1819
sg64
(lp1830
S':'
asbag57
(g78
g59
NtRp1831
(dp1832
g62
(dp1833
sg71
g1819
sg64
(lp1834
g57
(g58
g59
NtRp1835
(dp1836
g62
(dp1837
g70
I4
ssg71
g1831
sg64
(lp1838
g808
asbasbasbag57
(g73
g59
NtRp1839
(dp1840
g62
(dp1841
sg71
g1688
sg64
(lp1842
g57
(g78
g59
NtRp1843
(dp1844
g62
(dp1845
g82
g83
ssg71
g1839
sg64
(lp1846
g993
asbag57
(g78
g59
NtRp1847
(dp1848
g62
(dp1849
g89
g90
ssg71
g1839
sg64
(lp1850
S':'
asbag57
(g78
g59
NtRp1851
(dp1852
g62
(dp1853
sg71
g1839
sg64
(lp1854
g57
(g58
g59
NtRp1855
(dp1856
g62
(dp1857
g70
I4
ssg71
g1851
sg64
(lp1858
g100
asbasbasbag57
(g73
g59
NtRp1859
(dp1860
g62
(dp1861
sg71
g1688
sg64
(lp1862
g57
(g78
g59
NtRp1863
(dp1864
g62
(dp1865
g82
g83
ssg71
g1859
sg64
(lp1866
g1014
asbag57
(g78
g59
NtRp1867
(dp1868
g62
(dp1869
g89
g90
ssg71
g1859
sg64
(lp1870
S':'
asbag57
(g78
g59
NtRp1871
(dp1872
g62
(dp1873
sg71
g1859
sg64
(lp1874
g57
(g58
g59
NtRp1875
(dp1876
g62
(dp1877
g70
I4
ssg71
g1871
sg64
(lp1878
g100
asbasbasbag57
(g73
g59
NtRp1879
(dp1880
g62
(dp1881
sg71
g1688
sg64
(lp1882
g57
(g78
g59
NtRp1883
(dp1884
g62
(dp1885
g82
g83
ssg71
g1879
sg64
(lp1886
g1252
asbag57
(g78
g59
NtRp1887
(dp1888
g62
(dp1889
g89
g90
ssg71
g1879
sg64
(lp1890
S':'
asbag57
(g78
g59
NtRp1891
(dp1892
g62
(dp1893
sg71
g1879
sg64
(lp1894
g57
(g58
g59
NtRp1895
(dp1896
g62
(dp1897
g70
I4
ssg71
g1891
sg64
(lp1898
g1265
asbasbasbag57
(g73
g59
NtRp1899
(dp1900
g62
(dp1901
sg71
g1688
sg64
(lp1902
g57
(g78
g59
NtRp1903
(dp1904
g62
(dp1905
g82
g83
ssg71
g1899
sg64
(lp1906
g1295
asbag57
(g78
g59
NtRp1907
(dp1908
g62
(dp1909
g89
g90
ssg71
g1899
sg64
(lp1910
S':'
asbag57
(g78
g59
NtRp1911
(dp1912
g62
(dp1913
sg71
g1899
sg64
(lp1914
g57
(g58
g59
NtRp1915
(dp1916
g62
(dp1917
g70
I4
ssg71
g1911
sg64
(lp1918
g57
(g66
g59
NtRp1919
(dp1920
g62
(dp1921
g70
I3
ssg71
Nsg64
(lp1922
g57
(g73
g59
NtRp1923
(dp1924
g62
(dp1925
sg71
g1919
sg64
(lp1926
g57
(g78
g59
NtRp1927
(dp1928
g62
(dp1929
sg71
g1923
sg64
(lp1930
g57
(g58
g59
NtRp1931
(dp1932
g62
(dp1933
g70
I3
ssg71
g1927
sg64
(lp1934
S'1'
asbasbasbag57
(g73
g59
NtRp1935
(dp1936
g62
(dp1937
sg71
g1919
sg64
(lp1938
g57
(g78
g59
NtRp1939
(dp1940
g62
(dp1941
sg71
g1935
sg64
(lp1942
g57
(g58
g59
NtRp1943
(dp1944
g62
(dp1945
g70
I3
ssg71
g1939
sg64
(lp1946
S'99'
p1947
asbasbasbag57
(g73
g59
NtRp1948
(dp1949
g62
(dp1950
sg71
g1919
sg64
(lp1951
g57
(g78
g59
NtRp1952
(dp1953
g62
(dp1954
sg71
g1948
sg64
(lp1955
g57
(g58
g59
NtRp1956
(dp1957
g62
(dp1958
g70
I3
ssg71
g1952
sg64
(lp1959
S'4'
asbasbasbag57
(g73
g59
NtRp1960
(dp1961
g62
(dp1962
sg71
g1919
sg64
(lp1963
g57
(g78
g59
NtRp1964
(dp1965
g62
(dp1966
sg71
g1960
sg64
(lp1967
g57
(g58
g59
NtRp1968
(dp1969
g62
(dp1970
g70
I3
ssg71
g1964
sg64
(lp1971
S'datetime.datetime(2011, 12, 14, 14, 46, 14)'
p1972
asbasbasbag57
(g73
g59
NtRp1973
(dp1974
g62
(dp1975
sg71
g1919
sg64
(lp1976
g57
(g78
g59
NtRp1977
(dp1978
g62
(dp1979
sg71
g1973
sg64
(lp1980
g57
(g58
g59
NtRp1981
(dp1982
g62
(dp1983
g70
I3
ssg71
g1977
sg64
(lp1984
g1374
asbasbasbasbasbasbasbasbasbasbasbag57
(g73
g59
NtRp1985
(dp1986
g62
(dp1987
sg71
g67
sg64
(lp1988
g57
(g78
g59
NtRp1989
(dp1990
g62
(dp1991
g82
g83
ssg71
g1985
sg64
(lp1992
S'is_https'
p1993
asbag57
(g78
g59
NtRp1994
(dp1995
g62
(dp1996
g89
g90
ssg71
g1985
sg64
(lp1997
S':'
asbag57
(g78
g59
NtRp1998
(dp1999
g62
(dp2000
sg71
g1985
sg64
(lp2001
g57
(g58
g59
NtRp2002
(dp2003
g62
(dp2004
g70
I5
ssg71
g1998
sg64
(lp2005
g100
asbasbasbag57
(g73
g59
NtRp2006
(dp2007
g62
(dp2008
sg71
g67
sg64
(lp2009
g57
(g78
g59
NtRp2010
(dp2011
g62
(dp2012
g82
g83
ssg71
g2006
sg64
(lp2013
S'is_local'
p2014
asbag57
(g78
g59
NtRp2015
(dp2016
g62
(dp2017
g89
g90
ssg71
g2006
sg64
(lp2018
S':'
asbag57
(g78
g59
NtRp2019
(dp2020
g62
(dp2021
sg71
g2006
sg64
(lp2022
g57
(g58
g59
NtRp2023
(dp2024
g62
(dp2025
g70
I5
ssg71
g2019
sg64
(lp2026
g1483
asbasbasbag57
(g73
g59
NtRp2027
(dp2028
g62
(dp2029
sg71
g67
sg64
(lp2030
g57
(g78
g59
NtRp2031
(dp2032
g62
(dp2033
g82
g83
ssg71
g2027
sg64
(lp2034
S'is_restful'
p2035
asbag57
(g78
g59
NtRp2036
(dp2037
g62
(dp2038
g89
g90
ssg71
g2027
sg64
(lp2039
S':'
asbag57
(g78
g59
NtRp2040
(dp2041
g62
(dp2042
sg71
g2027
sg64
(lp2043
g57
(g58
g59
NtRp2044
(dp2045
g62
(dp2046
g70
I5
ssg71
g2040
sg64
(lp2047
g100
asbasbasbag57
(g73
g59
NtRp2048
(dp2049
g62
(dp2050
sg71
g67
sg64
(lp2051
g57
(g78
g59
NtRp2052
(dp2053
g62
(dp2054
g82
g83
ssg71
g2048
sg64
(lp2055
S'now'
p2056
asbag57
(g78
g59
NtRp2057
(dp2058
g62
(dp2059
g89
g90
ssg71
g2048
sg64
(lp2060
S':'
asbag57
(g78
g59
NtRp2061
(dp2062
g62
(dp2063
sg71
g2048
sg64
(lp2064
g57
(g58
g59
NtRp2065
(dp2066
g62
(dp2067
g70
I5
ssg71
g2061
sg64
(lp2068
S'datetime.datetime(2013, 8, 30, 3, 43, 36, 592855)'
p2069
asbasbasbag57
(g73
g59
NtRp2070
(dp2071
g62
(dp2072
sg71
g67
sg64
(lp2073
g57
(g78
g59
NtRp2074
(dp2075
g62
(dp2076
g82
g83
ssg71
g2070
sg64
(lp2077
S'post_vars'
p2078
asbag57
(g78
g59
NtRp2079
(dp2080
g62
(dp2081
g89
g90
ssg71
g2070
sg64
(lp2082
S':'
asbag57
(g78
g59
NtRp2083
(dp2084
g62
(dp2085
sg71
g2070
sg64
(lp2086
g57
(g58
g59
NtRp2087
(dp2088
g62
(dp2089
g70
I5
ssg71
g2083
sg64
(lp2090
g57
(g66
g59
NtRp2091
(dp2092
g62
(dp2093
g70
I4
ssg71
Nsg64
(lp2094
sbasbasbasbag57
(g73
g59
NtRp2095
(dp2096
g62
(dp2097
sg71
g67
sg64
(lp2098
g57
(g78
g59
NtRp2099
(dp2100
g62
(dp2101
g82
g83
ssg71
g2095
sg64
(lp2102
S'raw_args'
p2103
asbag57
(g78
g59
NtRp2104
(dp2105
g62
(dp2106
g89
g90
ssg71
g2095
sg64
(lp2107
S':'
asbag57
(g78
g59
NtRp2108
(dp2109
g62
(dp2110
sg71
g2095
sg64
(lp2111
g57
(g58
g59
NtRp2112
(dp2113
g62
(dp2114
g70
I5
ssg71
g2108
sg64
(lp2115
S'4'
asbasbasbag57
(g73
g59
NtRp2116
(dp2117
g62
(dp2118
sg71
g67
sg64
(lp2119
g57
(g78
g59
NtRp2120
(dp2121
g62
(dp2122
g82
g83
ssg71
g2116
sg64
(lp2123
S'url'
p2124
asbag57
(g78
g59
NtRp2125
(dp2126
g62
(dp2127
g89
g90
ssg71
g2116
sg64
(lp2128
S':'
asbag57
(g78
g59
NtRp2129
(dp2130
g62
(dp2131
sg71
g2116
sg64
(lp2132
g57
(g58
g59
NtRp2133
(dp2134
g62
(dp2135
g70
I5
ssg71
g2129
sg64
(lp2136
S'/Read_it/default/comments/4'
p2137
asbasbasbag57
(g73
g59
NtRp2138
(dp2139
g62
(dp2140
sg71
g67
sg64
(lp2141
g57
(g78
g59
NtRp2142
(dp2143
g62
(dp2144
g82
g83
ssg71
g2138
sg64
(lp2145
S'utcnow'
p2146
asbag57
(g78
g59
NtRp2147
(dp2148
g62
(dp2149
g89
g90
ssg71
g2138
sg64
(lp2150
S':'
asbag57
(g78
g59
NtRp2151
(dp2152
g62
(dp2153
sg71
g2138
sg64
(lp2154
g57
(g58
g59
NtRp2155
(dp2156
g62
(dp2157
g70
I5
ssg71
g2151
sg64
(lp2158
S'datetime.datetime(2013, 8, 29, 22, 13, 36, 592895)'
p2159
asbasbasbag57
(g73
g59
NtRp2160
(dp2161
g62
(dp2162
sg71
g67
sg64
(lp2163
g57
(g78
g59
NtRp2164
(dp2165
g62
(dp2166
g82
g83
ssg71
g2160
sg64
(lp2167
S'uuid'
p2168
asbag57
(g78
g59
NtRp2169
(dp2170
g62
(dp2171
g89
g90
ssg71
g2160
sg64
(lp2172
S':'
asbag57
(g78
g59
NtRp2173
(dp2174
g62
(dp2175
sg71
g2160
sg64
(lp2176
g57
(g58
g59
NtRp2177
(dp2178
g62
(dp2179
g70
I5
ssg71
g2173
sg64
(lp2180
S'Read_it/127.0.0.1.2013-08-30.03-43-36.2f61009b-a129-4aa5-9c79-3ca167f1144c'
p2181
asbasbasbag57
(g73
g59
NtRp2182
(dp2183
g62
(dp2184
sg71
g67
sg64
(lp2185
g57
(g78
g59
NtRp2186
(dp2187
g62
(dp2188
g82
g83
ssg71
g2182
sg64
(lp2189
S'vars'
p2190
asbag57
(g78
g59
NtRp2191
(dp2192
g62
(dp2193
g89
g90
ssg71
g2182
sg64
(lp2194
S':'
asbag57
(g78
g59
NtRp2195
(dp2196
g62
(dp2197
sg71
g2182
sg64
(lp2198
g57
(g58
g59
NtRp2199
(dp2200
g62
(dp2201
g70
I5
ssg71
g2195
sg64
(lp2202
g57
(g66
g59
NtRp2203
(dp2204
g62
(dp2205
g70
I4
ssg71
Nsg64
(lp2206
sbasbasbasbag57
(g73
g59
NtRp2207
(dp2208
g62
(dp2209
sg71
g67
sg64
(lp2210
g57
(g78
g59
NtRp2211
(dp2212
g62
(dp2213
g82
g83
ssg71
g2207
sg64
(lp2214
S'wsgi'
p2215
asbag57
(g78
g59
NtRp2216
(dp2217
g62
(dp2218
g89
g90
ssg71
g2207
sg64
(lp2219
S':'
asbag57
(g78
g59
NtRp2220
(dp2221
g62
(dp2222
sg71
g2207
sg64
(lp2223
g57
(g58
g59
NtRp2224
(dp2225
g62
(dp2226
g70
I5
ssg71
g2220
sg64
(lp2227
g57
(g66
g59
NtRp2228
(dp2229
g62
(dp2230
g70
I4
ssg71
Nsg64
(lp2231
g57
(g73
g59
NtRp2232
(dp2233
g62
(dp2234
sg71
g2228
sg64
(lp2235
g57
(g78
g59
NtRp2236
(dp2237
g62
(dp2238
g82
g83
ssg71
g2232
sg64
(lp2239
S'environ'
p2240
asbag57
(g78
g59
NtRp2241
(dp2242
g62
(dp2243
g89
g90
ssg71
g2232
sg64
(lp2244
S':'
asbag57
(g78
g59
NtRp2245
(dp2246
g62
(dp2247
sg71
g2232
sg64
(lp2248
g57
(g58
g59
NtRp2249
(dp2250
g62
(dp2251
g70
I4
ssg71
g2245
sg64
(lp2252
g57
(g66
g59
NtRp2253
(dp2254
g62
(dp2255
g70
I3
ssg71
Nsg64
(lp2256
g57
(g73
g59
NtRp2257
(dp2258
g62
(dp2259
sg71
g2253
sg64
(lp2260
g57
(g78
g59
NtRp2261
(dp2262
g62
(dp2263
g82
g83
ssg71
g2257
sg64
(lp2264
S'HTTP_ACCEPT'
p2265
asbag57
(g78
g59
NtRp2266
(dp2267
g62
(dp2268
g89
g90
ssg71
g2257
sg64
(lp2269
S':'
asbag57
(g78
g59
NtRp2270
(dp2271
g62
(dp2272
sg71
g2257
sg64
(lp2273
g57
(g58
g59
NtRp2274
(dp2275
g62
(dp2276
g70
I3
ssg71
g2270
sg64
(lp2277
g830
asbasbasbag57
(g73
g59
NtRp2278
(dp2279
g62
(dp2280
sg71
g2253
sg64
(lp2281
g57
(g78
g59
NtRp2282
(dp2283
g62
(dp2284
g82
g83
ssg71
g2278
sg64
(lp2285
S'HTTP_ACCEPT_ENCODING'
p2286
asbag57
(g78
g59
NtRp2287
(dp2288
g62
(dp2289
g89
g90
ssg71
g2278
sg64
(lp2290
S':'
asbag57
(g78
g59
NtRp2291
(dp2292
g62
(dp2293
sg71
g2278
sg64
(lp2294
g57
(g58
g59
NtRp2295
(dp2296
g62
(dp2297
g70
I3
ssg71
g2291
sg64
(lp2298
g852
asbasbasbag57
(g73
g59
NtRp2299
(dp2300
g62
(dp2301
sg71
g2253
sg64
(lp2302
g57
(g78
g59
NtRp2303
(dp2304
g62
(dp2305
g82
g83
ssg71
g2299
sg64
(lp2306
S'HTTP_ACCEPT_LANGUAGE'
p2307
asbag57
(g78
g59
NtRp2308
(dp2309
g62
(dp2310
g89
g90
ssg71
g2299
sg64
(lp2311
S':'
asbag57
(g78
g59
NtRp2312
(dp2313
g62
(dp2314
sg71
g2299
sg64
(lp2315
g57
(g58
g59
NtRp2316
(dp2317
g62
(dp2318
g70
I3
ssg71
g2312
sg64
(lp2319
g874
asbasbasbag57
(g73
g59
NtRp2320
(dp2321
g62
(dp2322
sg71
g2253
sg64
(lp2323
g57
(g78
g59
NtRp2324
(dp2325
g62
(dp2326
g82
g83
ssg71
g2320
sg64
(lp2327
S'HTTP_CACHE_CONTROL'
p2328
asbag57
(g78
g59
NtRp2329
(dp2330
g62
(dp2331
g89
g90
ssg71
g2320
sg64
(lp2332
S':'
asbag57
(g78
g59
NtRp2333
(dp2334
g62
(dp2335
sg71
g2320
sg64
(lp2336
g57
(g58
g59
NtRp2337
(dp2338
g62
(dp2339
g70
I3
ssg71
g2333
sg64
(lp2340
g896
asbasbasbag57
(g73
g59
NtRp2341
(dp2342
g62
(dp2343
sg71
g2253
sg64
(lp2344
g57
(g78
g59
NtRp2345
(dp2346
g62
(dp2347
g82
g83
ssg71
g2341
sg64
(lp2348
S'HTTP_CONNECTION'
p2349
asbag57
(g78
g59
NtRp2350
(dp2351
g62
(dp2352
g89
g90
ssg71
g2341
sg64
(lp2353
S':'
asbag57
(g78
g59
NtRp2354
(dp2355
g62
(dp2356
sg71
g2341
sg64
(lp2357
g57
(g58
g59
NtRp2358
(dp2359
g62
(dp2360
g70
I3
ssg71
g2354
sg64
(lp2361
g918
asbasbasbag57
(g73
g59
NtRp2362
(dp2363
g62
(dp2364
sg71
g2253
sg64
(lp2365
g57
(g78
g59
NtRp2366
(dp2367
g62
(dp2368
g82
g83
ssg71
g2362
sg64
(lp2369
S'HTTP_COOKIE'
p2370
asbag57
(g78
g59
NtRp2371
(dp2372
g62
(dp2373
g89
g90
ssg71
g2362
sg64
(lp2374
S':'
asbag57
(g78
g59
NtRp2375
(dp2376
g62
(dp2377
sg71
g2362
sg64
(lp2378
g57
(g58
g59
NtRp2379
(dp2380
g62
(dp2381
g70
I3
ssg71
g2375
sg64
(lp2382
g940
asbasbasbag57
(g73
g59
NtRp2383
(dp2384
g62
(dp2385
sg71
g2253
sg64
(lp2386
g57
(g78
g59
NtRp2387
(dp2388
g62
(dp2389
g82
g83
ssg71
g2383
sg64
(lp2390
S'HTTP_HOST'
p2391
asbag57
(g78
g59
NtRp2392
(dp2393
g62
(dp2394
g89
g90
ssg71
g2383
sg64
(lp2395
S':'
asbag57
(g78
g59
NtRp2396
(dp2397
g62
(dp2398
sg71
g2383
sg64
(lp2399
g57
(g58
g59
NtRp2400
(dp2401
g62
(dp2402
g70
I3
ssg71
g2396
sg64
(lp2403
g962
asbasbasbag57
(g73
g59
NtRp2404
(dp2405
g62
(dp2406
sg71
g2253
sg64
(lp2407
g57
(g78
g59
NtRp2408
(dp2409
g62
(dp2410
g82
g83
ssg71
g2404
sg64
(lp2411
S'HTTP_USER_AGENT'
p2412
asbag57
(g78
g59
NtRp2413
(dp2414
g62
(dp2415
g89
g90
ssg71
g2404
sg64
(lp2416
S':'
asbag57
(g78
g59
NtRp2417
(dp2418
g62
(dp2419
sg71
g2404
sg64
(lp2420
g57
(g58
g59
NtRp2421
(dp2422
g62
(dp2423
g70
I3
ssg71
g2417
sg64
(lp2424
g984
asbasbasbag57
(g73
g59
NtRp2425
(dp2426
g62
(dp2427
sg71
g2253
sg64
(lp2428
g57
(g78
g59
NtRp2429
(dp2430
g62
(dp2431
g82
g83
ssg71
g2425
sg64
(lp2432
S'PATH_INFO'
p2433
asbag57
(g78
g59
NtRp2434
(dp2435
g62
(dp2436
g89
g90
ssg71
g2425
sg64
(lp2437
S':'
asbag57
(g78
g59
NtRp2438
(dp2439
g62
(dp2440
sg71
g2425
sg64
(lp2441
g57
(g58
g59
NtRp2442
(dp2443
g62
(dp2444
g70
I3
ssg71
g2438
sg64
(lp2445
g1048
asbasbasbag57
(g73
g59
NtRp2446
(dp2447
g62
(dp2448
sg71
g2253
sg64
(lp2449
g57
(g78
g59
NtRp2450
(dp2451
g62
(dp2452
g82
g83
ssg71
g2446
sg64
(lp2453
S'QUERY_STRING'
p2454
asbag57
(g78
g59
NtRp2455
(dp2456
g62
(dp2457
g89
g90
ssg71
g2446
sg64
(lp2458
S':'
asbag57
(g78
g59
NtRp2459
(dp2460
g62
(dp2461
sg71
g2446
sg64
(lp2462
g57
(g58
g59
NtRp2463
(dp2464
g62
(dp2465
g70
I3
ssg71
g2459
sg64
(lp2466
S''
asbasbasbag57
(g73
g59
NtRp2467
(dp2468
g62
(dp2469
sg71
g2253
sg64
(lp2470
g57
(g78
g59
NtRp2471
(dp2472
g62
(dp2473
g82
g83
ssg71
g2467
sg64
(lp2474
S'REMOTE_ADDR'
p2475
asbag57
(g78
g59
NtRp2476
(dp2477
g62
(dp2478
g89
g90
ssg71
g2467
sg64
(lp2479
S':'
asbag57
(g78
g59
NtRp2480
(dp2481
g62
(dp2482
sg71
g2467
sg64
(lp2483
g57
(g58
g59
NtRp2484
(dp2485
g62
(dp2486
g70
I3
ssg71
g2480
sg64
(lp2487
g202
asbasbasbag57
(g73
g59
NtRp2488
(dp2489
g62
(dp2490
sg71
g2253
sg64
(lp2491
g57
(g78
g59
NtRp2492
(dp2493
g62
(dp2494
g82
g83
ssg71
g2488
sg64
(lp2495
S'REMOTE_PORT'
p2496
asbag57
(g78
g59
NtRp2497
(dp2498
g62
(dp2499
g89
g90
ssg71
g2488
sg64
(lp2500
S':'
asbag57
(g78
g59
NtRp2501
(dp2502
g62
(dp2503
sg71
g2488
sg64
(lp2504
g57
(g58
g59
NtRp2505
(dp2506
g62
(dp2507
g70
I3
ssg71
g2501
sg64
(lp2508
g1112
asbasbasbag57
(g73
g59
NtRp2509
(dp2510
g62
(dp2511
sg71
g2253
sg64
(lp2512
g57
(g78
g59
NtRp2513
(dp2514
g62
(dp2515
g82
g83
ssg71
g2509
sg64
(lp2516
S'REQUEST_METHOD'
p2517
asbag57
(g78
g59
NtRp2518
(dp2519
g62
(dp2520
g89
g90
ssg71
g2509
sg64
(lp2521
S':'
asbag57
(g78
g59
NtRp2522
(dp2523
g62
(dp2524
sg71
g2509
sg64
(lp2525
g57
(g58
g59
NtRp2526
(dp2527
g62
(dp2528
g70
I3
ssg71
g2522
sg64
(lp2529
g1134
asbasbasbag57
(g73
g59
NtRp2530
(dp2531
g62
(dp2532
sg71
g2253
sg64
(lp2533
g57
(g78
g59
NtRp2534
(dp2535
g62
(dp2536
g82
g83
ssg71
g2530
sg64
(lp2537
S'SCRIPT_NAME'
p2538
asbag57
(g78
g59
NtRp2539
(dp2540
g62
(dp2541
g89
g90
ssg71
g2530
sg64
(lp2542
S':'
asbag57
(g78
g59
NtRp2543
(dp2544
g62
(dp2545
sg71
g2530
sg64
(lp2546
g57
(g58
g59
NtRp2547
(dp2548
g62
(dp2549
g70
I3
ssg71
g2543
sg64
(lp2550
S''
asbasbasbag57
(g73
g59
NtRp2551
(dp2552
g62
(dp2553
sg71
g2253
sg64
(lp2554
g57
(g78
g59
NtRp2555
(dp2556
g62
(dp2557
g82
g83
ssg71
g2551
sg64
(lp2558
S'SERVER_NAME'
p2559
asbag57
(g78
g59
NtRp2560
(dp2561
g62
(dp2562
g89
g90
ssg71
g2551
sg64
(lp2563
S':'
asbag57
(g78
g59
NtRp2564
(dp2565
g62
(dp2566
sg71
g2551
sg64
(lp2567
g57
(g58
g59
NtRp2568
(dp2569
g62
(dp2570
g70
I3
ssg71
g2564
sg64
(lp2571
g1177
asbasbasbag57
(g73
g59
NtRp2572
(dp2573
g62
(dp2574
sg71
g2253
sg64
(lp2575
g57
(g78
g59
NtRp2576
(dp2577
g62
(dp2578
g82
g83
ssg71
g2572
sg64
(lp2579
S'SERVER_PORT'
p2580
asbag57
(g78
g59
NtRp2581
(dp2582
g62
(dp2583
g89
g90
ssg71
g2572
sg64
(lp2584
S':'
asbag57
(g78
g59
NtRp2585
(dp2586
g62
(dp2587
sg71
g2572
sg64
(lp2588
g57
(g58
g59
NtRp2589
(dp2590
g62
(dp2591
g70
I3
ssg71
g2585
sg64
(lp2592
g1199
asbasbasbag57
(g73
g59
NtRp2593
(dp2594
g62
(dp2595
sg71
g2253
sg64
(lp2596
g57
(g78
g59
NtRp2597
(dp2598
g62
(dp2599
g82
g83
ssg71
g2593
sg64
(lp2600
S'SERVER_PROTOCOL'
p2601
asbag57
(g78
g59
NtRp2602
(dp2603
g62
(dp2604
g89
g90
ssg71
g2593
sg64
(lp2605
S':'
asbag57
(g78
g59
NtRp2606
(dp2607
g62
(dp2608
sg71
g2593
sg64
(lp2609
g57
(g58
g59
NtRp2610
(dp2611
g62
(dp2612
g70
I3
ssg71
g2606
sg64
(lp2613
g1221
asbasbasbag57
(g73
g59
NtRp2614
(dp2615
g62
(dp2616
sg71
g2253
sg64
(lp2617
g57
(g78
g59
NtRp2618
(dp2619
g62
(dp2620
g82
g83
ssg71
g2614
sg64
(lp2621
S'SERVER_SOFTWARE'
p2622
asbag57
(g78
g59
NtRp2623
(dp2624
g62
(dp2625
g89
g90
ssg71
g2614
sg64
(lp2626
S':'
asbag57
(g78
g59
NtRp2627
(dp2628
g62
(dp2629
sg71
g2614
sg64
(lp2630
g57
(g58
g59
NtRp2631
(dp2632
g62
(dp2633
g70
I3
ssg71
g2627
sg64
(lp2634
g1243
asbasbasbag57
(g73
g59
NtRp2635
(dp2636
g62
(dp2637
sg71
g2253
sg64
(lp2638
g57
(g78
g59
NtRp2639
(dp2640
g62
(dp2641
g82
g83
ssg71
g2635
sg64
(lp2642
S'wsgi.errors'
p2643
asbag57
(g78
g59
NtRp2644
(dp2645
g62
(dp2646
g89
g90
ssg71
g2635
sg64
(lp2647
S':'
asbag57
(g78
g59
NtRp2648
(dp2649
g62
(dp2650
sg71
g2635
sg64
(lp2651
g57
(g58
g59
NtRp2652
(dp2653
g62
(dp2654
g70
I3
ssg71
g2648
sg64
(lp2655
S"<open file '<stderr>', mode 'w' at 0x7fdd14f50270>"
p2656
asbasbasbag57
(g73
g59
NtRp2657
(dp2658
g62
(dp2659
sg71
g2253
sg64
(lp2660
g57
(g78
g59
NtRp2661
(dp2662
g62
(dp2663
g82
g83
ssg71
g2657
sg64
(lp2664
S'wsgi.file_wrapper'
p2665
asbag57
(g78
g59
NtRp2666
(dp2667
g62
(dp2668
g89
g90
ssg71
g2657
sg64
(lp2669
S':'
asbag57
(g78
g59
NtRp2670
(dp2671
g62
(dp2672
sg71
g2657
sg64
(lp2673
g57
(g58
g59
NtRp2674
(dp2675
g62
(dp2676
g70
I3
ssg71
g2670
sg64
(lp2677
S'<class wsgiref.util.FileWrapper at 0x2a06530>'
p2678
asbasbasbag57
(g73
g59
NtRp2679
(dp2680
g62
(dp2681
sg71
g2253
sg64
(lp2682
g57
(g78
g59
NtRp2683
(dp2684
g62
(dp2685
g82
g83
ssg71
g2679
sg64
(lp2686
S'wsgi.input'
p2687
asbag57
(g78
g59
NtRp2688
(dp2689
g62
(dp2690
g89
g90
ssg71
g2679
sg64
(lp2691
S':'
asbag57
(g78
g59
NtRp2692
(dp2693
g62
(dp2694
sg71
g2679
sg64
(lp2695
g57
(g58
g59
NtRp2696
(dp2697
g62
(dp2698
g70
I3
ssg71
g2692
sg64
(lp2699
S'<cStringIO.StringO object at 0x7fdcc46268f0>'
p2700
asbasbasbag57
(g73
g59
NtRp2701
(dp2702
g62
(dp2703
sg71
g2253
sg64
(lp2704
g57
(g78
g59
NtRp2705
(dp2706
g62
(dp2707
g82
g83
ssg71
g2701
sg64
(lp2708
S'wsgi.multiprocess'
p2709
asbag57
(g78
g59
NtRp2710
(dp2711
g62
(dp2712
g89
g90
ssg71
g2701
sg64
(lp2713
S':'
asbag57
(g78
g59
NtRp2714
(dp2715
g62
(dp2716
sg71
g2701
sg64
(lp2717
g57
(g58
g59
NtRp2718
(dp2719
g62
(dp2720
g70
I3
ssg71
g2714
sg64
(lp2721
g100
asbasbasbag57
(g73
g59
NtRp2722
(dp2723
g62
(dp2724
sg71
g2253
sg64
(lp2725
g57
(g78
g59
NtRp2726
(dp2727
g62
(dp2728
g82
g83
ssg71
g2722
sg64
(lp2729
S'wsgi.multithread'
p2730
asbag57
(g78
g59
NtRp2731
(dp2732
g62
(dp2733
g89
g90
ssg71
g2722
sg64
(lp2734
S':'
asbag57
(g78
g59
NtRp2735
(dp2736
g62
(dp2737
sg71
g2722
sg64
(lp2738
g57
(g58
g59
NtRp2739
(dp2740
g62
(dp2741
g70
I3
ssg71
g2735
sg64
(lp2742
g1483
asbasbasbag57
(g73
g59
NtRp2743
(dp2744
g62
(dp2745
sg71
g2253
sg64
(lp2746
g57
(g78
g59
NtRp2747
(dp2748
g62
(dp2749
g82
g83
ssg71
g2743
sg64
(lp2750
S'wsgi.run_once'
p2751
asbag57
(g78
g59
NtRp2752
(dp2753
g62
(dp2754
g89
g90
ssg71
g2743
sg64
(lp2755
S':'
asbag57
(g78
g59
NtRp2756
(dp2757
g62
(dp2758
sg71
g2743
sg64
(lp2759
g57
(g58
g59
NtRp2760
(dp2761
g62
(dp2762
g70
I3
ssg71
g2756
sg64
(lp2763
g100
asbasbasbag57
(g73
g59
NtRp2764
(dp2765
g62
(dp2766
sg71
g2253
sg64
(lp2767
g57
(g78
g59
NtRp2768
(dp2769
g62
(dp2770
g82
g83
ssg71
g2764
sg64
(lp2771
S'wsgi.url_scheme'
p2772
asbag57
(g78
g59
NtRp2773
(dp2774
g62
(dp2775
g89
g90
ssg71
g2764
sg64
(lp2776
S':'
asbag57
(g78
g59
NtRp2777
(dp2778
g62
(dp2779
sg71
g2764
sg64
(lp2780
g57
(g58
g59
NtRp2781
(dp2782
g62
(dp2783
g70
I3
ssg71
g2777
sg64
(lp2784
g1526
asbasbasbag57
(g73
g59
NtRp2785
(dp2786
g62
(dp2787
sg71
g2253
sg64
(lp2788
g57
(g78
g59
NtRp2789
(dp2790
g62
(dp2791
g82
g83
ssg71
g2785
sg64
(lp2792
S'wsgi.version'
p2793
asbag57
(g78
g59
NtRp2794
(dp2795
g62
(dp2796
g89
g90
ssg71
g2785
sg64
(lp2797
S':'
asbag57
(g78
g59
NtRp2798
(dp2799
g62
(dp2800
sg71
g2785
sg64
(lp2801
g57
(g58
g59
NtRp2802
(dp2803
g62
(dp2804
g70
I3
ssg71
g2798
sg64
(lp2805
S'1'
asbasbasbasbasbasbasbasbasbasbasbasbasbsS'frames'
p2806
(lp2807
(dp2808
S'file'
p2809
S'/usr/lib/pymodules/python2.7/gluon/restricted.py'
p2810
sS'dump'
p2811
(dp2812
S'environment'
p2813
S"{'A': <class 'gluon.html.A'>, 'Auth': <class 'gluon.tools.Auth'>, 'B': <class 'gluon.html.B'>, 'BEAUTIFY': <class 'gluon.html.BEAUTIFY'>, 'BODY': <class 'gluon.html.BODY'>, 'BR': <class 'gluon.html.BR'>, 'BUTTON': <class 'gluon.html.BUTTON'>, 'CAT': <class 'gluon.html.CAT'>, 'CENTER': <class 'gluon.html.CENTER'>, 'CLEANUP': <class 'gluon.validators.CLEANUP'>, ...}"
p2814
sS'ccode'
p2815
S'<code object <module> at 0x7fdcbc315630, file "/...ons/Read_it/views/default/comments.html", line 1>'
p2816
ssS'lnum'
p2817
I204
sS'lines'
p2818
(dp2819
I199
S'    try:'
p2820
sI200
S'        if type(code) == types.CodeType:'
p2821
sI201
S'            ccode = code'
p2822
sI202
S'        else:'
p2823
sI203
S'            ccode = compile2(code,layer)'
p2824
sI204
S'        exec ccode in environment'
p2825
sI205
S'    except HTTP:'
p2826
sI206
S'        raise'
p2827
sI207
S'    except RestrictedError:'
p2828
sI208
S'        # do not encapsulate (obfuscate) the original RestrictedError'
p2829
ssS'call'
p2830
S'(code=\'response.write(\\\'<!DOCTYPE html PUBLIC "-//W3C//D...->\\\\n  </div>\\\\n </body>\\\\n</html>\\\\n\\\', escape=False)\', environment={\'A\': <class \'gluon.html.A\'>, \'Auth\': <class \'gluon.tools.Auth\'>, \'B\': <class \'gluon.html.B\'>, \'BEAUTIFY\': <class \'gluon.html.BEAUTIFY\'>, \'BODY\': <class \'gluon.html.BODY\'>, \'BR\': <class \'gluon.html.BR\'>, \'BUTTON\': <class \'gluon.html.BUTTON\'>, \'CAT\': <class \'gluon.html.CAT\'>, \'CENTER\': <class \'gluon.html.CENTER\'>, \'CLEANUP\': <class \'gluon.validators.CLEANUP\'>, ...}, layer=\'/home/ds-iiit/web2py/applications/Read_it/views/default/comments.html\')'
p2831
sS'func'
p2832
S'restricted'
p2833
sa(dp2834
g2809
S'/home/ds-iiit/web2py/applications/Read_it/views/default/comments.html'
p2835
sg2811
(dp2836
sg2817
I32
sg2818
(dp2837
I32
S"    response.write(i['Comment'])"
p2838
sI33
S'    response.write(\' <h3> <br/>\\n<h5 align="right"> posted by \', escape=False)'
p2839
sI34
S"    response.write(i['AuthID'])"
p2840
sI35
S"    response.write(' on ', escape=False)"
p2841
sI36
S"    response.write(i['Date'])"
p2842
sI37
S"    response.write(' </h5>\\n<hr />\\n</li>\\n', escape=False)"
p2843
sI38
S'    pass'
p2844
sI39
S"response.write('\\n</ol>\\n', escape=False)"
p2845
sI40
S'response.write(form)'
p2846
sI41
S"response.write('\\n', escape=False)"
p2847
sI42
S'response.write(\'\\n    </div>\\n    <!-- end content -->\\n    <!-- start sidebar -->\\n    <div id="sidebar">\\n     <ul>\\n      <li id="search">\\n       <h2>\\n        Search\\n       </h2>\\n       <form method="get" action="search.html">\\n        <fieldset>\\n         <input type="text" id="s" name="s" value="" />\\n         <input type="submit" id="x" value="Search" />\\n        </fieldset>\\n       </form>\\n      </li>\\n      <li>\\n       <h2>\\n        Categories:\\n       </h2>\\n       <ol>\\n\\t\', escape=False)'
p2848
sI23
S'except:pass'
p2849
sI24
S'response.write(\'\\n\\n  <div id="wrapper">\\n   <!-- start header -->\\n   <div id="header">\\n<!--    <div id="menu">\\n     \', escape=False)'
p2850
sI25
S"response.write(MENU(response.menu,_class='web2py-menu'))"
p2851
sI26
S'response.write(\'\\n    <script>\\n      jQuery(document).ready(function(){jQuery(\\\'ul.web2py-menu\\\').superfish({delay:400});});\\n    </script>\\n    </div> -->\\n   </div>\\n   <!-- end header -->\\n   <div id="logo">\\n    <h1>\\n    <a href="listall.html"> Read-it-over </a>\\n    </h1>\\n    <h2>\\n     Your News, Your way.\\n    </h2>\\n   </div>\\n   <!-- start page -->\\n   <div id="page">\\n    <!-- start content -->\\n    <div id="content">\\n     <div class="flash">\', escape=False)'
p2852
sI27
S"response.write(response.flash or '')"
p2853
sI28
S"response.write('</div>\\n     ', escape=False)"
p2854
sI29
S"response.write('\\n<ol>\\n', escape=False)"
p2855
sI30
S'for i in results:'
p2856
sI31
S"    response.write('\\n<li>\\n<h3> ', escape=False)"
p2857
ssg2830
S'()'
p2858
sg2832
S'<module>'
p2859
sa(dp2860
g2809
S'/usr/lib/pymodules/python2.7/gluon/dal.py'
p2861
sg2811
(dp2862
S'self'
p2863
S"<Row {'auth_user': <Row {'auth_event': <gluon.da...ecord': <function <lambda> at 0x7fdcbc57a320>}>}>"
p2864
sS'dict.__getitem__'
p2865
S"<method '__getitem__' of 'dict' objects>"
p2866
sS'key'
p2867
S"'Comment'"
p2868
sS'builtindict'
p2869
S"<type 'dict'>"
p2870
ssg2817
I4431
sg2818
(dp2871
I4426
S'        elif m:'
p2872
sI4427
S'            try:'
p2873
sI4428
S'                return dict.__getitem__(self, m.group(1))[m.group(2)]'
p2874
sI4429
S'            except (KeyError,TypeError):'
p2875
sI4430
S'                key = m.group(2)'
p2876
sI4431
S'        return dict.__getitem__(self, key)'
p2877
sI4432
S''
sI4433
S'    def __call__(self,key):'
p2878
sI4434
S'        return self.__getitem__(key)'
p2879
sI4435
S''
ssg2830
S"(self=<Row {'auth_user': <Row {'auth_event': <gluon.da...ecord': <function <lambda> at 0x7fdcbc57a320>}>}>, key='Comment')"
p2880
sg2832
g20
sasS'pyver'
p2881
S'Python 2.7.3: /usr/bin/python'
p2882
sS'session'
p2883
g57
(g58
g59
NtRp2884
(dp2885
g62
(dp2886
sg64
(lp2887
g57
(g66
g59
NtRp2888
(dp2889
g62
(dp2890
g70
I5
ssg71
Nsg64
(lp2891
g57
(g73
g59
NtRp2892
(dp2893
g62
(dp2894
sg71
g2888
sg64
(lp2895
g57
(g78
g59
NtRp2896
(dp2897
g62
(dp2898
g82
g83
ssg71
g2892
sg64
(lp2899
S'auth'
p2900
asbag57
(g78
g59
NtRp2901
(dp2902
g62
(dp2903
g89
g90
ssg71
g2892
sg64
(lp2904
S':'
asbag57
(g78
g59
NtRp2905
(dp2906
g62
(dp2907
sg71
g2892
sg64
(lp2908
g57
(g58
g59
NtRp2909
(dp2910
g62
(dp2911
g70
I5
ssg71
g2905
sg64
(lp2912
g57
(g66
g59
NtRp2913
(dp2914
g62
(dp2915
g70
I4
ssg71
Nsg64
(lp2916
g57
(g73
g59
NtRp2917
(dp2918
g62
(dp2919
sg71
g2913
sg64
(lp2920
g57
(g78
g59
NtRp2921
(dp2922
g62
(dp2923
g82
g83
ssg71
g2917
sg64
(lp2924
S'expiration'
p2925
asbag57
(g78
g59
NtRp2926
(dp2927
g62
(dp2928
g89
g90
ssg71
g2917
sg64
(lp2929
S':'
asbag57
(g78
g59
NtRp2930
(dp2931
g62
(dp2932
sg71
g2917
sg64
(lp2933
g57
(g58
g59
NtRp2934
(dp2935
g62
(dp2936
g70
I4
ssg71
g2930
sg64
(lp2937
S'2592000'
p2938
asbasbasbag57
(g73
g59
NtRp2939
(dp2940
g62
(dp2941
sg71
g2913
sg64
(lp2942
g57
(g78
g59
NtRp2943
(dp2944
g62
(dp2945
g82
g83
ssg71
g2939
sg64
(lp2946
S'hmac_key'
p2947
asbag57
(g78
g59
NtRp2948
(dp2949
g62
(dp2950
g89
g90
ssg71
g2939
sg64
(lp2951
S':'
asbag57
(g78
g59
NtRp2952
(dp2953
g62
(dp2954
sg71
g2939
sg64
(lp2955
g57
(g58
g59
NtRp2956
(dp2957
g62
(dp2958
g70
I4
ssg71
g2952
sg64
(lp2959
S'7f4648de-69a9-4141-b374-831cb1577606'
p2960
asbasbasbag57
(g73
g59
NtRp2961
(dp2962
g62
(dp2963
sg71
g2913
sg64
(lp2964
g57
(g78
g59
NtRp2965
(dp2966
g62
(dp2967
g82
g83
ssg71
g2961
sg64
(lp2968
S'last_visit'
p2969
asbag57
(g78
g59
NtRp2970
(dp2971
g62
(dp2972
g89
g90
ssg71
g2961
sg64
(lp2973
S':'
asbag57
(g78
g59
NtRp2974
(dp2975
g62
(dp2976
sg71
g2961
sg64
(lp2977
g57
(g58
g59
NtRp2978
(dp2979
g62
(dp2980
g70
I4
ssg71
g2974
sg64
(lp2981
S'datetime.datetime(2013, 8, 30, 3, 11, 0, 721773)'
p2982
asbasbasbag57
(g73
g59
NtRp2983
(dp2984
g62
(dp2985
sg71
g2913
sg64
(lp2986
g57
(g78
g59
NtRp2987
(dp2988
g62
(dp2989
g82
g83
ssg71
g2983
sg64
(lp2990
S'remember'
p2991
asbag57
(g78
g59
NtRp2992
(dp2993
g62
(dp2994
g89
g90
ssg71
g2983
sg64
(lp2995
S':'
asbag57
(g78
g59
NtRp2996
(dp2997
g62
(dp2998
sg71
g2983
sg64
(lp2999
g57
(g58
g59
NtRp3000
(dp3001
g62
(dp3002
g70
I4
ssg71
g2996
sg64
(lp3003
g100
asbasbasbag57
(g73
g59
NtRp3004
(dp3005
g62
(dp3006
sg71
g2913
sg64
(lp3007
g57
(g78
g59
NtRp3008
(dp3009
g62
(dp3010
g82
g83
ssg71
g3004
sg64
(lp3011
S'user'
p3012
asbag57
(g78
g59
NtRp3013
(dp3014
g62
(dp3015
g89
g90
ssg71
g3004
sg64
(lp3016
S':'
asbag57
(g78
g59
NtRp3017
(dp3018
g62
(dp3019
sg71
g3004
sg64
(lp3020
g57
(g58
g59
NtRp3021
(dp3022
g62
(dp3023
g70
I4
ssg71
g3017
sg64
(lp3024
g57
(g66
g59
NtRp3025
(dp3026
g62
(dp3027
g70
I3
ssg71
Nsg64
(lp3028
g57
(g73
g59
NtRp3029
(dp3030
g62
(dp3031
sg71
g3025
sg64
(lp3032
g57
(g78
g59
NtRp3033
(dp3034
g62
(dp3035
g82
g83
ssg71
g3029
sg64
(lp3036
S'email'
p3037
asbag57
(g78
g59
NtRp3038
(dp3039
g62
(dp3040
g89
g90
ssg71
g3029
sg64
(lp3041
S':'
asbag57
(g78
g59
NtRp3042
(dp3043
g62
(dp3044
sg71
g3029
sg64
(lp3045
g57
(g58
g59
NtRp3046
(dp3047
g62
(dp3048
g70
I3
ssg71
g3042
sg64
(lp3049
S'sweetdevansh@gmail.com'
p3050
asbasbasbag57
(g73
g59
NtRp3051
(dp3052
g62
(dp3053
sg71
g3025
sg64
(lp3054
g57
(g78
g59
NtRp3055
(dp3056
g62
(dp3057
g82
g83
ssg71
g3051
sg64
(lp3058
S'first_name'
p3059
asbag57
(g78
g59
NtRp3060
(dp3061
g62
(dp3062
g89
g90
ssg71
g3051
sg64
(lp3063
S':'
asbag57
(g78
g59
NtRp3064
(dp3065
g62
(dp3066
sg71
g3051
sg64
(lp3067
g57
(g58
g59
NtRp3068
(dp3069
g62
(dp3070
g70
I3
ssg71
g3064
sg64
(lp3071
S'Devansh'
p3072
asbasbasbag57
(g73
g59
NtRp3073
(dp3074
g62
(dp3075
sg71
g3025
sg64
(lp3076
g57
(g78
g59
NtRp3077
(dp3078
g62
(dp3079
g82
g83
ssg71
g3073
sg64
(lp3080
S'id'
p3081
asbag57
(g78
g59
NtRp3082
(dp3083
g62
(dp3084
g89
g90
ssg71
g3073
sg64
(lp3085
S':'
asbag57
(g78
g59
NtRp3086
(dp3087
g62
(dp3088
sg71
g3073
sg64
(lp3089
g57
(g58
g59
NtRp3090
(dp3091
g62
(dp3092
g70
I3
ssg71
g3086
sg64
(lp3093
S'1'
asbasbasbag57
(g73
g59
NtRp3094
(dp3095
g62
(dp3096
sg71
g3025
sg64
(lp3097
g57
(g78
g59
NtRp3098
(dp3099
g62
(dp3100
g82
g83
ssg71
g3094
sg64
(lp3101
S'last_name'
p3102
asbag57
(g78
g59
NtRp3103
(dp3104
g62
(dp3105
g89
g90
ssg71
g3094
sg64
(lp3106
S':'
asbag57
(g78
g59
NtRp3107
(dp3108
g62
(dp3109
sg71
g3094
sg64
(lp3110
g57
(g58
g59
NtRp3111
(dp3112
g62
(dp3113
g70
I3
ssg71
g3107
sg64
(lp3114
S'Shah'
p3115
asbasbasbag57
(g73
g59
NtRp3116
(dp3117
g62
(dp3118
sg71
g3025
sg64
(lp3119
g57
(g78
g59
NtRp3120
(dp3121
g62
(dp3122
g82
g83
ssg71
g3116
sg64
(lp3123
S'password'
p3124
asbag57
(g78
g59
NtRp3125
(dp3126
g62
(dp3127
g89
g90
ssg71
g3116
sg64
(lp3128
S':'
asbag57
(g78
g59
NtRp3129
(dp3130
g62
(dp3131
sg71
g3116
sg64
(lp3132
g57
(g58
g59
NtRp3133
(dp3134
g62
(dp3135
g70
I3
ssg71
g3129
sg64
(lp3136
S'4fa78620b77f92c7faf768350dccbc8d'
p3137
asbasbasbag57
(g73
g59
NtRp3138
(dp3139
g62
(dp3140
sg71
g3025
sg64
(lp3141
g57
(g78
g59
NtRp3142
(dp3143
g62
(dp3144
g82
g83
ssg71
g3138
sg64
(lp3145
S'registration_id'
p3146
asbag57
(g78
g59
NtRp3147
(dp3148
g62
(dp3149
g89
g90
ssg71
g3138
sg64
(lp3150
S':'
asbag57
(g78
g59
NtRp3151
(dp3152
g62
(dp3153
sg71
g3138
sg64
(lp3154
g57
(g58
g59
NtRp3155
(dp3156
g62
(dp3157
g70
I3
ssg71
g3151
sg64
(lp3158
S''
asbasbasbag57
(g73
g59
NtRp3159
(dp3160
g62
(dp3161
sg71
g3025
sg64
(lp3162
g57
(g78
g59
NtRp3163
(dp3164
g62
(dp3165
g82
g83
ssg71
g3159
sg64
(lp3166
S'registration_key'
p3167
asbag57
(g78
g59
NtRp3168
(dp3169
g62
(dp3170
g89
g90
ssg71
g3159
sg64
(lp3171
S':'
asbag57
(g78
g59
NtRp3172
(dp3173
g62
(dp3174
sg71
g3159
sg64
(lp3175
g57
(g58
g59
NtRp3176
(dp3177
g62
(dp3178
g70
I3
ssg71
g3172
sg64
(lp3179
S''
asbasbasbag57
(g73
g59
NtRp3180
(dp3181
g62
(dp3182
sg71
g3025
sg64
(lp3183
g57
(g78
g59
NtRp3184
(dp3185
g62
(dp3186
g82
g83
ssg71
g3180
sg64
(lp3187
S'reset_password_key'
p3188
asbag57
(g78
g59
NtRp3189
(dp3190
g62
(dp3191
g89
g90
ssg71
g3180
sg64
(lp3192
S':'
asbag57
(g78
g59
NtRp3193
(dp3194
g62
(dp3195
sg71
g3180
sg64
(lp3196
g57
(g58
g59
NtRp3197
(dp3198
g62
(dp3199
g70
I3
ssg71
g3193
sg64
(lp3200
S''
asbasbasbasbasbasbasbasbasbasbasbag57
(g73
g59
NtRp3201
(dp3202
g62
(dp3203
sg71
g2888
sg64
(lp3204
g57
(g78
g59
NtRp3205
(dp3206
g62
(dp3207
g82
g83
ssg71
g3201
sg64
(lp3208
S'last_query'
p3209
asbag57
(g78
g59
NtRp3210
(dp3211
g62
(dp3212
g89
g90
ssg71
g3201
sg64
(lp3213
S':'
asbag57
(g78
g59
NtRp3214
(dp3215
g62
(dp3216
sg71
g3201
sg64
(lp3217
g57
(g58
g59
NtRp3218
(dp3219
g62
(dp3220
g70
I5
ssg71
g3214
sg64
(lp3221
S'db.Comments.id>0'
p3222
asbasbasbasbasbsS'etype'
p3223
S"<type 'exceptions.KeyError'>"
p3224
sS'date'
p3225
S'Fri Aug 30 03:43:36 2013'
p3226
sS'response'
p3227
g57
(g58
g59
NtRp3228
(dp3229
g62
(dp3230
sg64
(lp3231
g57
(g66
g59
NtRp3232
(dp3233
g62
(dp3234
g70
I5
ssg71
Nsg64
(lp3235
g57
(g73
g59
NtRp3236
(dp3237
g62
(dp3238
sg71
g3232
sg64
(lp3239
g57
(g78
g59
NtRp3240
(dp3241
g62
(dp3242
g82
g83
ssg71
g3236
sg64
(lp3243
g167
asbag57
(g78
g59
NtRp3244
(dp3245
g62
(dp3246
g89
g90
ssg71
g3236
sg64
(lp3247
S':'
asbag57
(g78
g59
NtRp3248
(dp3249
g62
(dp3250
sg71
g3236
sg64
(lp3251
g57
(g58
g59
NtRp3252
(dp3253
g62
(dp3254
g70
I5
ssg71
g3248
sg64
(lp3255
S'<cStringIO.StringO object at 0x7fdccc32f5a8>'
p3256
asbasbasbag57
(g73
g59
NtRp3257
(dp3258
g62
(dp3259
sg71
g3232
sg64
(lp3260
g57
(g78
g59
NtRp3261
(dp3262
g62
(dp3263
g82
g83
ssg71
g3257
sg64
(lp3264
g233
asbag57
(g78
g59
NtRp3265
(dp3266
g62
(dp3267
g89
g90
ssg71
g3257
sg64
(lp3268
S':'
asbag57
(g78
g59
NtRp3269
(dp3270
g62
(dp3271
sg71
g3257
sg64
(lp3272
g57
(g58
g59
NtRp3273
(dp3274
g62
(dp3275
g70
I5
ssg71
g3269
sg64
(lp3276
g57
(g66
g59
NtRp3277
(dp3278
g62
(dp3279
g70
I4
ssg71
Nsg64
(lp3280
g57
(g73
g59
NtRp3281
(dp3282
g62
(dp3283
sg71
g3277
sg64
(lp3284
g57
(g78
g59
NtRp3285
(dp3286
g62
(dp3287
g82
g83
ssg71
g3281
sg64
(lp3288
S'session_id_read_it'
p3289
asbag57
(g78
g59
NtRp3290
(dp3291
g62
(dp3292
g89
g90
ssg71
g3281
sg64
(lp3293
S':'
asbag57
(g78
g59
NtRp3294
(dp3295
g62
(dp3296
sg71
g3281
sg64
(lp3297
g57
(g58
g59
NtRp3298
(dp3299
g62
(dp3300
g70
I4
ssg71
g3294
sg64
(lp3301
g57
(g66
g59
NtRp3302
(dp3303
g62
(dp3304
g70
I3
ssg71
Nsg64
(lp3305
g57
(g73
g59
NtRp3306
(dp3307
g62
(dp3308
sg71
g3302
sg64
(lp3309
g57
(g78
g59
NtRp3310
(dp3311
g62
(dp3312
g82
g83
ssg71
g3306
sg64
(lp3313
g283
asbag57
(g78
g59
NtRp3314
(dp3315
g62
(dp3316
g89
g90
ssg71
g3306
sg64
(lp3317
S':'
asbag57
(g78
g59
NtRp3318
(dp3319
g62
(dp3320
sg71
g3306
sg64
(lp3321
g57
(g58
g59
NtRp3322
(dp3323
g62
(dp3324
g70
I3
ssg71
g3318
sg64
(lp3325
S''
asbasbasbag57
(g73
g59
NtRp3326
(dp3327
g62
(dp3328
sg71
g3302
sg64
(lp3329
g57
(g78
g59
NtRp3330
(dp3331
g62
(dp3332
g82
g83
ssg71
g3326
sg64
(lp3333
g304
asbag57
(g78
g59
NtRp3334
(dp3335
g62
(dp3336
g89
g90
ssg71
g3326
sg64
(lp3337
S':'
asbag57
(g78
g59
NtRp3338
(dp3339
g62
(dp3340
sg71
g3326
sg64
(lp3341
g57
(g58
g59
NtRp3342
(dp3343
g62
(dp3344
g70
I3
ssg71
g3338
sg64
(lp3345
S''
asbasbasbag57
(g73
g59
NtRp3346
(dp3347
g62
(dp3348
sg71
g3302
sg64
(lp3349
g57
(g78
g59
NtRp3350
(dp3351
g62
(dp3352
g82
g83
ssg71
g3346
sg64
(lp3353
g325
asbag57
(g78
g59
NtRp3354
(dp3355
g62
(dp3356
g89
g90
ssg71
g3346
sg64
(lp3357
S':'
asbag57
(g78
g59
NtRp3358
(dp3359
g62
(dp3360
sg71
g3346
sg64
(lp3361
g57
(g58
g59
NtRp3362
(dp3363
g62
(dp3364
g70
I3
ssg71
g3358
sg64
(lp3365
S''
asbasbasbag57
(g73
g59
NtRp3366
(dp3367
g62
(dp3368
sg71
g3302
sg64
(lp3369
g57
(g78
g59
NtRp3370
(dp3371
g62
(dp3372
g82
g83
ssg71
g3366
sg64
(lp3373
g346
asbag57
(g78
g59
NtRp3374
(dp3375
g62
(dp3376
g89
g90
ssg71
g3366
sg64
(lp3377
S':'
asbag57
(g78
g59
NtRp3378
(dp3379
g62
(dp3380
sg71
g3366
sg64
(lp3381
g57
(g58
g59
NtRp3382
(dp3383
g62
(dp3384
g70
I3
ssg71
g3378
sg64
(lp3385
S''
asbasbasbag57
(g73
g59
NtRp3386
(dp3387
g62
(dp3388
sg71
g3302
sg64
(lp3389
g57
(g78
g59
NtRp3390
(dp3391
g62
(dp3392
g82
g83
ssg71
g3386
sg64
(lp3393
g367
asbag57
(g78
g59
NtRp3394
(dp3395
g62
(dp3396
g89
g90
ssg71
g3386
sg64
(lp3397
S':'
asbag57
(g78
g59
NtRp3398
(dp3399
g62
(dp3400
sg71
g3386
sg64
(lp3401
g57
(g58
g59
NtRp3402
(dp3403
g62
(dp3404
g70
I3
ssg71
g3398
sg64
(lp3405
S''
asbasbasbag57
(g73
g59
NtRp3406
(dp3407
g62
(dp3408
sg71
g3302
sg64
(lp3409
g57
(g78
g59
NtRp3410
(dp3411
g62
(dp3412
g82
g83
ssg71
g3406
sg64
(lp3413
g388
asbag57
(g78
g59
NtRp3414
(dp3415
g62
(dp3416
g89
g90
ssg71
g3406
sg64
(lp3417
S':'
asbag57
(g78
g59
NtRp3418
(dp3419
g62
(dp3420
sg71
g3406
sg64
(lp3421
g57
(g58
g59
NtRp3422
(dp3423
g62
(dp3424
g70
I3
ssg71
g3418
sg64
(lp3425
S'/'
asbasbasbag57
(g73
g59
NtRp3426
(dp3427
g62
(dp3428
sg71
g3302
sg64
(lp3429
g57
(g78
g59
NtRp3430
(dp3431
g62
(dp3432
g82
g83
ssg71
g3426
sg64
(lp3433
g409
asbag57
(g78
g59
NtRp3434
(dp3435
g62
(dp3436
g89
g90
ssg71
g3426
sg64
(lp3437
S':'
asbag57
(g78
g59
NtRp3438
(dp3439
g62
(dp3440
sg71
g3426
sg64
(lp3441
g57
(g58
g59
NtRp3442
(dp3443
g62
(dp3444
g70
I3
ssg71
g3438
sg64
(lp3445
S''
asbasbasbag57
(g73
g59
NtRp3446
(dp3447
g62
(dp3448
sg71
g3302
sg64
(lp3449
g57
(g78
g59
NtRp3450
(dp3451
g62
(dp3452
g82
g83
ssg71
g3446
sg64
(lp3453
g430
asbag57
(g78
g59
NtRp3454
(dp3455
g62
(dp3456
g89
g90
ssg71
g3446
sg64
(lp3457
S':'
asbag57
(g78
g59
NtRp3458
(dp3459
g62
(dp3460
sg71
g3446
sg64
(lp3461
g57
(g58
g59
NtRp3462
(dp3463
g62
(dp3464
g70
I3
ssg71
g3458
sg64
(lp3465
S''
asbasbasbasbasbasbasbasbasbasbasbag57
(g73
g59
NtRp3466
(dp3467
g62
(dp3468
sg71
g3232
sg64
(lp3469
g57
(g78
g59
NtRp3470
(dp3471
g62
(dp3472
g82
g83
ssg71
g3466
sg64
(lp3473
S'files'
p3474
asbag57
(g78
g59
NtRp3475
(dp3476
g62
(dp3477
g89
g90
ssg71
g3466
sg64
(lp3478
S':'
asbag57
(g78
g59
NtRp3479
(dp3480
g62
(dp3481
sg71
g3466
sg64
(lp3482
g57
(g58
g59
NtRp3483
(dp3484
g62
(dp3485
g70
I5
ssg71
g3479
sg64
(lp3486
g57
(g66
g59
NtRp3487
(dp3488
g62
(dp3489
g70
I4
ssg71
Nsg64
(lp3490
g57
(g73
g59
NtRp3491
(dp3492
g62
(dp3493
sg71
g3487
sg64
(lp3494
g57
(g78
g59
NtRp3495
(dp3496
g62
(dp3497
sg71
g3491
sg64
(lp3498
g57
(g58
g59
NtRp3499
(dp3500
g62
(dp3501
g70
I4
ssg71
g3495
sg64
(lp3502
S'/Read_it/static/js/jquery.js'
p3503
asbasbasbag57
(g73
g59
NtRp3504
(dp3505
g62
(dp3506
sg71
g3487
sg64
(lp3507
g57
(g78
g59
NtRp3508
(dp3509
g62
(dp3510
sg71
g3504
sg64
(lp3511
g57
(g58
g59
NtRp3512
(dp3513
g62
(dp3514
g70
I4
ssg71
g3508
sg64
(lp3515
S'/Read_it/static/css/calendar.css'
p3516
asbasbasbag57
(g73
g59
NtRp3517
(dp3518
g62
(dp3519
sg71
g3487
sg64
(lp3520
g57
(g78
g59
NtRp3521
(dp3522
g62
(dp3523
sg71
g3517
sg64
(lp3524
g57
(g58
g59
NtRp3525
(dp3526
g62
(dp3527
g70
I4
ssg71
g3521
sg64
(lp3528
S'/Read_it/static/js/calendar.js'
p3529
asbasbasbag57
(g73
g59
NtRp3530
(dp3531
g62
(dp3532
sg71
g3487
sg64
(lp3533
g57
(g78
g59
NtRp3534
(dp3535
g62
(dp3536
sg71
g3530
sg64
(lp3537
g57
(g58
g59
NtRp3538
(dp3539
g62
(dp3540
g70
I4
ssg71
g3534
sg64
(lp3541
S'/Read_it/static/js/web2py.js'
p3542
asbasbasbag57
(g73
g59
NtRp3543
(dp3544
g62
(dp3545
sg71
g3487
sg64
(lp3546
g57
(g78
g59
NtRp3547
(dp3548
g62
(dp3549
sg71
g3543
sg64
(lp3550
g57
(g58
g59
NtRp3551
(dp3552
g62
(dp3553
g70
I4
ssg71
g3547
sg64
(lp3554
S'/Read_it/static/plugin_layouts/layouts/CupofCoffee/default.css'
p3555
asbasbasbag57
(g73
g59
NtRp3556
(dp3557
g62
(dp3558
sg71
g3487
sg64
(lp3559
g57
(g78
g59
NtRp3560
(dp3561
g62
(dp3562
sg71
g3556
sg64
(lp3563
g57
(g58
g59
NtRp3564
(dp3565
g62
(dp3566
g70
I4
ssg71
g3560
sg64
(lp3567
S'/Read_it/static/plugin_layouts/superfish.js'
p3568
asbasbasbasbasbasbasbag57
(g73
g59
NtRp3569
(dp3570
g62
(dp3571
sg71
g3232
sg64
(lp3572
g57
(g78
g59
NtRp3573
(dp3574
g62
(dp3575
g82
g83
ssg71
g3569
sg64
(lp3576
S'flash'
p3577
asbag57
(g78
g59
NtRp3578
(dp3579
g62
(dp3580
g89
g90
ssg71
g3569
sg64
(lp3581
S':'
asbag57
(g78
g59
NtRp3582
(dp3583
g62
(dp3584
sg71
g3569
sg64
(lp3585
g57
(g58
g59
NtRp3586
(dp3587
g62
(dp3588
g70
I5
ssg71
g3582
sg64
(lp3589
S'Please post'
p3590
asbasbasbag57
(g73
g59
NtRp3591
(dp3592
g62
(dp3593
sg71
g3232
sg64
(lp3594
g57
(g78
g59
NtRp3595
(dp3596
g62
(dp3597
g82
g83
ssg71
g3591
sg64
(lp3598
S'generic_patterns'
p3599
asbag57
(g78
g59
NtRp3600
(dp3601
g62
(dp3602
g89
g90
ssg71
g3591
sg64
(lp3603
S':'
asbag57
(g78
g59
NtRp3604
(dp3605
g62
(dp3606
sg71
g3591
sg64
(lp3607
g57
(g58
g59
NtRp3608
(dp3609
g62
(dp3610
g70
I5
ssg71
g3604
sg64
(lp3611
g57
(g66
g59
NtRp3612
(dp3613
g62
(dp3614
g70
I4
ssg71
Nsg64
(lp3615
g57
(g73
g59
NtRp3616
(dp3617
g62
(dp3618
sg71
g3612
sg64
(lp3619
g57
(g78
g59
NtRp3620
(dp3621
g62
(dp3622
sg71
g3616
sg64
(lp3623
g57
(g58
g59
NtRp3624
(dp3625
g62
(dp3626
g70
I4
ssg71
g3620
sg64
(lp3627
S'*'
asbasbasbasbasbasbasbag57
(g73
g59
NtRp3628
(dp3629
g62
(dp3630
sg71
g3232
sg64
(lp3631
g57
(g78
g59
NtRp3632
(dp3633
g62
(dp3634
g82
g83
ssg71
g3628
sg64
(lp3635
S'headers'
p3636
asbag57
(g78
g59
NtRp3637
(dp3638
g62
(dp3639
g89
g90
ssg71
g3628
sg64
(lp3640
S':'
asbag57
(g78
g59
NtRp3641
(dp3642
g62
(dp3643
sg71
g3628
sg64
(lp3644
g57
(g58
g59
NtRp3645
(dp3646
g62
(dp3647
g70
I5
ssg71
g3641
sg64
(lp3648
g57
(g66
g59
NtRp3649
(dp3650
g62
(dp3651
g70
I4
ssg71
Nsg64
(lp3652
g57
(g73
g59
NtRp3653
(dp3654
g62
(dp3655
sg71
g3649
sg64
(lp3656
g57
(g78
g59
NtRp3657
(dp3658
g62
(dp3659
g82
g83
ssg71
g3653
sg64
(lp3660
S'Cache-Control'
p3661
asbag57
(g78
g59
NtRp3662
(dp3663
g62
(dp3664
g89
g90
ssg71
g3653
sg64
(lp3665
S':'
asbag57
(g78
g59
NtRp3666
(dp3667
g62
(dp3668
sg71
g3653
sg64
(lp3669
g57
(g58
g59
NtRp3670
(dp3671
g62
(dp3672
g70
I4
ssg71
g3666
sg64
(lp3673
S'no-store, no-cache, must-revalidate, post-check=0, pre-check=0'
p3674
asbasbasbag57
(g73
g59
NtRp3675
(dp3676
g62
(dp3677
sg71
g3649
sg64
(lp3678
g57
(g78
g59
NtRp3679
(dp3680
g62
(dp3681
g82
g83
ssg71
g3675
sg64
(lp3682
S'Content-Type'
p3683
asbag57
(g78
g59
NtRp3684
(dp3685
g62
(dp3686
g89
g90
ssg71
g3675
sg64
(lp3687
S':'
asbag57
(g78
g59
NtRp3688
(dp3689
g62
(dp3690
sg71
g3675
sg64
(lp3691
g57
(g58
g59
NtRp3692
(dp3693
g62
(dp3694
g70
I4
ssg71
g3688
sg64
(lp3695
S'text/html; charset=utf-8'
p3696
asbasbasbag57
(g73
g59
NtRp3697
(dp3698
g62
(dp3699
sg71
g3649
sg64
(lp3700
g57
(g78
g59
NtRp3701
(dp3702
g62
(dp3703
g82
g83
ssg71
g3697
sg64
(lp3704
S'Expires'
p3705
asbag57
(g78
g59
NtRp3706
(dp3707
g62
(dp3708
g89
g90
ssg71
g3697
sg64
(lp3709
S':'
asbag57
(g78
g59
NtRp3710
(dp3711
g62
(dp3712
sg71
g3697
sg64
(lp3713
g57
(g58
g59
NtRp3714
(dp3715
g62
(dp3716
g70
I4
ssg71
g3710
sg64
(lp3717
S'Thu, 29 Aug 2013 22:13:36 GMT'
p3718
asbasbasbag57
(g73
g59
NtRp3719
(dp3720
g62
(dp3721
sg71
g3649
sg64
(lp3722
g57
(g78
g59
NtRp3723
(dp3724
g62
(dp3725
g82
g83
ssg71
g3719
sg64
(lp3726
S'Pragma'
p3727
asbag57
(g78
g59
NtRp3728
(dp3729
g62
(dp3730
g89
g90
ssg71
g3719
sg64
(lp3731
S':'
asbag57
(g78
g59
NtRp3732
(dp3733
g62
(dp3734
sg71
g3719
sg64
(lp3735
g57
(g58
g59
NtRp3736
(dp3737
g62
(dp3738
g70
I4
ssg71
g3732
sg64
(lp3739
S'no-cache'
p3740
asbasbasbag57
(g73
g59
NtRp3741
(dp3742
g62
(dp3743
sg71
g3649
sg64
(lp3744
g57
(g78
g59
NtRp3745
(dp3746
g62
(dp3747
g82
g83
ssg71
g3741
sg64
(lp3748
S'X-Powered-By'
p3749
asbag57
(g78
g59
NtRp3750
(dp3751
g62
(dp3752
g89
g90
ssg71
g3741
sg64
(lp3753
S':'
asbag57
(g78
g59
NtRp3754
(dp3755
g62
(dp3756
sg71
g3741
sg64
(lp3757
g57
(g58
g59
NtRp3758
(dp3759
g62
(dp3760
g70
I4
ssg71
g3754
sg64
(lp3761
S'web2py'
p3762
asbasbasbasbasbasbasbag57
(g73
g59
NtRp3763
(dp3764
g62
(dp3765
sg71
g3232
sg64
(lp3766
g57
(g78
g59
NtRp3767
(dp3768
g62
(dp3769
g82
g83
ssg71
g3763
sg64
(lp3770
S'menu'
p3771
asbag57
(g78
g59
NtRp3772
(dp3773
g62
(dp3774
g89
g90
ssg71
g3763
sg64
(lp3775
S':'
asbag57
(g78
g59
NtRp3776
(dp3777
g62
(dp3778
sg71
g3763
sg64
(lp3779
g57
(g58
g59
NtRp3780
(dp3781
g62
(dp3782
g70
I5
ssg71
g3776
sg64
(lp3783
g57
(g66
g59
NtRp3784
(dp3785
g62
(dp3786
g70
I4
ssg71
Nsg64
(lp3787
g57
(g73
g59
NtRp3788
(dp3789
g62
(dp3790
sg71
g3784
sg64
(lp3791
g57
(g78
g59
NtRp3792
(dp3793
g62
(dp3794
sg71
g3788
sg64
(lp3795
g57
(g58
g59
NtRp3796
(dp3797
g62
(dp3798
g70
I4
ssg71
g3792
sg64
(lp3799
g57
(g66
g59
NtRp3800
(dp3801
g62
(dp3802
g70
I3
ssg71
Nsg64
(lp3803
g57
(g73
g59
NtRp3804
(dp3805
g62
(dp3806
sg71
g3800
sg64
(lp3807
g57
(g78
g59
NtRp3808
(dp3809
g62
(dp3810
sg71
g3804
sg64
(lp3811
g57
(g58
g59
NtRp3812
(dp3813
g62
(dp3814
g70
I3
ssg71
g3808
sg64
(lp3815
cgluon.languages
lazyT_unpickle
p3816
(S't\x04\x00\x00\x00Home'
tRp3817
asbasbasbag57
(g73
g59
NtRp3818
(dp3819
g62
(dp3820
sg71
g3800
sg64
(lp3821
g57
(g78
g59
NtRp3822
(dp3823
g62
(dp3824
sg71
g3818
sg64
(lp3825
g57
(g58
g59
NtRp3826
(dp3827
g62
(dp3828
g70
I3
ssg71
g3822
sg64
(lp3829
g100
asbasbasbag57
(g73
g59
NtRp3830
(dp3831
g62
(dp3832
sg71
g3800
sg64
(lp3833
g57
(g78
g59
NtRp3834
(dp3835
g62
(dp3836
sg71
g3830
sg64
(lp3837
g57
(g58
g59
NtRp3838
(dp3839
g62
(dp3840
g70
I3
ssg71
g3834
sg64
(lp3841
S'/Read_it/default/index'
p3842
asbasbasbag57
(g73
g59
NtRp3843
(dp3844
g62
(dp3845
sg71
g3800
sg64
(lp3846
g57
(g78
g59
NtRp3847
(dp3848
g62
(dp3849
sg71
g3843
sg64
(lp3850
g57
(g58
g59
NtRp3851
(dp3852
g62
(dp3853
g70
I3
ssg71
g3847
sg64
(lp3854
g57
(g66
g59
NtRp3855
(dp3856
g62
(dp3857
g70
I2
ssg71
Nsg64
(lp3858
sbasbasbasbasbasbasbasbag57
(g73
g59
NtRp3859
(dp3860
g62
(dp3861
sg71
g3784
sg64
(lp3862
g57
(g78
g59
NtRp3863
(dp3864
g62
(dp3865
sg71
g3859
sg64
(lp3866
g57
(g58
g59
NtRp3867
(dp3868
g62
(dp3869
g70
I4
ssg71
g3863
sg64
(lp3870
g57
(g66
g59
NtRp3871
(dp3872
g62
(dp3873
g70
I3
ssg71
Nsg64
(lp3874
g57
(g73
g59
NtRp3875
(dp3876
g62
(dp3877
sg71
g3871
sg64
(lp3878
g57
(g78
g59
NtRp3879
(dp3880
g62
(dp3881
sg71
g3875
sg64
(lp3882
g57
(g58
g59
NtRp3883
(dp3884
g62
(dp3885
g70
I3
ssg71
g3879
sg64
(lp3886
g57
(cgluon.html
SPAN
p3887
g59
NtRp3888
(dp3889
g62
(dp3890
g82
S'color:yellow'
p3891
ssg71
g57
(cgluon.html
A
p3892
g59
NtRp3893
(dp3894
g62
(dp3895
S'_onclick'
p3896
S'javascript:void(0);return false;'
p3897
sS'_href'
p3898
S'#'
ssg71
g57
(cgluon.html
LI
p3899
g59
NtRp3900
(dp3901
g62
(dp3902
S'_class'
p3903
S'web2py-menu-expand'
p3904
ssg71
g57
(cgluon.html
UL
p3905
g59
NtRp3906
(dp3907
g62
(dp3908
S'li_class'
p3909
g3904
sS'mobile'
p3910
I00
sg3903
S'web2py-menu'
p3911
sS'ul_class'
p3912
S'web2py-menu-vertical'
p3913
sS'li_active'
p3914
S'web2py-menu-active'
p3915
ssg71
Nsg64
(lp3916
g57
(g3899
g59
NtRp3917
(dp3918
g62
(dp3919
sg71
g3906
sg64
(lp3920
g57
(g3892
g59
NtRp3921
(dp3922
g62
(dp3923
g3898
g3842
ssg71
g3917
sg64
(lp3924
g3817
asbasbag3900
asbsg64
(lp3925
g3893
ag57
(g3905
g59
NtRp3926
(dp3927
g62
(dp3928
g3903
g3913
ssg71
g3900
sg64
(lp3929
g57
(g3899
g59
NtRp3930
(dp3931
g62
(dp3932
sg71
g3926
sg64
(lp3933
g57
(g3892
g59
NtRp3934
(dp3935
g62
(dp3936
g3898
S'/admin/default/site'
p3937
ssg71
g3930
sg64
(lp3938
g3816
(S's\x08\x00\x00\x00My Sites'
tRp3939
asbasbag57
(g3899
g59
NtRp3940
(dp3941
g62
(dp3942
g3903
g3904
ssg71
g3926
sg64
(lp3943
g57
(g3892
g59
NtRp3944
(dp3945
g62
(dp3946
g3898
S'/admin/default/design/Read_it'
p3947
ssg71
g3940
sg64
(lp3948
g3816
(S's\x08\x00\x00\x00This App'
tRp3949
asbag57
(g3905
g59
NtRp3950
(dp3951
g62
(dp3952
g3903
g3913
ssg71
g3940
sg64
(lp3953
g57
(g3899
g59
NtRp3954
(dp3955
g62
(dp3956
sg71
g3950
sg64
(lp3957
g57
(g3892
g59
NtRp3958
(dp3959
g62
(dp3960
g3898
S'/admin/default/edit/Read_it/controllers/default.py'
p3961
ssg71
g3954
sg64
(lp3962
g3816
(S't\n\x00\x00\x00Controller'
tRp3963
asbasbag57
(g3899
g59
NtRp3964
(dp3965
g62
(dp3966
sg71
g3950
sg64
(lp3967
g57
(g3892
g59
NtRp3968
(dp3969
g62
(dp3970
g3898
S'/admin/default/edit/Read_it/views/default/comments.html'
p3971
ssg71
g3964
sg64
(lp3972
g3816
(S't\x04\x00\x00\x00View'
tRp3973
asbasbag57
(g3899
g59
NtRp3974
(dp3975
g62
(dp3976
sg71
g3950
sg64
(lp3977
g57
(g3892
g59
NtRp3978
(dp3979
g62
(dp3980
g3898
S'/admin/default/edit/Read_it/views/layout.html'
p3981
ssg71
g3974
sg64
(lp3982
g3816
(S't\x06\x00\x00\x00Layout'
tRp3983
asbasbag57
(g3899
g59
NtRp3984
(dp3985
g62
(dp3986
sg71
g3950
sg64
(lp3987
g57
(g3892
g59
NtRp3988
(dp3989
g62
(dp3990
g3898
S'/admin/default/edit/Read_it/static/css/web2py.css'
p3991
ssg71
g3984
sg64
(lp3992
g3816
(S't\n\x00\x00\x00Stylesheet'
tRp3993
asbasbag57
(g3899
g59
NtRp3994
(dp3995
g62
(dp3996
sg71
g3950
sg64
(lp3997
g57
(g3892
g59
NtRp3998
(dp3999
g62
(dp4000
g3898
S'/admin/default/edit/Read_it/models/db.py'
p4001
ssg71
g3994
sg64
(lp4002
g3816
(S's\x08\x00\x00\x00DB Model'
tRp4003
asbasbag57
(g3899
g59
NtRp4004
(dp4005
g62
(dp4006
sg71
g3950
sg64
(lp4007
g57
(g3892
g59
NtRp4008
(dp4009
g62
(dp4010
g3898
S'/admin/default/edit/Read_it/models/menu.py'
p4011
ssg71
g4004
sg64
(lp4012
g3816
(S's\n\x00\x00\x00Menu Model'
tRp4013
asbasbag57
(g3899
g59
NtRp4014
(dp4015
g62
(dp4016
sg71
g3950
sg64
(lp4017
g57
(g3892
g59
NtRp4018
(dp4019
g62
(dp4020
g3898
S'/Read_it/appadmin/index'
p4021
ssg71
g4014
sg64
(lp4022
g3816
(S't\x08\x00\x00\x00Database'
tRp4023
asbasbag57
(g3899
g59
NtRp4024
(dp4025
g62
(dp4026
sg71
g3950
sg64
(lp4027
g57
(g3892
g59
NtRp4028
(dp4029
g62
(dp4030
g3898
S'/admin/default/errors/Read_it'
p4031
ssg71
g4024
sg64
(lp4032
g3816
(S't\x06\x00\x00\x00Errors'
tRp4033
asbasbag57
(g3899
g59
NtRp4034
(dp4035
g62
(dp4036
sg71
g3950
sg64
(lp4037
g57
(g3892
g59
NtRp4038
(dp4039
g62
(dp4040
g3898
S'/admin/default/about/Read_it'
p4041
ssg71
g4034
sg64
(lp4042
g3816
(S't\x05\x00\x00\x00About'
tRp4043
asbasbasbasbag57
(g3899
g59
NtRp4044
(dp4045
g62
(dp4046
g3903
g3904
ssg71
g3926
sg64
(lp4047
g57
(g3892
g59
NtRp4048
(dp4049
g62
(dp4050
g3898
S'http://www.web2py.com'
p4051
ssg71
g4044
sg64
(lp4052
S'web2py.com'
p4053
asbag57
(g3905
g59
NtRp4054
(dp4055
g62
(dp4056
g3903
g3913
ssg71
g4044
sg64
(lp4057
g57
(g3899
g59
NtRp4058
(dp4059
g62
(dp4060
sg71
g4054
sg64
(lp4061
g57
(g3892
g59
NtRp4062
(dp4063
g62
(dp4064
g3898
S'http://www.web2py.com/examples/default/download'
p4065
ssg71
g4058
sg64
(lp4066
g3816
(S't\x08\x00\x00\x00Download'
tRp4067
asbasbag57
(g3899
g59
NtRp4068
(dp4069
g62
(dp4070
sg71
g4054
sg64
(lp4071
g57
(g3892
g59
NtRp4072
(dp4073
g62
(dp4074
g3898
S'http://www.web2py.com/examples/default/support'
p4075
ssg71
g4068
sg64
(lp4076
g3816
(S't\x07\x00\x00\x00Support'
tRp4077
asbasbag57
(g3899
g59
NtRp4078
(dp4079
g62
(dp4080
sg71
g4054
sg64
(lp4081
g57
(g3892
g59
NtRp4082
(dp4083
g62
(dp4084
g3898
S'http://web2py.com/demo_admin'
p4085
ssg71
g4078
sg64
(lp4086
g3816
(S't\x04\x00\x00\x00Demo'
tRp4087
asbasbag57
(g3899
g59
NtRp4088
(dp4089
g62
(dp4090
sg71
g4054
sg64
(lp4091
g57
(g3892
g59
NtRp4092
(dp4093
g62
(dp4094
g3898
S'http://web2py.com/examples/default/examples'
p4095
ssg71
g4088
sg64
(lp4096
g3816
(S's\x0e\x00\x00\x00Quick Examples'
tRp4097
asbasbag57
(g3899
g59
NtRp4098
(dp4099
g62
(dp4100
sg71
g4054
sg64
(lp4101
g57
(g3892
g59
NtRp4102
(dp4103
g62
(dp4104
g3898
S'http://web2py.com/AlterEgo'
p4105
ssg71
g4098
sg64
(lp4106
g3816
(S't\x03\x00\x00\x00FAQ'
tRp4107
asbasbag57
(g3899
g59
NtRp4108
(dp4109
g62
(dp4110
sg71
g4054
sg64
(lp4111
g57
(g3892
g59
NtRp4112
(dp4113
g62
(dp4114
g3898
S'http://www.web2py.com/examples/default/videos/'
p4115
ssg71
g4108
sg64
(lp4116
g3816
(S't\x06\x00\x00\x00Videos'
tRp4117
asbasbag57
(g3899
g59
NtRp4118
(dp4119
g62
(dp4120
sg71
g4054
sg64
(lp4121
g57
(g3892
g59
NtRp4122
(dp4123
g62
(dp4124
g3898
S'http://web2py.com/appliances'
p4125
ssg71
g4118
sg64
(lp4126
g3816
(S's\x11\x00\x00\x00Free Applications'
tRp4127
asbasbag57
(g3899
g59
NtRp4128
(dp4129
g62
(dp4130
sg71
g4054
sg64
(lp4131
g57
(g3892
g59
NtRp4132
(dp4133
g62
(dp4134
g3898
S'http://web2py.com/plugins'
p4135
ssg71
g4128
sg64
(lp4136
g3816
(S't\x07\x00\x00\x00Plugins'
tRp4137
asbasbag57
(g3899
g59
NtRp4138
(dp4139
g62
(dp4140
sg71
g4054
sg64
(lp4141
g57
(g3892
g59
NtRp4142
(dp4143
g62
(dp4144
g3898
S'http://web2py.com/layouts'
p4145
ssg71
g4138
sg64
(lp4146
g3816
(S't\x07\x00\x00\x00Layouts'
tRp4147
asbasbag57
(g3899
g59
NtRp4148
(dp4149
g62
(dp4150
sg71
g4054
sg64
(lp4151
g57
(g3892
g59
NtRp4152
(dp4153
g62
(dp4154
g3898
S'http://web2pyslices.com/'
p4155
ssg71
g4148
sg64
(lp4156
g3816
(S't\x07\x00\x00\x00Recipes'
tRp4157
asbasbag57
(g3899
g59
NtRp4158
(dp4159
g62
(dp4160
sg71
g4054
sg64
(lp4161
g57
(g3892
g59
NtRp4162
(dp4163
g62
(dp4164
g3898
S'http://web2py.com/semantic'
p4165
ssg71
g4158
sg64
(lp4166
g3816
(S't\x08\x00\x00\x00Semantic'
tRp4167
asbasbasbasbag57
(g3899
g59
NtRp4168
(dp4169
g62
(dp4170
g3903
g3904
ssg71
g3926
sg64
(lp4171
g57
(g3892
g59
NtRp4172
(dp4173
g62
(dp4174
g3898
S'http://www.web2py.com/book'
p4175
ssg71
g4168
sg64
(lp4176
g3816
(S't\r\x00\x00\x00Documentation'
tRp4177
asbag57
(g3905
g59
NtRp4178
(dp4179
g62
(dp4180
g3903
g3913
ssg71
g4168
sg64
(lp4181
g57
(g3899
g59
NtRp4182
(dp4183
g62
(dp4184
sg71
g4178
sg64
(lp4185
g57
(g3892
g59
NtRp4186
(dp4187
g62
(dp4188
g3898
S'http://www.web2py.com/book/default/chapter/00'
p4189
ssg71
g4182
sg64
(lp4190
g3816
(S't\x07\x00\x00\x00Preface'
tRp4191
asbasbag57
(g3899
g59
NtRp4192
(dp4193
g62
(dp4194
sg71
g4178
sg64
(lp4195
g57
(g3892
g59
NtRp4196
(dp4197
g62
(dp4198
g3898
S'http://www.web2py.com/book/default/chapter/01'
p4199
ssg71
g4192
sg64
(lp4200
g3816
(S't\x0c\x00\x00\x00Introduction'
tRp4201
asbasbag57
(g3899
g59
NtRp4202
(dp4203
g62
(dp4204
sg71
g4178
sg64
(lp4205
g57
(g3892
g59
NtRp4206
(dp4207
g62
(dp4208
g3898
S'http://www.web2py.com/book/default/chapter/02'
p4209
ssg71
g4202
sg64
(lp4210
g3816
(S't\x06\x00\x00\x00Python'
tRp4211
asbasbag57
(g3899
g59
NtRp4212
(dp4213
g62
(dp4214
sg71
g4178
sg64
(lp4215
g57
(g3892
g59
NtRp4216
(dp4217
g62
(dp4218
g3898
S'http://www.web2py.com/book/default/chapter/03'
p4219
ssg71
g4212
sg64
(lp4220
g3816
(S't\x08\x00\x00\x00Overview'
tRp4221
asbasbag57
(g3899
g59
NtRp4222
(dp4223
g62
(dp4224
sg71
g4178
sg64
(lp4225
g57
(g3892
g59
NtRp4226
(dp4227
g62
(dp4228
g3898
S'http://www.web2py.com/book/default/chapter/04'
p4229
ssg71
g4222
sg64
(lp4230
g3816
(S's\x08\x00\x00\x00The Core'
tRp4231
asbasbag57
(g3899
g59
NtRp4232
(dp4233
g62
(dp4234
sg71
g4178
sg64
(lp4235
g57
(g3892
g59
NtRp4236
(dp4237
g62
(dp4238
g3898
S'http://www.web2py.com/book/default/chapter/05'
p4239
ssg71
g4232
sg64
(lp4240
g3816
(S's\t\x00\x00\x00The Views'
tRp4241
asbasbag57
(g3899
g59
NtRp4242
(dp4243
g62
(dp4244
sg71
g4178
sg64
(lp4245
g57
(g3892
g59
NtRp4246
(dp4247
g62
(dp4248
g3898
S'http://www.web2py.com/book/default/chapter/06'
p4249
ssg71
g4242
sg64
(lp4250
g3816
(S't\x08\x00\x00\x00Database'
tRp4251
asbasbag57
(g3899
g59
NtRp4252
(dp4253
g62
(dp4254
sg71
g4178
sg64
(lp4255
g57
(g3892
g59
NtRp4256
(dp4257
g62
(dp4258
g3898
S'http://www.web2py.com/book/default/chapter/07'
p4259
ssg71
g4252
sg64
(lp4260
g3816
(S's\x14\x00\x00\x00Forms and Validators'
tRp4261
asbasbag57
(g3899
g59
NtRp4262
(dp4263
g62
(dp4264
sg71
g4178
sg64
(lp4265
g57
(g3892
g59
NtRp4266
(dp4267
g62
(dp4268
g3898
S'http://www.web2py.com/book/default/chapter/08'
p4269
ssg71
g4262
sg64
(lp4270
g3816
(S's\r\x00\x00\x00Email and SMS'
tRp4271
asbasbag57
(g3899
g59
NtRp4272
(dp4273
g62
(dp4274
sg71
g4178
sg64
(lp4275
g57
(g3892
g59
NtRp4276
(dp4277
g62
(dp4278
g3898
S'http://www.web2py.com/book/default/chapter/09'
p4279
ssg71
g4272
sg64
(lp4280
g3816
(S's\x0e\x00\x00\x00Access Control'
tRp4281
asbasbag57
(g3899
g59
NtRp4282
(dp4283
g62
(dp4284
sg71
g4178
sg64
(lp4285
g57
(g3892
g59
NtRp4286
(dp4287
g62
(dp4288
g3898
S'http://www.web2py.com/book/default/chapter/10'
p4289
ssg71
g4282
sg64
(lp4290
g3816
(S't\x08\x00\x00\x00Services'
tRp4291
asbasbag57
(g3899
g59
NtRp4292
(dp4293
g62
(dp4294
sg71
g4178
sg64
(lp4295
g57
(g3892
g59
NtRp4296
(dp4297
g62
(dp4298
g3898
S'http://www.web2py.com/book/default/chapter/11'
p4299
ssg71
g4292
sg64
(lp4300
g3816
(S's\x0c\x00\x00\x00Ajax Recipes'
tRp4301
asbasbag57
(g3899
g59
NtRp4302
(dp4303
g62
(dp4304
sg71
g4178
sg64
(lp4305
g57
(g3892
g59
NtRp4306
(dp4307
g62
(dp4308
g3898
S'http://www.web2py.com/book/default/chapter/12'
p4309
ssg71
g4302
sg64
(lp4310
g3816
(S's\x16\x00\x00\x00Components and Plugins'
tRp4311
asbasbag57
(g3899
g59
NtRp4312
(dp4313
g62
(dp4314
sg71
g4178
sg64
(lp4315
g57
(g3892
g59
NtRp4316
(dp4317
g62
(dp4318
g3898
S'http://www.web2py.com/book/default/chapter/13'
p4319
ssg71
g4312
sg64
(lp4320
g3816
(S's\x12\x00\x00\x00Deployment Recipes'
tRp4321
asbasbag57
(g3899
g59
NtRp4322
(dp4323
g62
(dp4324
sg71
g4178
sg64
(lp4325
g57
(g3892
g59
NtRp4326
(dp4327
g62
(dp4328
g3898
S'http://www.web2py.com/book/default/chapter/14'
p4329
ssg71
g4322
sg64
(lp4330
g3816
(S's\r\x00\x00\x00Other Recipes'
tRp4331
asbasbag57
(g3899
g59
NtRp4332
(dp4333
g62
(dp4334
sg71
g4178
sg64
(lp4335
g57
(g3892
g59
NtRp4336
(dp4337
g62
(dp4338
g3898
S'http://stores.lulu.com/web2py'
p4339
ssg71
g4332
sg64
(lp4340
g3816
(S's\r\x00\x00\x00Buy this book'
tRp4341
asbasbasbasbag57
(g3899
g59
NtRp4342
(dp4343
g62
(dp4344
g3903
g3904
ssg71
g3926
sg64
(lp4345
g57
(g3892
g59
NtRp4346
(dp4347
g62
(dp4348
g3896
g3897
sg3898
S'#'
ssg71
g4342
sg64
(lp4349
g3816
(S't\t\x00\x00\x00Community'
tRp4350
asbag57
(g3905
g59
NtRp4351
(dp4352
g62
(dp4353
g3903
g3913
ssg71
g4342
sg64
(lp4354
g57
(g3899
g59
NtRp4355
(dp4356
g62
(dp4357
sg71
g4351
sg64
(lp4358
g57
(g3892
g59
NtRp4359
(dp4360
g62
(dp4361
g3898
S'http://www.web2py.com/examples/default/usergroups'
p4362
ssg71
g4355
sg64
(lp4363
g3816
(S't\x06\x00\x00\x00Groups'
tRp4364
asbasbag57
(g3899
g59
NtRp4365
(dp4366
g62
(dp4367
sg71
g4351
sg64
(lp4368
g57
(g3892
g59
NtRp4369
(dp4370
g62
(dp4371
g3898
S'http://twitter.com/web2py'
p4372
ssg71
g4365
sg64
(lp4373
g3816
(S't\x07\x00\x00\x00Twitter'
tRp4374
asbasbag57
(g3899
g59
NtRp4375
(dp4376
g62
(dp4377
sg71
g4351
sg64
(lp4378
g57
(g3892
g59
NtRp4379
(dp4380
g62
(dp4381
g3898
S'http://webchat.freenode.net/?channels=web2py'
p4382
ssg71
g4375
sg64
(lp4383
g3816
(S's\t\x00\x00\x00Live Chat'
tRp4384
asbasbasbasbag57
(g3899
g59
NtRp4385
(dp4386
g62
(dp4387
g3903
g3904
ssg71
g3926
sg64
(lp4388
g57
(g3892
g59
NtRp4389
(dp4390
g62
(dp4391
g3896
g3897
sg3898
S'#'
ssg71
g4385
sg64
(lp4392
g3816
(S't\x07\x00\x00\x00Plugins'
tRp4393
asbag57
(g3905
g59
NtRp4394
(dp4395
g62
(dp4396
g3903
g3913
ssg71
g4385
sg64
(lp4397
g57
(g3899
g59
NtRp4398
(dp4399
g62
(dp4400
sg71
g4394
sg64
(lp4401
g57
(g3892
g59
NtRp4402
(dp4403
g62
(dp4404
g3898
S'http://web2py.com/examples/default/download'
p4405
ssg71
g4398
sg64
(lp4406
S'plugin_wiki'
p4407
asbasbag57
(g3899
g59
NtRp4408
(dp4409
g62
(dp4410
sg71
g4394
sg64
(lp4411
g57
(g3892
g59
NtRp4412
(dp4413
g62
(dp4414
g3898
g4135
ssg71
g4408
sg64
(lp4415
g3816
(S's\r\x00\x00\x00Other Plugins'
tRp4416
asbasbag57
(g3899
g59
NtRp4417
(dp4418
g62
(dp4419
sg71
g4394
sg64
(lp4420
g57
(g3892
g59
NtRp4421
(dp4422
g62
(dp4423
g3898
g4145
ssg71
g4417
sg64
(lp4424
g3816
(S's\x0e\x00\x00\x00Layout Plugins'
tRp4425
asbasbasbasbasbasbsg64
(lp4426
g3888
asbsg64
(lp4427
g3762
asbasbasbasbag57
(g73
g59
NtRp4428
(dp4429
g62
(dp4430
sg71
g3871
sg64
(lp4431
g57
(g78
g59
NtRp4432
(dp4433
g62
(dp4434
sg71
g4428
sg64
(lp4435
g57
(g58
g59
NtRp4436
(dp4437
g62
(dp4438
g70
I3
ssg71
g4432
sg64
(lp4439
g100
asbasbasbag57
(g73
g59
NtRp4440
(dp4441
g62
(dp4442
sg71
g3871
sg64
(lp4443
g57
(g78
g59
NtRp4444
(dp4445
g62
(dp4446
sg71
g4440
sg64
(lp4447
g57
(g58
g59
NtRp4448
(dp4449
g62
(dp4450
g70
I3
ssg71
g4444
sg64
(lp4451
S'None'
p4452
asbasbasbag57
(g73
g59
NtRp4453
(dp4454
g62
(dp4455
sg71
g3871
sg64
(lp4456
g57
(g78
g59
NtRp4457
(dp4458
g62
(dp4459
sg71
g4453
sg64
(lp4460
g57
(g58
g59
NtRp4461
(dp4462
g62
(dp4463
g70
I3
ssg71
g4457
sg64
(lp4464
g57
(g66
g59
NtRp4465
(dp4466
g62
(dp4467
g70
I2
ssg71
Nsg64
(lp4468
g57
(g73
g59
NtRp4469
(dp4470
g62
(dp4471
sg71
g4465
sg64
(lp4472
g57
(g78
g59
NtRp4473
(dp4474
g62
(dp4475
sg71
g4469
sg64
(lp4476
g57
(g58
g59
NtRp4477
(dp4478
g62
(dp4479
g70
I2
ssg71
g4473
sg64
(lp4480
g57
(g66
g59
NtRp4481
(dp4482
g62
(dp4483
g70
I1
ssg71
Nsg64
(lp4484
g57
(g73
g59
NtRp4485
(dp4486
g62
(dp4487
sg71
g4481
sg64
(lp4488
g57
(g78
g59
NtRp4489
(dp4490
g62
(dp4491
sg71
g4485
sg64
(lp4492
g57
(g58
g59
NtRp4493
(dp4494
g62
(dp4495
g70
I1
ssg71
g4489
sg64
(lp4496
g3939
asbasbasbag57
(g73
g59
NtRp4497
(dp4498
g62
(dp4499
sg71
g4481
sg64
(lp4500
g57
(g78
g59
NtRp4501
(dp4502
g62
(dp4503
sg71
g4497
sg64
(lp4504
g57
(g58
g59
NtRp4505
(dp4506
g62
(dp4507
g70
I1
ssg71
g4501
sg64
(lp4508
I00
asbasbasbag57
(g73
g59
NtRp4509
(dp4510
g62
(dp4511
sg71
g4481
sg64
(lp4512
g57
(g78
g59
NtRp4513
(dp4514
g62
(dp4515
sg71
g4509
sg64
(lp4516
g57
(g58
g59
NtRp4517
(dp4518
g62
(dp4519
g70
I1
ssg71
g4513
sg64
(lp4520
g3937
asbasbasbasbasbasbasbag57
(g73
g59
NtRp4521
(dp4522
g62
(dp4523
sg71
g4465
sg64
(lp4524
g57
(g78
g59
NtRp4525
(dp4526
g62
(dp4527
sg71
g4521
sg64
(lp4528
g57
(g58
g59
NtRp4529
(dp4530
g62
(dp4531
g70
I2
ssg71
g4525
sg64
(lp4532
g57
(g66
g59
NtRp4533
(dp4534
g62
(dp4535
g70
I1
ssg71
Nsg64
(lp4536
g57
(g73
g59
NtRp4537
(dp4538
g62
(dp4539
sg71
g4533
sg64
(lp4540
g57
(g78
g59
NtRp4541
(dp4542
g62
(dp4543
sg71
g4537
sg64
(lp4544
g57
(g58
g59
NtRp4545
(dp4546
g62
(dp4547
g70
I1
ssg71
g4541
sg64
(lp4548
g3949
asbasbasbag57
(g73
g59
NtRp4549
(dp4550
g62
(dp4551
sg71
g4533
sg64
(lp4552
g57
(g78
g59
NtRp4553
(dp4554
g62
(dp4555
sg71
g4549
sg64
(lp4556
g57
(g58
g59
NtRp4557
(dp4558
g62
(dp4559
g70
I1
ssg71
g4553
sg64
(lp4560
I00
asbasbasbag57
(g73
g59
NtRp4561
(dp4562
g62
(dp4563
sg71
g4533
sg64
(lp4564
g57
(g78
g59
NtRp4565
(dp4566
g62
(dp4567
sg71
g4561
sg64
(lp4568
g57
(g58
g59
NtRp4569
(dp4570
g62
(dp4571
g70
I1
ssg71
g4565
sg64
(lp4572
g3947
asbasbasbag57
(g73
g59
NtRp4573
(dp4574
g62
(dp4575
sg71
g4533
sg64
(lp4576
g57
(g78
g59
NtRp4577
(dp4578
g62
(dp4579
sg71
g4573
sg64
(lp4580
g57
(g58
g59
NtRp4581
(dp4582
g62
(dp4583
g70
I1
ssg71
g4577
sg64
(lp4584
(lp4585
(g3963
I00
g3961
tp4586
a(g3973
I00
g3971
tp4587
a(g3983
I00
g3981
tp4588
a(g3993
I00
g3991
tp4589
a(g4003
I00
g4001
tp4590
a(g4013
I00
g4011
tp4591
a(g4023
I00
g4021
tp4592
a(g4033
I00
g4031
tp4593
a(g4043
I00
g4041
tp4594
aasbasbasbasbasbasbasbag57
(g73
g59
NtRp4595
(dp4596
g62
(dp4597
sg71
g4465
sg64
(lp4598
g57
(g78
g59
NtRp4599
(dp4600
g62
(dp4601
sg71
g4595
sg64
(lp4602
g57
(g58
g59
NtRp4603
(dp4604
g62
(dp4605
g70
I2
ssg71
g4599
sg64
(lp4606
g57
(g66
g59
NtRp4607
(dp4608
g62
(dp4609
g70
I1
ssg71
Nsg64
(lp4610
g57
(g73
g59
NtRp4611
(dp4612
g62
(dp4613
sg71
g4607
sg64
(lp4614
g57
(g78
g59
NtRp4615
(dp4616
g62
(dp4617
sg71
g4611
sg64
(lp4618
g57
(g58
g59
NtRp4619
(dp4620
g62
(dp4621
g70
I1
ssg71
g4615
sg64
(lp4622
g4053
asbasbasbag57
(g73
g59
NtRp4623
(dp4624
g62
(dp4625
sg71
g4607
sg64
(lp4626
g57
(g78
g59
NtRp4627
(dp4628
g62
(dp4629
sg71
g4623
sg64
(lp4630
g57
(g58
g59
NtRp4631
(dp4632
g62
(dp4633
g70
I1
ssg71
g4627
sg64
(lp4634
I00
asbasbasbag57
(g73
g59
NtRp4635
(dp4636
g62
(dp4637
sg71
g4607
sg64
(lp4638
g57
(g78
g59
NtRp4639
(dp4640
g62
(dp4641
sg71
g4635
sg64
(lp4642
g57
(g58
g59
NtRp4643
(dp4644
g62
(dp4645
g70
I1
ssg71
g4639
sg64
(lp4646
g4051
asbasbasbag57
(g73
g59
NtRp4647
(dp4648
g62
(dp4649
sg71
g4607
sg64
(lp4650
g57
(g78
g59
NtRp4651
(dp4652
g62
(dp4653
sg71
g4647
sg64
(lp4654
g57
(g58
g59
NtRp4655
(dp4656
g62
(dp4657
g70
I1
ssg71
g4651
sg64
(lp4658
(lp4659
(g4067
I00
g4065
tp4660
a(g4077
I00
g4075
tp4661
a(g4087
I00
g4085
tp4662
a(g4097
I00
g4095
tp4663
a(g4107
I00
g4105
tp4664
a(g4117
I00
g4115
tp4665
a(g4127
I00
g4125
tp4666
a(g4137
I00
g4135
tp4667
a(g4147
I00
g4145
tp4668
a(g4157
I00
g4155
tp4669
a(g4167
I00
g4165
tp4670
aasbasbasbasbasbasbasbag57
(g73
g59
NtRp4671
(dp4672
g62
(dp4673
sg71
g4465
sg64
(lp4674
g57
(g78
g59
NtRp4675
(dp4676
g62
(dp4677
sg71
g4671
sg64
(lp4678
g57
(g58
g59
NtRp4679
(dp4680
g62
(dp4681
g70
I2
ssg71
g4675
sg64
(lp4682
g57
(g66
g59
NtRp4683
(dp4684
g62
(dp4685
g70
I1
ssg71
Nsg64
(lp4686
g57
(g73
g59
NtRp4687
(dp4688
g62
(dp4689
sg71
g4683
sg64
(lp4690
g57
(g78
g59
NtRp4691
(dp4692
g62
(dp4693
sg71
g4687
sg64
(lp4694
g57
(g58
g59
NtRp4695
(dp4696
g62
(dp4697
g70
I1
ssg71
g4691
sg64
(lp4698
g4177
asbasbasbag57
(g73
g59
NtRp4699
(dp4700
g62
(dp4701
sg71
g4683
sg64
(lp4702
g57
(g78
g59
NtRp4703
(dp4704
g62
(dp4705
sg71
g4699
sg64
(lp4706
g57
(g58
g59
NtRp4707
(dp4708
g62
(dp4709
g70
I1
ssg71
g4703
sg64
(lp4710
I00
asbasbasbag57
(g73
g59
NtRp4711
(dp4712
g62
(dp4713
sg71
g4683
sg64
(lp4714
g57
(g78
g59
NtRp4715
(dp4716
g62
(dp4717
sg71
g4711
sg64
(lp4718
g57
(g58
g59
NtRp4719
(dp4720
g62
(dp4721
g70
I1
ssg71
g4715
sg64
(lp4722
g4175
asbasbasbag57
(g73
g59
NtRp4723
(dp4724
g62
(dp4725
sg71
g4683
sg64
(lp4726
g57
(g78
g59
NtRp4727
(dp4728
g62
(dp4729
sg71
g4723
sg64
(lp4730
g57
(g58
g59
NtRp4731
(dp4732
g62
(dp4733
g70
I1
ssg71
g4727
sg64
(lp4734
(lp4735
(g4191
I00
g4189
tp4736
a(g4201
I00
g4199
tp4737
a(g4211
I00
g4209
tp4738
a(g4221
I00
g4219
tp4739
a(g4231
I00
g4229
tp4740
a(g4241
I00
g4239
tp4741
a(g4251
I00
g4249
tp4742
a(g4261
I00
g4259
tp4743
a(g4271
I00
g4269
tp4744
a(g4281
I00
g4279
tp4745
a(g4291
I00
g4289
tp4746
a(g4301
I00
g4299
tp4747
a(g4311
I00
g4309
tp4748
a(g4321
I00
g4319
tp4749
a(g4331
I00
g4329
tp4750
a(g4341
I00
g4339
tp4751
aasbasbasbasbasbasbasbag57
(g73
g59
NtRp4752
(dp4753
g62
(dp4754
sg71
g4465
sg64
(lp4755
g57
(g78
g59
NtRp4756
(dp4757
g62
(dp4758
sg71
g4752
sg64
(lp4759
g57
(g58
g59
NtRp4760
(dp4761
g62
(dp4762
g70
I2
ssg71
g4756
sg64
(lp4763
g57
(g66
g59
NtRp4764
(dp4765
g62
(dp4766
g70
I1
ssg71
Nsg64
(lp4767
g57
(g73
g59
NtRp4768
(dp4769
g62
(dp4770
sg71
g4764
sg64
(lp4771
g57
(g78
g59
NtRp4772
(dp4773
g62
(dp4774
sg71
g4768
sg64
(lp4775
g57
(g58
g59
NtRp4776
(dp4777
g62
(dp4778
g70
I1
ssg71
g4772
sg64
(lp4779
g4350
asbasbasbag57
(g73
g59
NtRp4780
(dp4781
g62
(dp4782
sg71
g4764
sg64
(lp4783
g57
(g78
g59
NtRp4784
(dp4785
g62
(dp4786
sg71
g4780
sg64
(lp4787
g57
(g58
g59
NtRp4788
(dp4789
g62
(dp4790
g70
I1
ssg71
g4784
sg64
(lp4791
I00
asbasbasbag57
(g73
g59
NtRp4792
(dp4793
g62
(dp4794
sg71
g4764
sg64
(lp4795
g57
(g78
g59
NtRp4796
(dp4797
g62
(dp4798
sg71
g4792
sg64
(lp4799
g57
(g58
g59
NtRp4800
(dp4801
g62
(dp4802
g70
I1
ssg71
g4796
sg64
(lp4803
Nasbasbasbag57
(g73
g59
NtRp4804
(dp4805
g62
(dp4806
sg71
g4764
sg64
(lp4807
g57
(g78
g59
NtRp4808
(dp4809
g62
(dp4810
sg71
g4804
sg64
(lp4811
g57
(g58
g59
NtRp4812
(dp4813
g62
(dp4814
g70
I1
ssg71
g4808
sg64
(lp4815
(lp4816
(g4364
I00
g4362
tp4817
a(g4374
I00
g4372
tp4818
a(g4384
I00
g4382
tp4819
aasbasbasbasbasbasbasbag57
(g73
g59
NtRp4820
(dp4821
g62
(dp4822
sg71
g4465
sg64
(lp4823
g57
(g78
g59
NtRp4824
(dp4825
g62
(dp4826
sg71
g4820
sg64
(lp4827
g57
(g58
g59
NtRp4828
(dp4829
g62
(dp4830
g70
I2
ssg71
g4824
sg64
(lp4831
g57
(g66
g59
NtRp4832
(dp4833
g62
(dp4834
g70
I1
ssg71
Nsg64
(lp4835
g57
(g73
g59
NtRp4836
(dp4837
g62
(dp4838
sg71
g4832
sg64
(lp4839
g57
(g78
g59
NtRp4840
(dp4841
g62
(dp4842
sg71
g4836
sg64
(lp4843
g57
(g58
g59
NtRp4844
(dp4845
g62
(dp4846
g70
I1
ssg71
g4840
sg64
(lp4847
g4393
asbasbasbag57
(g73
g59
NtRp4848
(dp4849
g62
(dp4850
sg71
g4832
sg64
(lp4851
g57
(g78
g59
NtRp4852
(dp4853
g62
(dp4854
sg71
g4848
sg64
(lp4855
g57
(g58
g59
NtRp4856
(dp4857
g62
(dp4858
g70
I1
ssg71
g4852
sg64
(lp4859
I00
asbasbasbag57
(g73
g59
NtRp4860
(dp4861
g62
(dp4862
sg71
g4832
sg64
(lp4863
g57
(g78
g59
NtRp4864
(dp4865
g62
(dp4866
sg71
g4860
sg64
(lp4867
g57
(g58
g59
NtRp4868
(dp4869
g62
(dp4870
g70
I1
ssg71
g4864
sg64
(lp4871
Nasbasbasbag57
(g73
g59
NtRp4872
(dp4873
g62
(dp4874
sg71
g4832
sg64
(lp4875
g57
(g78
g59
NtRp4876
(dp4877
g62
(dp4878
sg71
g4872
sg64
(lp4879
g57
(g58
g59
NtRp4880
(dp4881
g62
(dp4882
g70
I1
ssg71
g4876
sg64
(lp4883
(lp4884
(g4407
I00
g4405
tp4885
a(g4416
I00
g4135
tp4886
a(g4425
I00
g4145
tp4887
aasbasbasbasbasbasbasbasbasbasbasbasbasbasbasbasbasbasbasbag57
(g73
g59
NtRp4888
(dp4889
g62
(dp4890
sg71
g3232
sg64
(lp4891
g57
(g78
g59
NtRp4892
(dp4893
g62
(dp4894
g82
g83
ssg71
g4888
sg64
(lp4895
S'meta'
p4896
asbag57
(g78
g59
NtRp4897
(dp4898
g62
(dp4899
g89
g90
ssg71
g4888
sg64
(lp4900
S':'
asbag57
(g78
g59
NtRp4901
(dp4902
g62
(dp4903
sg71
g4888
sg64
(lp4904
g57
(g58
g59
NtRp4905
(dp4906
g62
(dp4907
g70
I5
ssg71
g4901
sg64
(lp4908
g57
(g66
g59
NtRp4909
(dp4910
g62
(dp4911
g70
I4
ssg71
Nsg64
(lp4912
g57
(g73
g59
NtRp4913
(dp4914
g62
(dp4915
sg71
g4909
sg64
(lp4916
g57
(g78
g59
NtRp4917
(dp4918
g62
(dp4919
g82
g83
ssg71
g4913
sg64
(lp4920
S'author'
p4921
asbag57
(g78
g59
NtRp4922
(dp4923
g62
(dp4924
g89
g90
ssg71
g4913
sg64
(lp4925
S':'
asbag57
(g78
g59
NtRp4926
(dp4927
g62
(dp4928
sg71
g4913
sg64
(lp4929
g57
(g58
g59
NtRp4930
(dp4931
g62
(dp4932
g70
I4
ssg71
g4926
sg64
(lp4933
S'Your Name <you@example.com>'
p4934
asbasbasbag57
(g73
g59
NtRp4935
(dp4936
g62
(dp4937
sg71
g4909
sg64
(lp4938
g57
(g78
g59
NtRp4939
(dp4940
g62
(dp4941
g82
g83
ssg71
g4935
sg64
(lp4942
S'copyright'
p4943
asbag57
(g78
g59
NtRp4944
(dp4945
g62
(dp4946
g89
g90
ssg71
g4935
sg64
(lp4947
S':'
asbag57
(g78
g59
NtRp4948
(dp4949
g62
(dp4950
sg71
g4935
sg64
(lp4951
g57
(g58
g59
NtRp4952
(dp4953
g62
(dp4954
g70
I4
ssg71
g4948
sg64
(lp4955
S'Copyright 2011'
p4956
asbasbasbag57
(g73
g59
NtRp4957
(dp4958
g62
(dp4959
sg71
g4909
sg64
(lp4960
g57
(g78
g59
NtRp4961
(dp4962
g62
(dp4963
g82
g83
ssg71
g4957
sg64
(lp4964
S'description'
p4965
asbag57
(g78
g59
NtRp4966
(dp4967
g62
(dp4968
g89
g90
ssg71
g4957
sg64
(lp4969
S':'
asbag57
(g78
g59
NtRp4970
(dp4971
g62
(dp4972
sg71
g4957
sg64
(lp4973
g57
(g58
g59
NtRp4974
(dp4975
g62
(dp4976
g70
I4
ssg71
g4970
sg64
(lp4977
S'a cool new app'
p4978
asbasbasbag57
(g73
g59
NtRp4979
(dp4980
g62
(dp4981
sg71
g4909
sg64
(lp4982
g57
(g78
g59
NtRp4983
(dp4984
g62
(dp4985
g82
g83
ssg71
g4979
sg64
(lp4986
S'generator'
p4987
asbag57
(g78
g59
NtRp4988
(dp4989
g62
(dp4990
g89
g90
ssg71
g4979
sg64
(lp4991
S':'
asbag57
(g78
g59
NtRp4992
(dp4993
g62
(dp4994
sg71
g4979
sg64
(lp4995
g57
(g58
g59
NtRp4996
(dp4997
g62
(dp4998
g70
I4
ssg71
g4992
sg64
(lp4999
S'Web2py Web Framework'
p5000
asbasbasbag57
(g73
g59
NtRp5001
(dp5002
g62
(dp5003
sg71
g4909
sg64
(lp5004
g57
(g78
g59
NtRp5005
(dp5006
g62
(dp5007
g82
g83
ssg71
g5001
sg64
(lp5008
S'keywords'
p5009
asbag57
(g78
g59
NtRp5010
(dp5011
g62
(dp5012
g89
g90
ssg71
g5001
sg64
(lp5013
S':'
asbag57
(g78
g59
NtRp5014
(dp5015
g62
(dp5016
sg71
g5001
sg64
(lp5017
g57
(g58
g59
NtRp5018
(dp5019
g62
(dp5020
g70
I4
ssg71
g5014
sg64
(lp5021
S'web2py, python, framework'
p5022
asbasbasbasbasbasbasbag57
(g73
g59
NtRp5023
(dp5024
g62
(dp5025
sg71
g3232
sg64
(lp5026
g57
(g78
g59
NtRp5027
(dp5028
g62
(dp5029
g82
g83
ssg71
g5023
sg64
(lp5030
S'postprocessing'
p5031
asbag57
(g78
g59
NtRp5032
(dp5033
g62
(dp5034
g89
g90
ssg71
g5023
sg64
(lp5035
S':'
asbag57
(g78
g59
NtRp5036
(dp5037
g62
(dp5038
sg71
g5023
sg64
(lp5039
g57
(g58
g59
NtRp5040
(dp5041
g62
(dp5042
g70
I5
ssg71
g5036
sg64
(lp5043
g57
(g66
g59
NtRp5044
(dp5045
g62
(dp5046
g70
I4
ssg71
Nsg64
(lp5047
sbasbasbasbag57
(g73
g59
NtRp5048
(dp5049
g62
(dp5050
sg71
g3232
sg64
(lp5051
g57
(g78
g59
NtRp5052
(dp5053
g62
(dp5054
g82
g83
ssg71
g5048
sg64
(lp5055
S'session_file'
p5056
asbag57
(g78
g59
NtRp5057
(dp5058
g62
(dp5059
g89
g90
ssg71
g5048
sg64
(lp5060
S':'
asbag57
(g78
g59
NtRp5061
(dp5062
g62
(dp5063
sg71
g5048
sg64
(lp5064
g57
(g58
g59
NtRp5065
(dp5066
g62
(dp5067
g70
I5
ssg71
g5061
sg64
(lp5068
S"<open file '/home/ds-iiit/web2py/applications/Read_it/sessions/127.0.0.1-3b306805-b0b8-4f0a-8f0e-2c710fd6d755', mode 'rb+' at 0x7fdcc43eee40>"
p5069
asbasbasbag57
(g73
g59
NtRp5070
(dp5071
g62
(dp5072
sg71
g3232
sg64
(lp5073
g57
(g78
g59
NtRp5074
(dp5075
g62
(dp5076
g82
g83
ssg71
g5070
sg64
(lp5077
S'session_filename'
p5078
asbag57
(g78
g59
NtRp5079
(dp5080
g62
(dp5081
g89
g90
ssg71
g5070
sg64
(lp5082
S':'
asbag57
(g78
g59
NtRp5083
(dp5084
g62
(dp5085
sg71
g5070
sg64
(lp5086
g57
(g58
g59
NtRp5087
(dp5088
g62
(dp5089
g70
I5
ssg71
g5083
sg64
(lp5090
S'/home/ds-iiit/web2py/applications/Read_it/sessions/127.0.0.1-3b306805-b0b8-4f0a-8f0e-2c710fd6d755'
p5091
asbasbasbag57
(g73
g59
NtRp5092
(dp5093
g62
(dp5094
sg71
g3232
sg64
(lp5095
g57
(g78
g59
NtRp5096
(dp5097
g62
(dp5098
g82
g83
ssg71
g5092
sg64
(lp5099
S'session_id'
p5100
asbag57
(g78
g59
NtRp5101
(dp5102
g62
(dp5103
g89
g90
ssg71
g5092
sg64
(lp5104
S':'
asbag57
(g78
g59
NtRp5105
(dp5106
g62
(dp5107
sg71
g5092
sg64
(lp5108
g57
(g58
g59
NtRp5109
(dp5110
g62
(dp5111
g70
I5
ssg71
g5105
sg64
(lp5112
S'127.0.0.1-3b306805-b0b8-4f0a-8f0e-2c710fd6d755'
p5113
asbasbasbag57
(g73
g59
NtRp5114
(dp5115
g62
(dp5116
sg71
g3232
sg64
(lp5117
g57
(g78
g59
NtRp5118
(dp5119
g62
(dp5120
g82
g83
ssg71
g5114
sg64
(lp5121
S'session_id_name'
p5122
asbag57
(g78
g59
NtRp5123
(dp5124
g62
(dp5125
g89
g90
ssg71
g5114
sg64
(lp5126
S':'
asbag57
(g78
g59
NtRp5127
(dp5128
g62
(dp5129
sg71
g5114
sg64
(lp5130
g57
(g58
g59
NtRp5131
(dp5132
g62
(dp5133
g70
I5
ssg71
g5127
sg64
(lp5134
g3289
asbasbasbag57
(g73
g59
NtRp5135
(dp5136
g62
(dp5137
sg71
g3232
sg64
(lp5138
g57
(g78
g59
NtRp5139
(dp5140
g62
(dp5141
g82
g83
ssg71
g5135
sg64
(lp5142
S'session_locked'
p5143
asbag57
(g78
g59
NtRp5144
(dp5145
g62
(dp5146
g89
g90
ssg71
g5135
sg64
(lp5147
S':'
asbag57
(g78
g59
NtRp5148
(dp5149
g62
(dp5150
sg71
g5135
sg64
(lp5151
g57
(g58
g59
NtRp5152
(dp5153
g62
(dp5154
g70
I5
ssg71
g5148
sg64
(lp5155
g1483
asbasbasbag57
(g73
g59
NtRp5156
(dp5157
g62
(dp5158
sg71
g3232
sg64
(lp5159
g57
(g78
g59
NtRp5160
(dp5161
g62
(dp5162
g82
g83
ssg71
g5156
sg64
(lp5163
S'session_new'
p5164
asbag57
(g78
g59
NtRp5165
(dp5166
g62
(dp5167
g89
g90
ssg71
g5156
sg64
(lp5168
S':'
asbag57
(g78
g59
NtRp5169
(dp5170
g62
(dp5171
sg71
g5156
sg64
(lp5172
g57
(g58
g59
NtRp5173
(dp5174
g62
(dp5175
g70
I5
ssg71
g5169
sg64
(lp5176
g100
asbasbasbag57
(g73
g59
NtRp5177
(dp5178
g62
(dp5179
sg71
g3232
sg64
(lp5180
g57
(g78
g59
NtRp5181
(dp5182
g62
(dp5183
g82
g83
ssg71
g5177
sg64
(lp5184
S'status'
p5185
asbag57
(g78
g59
NtRp5186
(dp5187
g62
(dp5188
g89
g90
ssg71
g5177
sg64
(lp5189
S':'
asbag57
(g78
g59
NtRp5190
(dp5191
g62
(dp5192
sg71
g5177
sg64
(lp5193
g57
(g58
g59
NtRp5194
(dp5195
g62
(dp5196
g70
I5
ssg71
g5190
sg64
(lp5197
S'200'
p5198
asbasbasbag57
(g73
g59
NtRp5199
(dp5200
g62
(dp5201
sg71
g3232
sg64
(lp5202
g57
(g78
g59
NtRp5203
(dp5204
g62
(dp5205
g82
g83
ssg71
g5199
sg64
(lp5206
S'subtitle'
p5207
asbag57
(g78
g59
NtRp5208
(dp5209
g62
(dp5210
g89
g90
ssg71
g5199
sg64
(lp5211
S':'
asbag57
(g78
g59
NtRp5212
(dp5213
g62
(dp5214
sg71
g5199
sg64
(lp5215
g57
(g58
g59
NtRp5216
(dp5217
g62
(dp5218
g70
I5
ssg71
g5212
sg64
(lp5219
g3816
(S's\r\x00\x00\x00customize me!'
tRp5220
asbasbasbag57
(g73
g59
NtRp5221
(dp5222
g62
(dp5223
sg71
g3232
sg64
(lp5224
g57
(g78
g59
NtRp5225
(dp5226
g62
(dp5227
g82
g83
ssg71
g5221
sg64
(lp5228
S'title'
p5229
asbag57
(g78
g59
NtRp5230
(dp5231
g62
(dp5232
g89
g90
ssg71
g5221
sg64
(lp5233
S':'
asbag57
(g78
g59
NtRp5234
(dp5235
g62
(dp5236
sg71
g5221
sg64
(lp5237
g57
(g58
g59
NtRp5238
(dp5239
g62
(dp5240
g70
I5
ssg71
g5234
sg64
(lp5241
S'Read It'
p5242
asbasbasbag57
(g73
g59
NtRp5243
(dp5244
g62
(dp5245
sg71
g3232
sg64
(lp5246
g57
(g78
g59
NtRp5247
(dp5248
g62
(dp5249
g82
g83
ssg71
g5243
sg64
(lp5250
g2168
asbag57
(g78
g59
NtRp5251
(dp5252
g62
(dp5253
g89
g90
ssg71
g5243
sg64
(lp5254
S':'
asbag57
(g78
g59
NtRp5255
(dp5256
g62
(dp5257
sg71
g5243
sg64
(lp5258
g57
(g58
g59
NtRp5259
(dp5260
g62
(dp5261
g70
I5
ssg71
g5255
sg64
(lp5262
g2181
asbasbasbag57
(g73
g59
NtRp5263
(dp5264
g62
(dp5265
sg71
g3232
sg64
(lp5266
g57
(g78
g59
NtRp5267
(dp5268
g62
(dp5269
g82
g83
ssg71
g5263
sg64
(lp5270
S'view'
p5271
asbag57
(g78
g59
NtRp5272
(dp5273
g62
(dp5274
g89
g90
ssg71
g5263
sg64
(lp5275
S':'
asbag57
(g78
g59
NtRp5276
(dp5277
g62
(dp5278
sg71
g5263
sg64
(lp5279
g57
(g58
g59
NtRp5280
(dp5281
g62
(dp5282
g70
I5
ssg71
g5276
sg64
(lp5283
S'default/comments.html'
p5284
asbasbasbasbasbsS'locals'
p5285
(dp5286
S'self'
p5287
S"<Row {'auth_user': <Row {'auth_event': <gluon.da...ecord': <function <lambda> at 0x7fdcbc57a320>}>}>"
p5288
sS'm'
S'None'
p5289
sS'key'
p5290
S"'Comment'"
p5291
sssS'traceback'
p5292
S'Traceback (most recent call last):\n  File "/usr/lib/pymodules/python2.7/gluon/restricted.py", line 204, in restricted\n    exec ccode in environment\n  File "/home/ds-iiit/web2py/applications/Read_it/views/default/comments.html", line 32, in <module>\n  File "/usr/lib/pymodules/python2.7/gluon/dal.py", line 4431, in __getitem__\n    return dict.__getitem__(self, key)\nKeyError: \'Comment\'\n'
p5293
s.