(dp1
S'output'
p2
S"<type 'exceptions.KeyError'> 'Rating'"
p3
sS'layer'
p4
S'/home/ds-iiit/web2py/applications/Read_it/controllers/default.py'
p5
sS'code'
p6
S'# -*- coding: utf-8 -*-\n# this file is released under public domain and you can use without limitations\n\n#########################################################################\n## This is a samples controller\n## - index is the default action of any application\n## - user is required for authentication and authorization\n## - download is for downloading files uploaded in the db (does streaming)\n## - call exposes all registered services (none by default)\n#########################################################################\n\ndef search():\n\timport re\n\tresults=[]\n\tx=request.args(0)\n\tre.compile(x)\n\tfor i in db().select(db.Item.ALL):\n\t\tif re.search(x,i[\'Heading\']):\n\t\t\tresults.append(i)\n\treturn dict(results=results)\n\n\n@auth.requires_login()\ndef points():\n\tx=db((db.Rated.ItemID == request.args(0)) & (db.Rated.UserID == auth.user_id)).select()\n\tif not x:\n\t\tdb.Rated.insert(UserID=auth.user_id,ItemID=request.args(0))\n\t\tx=db((db.Rated.ItemID == request.args(0)) & (db.Rated.UserID == auth.user_id)).select()\n\t\ty = x.first()\n\t\ty[\'Rating\'] = y[\'Rating\'] + int(request.args(1))\n\t\t#db(db.Item.id == request.args(0)).update(Rating+=int(request.args(1)))\n\t\tresponse.flash("Done")\n\t\t#redirect(\'/default/listall\')\n\telse:\n\t\tprint here\n\t\tredirect(\'listall\')\n\t\t\n\ndef listall():\n\tx = db(db.Item.id>=0).select()\n\treturn dict(x=x)\n\n@auth.requires_login()\ndef new():\n\tform = crud.create(db.Item)\n\treturn dict(form=form)\n\n@auth.requires_login()\ndef update():\n\tform = []\n\tif db((request.args(0)==db.Item.id) & (db.Item.User == auth.user_id)).select():\n\t\tform = crud.update(db.Item,request.args(0))\n\telse:\n\t\tresponse.flash(\'Unauthorized access\')\n\t\tredirect(\'listall\')\n\treturn dict(form=form)\n\t\ndef delete():\n\tform = []\n\tif db((request.args(0)==db.Item.id) & (db.Item.User == auth.user_id)).select():\n\t\tform = crud.delete(db.Item,request.args(0))\n\telse:\n\t\tredirect(\'listall\')\n\treturn dict(form=form)\n\t\n\n@auth.requires_login()\ndef update():\n\tform = crud.update(db.Item,request.args(0))\n\treturn dict(form=form)\n\ndef list_cat():\n\tx = db(request.args(0)==db.Item.Category).select() or redirect(URL(\'listall\'))\n\treturn dict(x=x)\n\ndef index():\n    """\n    example action using the internationalization operator T and flash\n    rendered by views/default/index.html or views/generic.html\n    """\n    response.flash = "Welcome to web2py!"\n    return dict(message=T(\'Hello World\'))\n\ndef user():\n    """\n    exposes:\n    http://..../[app]/default/user/login\n    http://..../[app]/default/user/logout\n    http://..../[app]/default/user/register\n    http://..../[app]/default/user/profile\n    http://..../[app]/default/user/retrieve_password\n    http://..../[app]/default/user/change_password\n    use @auth.requires_login()\n        @auth.requires_membership(\'group name\')\n        @auth.requires_permission(\'read\',\'table name\',record_id)\n    to decorate functions that need access control\n    """\n    return dict(form=auth())\n\n\ndef download():\n    """\n    allows downloading of uploaded files\n    http://..../[app]/default/download/[filename]\n    """\n    return response.download(request,db)\n\n\ndef call():\n    """\n    exposes services. for example:\n    http://..../[app]/default/call/jsonrpc\n    decorate with @services.jsonrpc the functions to expose\n    supports xml, json, xmlrpc, jsonrpc, amfrpc, rss, csv\n    """\n    return service()\n\n\n@auth.requires_signature()\ndef data():\n    """\n    http://..../[app]/default/data/tables\n    http://..../[app]/default/data/create/[table]\n    http://..../[app]/default/data/read/[table]/[id]\n    http://..../[app]/default/data/update/[table]/[id]\n    http://..../[app]/default/data/delete/[table]/[id]\n    http://..../[app]/default/data/select/[table]\n    http://..../[app]/default/data/search/[table]\n    but URLs must be signed, i.e. linked with\n      A(\'table\',_href=URL(\'data/tables\',user_signature=True))\n    or with the signed load operator\n      LOAD(\'default\',\'data.load\',args=\'tables\',ajax=True,user_signature=True)\n    """\n    return dict(form=crud())\n\n\nresponse._vars=response._caller(points)\n'
p7
sS'snapshot'
p8
(dp9
S'exception'
p10
(dp11
S'__hash__'
p12
S"<method-wrapper '__hash__' of exceptions.KeyError object>"
p13
sS'__setattr__'
p14
S"<method-wrapper '__setattr__' of exceptions.KeyError object>"
p15
sS'__reduce_ex__'
p16
S'<built-in method __reduce_ex__ of exceptions.KeyError object>'
p17
sS'__getslice__'
p18
S"<method-wrapper '__getslice__' of exceptions.KeyError object>"
p19
sS'__getitem__'
p20
S"<method-wrapper '__getitem__' of exceptions.KeyError object>"
p21
sS'__setstate__'
p22
S'<built-in method __setstate__ of exceptions.KeyError object>'
p23
sS'args'
p24
S"('Rating',)"
p25
sS'__reduce__'
p26
S'<built-in method __reduce__ of exceptions.KeyError object>'
p27
sS'__str__'
p28
S"<method-wrapper '__str__' of exceptions.KeyError object>"
p29
sS'__format__'
p30
S'<built-in method __format__ of exceptions.KeyError object>'
p31
sS'__getattribute__'
p32
S"<method-wrapper '__getattribute__' of exceptions.KeyError object>"
p33
sS'__class__'
p34
S"<type 'exceptions.KeyError'>"
p35
sS'__unicode__'
p36
S'<built-in method __unicode__ of exceptions.KeyError object>'
p37
sS'__delattr__'
p38
S"<method-wrapper '__delattr__' of exceptions.KeyError object>"
p39
sS'__subclasshook__'
p40
S'<built-in method __subclasshook__ of type object>'
p41
sS'__repr__'
p42
S"<method-wrapper '__repr__' of exceptions.KeyError object>"
p43
sS'__dict__'
p44
S'{}'
p45
sS'__sizeof__'
p46
S'<built-in method __sizeof__ of exceptions.KeyError object>'
p47
sS'__doc__'
p48
S"'Mapping key not found.'"
p49
sS'__init__'
p50
S"<method-wrapper '__init__' of exceptions.KeyError object>"
p51
sS'__new__'
p52
S'<built-in method __new__ of type object>'
p53
ssS'evalue'
p54
S"'Rating'"
p55
sS'request'
p56
ccopy_reg
_reconstructor
p57
(cgluon.html
BEAUTIFY
p58
c__builtin__
object
p59
NtRp60
(dp61
S'attributes'
p62
(dp63
sS'components'
p64
(lp65
g57
(cgluon.html
TABLE
p66
g59
NtRp67
(dp68
g62
(dp69
S'level'
p70
I5
ssS'parent'
p71
Nsg64
(lp72
g57
(cgluon.html
TR
p73
g59
NtRp74
(dp75
g62
(dp76
sg71
g67
sg64
(lp77
g57
(cgluon.html
TD
p78
g59
NtRp79
(dp80
g62
(dp81
S'_style'
p82
S'font-weight:bold;vertical-align:top'
p83
ssg71
g74
sg64
(lp84
S'ajax'
p85
asbag57
(g78
g59
NtRp86
(dp87
g62
(dp88
S'_valign'
p89
S'top'
p90
ssg71
g74
sg64
(lp91
S':'
asbag57
(g78
g59
NtRp92
(dp93
g62
(dp94
sg71
g74
sg64
(lp95
g57
(g58
g59
NtRp96
(dp97
g62
(dp98
g70
I5
ssg71
g92
sg64
(lp99
S'False'
p100
asbasbasbag57
(g73
g59
NtRp101
(dp102
g62
(dp103
sg71
g67
sg64
(lp104
g57
(g78
g59
NtRp105
(dp106
g62
(dp107
g82
g83
ssg71
g101
sg64
(lp108
S'application'
p109
asbag57
(g78
g59
NtRp110
(dp111
g62
(dp112
g89
g90
ssg71
g101
sg64
(lp113
S':'
asbag57
(g78
g59
NtRp114
(dp115
g62
(dp116
sg71
g101
sg64
(lp117
g57
(g58
g59
NtRp118
(dp119
g62
(dp120
g70
I5
ssg71
g114
sg64
(lp121
S'Read_it'
p122
asbasbasbag57
(g73
g59
NtRp123
(dp124
g62
(dp125
sg71
g67
sg64
(lp126
g57
(g78
g59
NtRp127
(dp128
g62
(dp129
g82
g83
ssg71
g123
sg64
(lp130
g24
asbag57
(g78
g59
NtRp131
(dp132
g62
(dp133
g89
g90
ssg71
g123
sg64
(lp134
S':'
asbag57
(g78
g59
NtRp135
(dp136
g62
(dp137
sg71
g123
sg64
(lp138
g57
(g58
g59
NtRp139
(dp140
g62
(dp141
g70
I5
ssg71
g135
sg64
(lp142
g57
(g66
g59
NtRp143
(dp144
g62
(dp145
g70
I4
ssg71
Nsg64
(lp146
g57
(g73
g59
NtRp147
(dp148
g62
(dp149
sg71
g143
sg64
(lp150
g57
(g78
g59
NtRp151
(dp152
g62
(dp153
sg71
g147
sg64
(lp154
g57
(g58
g59
NtRp155
(dp156
g62
(dp157
g70
I4
ssg71
g151
sg64
(lp158
S'3'
asbasbasbag57
(g73
g59
NtRp159
(dp160
g62
(dp161
sg71
g143
sg64
(lp162
g57
(g78
g59
NtRp163
(dp164
g62
(dp165
sg71
g159
sg64
(lp166
g57
(g58
g59
NtRp167
(dp168
g62
(dp169
g70
I4
ssg71
g163
sg64
(lp170
S'5'
asbasbasbasbasbasbasbag57
(g73
g59
NtRp171
(dp172
g62
(dp173
sg71
g67
sg64
(lp174
g57
(g78
g59
NtRp175
(dp176
g62
(dp177
g82
g83
ssg71
g171
sg64
(lp178
S'body'
p179
asbag57
(g78
g59
NtRp180
(dp181
g62
(dp182
g89
g90
ssg71
g171
sg64
(lp183
S':'
asbag57
(g78
g59
NtRp184
(dp185
g62
(dp186
sg71
g171
sg64
(lp187
g57
(g58
g59
NtRp188
(dp189
g62
(dp190
g70
I5
ssg71
g184
sg64
(lp191
S'<cStringIO.StringO object at 0x7f45046a3a08>'
p192
asbasbasbag57
(g73
g59
NtRp193
(dp194
g62
(dp195
sg71
g67
sg64
(lp196
g57
(g78
g59
NtRp197
(dp198
g62
(dp199
g82
g83
ssg71
g193
sg64
(lp200
S'client'
p201
asbag57
(g78
g59
NtRp202
(dp203
g62
(dp204
g89
g90
ssg71
g193
sg64
(lp205
S':'
asbag57
(g78
g59
NtRp206
(dp207
g62
(dp208
sg71
g193
sg64
(lp209
g57
(g58
g59
NtRp210
(dp211
g62
(dp212
g70
I5
ssg71
g206
sg64
(lp213
S'127.0.0.1'
p214
asbasbasbag57
(g73
g59
NtRp215
(dp216
g62
(dp217
sg71
g67
sg64
(lp218
g57
(g78
g59
NtRp219
(dp220
g62
(dp221
g82
g83
ssg71
g215
sg64
(lp222
S'controller'
p223
asbag57
(g78
g59
NtRp224
(dp225
g62
(dp226
g89
g90
ssg71
g215
sg64
(lp227
S':'
asbag57
(g78
g59
NtRp228
(dp229
g62
(dp230
sg71
g215
sg64
(lp231
g57
(g58
g59
NtRp232
(dp233
g62
(dp234
g70
I5
ssg71
g228
sg64
(lp235
S'default'
p236
asbasbasbag57
(g73
g59
NtRp237
(dp238
g62
(dp239
sg71
g67
sg64
(lp240
g57
(g78
g59
NtRp241
(dp242
g62
(dp243
g82
g83
ssg71
g237
sg64
(lp244
S'cookies'
p245
asbag57
(g78
g59
NtRp246
(dp247
g62
(dp248
g89
g90
ssg71
g237
sg64
(lp249
S':'
asbag57
(g78
g59
NtRp250
(dp251
g62
(dp252
sg71
g237
sg64
(lp253
g57
(g58
g59
NtRp254
(dp255
g62
(dp256
g70
I5
ssg71
g250
sg64
(lp257
g57
(g66
g59
NtRp258
(dp259
g62
(dp260
g70
I4
ssg71
Nsg64
(lp261
g57
(g73
g59
NtRp262
(dp263
g62
(dp264
sg71
g258
sg64
(lp265
g57
(g78
g59
NtRp266
(dp267
g62
(dp268
g82
g83
ssg71
g262
sg64
(lp269
S'session_id_admin'
p270
asbag57
(g78
g59
NtRp271
(dp272
g62
(dp273
g89
g90
ssg71
g262
sg64
(lp274
S':'
asbag57
(g78
g59
NtRp275
(dp276
g62
(dp277
sg71
g262
sg64
(lp278
g57
(g58
g59
NtRp279
(dp280
g62
(dp281
g70
I4
ssg71
g275
sg64
(lp282
g57
(g66
g59
NtRp283
(dp284
g62
(dp285
g70
I3
ssg71
Nsg64
(lp286
g57
(g73
g59
NtRp287
(dp288
g62
(dp289
sg71
g283
sg64
(lp290
g57
(g78
g59
NtRp291
(dp292
g62
(dp293
g82
g83
ssg71
g287
sg64
(lp294
S'comment'
p295
asbag57
(g78
g59
NtRp296
(dp297
g62
(dp298
g89
g90
ssg71
g287
sg64
(lp299
S':'
asbag57
(g78
g59
NtRp300
(dp301
g62
(dp302
sg71
g287
sg64
(lp303
g57
(g58
g59
NtRp304
(dp305
g62
(dp306
g70
I3
ssg71
g300
sg64
(lp307
S''
asbasbasbag57
(g73
g59
NtRp308
(dp309
g62
(dp310
sg71
g283
sg64
(lp311
g57
(g78
g59
NtRp312
(dp313
g62
(dp314
g82
g83
ssg71
g308
sg64
(lp315
S'domain'
p316
asbag57
(g78
g59
NtRp317
(dp318
g62
(dp319
g89
g90
ssg71
g308
sg64
(lp320
S':'
asbag57
(g78
g59
NtRp321
(dp322
g62
(dp323
sg71
g308
sg64
(lp324
g57
(g58
g59
NtRp325
(dp326
g62
(dp327
g70
I3
ssg71
g321
sg64
(lp328
S''
asbasbasbag57
(g73
g59
NtRp329
(dp330
g62
(dp331
sg71
g283
sg64
(lp332
g57
(g78
g59
NtRp333
(dp334
g62
(dp335
g82
g83
ssg71
g329
sg64
(lp336
S'expires'
p337
asbag57
(g78
g59
NtRp338
(dp339
g62
(dp340
g89
g90
ssg71
g329
sg64
(lp341
S':'
asbag57
(g78
g59
NtRp342
(dp343
g62
(dp344
sg71
g329
sg64
(lp345
g57
(g58
g59
NtRp346
(dp347
g62
(dp348
g70
I3
ssg71
g342
sg64
(lp349
S''
asbasbasbag57
(g73
g59
NtRp350
(dp351
g62
(dp352
sg71
g283
sg64
(lp353
g57
(g78
g59
NtRp354
(dp355
g62
(dp356
g82
g83
ssg71
g350
sg64
(lp357
S'httponly'
p358
asbag57
(g78
g59
NtRp359
(dp360
g62
(dp361
g89
g90
ssg71
g350
sg64
(lp362
S':'
asbag57
(g78
g59
NtRp363
(dp364
g62
(dp365
sg71
g350
sg64
(lp366
g57
(g58
g59
NtRp367
(dp368
g62
(dp369
g70
I3
ssg71
g363
sg64
(lp370
S''
asbasbasbag57
(g73
g59
NtRp371
(dp372
g62
(dp373
sg71
g283
sg64
(lp374
g57
(g78
g59
NtRp375
(dp376
g62
(dp377
g82
g83
ssg71
g371
sg64
(lp378
S'max-age'
p379
asbag57
(g78
g59
NtRp380
(dp381
g62
(dp382
g89
g90
ssg71
g371
sg64
(lp383
S':'
asbag57
(g78
g59
NtRp384
(dp385
g62
(dp386
sg71
g371
sg64
(lp387
g57
(g58
g59
NtRp388
(dp389
g62
(dp390
g70
I3
ssg71
g384
sg64
(lp391
S''
asbasbasbag57
(g73
g59
NtRp392
(dp393
g62
(dp394
sg71
g283
sg64
(lp395
g57
(g78
g59
NtRp396
(dp397
g62
(dp398
g82
g83
ssg71
g392
sg64
(lp399
S'path'
p400
asbag57
(g78
g59
NtRp401
(dp402
g62
(dp403
g89
g90
ssg71
g392
sg64
(lp404
S':'
asbag57
(g78
g59
NtRp405
(dp406
g62
(dp407
sg71
g392
sg64
(lp408
g57
(g58
g59
NtRp409
(dp410
g62
(dp411
g70
I3
ssg71
g405
sg64
(lp412
S''
asbasbasbag57
(g73
g59
NtRp413
(dp414
g62
(dp415
sg71
g283
sg64
(lp416
g57
(g78
g59
NtRp417
(dp418
g62
(dp419
g82
g83
ssg71
g413
sg64
(lp420
S'secure'
p421
asbag57
(g78
g59
NtRp422
(dp423
g62
(dp424
g89
g90
ssg71
g413
sg64
(lp425
S':'
asbag57
(g78
g59
NtRp426
(dp427
g62
(dp428
sg71
g413
sg64
(lp429
g57
(g58
g59
NtRp430
(dp431
g62
(dp432
g70
I3
ssg71
g426
sg64
(lp433
S''
asbasbasbag57
(g73
g59
NtRp434
(dp435
g62
(dp436
sg71
g283
sg64
(lp437
g57
(g78
g59
NtRp438
(dp439
g62
(dp440
g82
g83
ssg71
g434
sg64
(lp441
S'version'
p442
asbag57
(g78
g59
NtRp443
(dp444
g62
(dp445
g89
g90
ssg71
g434
sg64
(lp446
S':'
asbag57
(g78
g59
NtRp447
(dp448
g62
(dp449
sg71
g434
sg64
(lp450
g57
(g58
g59
NtRp451
(dp452
g62
(dp453
g70
I3
ssg71
g447
sg64
(lp454
S''
asbasbasbasbasbasbasbag57
(g73
g59
NtRp455
(dp456
g62
(dp457
sg71
g258
sg64
(lp458
g57
(g78
g59
NtRp459
(dp460
g62
(dp461
g82
g83
ssg71
g455
sg64
(lp462
S'session_id_read_it'
p463
asbag57
(g78
g59
NtRp464
(dp465
g62
(dp466
g89
g90
ssg71
g455
sg64
(lp467
S':'
asbag57
(g78
g59
NtRp468
(dp469
g62
(dp470
sg71
g455
sg64
(lp471
g57
(g58
g59
NtRp472
(dp473
g62
(dp474
g70
I4
ssg71
g468
sg64
(lp475
g57
(g66
g59
NtRp476
(dp477
g62
(dp478
g70
I3
ssg71
Nsg64
(lp479
g57
(g73
g59
NtRp480
(dp481
g62
(dp482
sg71
g476
sg64
(lp483
g57
(g78
g59
NtRp484
(dp485
g62
(dp486
g82
g83
ssg71
g480
sg64
(lp487
g295
asbag57
(g78
g59
NtRp488
(dp489
g62
(dp490
g89
g90
ssg71
g480
sg64
(lp491
S':'
asbag57
(g78
g59
NtRp492
(dp493
g62
(dp494
sg71
g480
sg64
(lp495
g57
(g58
g59
NtRp496
(dp497
g62
(dp498
g70
I3
ssg71
g492
sg64
(lp499
S''
asbasbasbag57
(g73
g59
NtRp500
(dp501
g62
(dp502
sg71
g476
sg64
(lp503
g57
(g78
g59
NtRp504
(dp505
g62
(dp506
g82
g83
ssg71
g500
sg64
(lp507
g316
asbag57
(g78
g59
NtRp508
(dp509
g62
(dp510
g89
g90
ssg71
g500
sg64
(lp511
S':'
asbag57
(g78
g59
NtRp512
(dp513
g62
(dp514
sg71
g500
sg64
(lp515
g57
(g58
g59
NtRp516
(dp517
g62
(dp518
g70
I3
ssg71
g512
sg64
(lp519
S''
asbasbasbag57
(g73
g59
NtRp520
(dp521
g62
(dp522
sg71
g476
sg64
(lp523
g57
(g78
g59
NtRp524
(dp525
g62
(dp526
g82
g83
ssg71
g520
sg64
(lp527
g337
asbag57
(g78
g59
NtRp528
(dp529
g62
(dp530
g89
g90
ssg71
g520
sg64
(lp531
S':'
asbag57
(g78
g59
NtRp532
(dp533
g62
(dp534
sg71
g520
sg64
(lp535
g57
(g58
g59
NtRp536
(dp537
g62
(dp538
g70
I3
ssg71
g532
sg64
(lp539
S''
asbasbasbag57
(g73
g59
NtRp540
(dp541
g62
(dp542
sg71
g476
sg64
(lp543
g57
(g78
g59
NtRp544
(dp545
g62
(dp546
g82
g83
ssg71
g540
sg64
(lp547
g358
asbag57
(g78
g59
NtRp548
(dp549
g62
(dp550
g89
g90
ssg71
g540
sg64
(lp551
S':'
asbag57
(g78
g59
NtRp552
(dp553
g62
(dp554
sg71
g540
sg64
(lp555
g57
(g58
g59
NtRp556
(dp557
g62
(dp558
g70
I3
ssg71
g552
sg64
(lp559
S''
asbasbasbag57
(g73
g59
NtRp560
(dp561
g62
(dp562
sg71
g476
sg64
(lp563
g57
(g78
g59
NtRp564
(dp565
g62
(dp566
g82
g83
ssg71
g560
sg64
(lp567
g379
asbag57
(g78
g59
NtRp568
(dp569
g62
(dp570
g89
g90
ssg71
g560
sg64
(lp571
S':'
asbag57
(g78
g59
NtRp572
(dp573
g62
(dp574
sg71
g560
sg64
(lp575
g57
(g58
g59
NtRp576
(dp577
g62
(dp578
g70
I3
ssg71
g572
sg64
(lp579
S''
asbasbasbag57
(g73
g59
NtRp580
(dp581
g62
(dp582
sg71
g476
sg64
(lp583
g57
(g78
g59
NtRp584
(dp585
g62
(dp586
g82
g83
ssg71
g580
sg64
(lp587
g400
asbag57
(g78
g59
NtRp588
(dp589
g62
(dp590
g89
g90
ssg71
g580
sg64
(lp591
S':'
asbag57
(g78
g59
NtRp592
(dp593
g62
(dp594
sg71
g580
sg64
(lp595
g57
(g58
g59
NtRp596
(dp597
g62
(dp598
g70
I3
ssg71
g592
sg64
(lp599
S''
asbasbasbag57
(g73
g59
NtRp600
(dp601
g62
(dp602
sg71
g476
sg64
(lp603
g57
(g78
g59
NtRp604
(dp605
g62
(dp606
g82
g83
ssg71
g600
sg64
(lp607
g421
asbag57
(g78
g59
NtRp608
(dp609
g62
(dp610
g89
g90
ssg71
g600
sg64
(lp611
S':'
asbag57
(g78
g59
NtRp612
(dp613
g62
(dp614
sg71
g600
sg64
(lp615
g57
(g58
g59
NtRp616
(dp617
g62
(dp618
g70
I3
ssg71
g612
sg64
(lp619
S''
asbasbasbag57
(g73
g59
NtRp620
(dp621
g62
(dp622
sg71
g476
sg64
(lp623
g57
(g78
g59
NtRp624
(dp625
g62
(dp626
g82
g83
ssg71
g620
sg64
(lp627
g442
asbag57
(g78
g59
NtRp628
(dp629
g62
(dp630
g89
g90
ssg71
g620
sg64
(lp631
S':'
asbag57
(g78
g59
NtRp632
(dp633
g62
(dp634
sg71
g620
sg64
(lp635
g57
(g58
g59
NtRp636
(dp637
g62
(dp638
g70
I3
ssg71
g632
sg64
(lp639
S''
asbasbasbasbasbasbasbag57
(g73
g59
NtRp640
(dp641
g62
(dp642
sg71
g258
sg64
(lp643
g57
(g78
g59
NtRp644
(dp645
g62
(dp646
g82
g83
ssg71
g640
sg64
(lp647
S'session_id_welcome'
p648
asbag57
(g78
g59
NtRp649
(dp650
g62
(dp651
g89
g90
ssg71
g640
sg64
(lp652
S':'
asbag57
(g78
g59
NtRp653
(dp654
g62
(dp655
sg71
g640
sg64
(lp656
g57
(g58
g59
NtRp657
(dp658
g62
(dp659
g70
I4
ssg71
g653
sg64
(lp660
g57
(g66
g59
NtRp661
(dp662
g62
(dp663
g70
I3
ssg71
Nsg64
(lp664
g57
(g73
g59
NtRp665
(dp666
g62
(dp667
sg71
g661
sg64
(lp668
g57
(g78
g59
NtRp669
(dp670
g62
(dp671
g82
g83
ssg71
g665
sg64
(lp672
g295
asbag57
(g78
g59
NtRp673
(dp674
g62
(dp675
g89
g90
ssg71
g665
sg64
(lp676
S':'
asbag57
(g78
g59
NtRp677
(dp678
g62
(dp679
sg71
g665
sg64
(lp680
g57
(g58
g59
NtRp681
(dp682
g62
(dp683
g70
I3
ssg71
g677
sg64
(lp684
S''
asbasbasbag57
(g73
g59
NtRp685
(dp686
g62
(dp687
sg71
g661
sg64
(lp688
g57
(g78
g59
NtRp689
(dp690
g62
(dp691
g82
g83
ssg71
g685
sg64
(lp692
g316
asbag57
(g78
g59
NtRp693
(dp694
g62
(dp695
g89
g90
ssg71
g685
sg64
(lp696
S':'
asbag57
(g78
g59
NtRp697
(dp698
g62
(dp699
sg71
g685
sg64
(lp700
g57
(g58
g59
NtRp701
(dp702
g62
(dp703
g70
I3
ssg71
g697
sg64
(lp704
S''
asbasbasbag57
(g73
g59
NtRp705
(dp706
g62
(dp707
sg71
g661
sg64
(lp708
g57
(g78
g59
NtRp709
(dp710
g62
(dp711
g82
g83
ssg71
g705
sg64
(lp712
g337
asbag57
(g78
g59
NtRp713
(dp714
g62
(dp715
g89
g90
ssg71
g705
sg64
(lp716
S':'
asbag57
(g78
g59
NtRp717
(dp718
g62
(dp719
sg71
g705
sg64
(lp720
g57
(g58
g59
NtRp721
(dp722
g62
(dp723
g70
I3
ssg71
g717
sg64
(lp724
S''
asbasbasbag57
(g73
g59
NtRp725
(dp726
g62
(dp727
sg71
g661
sg64
(lp728
g57
(g78
g59
NtRp729
(dp730
g62
(dp731
g82
g83
ssg71
g725
sg64
(lp732
g358
asbag57
(g78
g59
NtRp733
(dp734
g62
(dp735
g89
g90
ssg71
g725
sg64
(lp736
S':'
asbag57
(g78
g59
NtRp737
(dp738
g62
(dp739
sg71
g725
sg64
(lp740
g57
(g58
g59
NtRp741
(dp742
g62
(dp743
g70
I3
ssg71
g737
sg64
(lp744
S''
asbasbasbag57
(g73
g59
NtRp745
(dp746
g62
(dp747
sg71
g661
sg64
(lp748
g57
(g78
g59
NtRp749
(dp750
g62
(dp751
g82
g83
ssg71
g745
sg64
(lp752
g379
asbag57
(g78
g59
NtRp753
(dp754
g62
(dp755
g89
g90
ssg71
g745
sg64
(lp756
S':'
asbag57
(g78
g59
NtRp757
(dp758
g62
(dp759
sg71
g745
sg64
(lp760
g57
(g58
g59
NtRp761
(dp762
g62
(dp763
g70
I3
ssg71
g757
sg64
(lp764
S''
asbasbasbag57
(g73
g59
NtRp765
(dp766
g62
(dp767
sg71
g661
sg64
(lp768
g57
(g78
g59
NtRp769
(dp770
g62
(dp771
g82
g83
ssg71
g765
sg64
(lp772
g400
asbag57
(g78
g59
NtRp773
(dp774
g62
(dp775
g89
g90
ssg71
g765
sg64
(lp776
S':'
asbag57
(g78
g59
NtRp777
(dp778
g62
(dp779
sg71
g765
sg64
(lp780
g57
(g58
g59
NtRp781
(dp782
g62
(dp783
g70
I3
ssg71
g777
sg64
(lp784
S''
asbasbasbag57
(g73
g59
NtRp785
(dp786
g62
(dp787
sg71
g661
sg64
(lp788
g57
(g78
g59
NtRp789
(dp790
g62
(dp791
g82
g83
ssg71
g785
sg64
(lp792
g421
asbag57
(g78
g59
NtRp793
(dp794
g62
(dp795
g89
g90
ssg71
g785
sg64
(lp796
S':'
asbag57
(g78
g59
NtRp797
(dp798
g62
(dp799
sg71
g785
sg64
(lp800
g57
(g58
g59
NtRp801
(dp802
g62
(dp803
g70
I3
ssg71
g797
sg64
(lp804
S''
asbasbasbag57
(g73
g59
NtRp805
(dp806
g62
(dp807
sg71
g661
sg64
(lp808
g57
(g78
g59
NtRp809
(dp810
g62
(dp811
g82
g83
ssg71
g805
sg64
(lp812
g442
asbag57
(g78
g59
NtRp813
(dp814
g62
(dp815
g89
g90
ssg71
g805
sg64
(lp816
S':'
asbag57
(g78
g59
NtRp817
(dp818
g62
(dp819
sg71
g805
sg64
(lp820
g57
(g58
g59
NtRp821
(dp822
g62
(dp823
g70
I3
ssg71
g817
sg64
(lp824
S''
asbasbasbasbasbasbasbasbasbasbasbag57
(g73
g59
NtRp825
(dp826
g62
(dp827
sg71
g67
sg64
(lp828
g57
(g78
g59
NtRp829
(dp830
g62
(dp831
g82
g83
ssg71
g825
sg64
(lp832
S'env'
p833
asbag57
(g78
g59
NtRp834
(dp835
g62
(dp836
g89
g90
ssg71
g825
sg64
(lp837
S':'
asbag57
(g78
g59
NtRp838
(dp839
g62
(dp840
sg71
g825
sg64
(lp841
g57
(g58
g59
NtRp842
(dp843
g62
(dp844
g70
I5
ssg71
g838
sg64
(lp845
g57
(g66
g59
NtRp846
(dp847
g62
(dp848
g70
I4
ssg71
Nsg64
(lp849
g57
(g73
g59
NtRp850
(dp851
g62
(dp852
sg71
g846
sg64
(lp853
g57
(g78
g59
NtRp854
(dp855
g62
(dp856
g82
g83
ssg71
g850
sg64
(lp857
S'app_folders'
p858
asbag57
(g78
g59
NtRp859
(dp860
g62
(dp861
g89
g90
ssg71
g850
sg64
(lp862
S':'
asbag57
(g78
g59
NtRp863
(dp864
g62
(dp865
sg71
g850
sg64
(lp866
g57
(g58
g59
NtRp867
(dp868
g62
(dp869
g70
I4
ssg71
g863
sg64
(lp870
S"set(['/home/ds-iiit/web2py/applications/Read_it/', '/home/ds-iiit/web2py/applications/welcome/', '/home/ds-iiit/web2py/applications/admin/'])"
p871
asbasbasbag57
(g73
g59
NtRp872
(dp873
g62
(dp874
sg71
g846
sg64
(lp875
g57
(g78
g59
NtRp876
(dp877
g62
(dp878
g82
g83
ssg71
g872
sg64
(lp879
S'applications_parent'
p880
asbag57
(g78
g59
NtRp881
(dp882
g62
(dp883
g89
g90
ssg71
g872
sg64
(lp884
S':'
asbag57
(g78
g59
NtRp885
(dp886
g62
(dp887
sg71
g872
sg64
(lp888
g57
(g58
g59
NtRp889
(dp890
g62
(dp891
g70
I4
ssg71
g885
sg64
(lp892
S'/home/ds-iiit/web2py'
p893
asbasbasbag57
(g73
g59
NtRp894
(dp895
g62
(dp896
sg71
g846
sg64
(lp897
g57
(g78
g59
NtRp898
(dp899
g62
(dp900
g82
g83
ssg71
g894
sg64
(lp901
S'cmd_args'
p902
asbag57
(g78
g59
NtRp903
(dp904
g62
(dp905
g89
g90
ssg71
g894
sg64
(lp906
S':'
asbag57
(g78
g59
NtRp907
(dp908
g62
(dp909
sg71
g894
sg64
(lp910
g57
(g58
g59
NtRp911
(dp912
g62
(dp913
g70
I4
ssg71
g907
sg64
(lp914
g57
(g66
g59
NtRp915
(dp916
g62
(dp917
g70
I3
ssg71
Nsg64
(lp918
sbasbasbasbag57
(g73
g59
NtRp919
(dp920
g62
(dp921
sg71
g846
sg64
(lp922
g57
(g78
g59
NtRp923
(dp924
g62
(dp925
g82
g83
ssg71
g919
sg64
(lp926
S'cmd_options'
p927
asbag57
(g78
g59
NtRp928
(dp929
g62
(dp930
g89
g90
ssg71
g919
sg64
(lp931
S':'
asbag57
(g78
g59
NtRp932
(dp933
g62
(dp934
sg71
g919
sg64
(lp935
g57
(g58
g59
NtRp936
(dp937
g62
(dp938
g70
I4
ssg71
g932
sg64
(lp939
S"<Values at 0x172cb00: {'verbose': False, 'ip': '127.0.0.1', 'shutdown_timeout': 5, 'taskbar': False, 'port': 8000, 'maxthreads': None, 'softcron': False, 'server_name': 'DS-IIIT', 'bpython': False, 'nogui': False, 'nocron': False, 'extcron': False, 'debuglevel': 30, 'test': None, 'folder': '/home/ds-iiit/web2py', 'config': '', 'import_models': False, 'winservice': '', 'shell': None, 'run': '', 'log_filename': 'httpserver.log', 'args': [''], 'socket_timeout': 1, 'profiler_filename': None, 'ssl_private_key': '', 'password': '<ask>', 'request_queue_size': 5, 'ssl_certificate': '', 'cronjob': False, 'plain': False, 'quiet': False, 'interfaces': None, 'minthreads': None, 'timeout': 10, 'numthreads': None, 'nobanner': False, 'pid_filename': 'httpserver.pid'}>"
p940
asbasbasbag57
(g73
g59
NtRp941
(dp942
g62
(dp943
sg71
g846
sg64
(lp944
g57
(g78
g59
NtRp945
(dp946
g62
(dp947
g82
g83
ssg71
g941
sg64
(lp948
S'db_sessions'
p949
asbag57
(g78
g59
NtRp950
(dp951
g62
(dp952
g89
g90
ssg71
g941
sg64
(lp953
S':'
asbag57
(g78
g59
NtRp954
(dp955
g62
(dp956
sg71
g941
sg64
(lp957
g57
(g58
g59
NtRp958
(dp959
g62
(dp960
g70
I4
ssg71
g954
sg64
(lp961
S'set([])'
p962
asbasbasbag57
(g73
g59
NtRp963
(dp964
g62
(dp965
sg71
g846
sg64
(lp966
g57
(g78
g59
NtRp967
(dp968
g62
(dp969
g82
g83
ssg71
g963
sg64
(lp970
S'debugging'
p971
asbag57
(g78
g59
NtRp972
(dp973
g62
(dp974
g89
g90
ssg71
g963
sg64
(lp975
S':'
asbag57
(g78
g59
NtRp976
(dp977
g62
(dp978
sg71
g963
sg64
(lp979
g57
(g58
g59
NtRp980
(dp981
g62
(dp982
g70
I4
ssg71
g976
sg64
(lp983
g100
asbasbasbag57
(g73
g59
NtRp984
(dp985
g62
(dp986
sg71
g846
sg64
(lp987
g57
(g78
g59
NtRp988
(dp989
g62
(dp990
g82
g83
ssg71
g984
sg64
(lp991
S'gluon_parent'
p992
asbag57
(g78
g59
NtRp993
(dp994
g62
(dp995
g89
g90
ssg71
g984
sg64
(lp996
S':'
asbag57
(g78
g59
NtRp997
(dp998
g62
(dp999
sg71
g984
sg64
(lp1000
g57
(g58
g59
NtRp1001
(dp1002
g62
(dp1003
g70
I4
ssg71
g997
sg64
(lp1004
S'/usr/share/web2py'
p1005
asbasbasbag57
(g73
g59
NtRp1006
(dp1007
g62
(dp1008
sg71
g846
sg64
(lp1009
g57
(g78
g59
NtRp1010
(dp1011
g62
(dp1012
g82
g83
ssg71
g1006
sg64
(lp1013
S'http_accept'
p1014
asbag57
(g78
g59
NtRp1015
(dp1016
g62
(dp1017
g89
g90
ssg71
g1006
sg64
(lp1018
S':'
asbag57
(g78
g59
NtRp1019
(dp1020
g62
(dp1021
sg71
g1006
sg64
(lp1022
g57
(g58
g59
NtRp1023
(dp1024
g62
(dp1025
g70
I4
ssg71
g1019
sg64
(lp1026
S'text/html,application/xhtml+xml,application/xml;q=0.9,*/*;q=0.8'
p1027
asbasbasbag57
(g73
g59
NtRp1028
(dp1029
g62
(dp1030
sg71
g846
sg64
(lp1031
g57
(g78
g59
NtRp1032
(dp1033
g62
(dp1034
g82
g83
ssg71
g1028
sg64
(lp1035
S'http_accept_encoding'
p1036
asbag57
(g78
g59
NtRp1037
(dp1038
g62
(dp1039
g89
g90
ssg71
g1028
sg64
(lp1040
S':'
asbag57
(g78
g59
NtRp1041
(dp1042
g62
(dp1043
sg71
g1028
sg64
(lp1044
g57
(g58
g59
NtRp1045
(dp1046
g62
(dp1047
g70
I4
ssg71
g1041
sg64
(lp1048
S'gzip, deflate'
p1049
asbasbasbag57
(g73
g59
NtRp1050
(dp1051
g62
(dp1052
sg71
g846
sg64
(lp1053
g57
(g78
g59
NtRp1054
(dp1055
g62
(dp1056
g82
g83
ssg71
g1050
sg64
(lp1057
S'http_accept_language'
p1058
asbag57
(g78
g59
NtRp1059
(dp1060
g62
(dp1061
g89
g90
ssg71
g1050
sg64
(lp1062
S':'
asbag57
(g78
g59
NtRp1063
(dp1064
g62
(dp1065
sg71
g1050
sg64
(lp1066
g57
(g58
g59
NtRp1067
(dp1068
g62
(dp1069
g70
I4
ssg71
g1063
sg64
(lp1070
S'en-US,en;q=0.5'
p1071
asbasbasbag57
(g73
g59
NtRp1072
(dp1073
g62
(dp1074
sg71
g846
sg64
(lp1075
g57
(g78
g59
NtRp1076
(dp1077
g62
(dp1078
g82
g83
ssg71
g1072
sg64
(lp1079
S'http_connection'
p1080
asbag57
(g78
g59
NtRp1081
(dp1082
g62
(dp1083
g89
g90
ssg71
g1072
sg64
(lp1084
S':'
asbag57
(g78
g59
NtRp1085
(dp1086
g62
(dp1087
sg71
g1072
sg64
(lp1088
g57
(g58
g59
NtRp1089
(dp1090
g62
(dp1091
g70
I4
ssg71
g1085
sg64
(lp1092
S'keep-alive'
p1093
asbasbasbag57
(g73
g59
NtRp1094
(dp1095
g62
(dp1096
sg71
g846
sg64
(lp1097
g57
(g78
g59
NtRp1098
(dp1099
g62
(dp1100
g82
g83
ssg71
g1094
sg64
(lp1101
S'http_cookie'
p1102
asbag57
(g78
g59
NtRp1103
(dp1104
g62
(dp1105
g89
g90
ssg71
g1094
sg64
(lp1106
S':'
asbag57
(g78
g59
NtRp1107
(dp1108
g62
(dp1109
sg71
g1094
sg64
(lp1110
g57
(g58
g59
NtRp1111
(dp1112
g62
(dp1113
g70
I4
ssg71
g1107
sg64
(lp1114
S'session_id_welcome=127.0.0.1-36e2c991-db41-4d05-a85a-71e03bec976f; session_id_admin=127.0.0.1-787bcc8e-424a-4bed-9400-c2995e43e159; session_id_read_it=127.0.0.1-f4108936-be87-4864-9231-dbb359492e75'
p1115
asbasbasbag57
(g73
g59
NtRp1116
(dp1117
g62
(dp1118
sg71
g846
sg64
(lp1119
g57
(g78
g59
NtRp1120
(dp1121
g62
(dp1122
g82
g83
ssg71
g1116
sg64
(lp1123
S'http_host'
p1124
asbag57
(g78
g59
NtRp1125
(dp1126
g62
(dp1127
g89
g90
ssg71
g1116
sg64
(lp1128
S':'
asbag57
(g78
g59
NtRp1129
(dp1130
g62
(dp1131
sg71
g1116
sg64
(lp1132
g57
(g58
g59
NtRp1133
(dp1134
g62
(dp1135
g70
I4
ssg71
g1129
sg64
(lp1136
S'127.0.0.1:8001'
p1137
asbasbasbag57
(g73
g59
NtRp1138
(dp1139
g62
(dp1140
sg71
g846
sg64
(lp1141
g57
(g78
g59
NtRp1142
(dp1143
g62
(dp1144
g82
g83
ssg71
g1138
sg64
(lp1145
S'http_referer'
p1146
asbag57
(g78
g59
NtRp1147
(dp1148
g62
(dp1149
g89
g90
ssg71
g1138
sg64
(lp1150
S':'
asbag57
(g78
g59
NtRp1151
(dp1152
g62
(dp1153
sg71
g1138
sg64
(lp1154
g57
(g58
g59
NtRp1155
(dp1156
g62
(dp1157
g70
I4
ssg71
g1151
sg64
(lp1158
S'http://127.0.0.1:8001/Read_it/default/listall'
p1159
asbasbasbag57
(g73
g59
NtRp1160
(dp1161
g62
(dp1162
sg71
g846
sg64
(lp1163
g57
(g78
g59
NtRp1164
(dp1165
g62
(dp1166
g82
g83
ssg71
g1160
sg64
(lp1167
S'http_user_agent'
p1168
asbag57
(g78
g59
NtRp1169
(dp1170
g62
(dp1171
g89
g90
ssg71
g1160
sg64
(lp1172
S':'
asbag57
(g78
g59
NtRp1173
(dp1174
g62
(dp1175
sg71
g1160
sg64
(lp1176
g57
(g58
g59
NtRp1177
(dp1178
g62
(dp1179
g70
I4
ssg71
g1173
sg64
(lp1180
S'Mozilla/5.0 (X11; Ubuntu; Linux x86_64; rv:20.0) Gecko/20100101 Firefox/20.0'
p1181
asbasbasbag57
(g73
g59
NtRp1182
(dp1183
g62
(dp1184
sg71
g846
sg64
(lp1185
g57
(g78
g59
NtRp1186
(dp1187
g62
(dp1188
g82
g83
ssg71
g1182
sg64
(lp1189
S'is_jython'
p1190
asbag57
(g78
g59
NtRp1191
(dp1192
g62
(dp1193
g89
g90
ssg71
g1182
sg64
(lp1194
S':'
asbag57
(g78
g59
NtRp1195
(dp1196
g62
(dp1197
sg71
g1182
sg64
(lp1198
g57
(g58
g59
NtRp1199
(dp1200
g62
(dp1201
g70
I4
ssg71
g1195
sg64
(lp1202
g100
asbasbasbag57
(g73
g59
NtRp1203
(dp1204
g62
(dp1205
sg71
g846
sg64
(lp1206
g57
(g78
g59
NtRp1207
(dp1208
g62
(dp1209
g82
g83
ssg71
g1203
sg64
(lp1210
S'is_pypy'
p1211
asbag57
(g78
g59
NtRp1212
(dp1213
g62
(dp1214
g89
g90
ssg71
g1203
sg64
(lp1215
S':'
asbag57
(g78
g59
NtRp1216
(dp1217
g62
(dp1218
sg71
g1203
sg64
(lp1219
g57
(g58
g59
NtRp1220
(dp1221
g62
(dp1222
g70
I4
ssg71
g1216
sg64
(lp1223
g100
asbasbasbag57
(g73
g59
NtRp1224
(dp1225
g62
(dp1226
sg71
g846
sg64
(lp1227
g57
(g78
g59
NtRp1228
(dp1229
g62
(dp1230
g82
g83
ssg71
g1224
sg64
(lp1231
S'path_info'
p1232
asbag57
(g78
g59
NtRp1233
(dp1234
g62
(dp1235
g89
g90
ssg71
g1224
sg64
(lp1236
S':'
asbag57
(g78
g59
NtRp1237
(dp1238
g62
(dp1239
sg71
g1224
sg64
(lp1240
g57
(g58
g59
NtRp1241
(dp1242
g62
(dp1243
g70
I4
ssg71
g1237
sg64
(lp1244
S'/Read_it/default/points/3/5'
p1245
asbasbasbag57
(g73
g59
NtRp1246
(dp1247
g62
(dp1248
sg71
g846
sg64
(lp1249
g57
(g78
g59
NtRp1250
(dp1251
g62
(dp1252
g82
g83
ssg71
g1246
sg64
(lp1253
S'query_string'
p1254
asbag57
(g78
g59
NtRp1255
(dp1256
g62
(dp1257
g89
g90
ssg71
g1246
sg64
(lp1258
S':'
asbag57
(g78
g59
NtRp1259
(dp1260
g62
(dp1261
sg71
g1246
sg64
(lp1262
g57
(g58
g59
NtRp1263
(dp1264
g62
(dp1265
g70
I4
ssg71
g1259
sg64
(lp1266
S''
asbasbasbag57
(g73
g59
NtRp1267
(dp1268
g62
(dp1269
sg71
g846
sg64
(lp1270
g57
(g78
g59
NtRp1271
(dp1272
g62
(dp1273
g82
g83
ssg71
g1267
sg64
(lp1274
S'remote_addr'
p1275
asbag57
(g78
g59
NtRp1276
(dp1277
g62
(dp1278
g89
g90
ssg71
g1267
sg64
(lp1279
S':'
asbag57
(g78
g59
NtRp1280
(dp1281
g62
(dp1282
sg71
g1267
sg64
(lp1283
g57
(g58
g59
NtRp1284
(dp1285
g62
(dp1286
g70
I4
ssg71
g1280
sg64
(lp1287
g214
asbasbasbag57
(g73
g59
NtRp1288
(dp1289
g62
(dp1290
sg71
g846
sg64
(lp1291
g57
(g78
g59
NtRp1292
(dp1293
g62
(dp1294
g82
g83
ssg71
g1288
sg64
(lp1295
S'remote_port'
p1296
asbag57
(g78
g59
NtRp1297
(dp1298
g62
(dp1299
g89
g90
ssg71
g1288
sg64
(lp1300
S':'
asbag57
(g78
g59
NtRp1301
(dp1302
g62
(dp1303
sg71
g1288
sg64
(lp1304
g57
(g58
g59
NtRp1305
(dp1306
g62
(dp1307
g70
I4
ssg71
g1301
sg64
(lp1308
S'35157'
p1309
asbasbasbag57
(g73
g59
NtRp1310
(dp1311
g62
(dp1312
sg71
g846
sg64
(lp1313
g57
(g78
g59
NtRp1314
(dp1315
g62
(dp1316
g82
g83
ssg71
g1310
sg64
(lp1317
S'request_method'
p1318
asbag57
(g78
g59
NtRp1319
(dp1320
g62
(dp1321
g89
g90
ssg71
g1310
sg64
(lp1322
S':'
asbag57
(g78
g59
NtRp1323
(dp1324
g62
(dp1325
sg71
g1310
sg64
(lp1326
g57
(g58
g59
NtRp1327
(dp1328
g62
(dp1329
g70
I4
ssg71
g1323
sg64
(lp1330
S'GET'
p1331
asbasbasbag57
(g73
g59
NtRp1332
(dp1333
g62
(dp1334
sg71
g846
sg64
(lp1335
g57
(g78
g59
NtRp1336
(dp1337
g62
(dp1338
g82
g83
ssg71
g1332
sg64
(lp1339
S'script_name'
p1340
asbag57
(g78
g59
NtRp1341
(dp1342
g62
(dp1343
g89
g90
ssg71
g1332
sg64
(lp1344
S':'
asbag57
(g78
g59
NtRp1345
(dp1346
g62
(dp1347
sg71
g1332
sg64
(lp1348
g57
(g58
g59
NtRp1349
(dp1350
g62
(dp1351
g70
I4
ssg71
g1345
sg64
(lp1352
S''
asbasbasbag57
(g73
g59
NtRp1353
(dp1354
g62
(dp1355
sg71
g846
sg64
(lp1356
g57
(g78
g59
NtRp1357
(dp1358
g62
(dp1359
g82
g83
ssg71
g1353
sg64
(lp1360
S'server_name'
p1361
asbag57
(g78
g59
NtRp1362
(dp1363
g62
(dp1364
g89
g90
ssg71
g1353
sg64
(lp1365
S':'
asbag57
(g78
g59
NtRp1366
(dp1367
g62
(dp1368
sg71
g1353
sg64
(lp1369
g57
(g58
g59
NtRp1370
(dp1371
g62
(dp1372
g70
I4
ssg71
g1366
sg64
(lp1373
S'DS-IIIT'
p1374
asbasbasbag57
(g73
g59
NtRp1375
(dp1376
g62
(dp1377
sg71
g846
sg64
(lp1378
g57
(g78
g59
NtRp1379
(dp1380
g62
(dp1381
g82
g83
ssg71
g1375
sg64
(lp1382
S'server_port'
p1383
asbag57
(g78
g59
NtRp1384
(dp1385
g62
(dp1386
g89
g90
ssg71
g1375
sg64
(lp1387
S':'
asbag57
(g78
g59
NtRp1388
(dp1389
g62
(dp1390
sg71
g1375
sg64
(lp1391
g57
(g58
g59
NtRp1392
(dp1393
g62
(dp1394
g70
I4
ssg71
g1388
sg64
(lp1395
S'8001'
p1396
asbasbasbag57
(g73
g59
NtRp1397
(dp1398
g62
(dp1399
sg71
g846
sg64
(lp1400
g57
(g78
g59
NtRp1401
(dp1402
g62
(dp1403
g82
g83
ssg71
g1397
sg64
(lp1404
S'server_protocol'
p1405
asbag57
(g78
g59
NtRp1406
(dp1407
g62
(dp1408
g89
g90
ssg71
g1397
sg64
(lp1409
S':'
asbag57
(g78
g59
NtRp1410
(dp1411
g62
(dp1412
sg71
g1397
sg64
(lp1413
g57
(g58
g59
NtRp1414
(dp1415
g62
(dp1416
g70
I4
ssg71
g1410
sg64
(lp1417
S'HTTP/1.1'
p1418
asbasbasbag57
(g73
g59
NtRp1419
(dp1420
g62
(dp1421
sg71
g846
sg64
(lp1422
g57
(g78
g59
NtRp1423
(dp1424
g62
(dp1425
g82
g83
ssg71
g1419
sg64
(lp1426
S'server_software'
p1427
asbag57
(g78
g59
NtRp1428
(dp1429
g62
(dp1430
g89
g90
ssg71
g1419
sg64
(lp1431
S':'
asbag57
(g78
g59
NtRp1432
(dp1433
g62
(dp1434
sg71
g1419
sg64
(lp1435
g57
(g58
g59
NtRp1436
(dp1437
g62
(dp1438
g70
I4
ssg71
g1432
sg64
(lp1439
S'Rocket 1.2.4'
p1440
asbasbasbag57
(g73
g59
NtRp1441
(dp1442
g62
(dp1443
sg71
g846
sg64
(lp1444
g57
(g78
g59
NtRp1445
(dp1446
g62
(dp1447
g82
g83
ssg71
g1441
sg64
(lp1448
S'web2py_crontype'
p1449
asbag57
(g78
g59
NtRp1450
(dp1451
g62
(dp1452
g89
g90
ssg71
g1441
sg64
(lp1453
S':'
asbag57
(g78
g59
NtRp1454
(dp1455
g62
(dp1456
sg71
g1441
sg64
(lp1457
g57
(g58
g59
NtRp1458
(dp1459
g62
(dp1460
g70
I4
ssg71
g1454
sg64
(lp1461
S'hard'
p1462
asbasbasbag57
(g73
g59
NtRp1463
(dp1464
g62
(dp1465
sg71
g846
sg64
(lp1466
g57
(g78
g59
NtRp1467
(dp1468
g62
(dp1469
g82
g83
ssg71
g1463
sg64
(lp1470
S'web2py_path'
p1471
asbag57
(g78
g59
NtRp1472
(dp1473
g62
(dp1474
g89
g90
ssg71
g1463
sg64
(lp1475
S':'
asbag57
(g78
g59
NtRp1476
(dp1477
g62
(dp1478
sg71
g1463
sg64
(lp1479
g57
(g58
g59
NtRp1480
(dp1481
g62
(dp1482
g70
I4
ssg71
g1476
sg64
(lp1483
g893
asbasbasbag57
(g73
g59
NtRp1484
(dp1485
g62
(dp1486
sg71
g846
sg64
(lp1487
g57
(g78
g59
NtRp1488
(dp1489
g62
(dp1490
g82
g83
ssg71
g1484
sg64
(lp1491
S'web2py_version'
p1492
asbag57
(g78
g59
NtRp1493
(dp1494
g62
(dp1495
g89
g90
ssg71
g1484
sg64
(lp1496
S':'
asbag57
(g78
g59
NtRp1497
(dp1498
g62
(dp1499
sg71
g1484
sg64
(lp1500
g57
(g58
g59
NtRp1501
(dp1502
g62
(dp1503
g70
I4
ssg71
g1497
sg64
(lp1504
g57
(g66
g59
NtRp1505
(dp1506
g62
(dp1507
g70
I3
ssg71
Nsg64
(lp1508
g57
(g73
g59
NtRp1509
(dp1510
g62
(dp1511
sg71
g1505
sg64
(lp1512
g57
(g78
g59
NtRp1513
(dp1514
g62
(dp1515
sg71
g1509
sg64
(lp1516
g57
(g58
g59
NtRp1517
(dp1518
g62
(dp1519
g70
I3
ssg71
g1513
sg64
(lp1520
S'1'
asbasbasbag57
(g73
g59
NtRp1521
(dp1522
g62
(dp1523
sg71
g1505
sg64
(lp1524
g57
(g78
g59
NtRp1525
(dp1526
g62
(dp1527
sg71
g1521
sg64
(lp1528
g57
(g58
g59
NtRp1529
(dp1530
g62
(dp1531
g70
I3
ssg71
g1525
sg64
(lp1532
S'99'
p1533
asbasbasbag57
(g73
g59
NtRp1534
(dp1535
g62
(dp1536
sg71
g1505
sg64
(lp1537
g57
(g78
g59
NtRp1538
(dp1539
g62
(dp1540
sg71
g1534
sg64
(lp1541
g57
(g58
g59
NtRp1542
(dp1543
g62
(dp1544
g70
I3
ssg71
g1538
sg64
(lp1545
S'4'
asbasbasbag57
(g73
g59
NtRp1546
(dp1547
g62
(dp1548
sg71
g1505
sg64
(lp1549
g57
(g78
g59
NtRp1550
(dp1551
g62
(dp1552
sg71
g1546
sg64
(lp1553
g57
(g58
g59
NtRp1554
(dp1555
g62
(dp1556
g70
I3
ssg71
g1550
sg64
(lp1557
S'datetime.datetime(2011, 12, 14, 14, 46, 14)'
p1558
asbasbasbag57
(g73
g59
NtRp1559
(dp1560
g62
(dp1561
sg71
g1505
sg64
(lp1562
g57
(g78
g59
NtRp1563
(dp1564
g62
(dp1565
sg71
g1559
sg64
(lp1566
g57
(g58
g59
NtRp1567
(dp1568
g62
(dp1569
g70
I3
ssg71
g1563
sg64
(lp1570
S'stable'
p1571
asbasbasbasbasbasbasbag57
(g73
g59
NtRp1572
(dp1573
g62
(dp1574
sg71
g846
sg64
(lp1575
g57
(g78
g59
NtRp1576
(dp1577
g62
(dp1578
g82
g83
ssg71
g1572
sg64
(lp1579
S'wsgi_errors'
p1580
asbag57
(g78
g59
NtRp1581
(dp1582
g62
(dp1583
g89
g90
ssg71
g1572
sg64
(lp1584
S':'
asbag57
(g78
g59
NtRp1585
(dp1586
g62
(dp1587
sg71
g1572
sg64
(lp1588
g57
(g58
g59
NtRp1589
(dp1590
g62
(dp1591
g70
I4
ssg71
g1585
sg64
(lp1592
S"<open file '<stderr>', mode 'w' at 0x7f45376c2270>"
p1593
asbasbasbag57
(g73
g59
NtRp1594
(dp1595
g62
(dp1596
sg71
g846
sg64
(lp1597
g57
(g78
g59
NtRp1598
(dp1599
g62
(dp1600
g82
g83
ssg71
g1594
sg64
(lp1601
S'wsgi_file_wrapper'
p1602
asbag57
(g78
g59
NtRp1603
(dp1604
g62
(dp1605
g89
g90
ssg71
g1594
sg64
(lp1606
S':'
asbag57
(g78
g59
NtRp1607
(dp1608
g62
(dp1609
sg71
g1594
sg64
(lp1610
g57
(g58
g59
NtRp1611
(dp1612
g62
(dp1613
g70
I4
ssg71
g1607
sg64
(lp1614
S'<class wsgiref.util.FileWrapper at 0x1656530>'
p1615
asbasbasbag57
(g73
g59
NtRp1616
(dp1617
g62
(dp1618
sg71
g846
sg64
(lp1619
g57
(g78
g59
NtRp1620
(dp1621
g62
(dp1622
g82
g83
ssg71
g1616
sg64
(lp1623
S'wsgi_input'
p1624
asbag57
(g78
g59
NtRp1625
(dp1626
g62
(dp1627
g89
g90
ssg71
g1616
sg64
(lp1628
S':'
asbag57
(g78
g59
NtRp1629
(dp1630
g62
(dp1631
sg71
g1616
sg64
(lp1632
g57
(g58
g59
NtRp1633
(dp1634
g62
(dp1635
g70
I4
ssg71
g1629
sg64
(lp1636
S'<socket._fileobject object at 0x7f451040f250>'
p1637
asbasbasbag57
(g73
g59
NtRp1638
(dp1639
g62
(dp1640
sg71
g846
sg64
(lp1641
g57
(g78
g59
NtRp1642
(dp1643
g62
(dp1644
g82
g83
ssg71
g1638
sg64
(lp1645
S'wsgi_multiprocess'
p1646
asbag57
(g78
g59
NtRp1647
(dp1648
g62
(dp1649
g89
g90
ssg71
g1638
sg64
(lp1650
S':'
asbag57
(g78
g59
NtRp1651
(dp1652
g62
(dp1653
sg71
g1638
sg64
(lp1654
g57
(g58
g59
NtRp1655
(dp1656
g62
(dp1657
g70
I4
ssg71
g1651
sg64
(lp1658
g100
asbasbasbag57
(g73
g59
NtRp1659
(dp1660
g62
(dp1661
sg71
g846
sg64
(lp1662
g57
(g78
g59
NtRp1663
(dp1664
g62
(dp1665
g82
g83
ssg71
g1659
sg64
(lp1666
S'wsgi_multithread'
p1667
asbag57
(g78
g59
NtRp1668
(dp1669
g62
(dp1670
g89
g90
ssg71
g1659
sg64
(lp1671
S':'
asbag57
(g78
g59
NtRp1672
(dp1673
g62
(dp1674
sg71
g1659
sg64
(lp1675
g57
(g58
g59
NtRp1676
(dp1677
g62
(dp1678
g70
I4
ssg71
g1672
sg64
(lp1679
S'True'
p1680
asbasbasbag57
(g73
g59
NtRp1681
(dp1682
g62
(dp1683
sg71
g846
sg64
(lp1684
g57
(g78
g59
NtRp1685
(dp1686
g62
(dp1687
g82
g83
ssg71
g1681
sg64
(lp1688
S'wsgi_run_once'
p1689
asbag57
(g78
g59
NtRp1690
(dp1691
g62
(dp1692
g89
g90
ssg71
g1681
sg64
(lp1693
S':'
asbag57
(g78
g59
NtRp1694
(dp1695
g62
(dp1696
sg71
g1681
sg64
(lp1697
g57
(g58
g59
NtRp1698
(dp1699
g62
(dp1700
g70
I4
ssg71
g1694
sg64
(lp1701
g100
asbasbasbag57
(g73
g59
NtRp1702
(dp1703
g62
(dp1704
sg71
g846
sg64
(lp1705
g57
(g78
g59
NtRp1706
(dp1707
g62
(dp1708
g82
g83
ssg71
g1702
sg64
(lp1709
S'wsgi_url_scheme'
p1710
asbag57
(g78
g59
NtRp1711
(dp1712
g62
(dp1713
g89
g90
ssg71
g1702
sg64
(lp1714
S':'
asbag57
(g78
g59
NtRp1715
(dp1716
g62
(dp1717
sg71
g1702
sg64
(lp1718
g57
(g58
g59
NtRp1719
(dp1720
g62
(dp1721
g70
I4
ssg71
g1715
sg64
(lp1722
S'http'
p1723
asbasbasbag57
(g73
g59
NtRp1724
(dp1725
g62
(dp1726
sg71
g846
sg64
(lp1727
g57
(g78
g59
NtRp1728
(dp1729
g62
(dp1730
g82
g83
ssg71
g1724
sg64
(lp1731
S'wsgi_version'
p1732
asbag57
(g78
g59
NtRp1733
(dp1734
g62
(dp1735
g89
g90
ssg71
g1724
sg64
(lp1736
S':'
asbag57
(g78
g59
NtRp1737
(dp1738
g62
(dp1739
sg71
g1724
sg64
(lp1740
g57
(g58
g59
NtRp1741
(dp1742
g62
(dp1743
g70
I4
ssg71
g1737
sg64
(lp1744
g57
(g66
g59
NtRp1745
(dp1746
g62
(dp1747
g70
I3
ssg71
Nsg64
(lp1748
g57
(g73
g59
NtRp1749
(dp1750
g62
(dp1751
sg71
g1745
sg64
(lp1752
g57
(g78
g59
NtRp1753
(dp1754
g62
(dp1755
sg71
g1749
sg64
(lp1756
g57
(g58
g59
NtRp1757
(dp1758
g62
(dp1759
g70
I3
ssg71
g1753
sg64
(lp1760
S'1'
asbasbasbag57
(g73
g59
NtRp1761
(dp1762
g62
(dp1763
sg71
g1745
sg64
(lp1764
g57
(g78
g59
NtRp1765
(dp1766
g62
(dp1767
sg71
g1761
sg64
(lp1768
g57
(g58
g59
NtRp1769
(dp1770
g62
(dp1771
g70
I3
ssg71
g1765
sg64
(lp1772
S'0'
asbasbasbasbasbasbasbasbasbasbasbag57
(g73
g59
NtRp1773
(dp1774
g62
(dp1775
sg71
g67
sg64
(lp1776
g57
(g78
g59
NtRp1777
(dp1778
g62
(dp1779
g82
g83
ssg71
g1773
sg64
(lp1780
S'extension'
p1781
asbag57
(g78
g59
NtRp1782
(dp1783
g62
(dp1784
g89
g90
ssg71
g1773
sg64
(lp1785
S':'
asbag57
(g78
g59
NtRp1786
(dp1787
g62
(dp1788
sg71
g1773
sg64
(lp1789
g57
(g58
g59
NtRp1790
(dp1791
g62
(dp1792
g70
I5
ssg71
g1786
sg64
(lp1793
S'html'
p1794
asbasbasbag57
(g73
g59
NtRp1795
(dp1796
g62
(dp1797
sg71
g67
sg64
(lp1798
g57
(g78
g59
NtRp1799
(dp1800
g62
(dp1801
g82
g83
ssg71
g1795
sg64
(lp1802
S'folder'
p1803
asbag57
(g78
g59
NtRp1804
(dp1805
g62
(dp1806
g89
g90
ssg71
g1795
sg64
(lp1807
S':'
asbag57
(g78
g59
NtRp1808
(dp1809
g62
(dp1810
sg71
g1795
sg64
(lp1811
g57
(g58
g59
NtRp1812
(dp1813
g62
(dp1814
g70
I5
ssg71
g1808
sg64
(lp1815
S'/home/ds-iiit/web2py/applications/Read_it/'
p1816
asbasbasbag57
(g73
g59
NtRp1817
(dp1818
g62
(dp1819
sg71
g67
sg64
(lp1820
g57
(g78
g59
NtRp1821
(dp1822
g62
(dp1823
g82
g83
ssg71
g1817
sg64
(lp1824
S'function'
p1825
asbag57
(g78
g59
NtRp1826
(dp1827
g62
(dp1828
g89
g90
ssg71
g1817
sg64
(lp1829
S':'
asbag57
(g78
g59
NtRp1830
(dp1831
g62
(dp1832
sg71
g1817
sg64
(lp1833
g57
(g58
g59
NtRp1834
(dp1835
g62
(dp1836
g70
I5
ssg71
g1830
sg64
(lp1837
S'points'
p1838
asbasbasbag57
(g73
g59
NtRp1839
(dp1840
g62
(dp1841
sg71
g67
sg64
(lp1842
g57
(g78
g59
NtRp1843
(dp1844
g62
(dp1845
g82
g83
ssg71
g1839
sg64
(lp1846
S'get_vars'
p1847
asbag57
(g78
g59
NtRp1848
(dp1849
g62
(dp1850
g89
g90
ssg71
g1839
sg64
(lp1851
S':'
asbag57
(g78
g59
NtRp1852
(dp1853
g62
(dp1854
sg71
g1839
sg64
(lp1855
g57
(g58
g59
NtRp1856
(dp1857
g62
(dp1858
g70
I5
ssg71
g1852
sg64
(lp1859
g57
(g66
g59
NtRp1860
(dp1861
g62
(dp1862
g70
I4
ssg71
Nsg64
(lp1863
sbasbasbasbag57
(g73
g59
NtRp1864
(dp1865
g62
(dp1866
sg71
g67
sg64
(lp1867
g57
(g78
g59
NtRp1868
(dp1869
g62
(dp1870
g82
g83
ssg71
g1864
sg64
(lp1871
S'global_settings'
p1872
asbag57
(g78
g59
NtRp1873
(dp1874
g62
(dp1875
g89
g90
ssg71
g1864
sg64
(lp1876
S':'
asbag57
(g78
g59
NtRp1877
(dp1878
g62
(dp1879
sg71
g1864
sg64
(lp1880
g57
(g58
g59
NtRp1881
(dp1882
g62
(dp1883
g70
I5
ssg71
g1877
sg64
(lp1884
g57
(g66
g59
NtRp1885
(dp1886
g62
(dp1887
g70
I4
ssg71
Nsg64
(lp1888
g57
(g73
g59
NtRp1889
(dp1890
g62
(dp1891
sg71
g1885
sg64
(lp1892
g57
(g78
g59
NtRp1893
(dp1894
g62
(dp1895
g82
g83
ssg71
g1889
sg64
(lp1896
g858
asbag57
(g78
g59
NtRp1897
(dp1898
g62
(dp1899
g89
g90
ssg71
g1889
sg64
(lp1900
S':'
asbag57
(g78
g59
NtRp1901
(dp1902
g62
(dp1903
sg71
g1889
sg64
(lp1904
g57
(g58
g59
NtRp1905
(dp1906
g62
(dp1907
g70
I4
ssg71
g1901
sg64
(lp1908
S"set(['/home/ds-iiit/web2py/applications/Read_it/', '/home/ds-iiit/web2py/applications/welcome/', '/home/ds-iiit/web2py/applications/admin/'])"
p1909
asbasbasbag57
(g73
g59
NtRp1910
(dp1911
g62
(dp1912
sg71
g1885
sg64
(lp1913
g57
(g78
g59
NtRp1914
(dp1915
g62
(dp1916
g82
g83
ssg71
g1910
sg64
(lp1917
g880
asbag57
(g78
g59
NtRp1918
(dp1919
g62
(dp1920
g89
g90
ssg71
g1910
sg64
(lp1921
S':'
asbag57
(g78
g59
NtRp1922
(dp1923
g62
(dp1924
sg71
g1910
sg64
(lp1925
g57
(g58
g59
NtRp1926
(dp1927
g62
(dp1928
g70
I4
ssg71
g1922
sg64
(lp1929
g893
asbasbasbag57
(g73
g59
NtRp1930
(dp1931
g62
(dp1932
sg71
g1885
sg64
(lp1933
g57
(g78
g59
NtRp1934
(dp1935
g62
(dp1936
g82
g83
ssg71
g1930
sg64
(lp1937
g902
asbag57
(g78
g59
NtRp1938
(dp1939
g62
(dp1940
g89
g90
ssg71
g1930
sg64
(lp1941
S':'
asbag57
(g78
g59
NtRp1942
(dp1943
g62
(dp1944
sg71
g1930
sg64
(lp1945
g57
(g58
g59
NtRp1946
(dp1947
g62
(dp1948
g70
I4
ssg71
g1942
sg64
(lp1949
g57
(g66
g59
NtRp1950
(dp1951
g62
(dp1952
g70
I3
ssg71
Nsg64
(lp1953
sbasbasbasbag57
(g73
g59
NtRp1954
(dp1955
g62
(dp1956
sg71
g1885
sg64
(lp1957
g57
(g78
g59
NtRp1958
(dp1959
g62
(dp1960
g82
g83
ssg71
g1954
sg64
(lp1961
g927
asbag57
(g78
g59
NtRp1962
(dp1963
g62
(dp1964
g89
g90
ssg71
g1954
sg64
(lp1965
S':'
asbag57
(g78
g59
NtRp1966
(dp1967
g62
(dp1968
sg71
g1954
sg64
(lp1969
g57
(g58
g59
NtRp1970
(dp1971
g62
(dp1972
g70
I4
ssg71
g1966
sg64
(lp1973
S"<Values at 0x172cb00: {'verbose': False, 'ip': '127.0.0.1', 'shutdown_timeout': 5, 'taskbar': False, 'port': 8000, 'maxthreads': None, 'softcron': False, 'server_name': 'DS-IIIT', 'bpython': False, 'nogui': False, 'nocron': False, 'extcron': False, 'debuglevel': 30, 'test': None, 'folder': '/home/ds-iiit/web2py', 'config': '', 'import_models': False, 'winservice': '', 'shell': None, 'run': '', 'log_filename': 'httpserver.log', 'args': [''], 'socket_timeout': 1, 'profiler_filename': None, 'ssl_private_key': '', 'password': '<ask>', 'request_queue_size': 5, 'ssl_certificate': '', 'cronjob': False, 'plain': False, 'quiet': False, 'interfaces': None, 'minthreads': None, 'timeout': 10, 'numthreads': None, 'nobanner': False, 'pid_filename': 'httpserver.pid'}>"
p1974
asbasbasbag57
(g73
g59
NtRp1975
(dp1976
g62
(dp1977
sg71
g1885
sg64
(lp1978
g57
(g78
g59
NtRp1979
(dp1980
g62
(dp1981
g82
g83
ssg71
g1975
sg64
(lp1982
g949
asbag57
(g78
g59
NtRp1983
(dp1984
g62
(dp1985
g89
g90
ssg71
g1975
sg64
(lp1986
S':'
asbag57
(g78
g59
NtRp1987
(dp1988
g62
(dp1989
sg71
g1975
sg64
(lp1990
g57
(g58
g59
NtRp1991
(dp1992
g62
(dp1993
g70
I4
ssg71
g1987
sg64
(lp1994
S'set([])'
p1995
asbasbasbag57
(g73
g59
NtRp1996
(dp1997
g62
(dp1998
sg71
g1885
sg64
(lp1999
g57
(g78
g59
NtRp2000
(dp2001
g62
(dp2002
g82
g83
ssg71
g1996
sg64
(lp2003
g971
asbag57
(g78
g59
NtRp2004
(dp2005
g62
(dp2006
g89
g90
ssg71
g1996
sg64
(lp2007
S':'
asbag57
(g78
g59
NtRp2008
(dp2009
g62
(dp2010
sg71
g1996
sg64
(lp2011
g57
(g58
g59
NtRp2012
(dp2013
g62
(dp2014
g70
I4
ssg71
g2008
sg64
(lp2015
g100
asbasbasbag57
(g73
g59
NtRp2016
(dp2017
g62
(dp2018
sg71
g1885
sg64
(lp2019
g57
(g78
g59
NtRp2020
(dp2021
g62
(dp2022
g82
g83
ssg71
g2016
sg64
(lp2023
g992
asbag57
(g78
g59
NtRp2024
(dp2025
g62
(dp2026
g89
g90
ssg71
g2016
sg64
(lp2027
S':'
asbag57
(g78
g59
NtRp2028
(dp2029
g62
(dp2030
sg71
g2016
sg64
(lp2031
g57
(g58
g59
NtRp2032
(dp2033
g62
(dp2034
g70
I4
ssg71
g2028
sg64
(lp2035
g1005
asbasbasbag57
(g73
g59
NtRp2036
(dp2037
g62
(dp2038
sg71
g1885
sg64
(lp2039
g57
(g78
g59
NtRp2040
(dp2041
g62
(dp2042
g82
g83
ssg71
g2036
sg64
(lp2043
g1190
asbag57
(g78
g59
NtRp2044
(dp2045
g62
(dp2046
g89
g90
ssg71
g2036
sg64
(lp2047
S':'
asbag57
(g78
g59
NtRp2048
(dp2049
g62
(dp2050
sg71
g2036
sg64
(lp2051
g57
(g58
g59
NtRp2052
(dp2053
g62
(dp2054
g70
I4
ssg71
g2048
sg64
(lp2055
g100
asbasbasbag57
(g73
g59
NtRp2056
(dp2057
g62
(dp2058
sg71
g1885
sg64
(lp2059
g57
(g78
g59
NtRp2060
(dp2061
g62
(dp2062
g82
g83
ssg71
g2056
sg64
(lp2063
g1211
asbag57
(g78
g59
NtRp2064
(dp2065
g62
(dp2066
g89
g90
ssg71
g2056
sg64
(lp2067
S':'
asbag57
(g78
g59
NtRp2068
(dp2069
g62
(dp2070
sg71
g2056
sg64
(lp2071
g57
(g58
g59
NtRp2072
(dp2073
g62
(dp2074
g70
I4
ssg71
g2068
sg64
(lp2075
g100
asbasbasbag57
(g73
g59
NtRp2076
(dp2077
g62
(dp2078
sg71
g1885
sg64
(lp2079
g57
(g78
g59
NtRp2080
(dp2081
g62
(dp2082
g82
g83
ssg71
g2076
sg64
(lp2083
g1449
asbag57
(g78
g59
NtRp2084
(dp2085
g62
(dp2086
g89
g90
ssg71
g2076
sg64
(lp2087
S':'
asbag57
(g78
g59
NtRp2088
(dp2089
g62
(dp2090
sg71
g2076
sg64
(lp2091
g57
(g58
g59
NtRp2092
(dp2093
g62
(dp2094
g70
I4
ssg71
g2088
sg64
(lp2095
g1462
asbasbasbag57
(g73
g59
NtRp2096
(dp2097
g62
(dp2098
sg71
g1885
sg64
(lp2099
g57
(g78
g59
NtRp2100
(dp2101
g62
(dp2102
g82
g83
ssg71
g2096
sg64
(lp2103
g1492
asbag57
(g78
g59
NtRp2104
(dp2105
g62
(dp2106
g89
g90
ssg71
g2096
sg64
(lp2107
S':'
asbag57
(g78
g59
NtRp2108
(dp2109
g62
(dp2110
sg71
g2096
sg64
(lp2111
g57
(g58
g59
NtRp2112
(dp2113
g62
(dp2114
g70
I4
ssg71
g2108
sg64
(lp2115
g57
(g66
g59
NtRp2116
(dp2117
g62
(dp2118
g70
I3
ssg71
Nsg64
(lp2119
g57
(g73
g59
NtRp2120
(dp2121
g62
(dp2122
sg71
g2116
sg64
(lp2123
g57
(g78
g59
NtRp2124
(dp2125
g62
(dp2126
sg71
g2120
sg64
(lp2127
g57
(g58
g59
NtRp2128
(dp2129
g62
(dp2130
g70
I3
ssg71
g2124
sg64
(lp2131
S'1'
asbasbasbag57
(g73
g59
NtRp2132
(dp2133
g62
(dp2134
sg71
g2116
sg64
(lp2135
g57
(g78
g59
NtRp2136
(dp2137
g62
(dp2138
sg71
g2132
sg64
(lp2139
g57
(g58
g59
NtRp2140
(dp2141
g62
(dp2142
g70
I3
ssg71
g2136
sg64
(lp2143
S'99'
p2144
asbasbasbag57
(g73
g59
NtRp2145
(dp2146
g62
(dp2147
sg71
g2116
sg64
(lp2148
g57
(g78
g59
NtRp2149
(dp2150
g62
(dp2151
sg71
g2145
sg64
(lp2152
g57
(g58
g59
NtRp2153
(dp2154
g62
(dp2155
g70
I3
ssg71
g2149
sg64
(lp2156
S'4'
asbasbasbag57
(g73
g59
NtRp2157
(dp2158
g62
(dp2159
sg71
g2116
sg64
(lp2160
g57
(g78
g59
NtRp2161
(dp2162
g62
(dp2163
sg71
g2157
sg64
(lp2164
g57
(g58
g59
NtRp2165
(dp2166
g62
(dp2167
g70
I3
ssg71
g2161
sg64
(lp2168
S'datetime.datetime(2011, 12, 14, 14, 46, 14)'
p2169
asbasbasbag57
(g73
g59
NtRp2170
(dp2171
g62
(dp2172
sg71
g2116
sg64
(lp2173
g57
(g78
g59
NtRp2174
(dp2175
g62
(dp2176
sg71
g2170
sg64
(lp2177
g57
(g58
g59
NtRp2178
(dp2179
g62
(dp2180
g70
I3
ssg71
g2174
sg64
(lp2181
g1571
asbasbasbasbasbasbasbasbasbasbasbag57
(g73
g59
NtRp2182
(dp2183
g62
(dp2184
sg71
g67
sg64
(lp2185
g57
(g78
g59
NtRp2186
(dp2187
g62
(dp2188
g82
g83
ssg71
g2182
sg64
(lp2189
S'is_https'
p2190
asbag57
(g78
g59
NtRp2191
(dp2192
g62
(dp2193
g89
g90
ssg71
g2182
sg64
(lp2194
S':'
asbag57
(g78
g59
NtRp2195
(dp2196
g62
(dp2197
sg71
g2182
sg64
(lp2198
g57
(g58
g59
NtRp2199
(dp2200
g62
(dp2201
g70
I5
ssg71
g2195
sg64
(lp2202
g100
asbasbasbag57
(g73
g59
NtRp2203
(dp2204
g62
(dp2205
sg71
g67
sg64
(lp2206
g57
(g78
g59
NtRp2207
(dp2208
g62
(dp2209
g82
g83
ssg71
g2203
sg64
(lp2210
S'is_local'
p2211
asbag57
(g78
g59
NtRp2212
(dp2213
g62
(dp2214
g89
g90
ssg71
g2203
sg64
(lp2215
S':'
asbag57
(g78
g59
NtRp2216
(dp2217
g62
(dp2218
sg71
g2203
sg64
(lp2219
g57
(g58
g59
NtRp2220
(dp2221
g62
(dp2222
g70
I5
ssg71
g2216
sg64
(lp2223
g1680
asbasbasbag57
(g73
g59
NtRp2224
(dp2225
g62
(dp2226
sg71
g67
sg64
(lp2227
g57
(g78
g59
NtRp2228
(dp2229
g62
(dp2230
g82
g83
ssg71
g2224
sg64
(lp2231
S'is_restful'
p2232
asbag57
(g78
g59
NtRp2233
(dp2234
g62
(dp2235
g89
g90
ssg71
g2224
sg64
(lp2236
S':'
asbag57
(g78
g59
NtRp2237
(dp2238
g62
(dp2239
sg71
g2224
sg64
(lp2240
g57
(g58
g59
NtRp2241
(dp2242
g62
(dp2243
g70
I5
ssg71
g2237
sg64
(lp2244
g100
asbasbasbag57
(g73
g59
NtRp2245
(dp2246
g62
(dp2247
sg71
g67
sg64
(lp2248
g57
(g78
g59
NtRp2249
(dp2250
g62
(dp2251
g82
g83
ssg71
g2245
sg64
(lp2252
S'now'
p2253
asbag57
(g78
g59
NtRp2254
(dp2255
g62
(dp2256
g89
g90
ssg71
g2245
sg64
(lp2257
S':'
asbag57
(g78
g59
NtRp2258
(dp2259
g62
(dp2260
sg71
g2245
sg64
(lp2261
g57
(g58
g59
NtRp2262
(dp2263
g62
(dp2264
g70
I5
ssg71
g2258
sg64
(lp2265
S'datetime.datetime(2013, 8, 27, 20, 2, 46, 896758)'
p2266
asbasbasbag57
(g73
g59
NtRp2267
(dp2268
g62
(dp2269
sg71
g67
sg64
(lp2270
g57
(g78
g59
NtRp2271
(dp2272
g62
(dp2273
g82
g83
ssg71
g2267
sg64
(lp2274
S'post_vars'
p2275
asbag57
(g78
g59
NtRp2276
(dp2277
g62
(dp2278
g89
g90
ssg71
g2267
sg64
(lp2279
S':'
asbag57
(g78
g59
NtRp2280
(dp2281
g62
(dp2282
sg71
g2267
sg64
(lp2283
g57
(g58
g59
NtRp2284
(dp2285
g62
(dp2286
g70
I5
ssg71
g2280
sg64
(lp2287
g57
(g66
g59
NtRp2288
(dp2289
g62
(dp2290
g70
I4
ssg71
Nsg64
(lp2291
sbasbasbasbag57
(g73
g59
NtRp2292
(dp2293
g62
(dp2294
sg71
g67
sg64
(lp2295
g57
(g78
g59
NtRp2296
(dp2297
g62
(dp2298
g82
g83
ssg71
g2292
sg64
(lp2299
S'raw_args'
p2300
asbag57
(g78
g59
NtRp2301
(dp2302
g62
(dp2303
g89
g90
ssg71
g2292
sg64
(lp2304
S':'
asbag57
(g78
g59
NtRp2305
(dp2306
g62
(dp2307
sg71
g2292
sg64
(lp2308
g57
(g58
g59
NtRp2309
(dp2310
g62
(dp2311
g70
I5
ssg71
g2305
sg64
(lp2312
S'3/5'
p2313
asbasbasbag57
(g73
g59
NtRp2314
(dp2315
g62
(dp2316
sg71
g67
sg64
(lp2317
g57
(g78
g59
NtRp2318
(dp2319
g62
(dp2320
g82
g83
ssg71
g2314
sg64
(lp2321
S'url'
p2322
asbag57
(g78
g59
NtRp2323
(dp2324
g62
(dp2325
g89
g90
ssg71
g2314
sg64
(lp2326
S':'
asbag57
(g78
g59
NtRp2327
(dp2328
g62
(dp2329
sg71
g2314
sg64
(lp2330
g57
(g58
g59
NtRp2331
(dp2332
g62
(dp2333
g70
I5
ssg71
g2327
sg64
(lp2334
S'/Read_it/default/points/3/5'
p2335
asbasbasbag57
(g73
g59
NtRp2336
(dp2337
g62
(dp2338
sg71
g67
sg64
(lp2339
g57
(g78
g59
NtRp2340
(dp2341
g62
(dp2342
g82
g83
ssg71
g2336
sg64
(lp2343
S'utcnow'
p2344
asbag57
(g78
g59
NtRp2345
(dp2346
g62
(dp2347
g89
g90
ssg71
g2336
sg64
(lp2348
S':'
asbag57
(g78
g59
NtRp2349
(dp2350
g62
(dp2351
sg71
g2336
sg64
(lp2352
g57
(g58
g59
NtRp2353
(dp2354
g62
(dp2355
g70
I5
ssg71
g2349
sg64
(lp2356
S'datetime.datetime(2013, 8, 27, 14, 32, 46, 896780)'
p2357
asbasbasbag57
(g73
g59
NtRp2358
(dp2359
g62
(dp2360
sg71
g67
sg64
(lp2361
g57
(g78
g59
NtRp2362
(dp2363
g62
(dp2364
g82
g83
ssg71
g2358
sg64
(lp2365
S'uuid'
p2366
asbag57
(g78
g59
NtRp2367
(dp2368
g62
(dp2369
g89
g90
ssg71
g2358
sg64
(lp2370
S':'
asbag57
(g78
g59
NtRp2371
(dp2372
g62
(dp2373
sg71
g2358
sg64
(lp2374
g57
(g58
g59
NtRp2375
(dp2376
g62
(dp2377
g70
I5
ssg71
g2371
sg64
(lp2378
S'Read_it/127.0.0.1.2013-08-27.20-02-46.baea131b-f084-4d87-b45e-34bf22be92d9'
p2379
asbasbasbag57
(g73
g59
NtRp2380
(dp2381
g62
(dp2382
sg71
g67
sg64
(lp2383
g57
(g78
g59
NtRp2384
(dp2385
g62
(dp2386
g82
g83
ssg71
g2380
sg64
(lp2387
S'vars'
p2388
asbag57
(g78
g59
NtRp2389
(dp2390
g62
(dp2391
g89
g90
ssg71
g2380
sg64
(lp2392
S':'
asbag57
(g78
g59
NtRp2393
(dp2394
g62
(dp2395
sg71
g2380
sg64
(lp2396
g57
(g58
g59
NtRp2397
(dp2398
g62
(dp2399
g70
I5
ssg71
g2393
sg64
(lp2400
g57
(g66
g59
NtRp2401
(dp2402
g62
(dp2403
g70
I4
ssg71
Nsg64
(lp2404
sbasbasbasbag57
(g73
g59
NtRp2405
(dp2406
g62
(dp2407
sg71
g67
sg64
(lp2408
g57
(g78
g59
NtRp2409
(dp2410
g62
(dp2411
g82
g83
ssg71
g2405
sg64
(lp2412
S'wsgi'
p2413
asbag57
(g78
g59
NtRp2414
(dp2415
g62
(dp2416
g89
g90
ssg71
g2405
sg64
(lp2417
S':'
asbag57
(g78
g59
NtRp2418
(dp2419
g62
(dp2420
sg71
g2405
sg64
(lp2421
g57
(g58
g59
NtRp2422
(dp2423
g62
(dp2424
g70
I5
ssg71
g2418
sg64
(lp2425
g57
(g66
g59
NtRp2426
(dp2427
g62
(dp2428
g70
I4
ssg71
Nsg64
(lp2429
g57
(g73
g59
NtRp2430
(dp2431
g62
(dp2432
sg71
g2426
sg64
(lp2433
g57
(g78
g59
NtRp2434
(dp2435
g62
(dp2436
g82
g83
ssg71
g2430
sg64
(lp2437
S'environ'
p2438
asbag57
(g78
g59
NtRp2439
(dp2440
g62
(dp2441
g89
g90
ssg71
g2430
sg64
(lp2442
S':'
asbag57
(g78
g59
NtRp2443
(dp2444
g62
(dp2445
sg71
g2430
sg64
(lp2446
g57
(g58
g59
NtRp2447
(dp2448
g62
(dp2449
g70
I4
ssg71
g2443
sg64
(lp2450
g57
(g66
g59
NtRp2451
(dp2452
g62
(dp2453
g70
I3
ssg71
Nsg64
(lp2454
g57
(g73
g59
NtRp2455
(dp2456
g62
(dp2457
sg71
g2451
sg64
(lp2458
g57
(g78
g59
NtRp2459
(dp2460
g62
(dp2461
g82
g83
ssg71
g2455
sg64
(lp2462
S'HTTP_ACCEPT'
p2463
asbag57
(g78
g59
NtRp2464
(dp2465
g62
(dp2466
g89
g90
ssg71
g2455
sg64
(lp2467
S':'
asbag57
(g78
g59
NtRp2468
(dp2469
g62
(dp2470
sg71
g2455
sg64
(lp2471
g57
(g58
g59
NtRp2472
(dp2473
g62
(dp2474
g70
I3
ssg71
g2468
sg64
(lp2475
g1027
asbasbasbag57
(g73
g59
NtRp2476
(dp2477
g62
(dp2478
sg71
g2451
sg64
(lp2479
g57
(g78
g59
NtRp2480
(dp2481
g62
(dp2482
g82
g83
ssg71
g2476
sg64
(lp2483
S'HTTP_ACCEPT_ENCODING'
p2484
asbag57
(g78
g59
NtRp2485
(dp2486
g62
(dp2487
g89
g90
ssg71
g2476
sg64
(lp2488
S':'
asbag57
(g78
g59
NtRp2489
(dp2490
g62
(dp2491
sg71
g2476
sg64
(lp2492
g57
(g58
g59
NtRp2493
(dp2494
g62
(dp2495
g70
I3
ssg71
g2489
sg64
(lp2496
g1049
asbasbasbag57
(g73
g59
NtRp2497
(dp2498
g62
(dp2499
sg71
g2451
sg64
(lp2500
g57
(g78
g59
NtRp2501
(dp2502
g62
(dp2503
g82
g83
ssg71
g2497
sg64
(lp2504
S'HTTP_ACCEPT_LANGUAGE'
p2505
asbag57
(g78
g59
NtRp2506
(dp2507
g62
(dp2508
g89
g90
ssg71
g2497
sg64
(lp2509
S':'
asbag57
(g78
g59
NtRp2510
(dp2511
g62
(dp2512
sg71
g2497
sg64
(lp2513
g57
(g58
g59
NtRp2514
(dp2515
g62
(dp2516
g70
I3
ssg71
g2510
sg64
(lp2517
g1071
asbasbasbag57
(g73
g59
NtRp2518
(dp2519
g62
(dp2520
sg71
g2451
sg64
(lp2521
g57
(g78
g59
NtRp2522
(dp2523
g62
(dp2524
g82
g83
ssg71
g2518
sg64
(lp2525
S'HTTP_CONNECTION'
p2526
asbag57
(g78
g59
NtRp2527
(dp2528
g62
(dp2529
g89
g90
ssg71
g2518
sg64
(lp2530
S':'
asbag57
(g78
g59
NtRp2531
(dp2532
g62
(dp2533
sg71
g2518
sg64
(lp2534
g57
(g58
g59
NtRp2535
(dp2536
g62
(dp2537
g70
I3
ssg71
g2531
sg64
(lp2538
g1093
asbasbasbag57
(g73
g59
NtRp2539
(dp2540
g62
(dp2541
sg71
g2451
sg64
(lp2542
g57
(g78
g59
NtRp2543
(dp2544
g62
(dp2545
g82
g83
ssg71
g2539
sg64
(lp2546
S'HTTP_COOKIE'
p2547
asbag57
(g78
g59
NtRp2548
(dp2549
g62
(dp2550
g89
g90
ssg71
g2539
sg64
(lp2551
S':'
asbag57
(g78
g59
NtRp2552
(dp2553
g62
(dp2554
sg71
g2539
sg64
(lp2555
g57
(g58
g59
NtRp2556
(dp2557
g62
(dp2558
g70
I3
ssg71
g2552
sg64
(lp2559
g1115
asbasbasbag57
(g73
g59
NtRp2560
(dp2561
g62
(dp2562
sg71
g2451
sg64
(lp2563
g57
(g78
g59
NtRp2564
(dp2565
g62
(dp2566
g82
g83
ssg71
g2560
sg64
(lp2567
S'HTTP_HOST'
p2568
asbag57
(g78
g59
NtRp2569
(dp2570
g62
(dp2571
g89
g90
ssg71
g2560
sg64
(lp2572
S':'
asbag57
(g78
g59
NtRp2573
(dp2574
g62
(dp2575
sg71
g2560
sg64
(lp2576
g57
(g58
g59
NtRp2577
(dp2578
g62
(dp2579
g70
I3
ssg71
g2573
sg64
(lp2580
g1137
asbasbasbag57
(g73
g59
NtRp2581
(dp2582
g62
(dp2583
sg71
g2451
sg64
(lp2584
g57
(g78
g59
NtRp2585
(dp2586
g62
(dp2587
g82
g83
ssg71
g2581
sg64
(lp2588
S'HTTP_REFERER'
p2589
asbag57
(g78
g59
NtRp2590
(dp2591
g62
(dp2592
g89
g90
ssg71
g2581
sg64
(lp2593
S':'
asbag57
(g78
g59
NtRp2594
(dp2595
g62
(dp2596
sg71
g2581
sg64
(lp2597
g57
(g58
g59
NtRp2598
(dp2599
g62
(dp2600
g70
I3
ssg71
g2594
sg64
(lp2601
g1159
asbasbasbag57
(g73
g59
NtRp2602
(dp2603
g62
(dp2604
sg71
g2451
sg64
(lp2605
g57
(g78
g59
NtRp2606
(dp2607
g62
(dp2608
g82
g83
ssg71
g2602
sg64
(lp2609
S'HTTP_USER_AGENT'
p2610
asbag57
(g78
g59
NtRp2611
(dp2612
g62
(dp2613
g89
g90
ssg71
g2602
sg64
(lp2614
S':'
asbag57
(g78
g59
NtRp2615
(dp2616
g62
(dp2617
sg71
g2602
sg64
(lp2618
g57
(g58
g59
NtRp2619
(dp2620
g62
(dp2621
g70
I3
ssg71
g2615
sg64
(lp2622
g1181
asbasbasbag57
(g73
g59
NtRp2623
(dp2624
g62
(dp2625
sg71
g2451
sg64
(lp2626
g57
(g78
g59
NtRp2627
(dp2628
g62
(dp2629
g82
g83
ssg71
g2623
sg64
(lp2630
S'PATH_INFO'
p2631
asbag57
(g78
g59
NtRp2632
(dp2633
g62
(dp2634
g89
g90
ssg71
g2623
sg64
(lp2635
S':'
asbag57
(g78
g59
NtRp2636
(dp2637
g62
(dp2638
sg71
g2623
sg64
(lp2639
g57
(g58
g59
NtRp2640
(dp2641
g62
(dp2642
g70
I3
ssg71
g2636
sg64
(lp2643
g1245
asbasbasbag57
(g73
g59
NtRp2644
(dp2645
g62
(dp2646
sg71
g2451
sg64
(lp2647
g57
(g78
g59
NtRp2648
(dp2649
g62
(dp2650
g82
g83
ssg71
g2644
sg64
(lp2651
S'QUERY_STRING'
p2652
asbag57
(g78
g59
NtRp2653
(dp2654
g62
(dp2655
g89
g90
ssg71
g2644
sg64
(lp2656
S':'
asbag57
(g78
g59
NtRp2657
(dp2658
g62
(dp2659
sg71
g2644
sg64
(lp2660
g57
(g58
g59
NtRp2661
(dp2662
g62
(dp2663
g70
I3
ssg71
g2657
sg64
(lp2664
S''
asbasbasbag57
(g73
g59
NtRp2665
(dp2666
g62
(dp2667
sg71
g2451
sg64
(lp2668
g57
(g78
g59
NtRp2669
(dp2670
g62
(dp2671
g82
g83
ssg71
g2665
sg64
(lp2672
S'REMOTE_ADDR'
p2673
asbag57
(g78
g59
NtRp2674
(dp2675
g62
(dp2676
g89
g90
ssg71
g2665
sg64
(lp2677
S':'
asbag57
(g78
g59
NtRp2678
(dp2679
g62
(dp2680
sg71
g2665
sg64
(lp2681
g57
(g58
g59
NtRp2682
(dp2683
g62
(dp2684
g70
I3
ssg71
g2678
sg64
(lp2685
g214
asbasbasbag57
(g73
g59
NtRp2686
(dp2687
g62
(dp2688
sg71
g2451
sg64
(lp2689
g57
(g78
g59
NtRp2690
(dp2691
g62
(dp2692
g82
g83
ssg71
g2686
sg64
(lp2693
S'REMOTE_PORT'
p2694
asbag57
(g78
g59
NtRp2695
(dp2696
g62
(dp2697
g89
g90
ssg71
g2686
sg64
(lp2698
S':'
asbag57
(g78
g59
NtRp2699
(dp2700
g62
(dp2701
sg71
g2686
sg64
(lp2702
g57
(g58
g59
NtRp2703
(dp2704
g62
(dp2705
g70
I3
ssg71
g2699
sg64
(lp2706
g1309
asbasbasbag57
(g73
g59
NtRp2707
(dp2708
g62
(dp2709
sg71
g2451
sg64
(lp2710
g57
(g78
g59
NtRp2711
(dp2712
g62
(dp2713
g82
g83
ssg71
g2707
sg64
(lp2714
S'REQUEST_METHOD'
p2715
asbag57
(g78
g59
NtRp2716
(dp2717
g62
(dp2718
g89
g90
ssg71
g2707
sg64
(lp2719
S':'
asbag57
(g78
g59
NtRp2720
(dp2721
g62
(dp2722
sg71
g2707
sg64
(lp2723
g57
(g58
g59
NtRp2724
(dp2725
g62
(dp2726
g70
I3
ssg71
g2720
sg64
(lp2727
g1331
asbasbasbag57
(g73
g59
NtRp2728
(dp2729
g62
(dp2730
sg71
g2451
sg64
(lp2731
g57
(g78
g59
NtRp2732
(dp2733
g62
(dp2734
g82
g83
ssg71
g2728
sg64
(lp2735
S'SCRIPT_NAME'
p2736
asbag57
(g78
g59
NtRp2737
(dp2738
g62
(dp2739
g89
g90
ssg71
g2728
sg64
(lp2740
S':'
asbag57
(g78
g59
NtRp2741
(dp2742
g62
(dp2743
sg71
g2728
sg64
(lp2744
g57
(g58
g59
NtRp2745
(dp2746
g62
(dp2747
g70
I3
ssg71
g2741
sg64
(lp2748
S''
asbasbasbag57
(g73
g59
NtRp2749
(dp2750
g62
(dp2751
sg71
g2451
sg64
(lp2752
g57
(g78
g59
NtRp2753
(dp2754
g62
(dp2755
g82
g83
ssg71
g2749
sg64
(lp2756
S'SERVER_NAME'
p2757
asbag57
(g78
g59
NtRp2758
(dp2759
g62
(dp2760
g89
g90
ssg71
g2749
sg64
(lp2761
S':'
asbag57
(g78
g59
NtRp2762
(dp2763
g62
(dp2764
sg71
g2749
sg64
(lp2765
g57
(g58
g59
NtRp2766
(dp2767
g62
(dp2768
g70
I3
ssg71
g2762
sg64
(lp2769
g1374
asbasbasbag57
(g73
g59
NtRp2770
(dp2771
g62
(dp2772
sg71
g2451
sg64
(lp2773
g57
(g78
g59
NtRp2774
(dp2775
g62
(dp2776
g82
g83
ssg71
g2770
sg64
(lp2777
S'SERVER_PORT'
p2778
asbag57
(g78
g59
NtRp2779
(dp2780
g62
(dp2781
g89
g90
ssg71
g2770
sg64
(lp2782
S':'
asbag57
(g78
g59
NtRp2783
(dp2784
g62
(dp2785
sg71
g2770
sg64
(lp2786
g57
(g58
g59
NtRp2787
(dp2788
g62
(dp2789
g70
I3
ssg71
g2783
sg64
(lp2790
g1396
asbasbasbag57
(g73
g59
NtRp2791
(dp2792
g62
(dp2793
sg71
g2451
sg64
(lp2794
g57
(g78
g59
NtRp2795
(dp2796
g62
(dp2797
g82
g83
ssg71
g2791
sg64
(lp2798
S'SERVER_PROTOCOL'
p2799
asbag57
(g78
g59
NtRp2800
(dp2801
g62
(dp2802
g89
g90
ssg71
g2791
sg64
(lp2803
S':'
asbag57
(g78
g59
NtRp2804
(dp2805
g62
(dp2806
sg71
g2791
sg64
(lp2807
g57
(g58
g59
NtRp2808
(dp2809
g62
(dp2810
g70
I3
ssg71
g2804
sg64
(lp2811
g1418
asbasbasbag57
(g73
g59
NtRp2812
(dp2813
g62
(dp2814
sg71
g2451
sg64
(lp2815
g57
(g78
g59
NtRp2816
(dp2817
g62
(dp2818
g82
g83
ssg71
g2812
sg64
(lp2819
S'SERVER_SOFTWARE'
p2820
asbag57
(g78
g59
NtRp2821
(dp2822
g62
(dp2823
g89
g90
ssg71
g2812
sg64
(lp2824
S':'
asbag57
(g78
g59
NtRp2825
(dp2826
g62
(dp2827
sg71
g2812
sg64
(lp2828
g57
(g58
g59
NtRp2829
(dp2830
g62
(dp2831
g70
I3
ssg71
g2825
sg64
(lp2832
g1440
asbasbasbag57
(g73
g59
NtRp2833
(dp2834
g62
(dp2835
sg71
g2451
sg64
(lp2836
g57
(g78
g59
NtRp2837
(dp2838
g62
(dp2839
g82
g83
ssg71
g2833
sg64
(lp2840
S'wsgi.errors'
p2841
asbag57
(g78
g59
NtRp2842
(dp2843
g62
(dp2844
g89
g90
ssg71
g2833
sg64
(lp2845
S':'
asbag57
(g78
g59
NtRp2846
(dp2847
g62
(dp2848
sg71
g2833
sg64
(lp2849
g57
(g58
g59
NtRp2850
(dp2851
g62
(dp2852
g70
I3
ssg71
g2846
sg64
(lp2853
S"<open file '<stderr>', mode 'w' at 0x7f45376c2270>"
p2854
asbasbasbag57
(g73
g59
NtRp2855
(dp2856
g62
(dp2857
sg71
g2451
sg64
(lp2858
g57
(g78
g59
NtRp2859
(dp2860
g62
(dp2861
g82
g83
ssg71
g2855
sg64
(lp2862
S'wsgi.file_wrapper'
p2863
asbag57
(g78
g59
NtRp2864
(dp2865
g62
(dp2866
g89
g90
ssg71
g2855
sg64
(lp2867
S':'
asbag57
(g78
g59
NtRp2868
(dp2869
g62
(dp2870
sg71
g2855
sg64
(lp2871
g57
(g58
g59
NtRp2872
(dp2873
g62
(dp2874
g70
I3
ssg71
g2868
sg64
(lp2875
S'<class wsgiref.util.FileWrapper at 0x1656530>'
p2876
asbasbasbag57
(g73
g59
NtRp2877
(dp2878
g62
(dp2879
sg71
g2451
sg64
(lp2880
g57
(g78
g59
NtRp2881
(dp2882
g62
(dp2883
g82
g83
ssg71
g2877
sg64
(lp2884
S'wsgi.input'
p2885
asbag57
(g78
g59
NtRp2886
(dp2887
g62
(dp2888
g89
g90
ssg71
g2877
sg64
(lp2889
S':'
asbag57
(g78
g59
NtRp2890
(dp2891
g62
(dp2892
sg71
g2877
sg64
(lp2893
g57
(g58
g59
NtRp2894
(dp2895
g62
(dp2896
g70
I3
ssg71
g2890
sg64
(lp2897
S'<cStringIO.StringO object at 0x7f45046a3a08>'
p2898
asbasbasbag57
(g73
g59
NtRp2899
(dp2900
g62
(dp2901
sg71
g2451
sg64
(lp2902
g57
(g78
g59
NtRp2903
(dp2904
g62
(dp2905
g82
g83
ssg71
g2899
sg64
(lp2906
S'wsgi.multiprocess'
p2907
asbag57
(g78
g59
NtRp2908
(dp2909
g62
(dp2910
g89
g90
ssg71
g2899
sg64
(lp2911
S':'
asbag57
(g78
g59
NtRp2912
(dp2913
g62
(dp2914
sg71
g2899
sg64
(lp2915
g57
(g58
g59
NtRp2916
(dp2917
g62
(dp2918
g70
I3
ssg71
g2912
sg64
(lp2919
g100
asbasbasbag57
(g73
g59
NtRp2920
(dp2921
g62
(dp2922
sg71
g2451
sg64
(lp2923
g57
(g78
g59
NtRp2924
(dp2925
g62
(dp2926
g82
g83
ssg71
g2920
sg64
(lp2927
S'wsgi.multithread'
p2928
asbag57
(g78
g59
NtRp2929
(dp2930
g62
(dp2931
g89
g90
ssg71
g2920
sg64
(lp2932
S':'
asbag57
(g78
g59
NtRp2933
(dp2934
g62
(dp2935
sg71
g2920
sg64
(lp2936
g57
(g58
g59
NtRp2937
(dp2938
g62
(dp2939
g70
I3
ssg71
g2933
sg64
(lp2940
g1680
asbasbasbag57
(g73
g59
NtRp2941
(dp2942
g62
(dp2943
sg71
g2451
sg64
(lp2944
g57
(g78
g59
NtRp2945
(dp2946
g62
(dp2947
g82
g83
ssg71
g2941
sg64
(lp2948
S'wsgi.run_once'
p2949
asbag57
(g78
g59
NtRp2950
(dp2951
g62
(dp2952
g89
g90
ssg71
g2941
sg64
(lp2953
S':'
asbag57
(g78
g59
NtRp2954
(dp2955
g62
(dp2956
sg71
g2941
sg64
(lp2957
g57
(g58
g59
NtRp2958
(dp2959
g62
(dp2960
g70
I3
ssg71
g2954
sg64
(lp2961
g100
asbasbasbag57
(g73
g59
NtRp2962
(dp2963
g62
(dp2964
sg71
g2451
sg64
(lp2965
g57
(g78
g59
NtRp2966
(dp2967
g62
(dp2968
g82
g83
ssg71
g2962
sg64
(lp2969
S'wsgi.url_scheme'
p2970
asbag57
(g78
g59
NtRp2971
(dp2972
g62
(dp2973
g89
g90
ssg71
g2962
sg64
(lp2974
S':'
asbag57
(g78
g59
NtRp2975
(dp2976
g62
(dp2977
sg71
g2962
sg64
(lp2978
g57
(g58
g59
NtRp2979
(dp2980
g62
(dp2981
g70
I3
ssg71
g2975
sg64
(lp2982
g1723
asbasbasbag57
(g73
g59
NtRp2983
(dp2984
g62
(dp2985
sg71
g2451
sg64
(lp2986
g57
(g78
g59
NtRp2987
(dp2988
g62
(dp2989
g82
g83
ssg71
g2983
sg64
(lp2990
S'wsgi.version'
p2991
asbag57
(g78
g59
NtRp2992
(dp2993
g62
(dp2994
g89
g90
ssg71
g2983
sg64
(lp2995
S':'
asbag57
(g78
g59
NtRp2996
(dp2997
g62
(dp2998
sg71
g2983
sg64
(lp2999
g57
(g58
g59
NtRp3000
(dp3001
g62
(dp3002
g70
I3
ssg71
g2996
sg64
(lp3003
S'1'
asbasbasbasbasbasbasbasbasbasbasbasbasbsS'frames'
p3004
(lp3005
(dp3006
S'file'
p3007
S'/usr/lib/pymodules/python2.7/gluon/restricted.py'
p3008
sS'dump'
p3009
(dp3010
S'environment'
p3011
S"{'A': <class 'gluon.html.A'>, 'Auth': <class 'gluon.tools.Auth'>, 'B': <class 'gluon.html.B'>, 'BEAUTIFY': <class 'gluon.html.BEAUTIFY'>, 'BODY': <class 'gluon.html.BODY'>, 'BR': <class 'gluon.html.BR'>, 'BUTTON': <class 'gluon.html.BUTTON'>, 'CAT': <class 'gluon.html.CAT'>, 'CENTER': <class 'gluon.html.CENTER'>, 'CLEANUP': <class 'gluon.validators.CLEANUP'>, ...}"
p3012
sS'ccode'
p3013
S'<code object <module> at 0x7f450469ebb0, file "/...cations/Read_it/controllers/default.py", line 12>'
p3014
ssS'lnum'
p3015
I204
sS'lines'
p3016
(dp3017
I199
S'    try:'
p3018
sI200
S'        if type(code) == types.CodeType:'
p3019
sI201
S'            ccode = code'
p3020
sI202
S'        else:'
p3021
sI203
S'            ccode = compile2(code,layer)'
p3022
sI204
S'        exec ccode in environment'
p3023
sI205
S'    except HTTP:'
p3024
sI206
S'        raise'
p3025
sI207
S'    except RestrictedError:'
p3026
sI208
S'        # do not encapsulate (obfuscate) the original RestrictedError'
p3027
ssS'call'
p3028
S"(code='# -*- coding: utf-8 -*-\\n# this file is released ...rud())\\n\\n\\nresponse._vars=response._caller(points)\\n', environment={'A': <class 'gluon.html.A'>, 'Auth': <class 'gluon.tools.Auth'>, 'B': <class 'gluon.html.B'>, 'BEAUTIFY': <class 'gluon.html.BEAUTIFY'>, 'BODY': <class 'gluon.html.BODY'>, 'BR': <class 'gluon.html.BR'>, 'BUTTON': <class 'gluon.html.BUTTON'>, 'CAT': <class 'gluon.html.CAT'>, 'CENTER': <class 'gluon.html.CENTER'>, 'CLEANUP': <class 'gluon.validators.CLEANUP'>, ...}, layer='/home/ds-iiit/web2py/applications/Read_it/controllers/default.py')"
p3029
sS'func'
p3030
S'restricted'
p3031
sa(dp3032
g3007
S'/home/ds-iiit/web2py/applications/Read_it/controllers/default.py'
p3033
sg3009
(dp3034
sg3015
I137
sg3016
(dp3035
I128
S'    http://..../[app]/default/data/search/[table]'
p3036
sI129
S'    but URLs must be signed, i.e. linked with'
p3037
sI130
S"      A('table',_href=URL('data/tables',user_signature=True))"
p3038
sI131
S'    or with the signed load operator'
p3039
sI132
S"      LOAD('default','data.load',args='tables',ajax=True,user_signature=True)"
p3040
sI133
S'    """'
p3041
sI134
S'    return dict(form=crud())'
p3042
sI135
S''
sI126
S'    http://..../[app]/default/data/delete/[table]/[id]'
p3043
sI127
S'    http://..../[app]/default/data/select/[table]'
p3044
ssg3028
S'()'
p3045
sg3030
S'<module>'
p3046
sa(dp3047
g3007
S'/usr/lib/pymodules/python2.7/gluon/globals.py'
p3048
sg3009
(dp3049
S'self'
p3050
S'undefined'
p3051
sS'f'
S'<function points>'
p3052
ssg3015
I172
sg3016
(dp3053
I167
S'        self.meta = Storage()      # used by web2py_ajax.html'
p3054
sI168
S'        self.menu = []             # used by the default view layout'
p3055
sI169
S'        self.files = []            # used by web2py_ajax.html'
p3056
sI170
S'        self.generic_patterns = [] # patterns to allow generic views'
p3057
sI171
S'        self._vars = None'
p3058
sI172
S'        self._caller = lambda f: f()'
p3059
sI173
S'        self._view_environment = None'
p3060
sI174
S'        self._custom_commit = None'
p3061
sI175
S'        self._custom_rollback = None'
p3062
sI176
S''
ssg3028
S'(f=<function points>)'
p3063
sg3030
S'<lambda>'
p3064
sa(dp3065
g3007
S'/usr/lib/pymodules/python2.7/gluon/tools.py'
p3066
sg3009
(dp3067
S'action'
p3068
S'<function points>'
p3069
sS'a'
S'()'
p3070
sS'b'
g45
ssg3015
I2533
sg3016
(dp3071
I2528
S'                # otherwise case 3 would be ok.'
p3072
sI2529
S'                if not (callable(condition) and condition() == True) and not condition == True:'
p3073
sI2530
S'                    current.session.flash = self.messages.access_denied'
p3074
sI2531
S'                    return call_or_redirect('
p3075
sI2532
S'                        self.settings.on_failed_authorization)'
p3076
sI2533
S'                return action(*a, **b)'
p3077
sI2534
S'            f.__doc__ = action.__doc__'
p3078
sI2535
S'            f.__name__ = action.__name__'
p3079
sI2536
S'            f.__dict__.update(action.__dict__)'
p3080
sI2537
S'            return f'
p3081
ssg3028
S'(*a=(), **b={})'
p3082
sg3030
S'f'
sa(dp3083
g3007
S'/home/ds-iiit/web2py/applications/Read_it/controllers/default.py'
p3084
sg3009
(dp3085
S'y'
S"<Row {'update_record': <function <lambda> at 0x7..._record': <function <lambda> at 0x7f45046b4de8>}>"
p3086
sS'global request'
p3087
S"<Storage {'body': <cStringIO.StringO object at 0..._vars': <Storage {}>, 'post_vars': <Storage {}>}>"
p3088
sS'builtinint'
p3089
S"<type 'int'>"
p3090
sS'request.args'
p3091
S"['3', '5']"
p3092
ssg3015
I30
sg3016
(dp3093
I32
S'\t\tresponse.flash("Done")'
p3094
sI33
S"\t\t#redirect('/default/listall')"
p3095
sI34
S'\telse:'
p3096
sI25
S'\tx=db((db.Rated.ItemID == request.args(0)) & (db.Rated.UserID == auth.user_id)).select()'
p3097
sI26
S'\tif not x:'
p3098
sI27
S'\t\tdb.Rated.insert(UserID=auth.user_id,ItemID=request.args(0))'
p3099
sI28
S'\t\tx=db((db.Rated.ItemID == request.args(0)) & (db.Rated.UserID == auth.user_id)).select()'
p3100
sI29
S'\t\ty = x.first()'
p3101
sI30
S"\t\ty['Rating'] = y['Rating'] + int(request.args(1))"
p3102
sI31
S'\t\t#db(db.Item.id == request.args(0)).update(Rating+=int(request.args(1)))'
p3103
ssg3028
S'()'
p3104
sg3030
S'points'
p3105
sa(dp3106
g3007
S'/usr/lib/pymodules/python2.7/gluon/dal.py'
p3107
sg3009
(dp3108
S'self'
p3109
S"<Row {'update_record': <function <lambda> at 0x7..._record': <function <lambda> at 0x7f45046b4de8>}>"
p3110
sS'dict.__getitem__'
p3111
S"<method '__getitem__' of 'dict' objects>"
p3112
sS'key'
p3113
S"'Rating'"
p3114
sS'builtindict'
p3115
S"<type 'dict'>"
p3116
ssg3015
I4431
sg3016
(dp3117
I4426
S'        elif m:'
p3118
sI4427
S'            try:'
p3119
sI4428
S'                return dict.__getitem__(self, m.group(1))[m.group(2)]'
p3120
sI4429
S'            except (KeyError,TypeError):'
p3121
sI4430
S'                key = m.group(2)'
p3122
sI4431
S'        return dict.__getitem__(self, key)'
p3123
sI4432
S''
sI4433
S'    def __call__(self,key):'
p3124
sI4434
S'        return self.__getitem__(key)'
p3125
sI4435
S''
ssg3028
S"(self=<Row {'update_record': <function <lambda> at 0x7..._record': <function <lambda> at 0x7f45046b4de8>}>, key='Rating')"
p3126
sg3030
g20
sasS'pyver'
p3127
S'Python 2.7.3: /usr/bin/python'
p3128
sS'session'
p3129
g57
(g58
g59
NtRp3130
(dp3131
g62
(dp3132
sg64
(lp3133
g57
(g66
g59
NtRp3134
(dp3135
g62
(dp3136
g70
I5
ssg71
Nsg64
(lp3137
g57
(g73
g59
NtRp3138
(dp3139
g62
(dp3140
sg71
g3134
sg64
(lp3141
g57
(g78
g59
NtRp3142
(dp3143
g62
(dp3144
g82
g83
ssg71
g3138
sg64
(lp3145
S'auth'
p3146
asbag57
(g78
g59
NtRp3147
(dp3148
g62
(dp3149
g89
g90
ssg71
g3138
sg64
(lp3150
S':'
asbag57
(g78
g59
NtRp3151
(dp3152
g62
(dp3153
sg71
g3138
sg64
(lp3154
g57
(g58
g59
NtRp3155
(dp3156
g62
(dp3157
g70
I5
ssg71
g3151
sg64
(lp3158
g57
(g66
g59
NtRp3159
(dp3160
g62
(dp3161
g70
I4
ssg71
Nsg64
(lp3162
g57
(g73
g59
NtRp3163
(dp3164
g62
(dp3165
sg71
g3159
sg64
(lp3166
g57
(g78
g59
NtRp3167
(dp3168
g62
(dp3169
g82
g83
ssg71
g3163
sg64
(lp3170
S'expiration'
p3171
asbag57
(g78
g59
NtRp3172
(dp3173
g62
(dp3174
g89
g90
ssg71
g3163
sg64
(lp3175
S':'
asbag57
(g78
g59
NtRp3176
(dp3177
g62
(dp3178
sg71
g3163
sg64
(lp3179
g57
(g58
g59
NtRp3180
(dp3181
g62
(dp3182
g70
I4
ssg71
g3176
sg64
(lp3183
S'3600'
p3184
asbasbasbag57
(g73
g59
NtRp3185
(dp3186
g62
(dp3187
sg71
g3159
sg64
(lp3188
g57
(g78
g59
NtRp3189
(dp3190
g62
(dp3191
g82
g83
ssg71
g3185
sg64
(lp3192
S'hmac_key'
p3193
asbag57
(g78
g59
NtRp3194
(dp3195
g62
(dp3196
g89
g90
ssg71
g3185
sg64
(lp3197
S':'
asbag57
(g78
g59
NtRp3198
(dp3199
g62
(dp3200
sg71
g3185
sg64
(lp3201
g57
(g58
g59
NtRp3202
(dp3203
g62
(dp3204
g70
I4
ssg71
g3198
sg64
(lp3205
S'ca4fc1bc-3897-4704-ac82-eeacf599e2cd'
p3206
asbasbasbag57
(g73
g59
NtRp3207
(dp3208
g62
(dp3209
sg71
g3159
sg64
(lp3210
g57
(g78
g59
NtRp3211
(dp3212
g62
(dp3213
g82
g83
ssg71
g3207
sg64
(lp3214
S'last_visit'
p3215
asbag57
(g78
g59
NtRp3216
(dp3217
g62
(dp3218
g89
g90
ssg71
g3207
sg64
(lp3219
S':'
asbag57
(g78
g59
NtRp3220
(dp3221
g62
(dp3222
sg71
g3207
sg64
(lp3223
g57
(g58
g59
NtRp3224
(dp3225
g62
(dp3226
g70
I4
ssg71
g3220
sg64
(lp3227
S'datetime.datetime(2013, 8, 27, 20, 2, 13, 644477)'
p3228
asbasbasbag57
(g73
g59
NtRp3229
(dp3230
g62
(dp3231
sg71
g3159
sg64
(lp3232
g57
(g78
g59
NtRp3233
(dp3234
g62
(dp3235
g82
g83
ssg71
g3229
sg64
(lp3236
S'user'
p3237
asbag57
(g78
g59
NtRp3238
(dp3239
g62
(dp3240
g89
g90
ssg71
g3229
sg64
(lp3241
S':'
asbag57
(g78
g59
NtRp3242
(dp3243
g62
(dp3244
sg71
g3229
sg64
(lp3245
g57
(g58
g59
NtRp3246
(dp3247
g62
(dp3248
g70
I4
ssg71
g3242
sg64
(lp3249
g57
(g66
g59
NtRp3250
(dp3251
g62
(dp3252
g70
I3
ssg71
Nsg64
(lp3253
g57
(g73
g59
NtRp3254
(dp3255
g62
(dp3256
sg71
g3250
sg64
(lp3257
g57
(g78
g59
NtRp3258
(dp3259
g62
(dp3260
g82
g83
ssg71
g3254
sg64
(lp3261
S'email'
p3262
asbag57
(g78
g59
NtRp3263
(dp3264
g62
(dp3265
g89
g90
ssg71
g3254
sg64
(lp3266
S':'
asbag57
(g78
g59
NtRp3267
(dp3268
g62
(dp3269
sg71
g3254
sg64
(lp3270
g57
(g58
g59
NtRp3271
(dp3272
g62
(dp3273
g70
I3
ssg71
g3267
sg64
(lp3274
S'pj@gmail.com'
p3275
asbasbasbag57
(g73
g59
NtRp3276
(dp3277
g62
(dp3278
sg71
g3250
sg64
(lp3279
g57
(g78
g59
NtRp3280
(dp3281
g62
(dp3282
g82
g83
ssg71
g3276
sg64
(lp3283
S'first_name'
p3284
asbag57
(g78
g59
NtRp3285
(dp3286
g62
(dp3287
g89
g90
ssg71
g3276
sg64
(lp3288
S':'
asbag57
(g78
g59
NtRp3289
(dp3290
g62
(dp3291
sg71
g3276
sg64
(lp3292
g57
(g58
g59
NtRp3293
(dp3294
g62
(dp3295
g70
I3
ssg71
g3289
sg64
(lp3296
S'Princu'
p3297
asbasbasbag57
(g73
g59
NtRp3298
(dp3299
g62
(dp3300
sg71
g3250
sg64
(lp3301
g57
(g78
g59
NtRp3302
(dp3303
g62
(dp3304
g82
g83
ssg71
g3298
sg64
(lp3305
S'id'
p3306
asbag57
(g78
g59
NtRp3307
(dp3308
g62
(dp3309
g89
g90
ssg71
g3298
sg64
(lp3310
S':'
asbag57
(g78
g59
NtRp3311
(dp3312
g62
(dp3313
sg71
g3298
sg64
(lp3314
g57
(g58
g59
NtRp3315
(dp3316
g62
(dp3317
g70
I3
ssg71
g3311
sg64
(lp3318
S'2'
asbasbasbag57
(g73
g59
NtRp3319
(dp3320
g62
(dp3321
sg71
g3250
sg64
(lp3322
g57
(g78
g59
NtRp3323
(dp3324
g62
(dp3325
g82
g83
ssg71
g3319
sg64
(lp3326
S'last_name'
p3327
asbag57
(g78
g59
NtRp3328
(dp3329
g62
(dp3330
g89
g90
ssg71
g3319
sg64
(lp3331
S':'
asbag57
(g78
g59
NtRp3332
(dp3333
g62
(dp3334
sg71
g3319
sg64
(lp3335
g57
(g58
g59
NtRp3336
(dp3337
g62
(dp3338
g70
I3
ssg71
g3332
sg64
(lp3339
S'Jain'
p3340
asbasbasbag57
(g73
g59
NtRp3341
(dp3342
g62
(dp3343
sg71
g3250
sg64
(lp3344
g57
(g78
g59
NtRp3345
(dp3346
g62
(dp3347
g82
g83
ssg71
g3341
sg64
(lp3348
S'password'
p3349
asbag57
(g78
g59
NtRp3350
(dp3351
g62
(dp3352
g89
g90
ssg71
g3341
sg64
(lp3353
S':'
asbag57
(g78
g59
NtRp3354
(dp3355
g62
(dp3356
sg71
g3341
sg64
(lp3357
g57
(g58
g59
NtRp3358
(dp3359
g62
(dp3360
g70
I3
ssg71
g3354
sg64
(lp3361
S'3209dfeb866e06638d334e68055d777c'
p3362
asbasbasbag57
(g73
g59
NtRp3363
(dp3364
g62
(dp3365
sg71
g3250
sg64
(lp3366
g57
(g78
g59
NtRp3367
(dp3368
g62
(dp3369
g82
g83
ssg71
g3363
sg64
(lp3370
S'registration_id'
p3371
asbag57
(g78
g59
NtRp3372
(dp3373
g62
(dp3374
g89
g90
ssg71
g3363
sg64
(lp3375
S':'
asbag57
(g78
g59
NtRp3376
(dp3377
g62
(dp3378
sg71
g3363
sg64
(lp3379
g57
(g58
g59
NtRp3380
(dp3381
g62
(dp3382
g70
I3
ssg71
g3376
sg64
(lp3383
S''
asbasbasbag57
(g73
g59
NtRp3384
(dp3385
g62
(dp3386
sg71
g3250
sg64
(lp3387
g57
(g78
g59
NtRp3388
(dp3389
g62
(dp3390
g82
g83
ssg71
g3384
sg64
(lp3391
S'registration_key'
p3392
asbag57
(g78
g59
NtRp3393
(dp3394
g62
(dp3395
g89
g90
ssg71
g3384
sg64
(lp3396
S':'
asbag57
(g78
g59
NtRp3397
(dp3398
g62
(dp3399
sg71
g3384
sg64
(lp3400
g57
(g58
g59
NtRp3401
(dp3402
g62
(dp3403
g70
I3
ssg71
g3397
sg64
(lp3404
S''
asbasbasbag57
(g73
g59
NtRp3405
(dp3406
g62
(dp3407
sg71
g3250
sg64
(lp3408
g57
(g78
g59
NtRp3409
(dp3410
g62
(dp3411
g82
g83
ssg71
g3405
sg64
(lp3412
S'reset_password_key'
p3413
asbag57
(g78
g59
NtRp3414
(dp3415
g62
(dp3416
g89
g90
ssg71
g3405
sg64
(lp3417
S':'
asbag57
(g78
g59
NtRp3418
(dp3419
g62
(dp3420
sg71
g3405
sg64
(lp3421
g57
(g58
g59
NtRp3422
(dp3423
g62
(dp3424
g70
I3
ssg71
g3418
sg64
(lp3425
S''
asbasbasbasbasbasbasbasbasbasbasbag57
(g73
g59
NtRp3426
(dp3427
g62
(dp3428
sg71
g3134
sg64
(lp3429
g57
(g78
g59
NtRp3430
(dp3431
g62
(dp3432
g82
g83
ssg71
g3426
sg64
(lp3433
S'last_query'
p3434
asbag57
(g78
g59
NtRp3435
(dp3436
g62
(dp3437
g89
g90
ssg71
g3426
sg64
(lp3438
S':'
asbag57
(g78
g59
NtRp3439
(dp3440
g62
(dp3441
sg71
g3426
sg64
(lp3442
g57
(g58
g59
NtRp3443
(dp3444
g62
(dp3445
g70
I5
ssg71
g3439
sg64
(lp3446
S'db.Rated.id>0'
p3447
asbasbasbasbasbsS'etype'
p3448
S"<type 'exceptions.KeyError'>"
p3449
sS'date'
p3450
S'Tue Aug 27 20:02:46 2013'
p3451
sS'response'
p3452
g57
(g58
g59
NtRp3453
(dp3454
g62
(dp3455
sg64
(lp3456
g57
(g66
g59
NtRp3457
(dp3458
g62
(dp3459
g70
I5
ssg71
Nsg64
(lp3460
g57
(g73
g59
NtRp3461
(dp3462
g62
(dp3463
sg71
g3457
sg64
(lp3464
g57
(g78
g59
NtRp3465
(dp3466
g62
(dp3467
g82
g83
ssg71
g3461
sg64
(lp3468
g179
asbag57
(g78
g59
NtRp3469
(dp3470
g62
(dp3471
g89
g90
ssg71
g3461
sg64
(lp3472
S':'
asbag57
(g78
g59
NtRp3473
(dp3474
g62
(dp3475
sg71
g3461
sg64
(lp3476
g57
(g58
g59
NtRp3477
(dp3478
g62
(dp3479
g70
I5
ssg71
g3473
sg64
(lp3480
S'<cStringIO.StringO object at 0x7f45046a3d88>'
p3481
asbasbasbag57
(g73
g59
NtRp3482
(dp3483
g62
(dp3484
sg71
g3457
sg64
(lp3485
g57
(g78
g59
NtRp3486
(dp3487
g62
(dp3488
g82
g83
ssg71
g3482
sg64
(lp3489
g245
asbag57
(g78
g59
NtRp3490
(dp3491
g62
(dp3492
g89
g90
ssg71
g3482
sg64
(lp3493
S':'
asbag57
(g78
g59
NtRp3494
(dp3495
g62
(dp3496
sg71
g3482
sg64
(lp3497
g57
(g58
g59
NtRp3498
(dp3499
g62
(dp3500
g70
I5
ssg71
g3494
sg64
(lp3501
g57
(g66
g59
NtRp3502
(dp3503
g62
(dp3504
g70
I4
ssg71
Nsg64
(lp3505
g57
(g73
g59
NtRp3506
(dp3507
g62
(dp3508
sg71
g3502
sg64
(lp3509
g57
(g78
g59
NtRp3510
(dp3511
g62
(dp3512
g82
g83
ssg71
g3506
sg64
(lp3513
S'session_id_read_it'
p3514
asbag57
(g78
g59
NtRp3515
(dp3516
g62
(dp3517
g89
g90
ssg71
g3506
sg64
(lp3518
S':'
asbag57
(g78
g59
NtRp3519
(dp3520
g62
(dp3521
sg71
g3506
sg64
(lp3522
g57
(g58
g59
NtRp3523
(dp3524
g62
(dp3525
g70
I4
ssg71
g3519
sg64
(lp3526
g57
(g66
g59
NtRp3527
(dp3528
g62
(dp3529
g70
I3
ssg71
Nsg64
(lp3530
g57
(g73
g59
NtRp3531
(dp3532
g62
(dp3533
sg71
g3527
sg64
(lp3534
g57
(g78
g59
NtRp3535
(dp3536
g62
(dp3537
g82
g83
ssg71
g3531
sg64
(lp3538
g295
asbag57
(g78
g59
NtRp3539
(dp3540
g62
(dp3541
g89
g90
ssg71
g3531
sg64
(lp3542
S':'
asbag57
(g78
g59
NtRp3543
(dp3544
g62
(dp3545
sg71
g3531
sg64
(lp3546
g57
(g58
g59
NtRp3547
(dp3548
g62
(dp3549
g70
I3
ssg71
g3543
sg64
(lp3550
S''
asbasbasbag57
(g73
g59
NtRp3551
(dp3552
g62
(dp3553
sg71
g3527
sg64
(lp3554
g57
(g78
g59
NtRp3555
(dp3556
g62
(dp3557
g82
g83
ssg71
g3551
sg64
(lp3558
g316
asbag57
(g78
g59
NtRp3559
(dp3560
g62
(dp3561
g89
g90
ssg71
g3551
sg64
(lp3562
S':'
asbag57
(g78
g59
NtRp3563
(dp3564
g62
(dp3565
sg71
g3551
sg64
(lp3566
g57
(g58
g59
NtRp3567
(dp3568
g62
(dp3569
g70
I3
ssg71
g3563
sg64
(lp3570
S''
asbasbasbag57
(g73
g59
NtRp3571
(dp3572
g62
(dp3573
sg71
g3527
sg64
(lp3574
g57
(g78
g59
NtRp3575
(dp3576
g62
(dp3577
g82
g83
ssg71
g3571
sg64
(lp3578
g337
asbag57
(g78
g59
NtRp3579
(dp3580
g62
(dp3581
g89
g90
ssg71
g3571
sg64
(lp3582
S':'
asbag57
(g78
g59
NtRp3583
(dp3584
g62
(dp3585
sg71
g3571
sg64
(lp3586
g57
(g58
g59
NtRp3587
(dp3588
g62
(dp3589
g70
I3
ssg71
g3583
sg64
(lp3590
S''
asbasbasbag57
(g73
g59
NtRp3591
(dp3592
g62
(dp3593
sg71
g3527
sg64
(lp3594
g57
(g78
g59
NtRp3595
(dp3596
g62
(dp3597
g82
g83
ssg71
g3591
sg64
(lp3598
g358
asbag57
(g78
g59
NtRp3599
(dp3600
g62
(dp3601
g89
g90
ssg71
g3591
sg64
(lp3602
S':'
asbag57
(g78
g59
NtRp3603
(dp3604
g62
(dp3605
sg71
g3591
sg64
(lp3606
g57
(g58
g59
NtRp3607
(dp3608
g62
(dp3609
g70
I3
ssg71
g3603
sg64
(lp3610
S''
asbasbasbag57
(g73
g59
NtRp3611
(dp3612
g62
(dp3613
sg71
g3527
sg64
(lp3614
g57
(g78
g59
NtRp3615
(dp3616
g62
(dp3617
g82
g83
ssg71
g3611
sg64
(lp3618
g379
asbag57
(g78
g59
NtRp3619
(dp3620
g62
(dp3621
g89
g90
ssg71
g3611
sg64
(lp3622
S':'
asbag57
(g78
g59
NtRp3623
(dp3624
g62
(dp3625
sg71
g3611
sg64
(lp3626
g57
(g58
g59
NtRp3627
(dp3628
g62
(dp3629
g70
I3
ssg71
g3623
sg64
(lp3630
S''
asbasbasbag57
(g73
g59
NtRp3631
(dp3632
g62
(dp3633
sg71
g3527
sg64
(lp3634
g57
(g78
g59
NtRp3635
(dp3636
g62
(dp3637
g82
g83
ssg71
g3631
sg64
(lp3638
g400
asbag57
(g78
g59
NtRp3639
(dp3640
g62
(dp3641
g89
g90
ssg71
g3631
sg64
(lp3642
S':'
asbag57
(g78
g59
NtRp3643
(dp3644
g62
(dp3645
sg71
g3631
sg64
(lp3646
g57
(g58
g59
NtRp3647
(dp3648
g62
(dp3649
g70
I3
ssg71
g3643
sg64
(lp3650
S'/'
asbasbasbag57
(g73
g59
NtRp3651
(dp3652
g62
(dp3653
sg71
g3527
sg64
(lp3654
g57
(g78
g59
NtRp3655
(dp3656
g62
(dp3657
g82
g83
ssg71
g3651
sg64
(lp3658
g421
asbag57
(g78
g59
NtRp3659
(dp3660
g62
(dp3661
g89
g90
ssg71
g3651
sg64
(lp3662
S':'
asbag57
(g78
g59
NtRp3663
(dp3664
g62
(dp3665
sg71
g3651
sg64
(lp3666
g57
(g58
g59
NtRp3667
(dp3668
g62
(dp3669
g70
I3
ssg71
g3663
sg64
(lp3670
S''
asbasbasbag57
(g73
g59
NtRp3671
(dp3672
g62
(dp3673
sg71
g3527
sg64
(lp3674
g57
(g78
g59
NtRp3675
(dp3676
g62
(dp3677
g82
g83
ssg71
g3671
sg64
(lp3678
g442
asbag57
(g78
g59
NtRp3679
(dp3680
g62
(dp3681
g89
g90
ssg71
g3671
sg64
(lp3682
S':'
asbag57
(g78
g59
NtRp3683
(dp3684
g62
(dp3685
sg71
g3671
sg64
(lp3686
g57
(g58
g59
NtRp3687
(dp3688
g62
(dp3689
g70
I3
ssg71
g3683
sg64
(lp3690
S''
asbasbasbasbasbasbasbasbasbasbasbag57
(g73
g59
NtRp3691
(dp3692
g62
(dp3693
sg71
g3457
sg64
(lp3694
g57
(g78
g59
NtRp3695
(dp3696
g62
(dp3697
g82
g83
ssg71
g3691
sg64
(lp3698
S'files'
p3699
asbag57
(g78
g59
NtRp3700
(dp3701
g62
(dp3702
g89
g90
ssg71
g3691
sg64
(lp3703
S':'
asbag57
(g78
g59
NtRp3704
(dp3705
g62
(dp3706
sg71
g3691
sg64
(lp3707
g57
(g58
g59
NtRp3708
(dp3709
g62
(dp3710
g70
I5
ssg71
g3704
sg64
(lp3711
g57
(g66
g59
NtRp3712
(dp3713
g62
(dp3714
g70
I4
ssg71
Nsg64
(lp3715
sbasbasbasbag57
(g73
g59
NtRp3716
(dp3717
g62
(dp3718
sg71
g3457
sg64
(lp3719
g57
(g78
g59
NtRp3720
(dp3721
g62
(dp3722
g82
g83
ssg71
g3716
sg64
(lp3723
S'flash'
p3724
asbag57
(g78
g59
NtRp3725
(dp3726
g62
(dp3727
g89
g90
ssg71
g3716
sg64
(lp3728
S':'
asbag57
(g78
g59
NtRp3729
(dp3730
g62
(dp3731
sg71
g3716
sg64
(lp3732
g57
(g58
g59
NtRp3733
(dp3734
g62
(dp3735
g70
I5
ssg71
g3729
sg64
(lp3736
S''
asbasbasbag57
(g73
g59
NtRp3737
(dp3738
g62
(dp3739
sg71
g3457
sg64
(lp3740
g57
(g78
g59
NtRp3741
(dp3742
g62
(dp3743
g82
g83
ssg71
g3737
sg64
(lp3744
S'generic_patterns'
p3745
asbag57
(g78
g59
NtRp3746
(dp3747
g62
(dp3748
g89
g90
ssg71
g3737
sg64
(lp3749
S':'
asbag57
(g78
g59
NtRp3750
(dp3751
g62
(dp3752
sg71
g3737
sg64
(lp3753
g57
(g58
g59
NtRp3754
(dp3755
g62
(dp3756
g70
I5
ssg71
g3750
sg64
(lp3757
g57
(g66
g59
NtRp3758
(dp3759
g62
(dp3760
g70
I4
ssg71
Nsg64
(lp3761
g57
(g73
g59
NtRp3762
(dp3763
g62
(dp3764
sg71
g3758
sg64
(lp3765
g57
(g78
g59
NtRp3766
(dp3767
g62
(dp3768
sg71
g3762
sg64
(lp3769
g57
(g58
g59
NtRp3770
(dp3771
g62
(dp3772
g70
I4
ssg71
g3766
sg64
(lp3773
S'*'
asbasbasbasbasbasbasbag57
(g73
g59
NtRp3774
(dp3775
g62
(dp3776
sg71
g3457
sg64
(lp3777
g57
(g78
g59
NtRp3778
(dp3779
g62
(dp3780
g82
g83
ssg71
g3774
sg64
(lp3781
S'headers'
p3782
asbag57
(g78
g59
NtRp3783
(dp3784
g62
(dp3785
g89
g90
ssg71
g3774
sg64
(lp3786
S':'
asbag57
(g78
g59
NtRp3787
(dp3788
g62
(dp3789
sg71
g3774
sg64
(lp3790
g57
(g58
g59
NtRp3791
(dp3792
g62
(dp3793
g70
I5
ssg71
g3787
sg64
(lp3794
g57
(g66
g59
NtRp3795
(dp3796
g62
(dp3797
g70
I4
ssg71
Nsg64
(lp3798
g57
(g73
g59
NtRp3799
(dp3800
g62
(dp3801
sg71
g3795
sg64
(lp3802
g57
(g78
g59
NtRp3803
(dp3804
g62
(dp3805
g82
g83
ssg71
g3799
sg64
(lp3806
S'Cache-Control'
p3807
asbag57
(g78
g59
NtRp3808
(dp3809
g62
(dp3810
g89
g90
ssg71
g3799
sg64
(lp3811
S':'
asbag57
(g78
g59
NtRp3812
(dp3813
g62
(dp3814
sg71
g3799
sg64
(lp3815
g57
(g58
g59
NtRp3816
(dp3817
g62
(dp3818
g70
I4
ssg71
g3812
sg64
(lp3819
S'no-store, no-cache, must-revalidate, post-check=0, pre-check=0'
p3820
asbasbasbag57
(g73
g59
NtRp3821
(dp3822
g62
(dp3823
sg71
g3795
sg64
(lp3824
g57
(g78
g59
NtRp3825
(dp3826
g62
(dp3827
g82
g83
ssg71
g3821
sg64
(lp3828
S'Content-Type'
p3829
asbag57
(g78
g59
NtRp3830
(dp3831
g62
(dp3832
g89
g90
ssg71
g3821
sg64
(lp3833
S':'
asbag57
(g78
g59
NtRp3834
(dp3835
g62
(dp3836
sg71
g3821
sg64
(lp3837
g57
(g58
g59
NtRp3838
(dp3839
g62
(dp3840
g70
I4
ssg71
g3834
sg64
(lp3841
S'text/html; charset=utf-8'
p3842
asbasbasbag57
(g73
g59
NtRp3843
(dp3844
g62
(dp3845
sg71
g3795
sg64
(lp3846
g57
(g78
g59
NtRp3847
(dp3848
g62
(dp3849
g82
g83
ssg71
g3843
sg64
(lp3850
S'Expires'
p3851
asbag57
(g78
g59
NtRp3852
(dp3853
g62
(dp3854
g89
g90
ssg71
g3843
sg64
(lp3855
S':'
asbag57
(g78
g59
NtRp3856
(dp3857
g62
(dp3858
sg71
g3843
sg64
(lp3859
g57
(g58
g59
NtRp3860
(dp3861
g62
(dp3862
g70
I4
ssg71
g3856
sg64
(lp3863
S'Tue, 27 Aug 2013 14:32:46 GMT'
p3864
asbasbasbag57
(g73
g59
NtRp3865
(dp3866
g62
(dp3867
sg71
g3795
sg64
(lp3868
g57
(g78
g59
NtRp3869
(dp3870
g62
(dp3871
g82
g83
ssg71
g3865
sg64
(lp3872
S'Pragma'
p3873
asbag57
(g78
g59
NtRp3874
(dp3875
g62
(dp3876
g89
g90
ssg71
g3865
sg64
(lp3877
S':'
asbag57
(g78
g59
NtRp3878
(dp3879
g62
(dp3880
sg71
g3865
sg64
(lp3881
g57
(g58
g59
NtRp3882
(dp3883
g62
(dp3884
g70
I4
ssg71
g3878
sg64
(lp3885
S'no-cache'
p3886
asbasbasbag57
(g73
g59
NtRp3887
(dp3888
g62
(dp3889
sg71
g3795
sg64
(lp3890
g57
(g78
g59
NtRp3891
(dp3892
g62
(dp3893
g82
g83
ssg71
g3887
sg64
(lp3894
S'X-Powered-By'
p3895
asbag57
(g78
g59
NtRp3896
(dp3897
g62
(dp3898
g89
g90
ssg71
g3887
sg64
(lp3899
S':'
asbag57
(g78
g59
NtRp3900
(dp3901
g62
(dp3902
sg71
g3887
sg64
(lp3903
g57
(g58
g59
NtRp3904
(dp3905
g62
(dp3906
g70
I4
ssg71
g3900
sg64
(lp3907
S'web2py'
p3908
asbasbasbasbasbasbasbag57
(g73
g59
NtRp3909
(dp3910
g62
(dp3911
sg71
g3457
sg64
(lp3912
g57
(g78
g59
NtRp3913
(dp3914
g62
(dp3915
g82
g83
ssg71
g3909
sg64
(lp3916
S'menu'
p3917
asbag57
(g78
g59
NtRp3918
(dp3919
g62
(dp3920
g89
g90
ssg71
g3909
sg64
(lp3921
S':'
asbag57
(g78
g59
NtRp3922
(dp3923
g62
(dp3924
sg71
g3909
sg64
(lp3925
g57
(g58
g59
NtRp3926
(dp3927
g62
(dp3928
g70
I5
ssg71
g3922
sg64
(lp3929
g57
(g66
g59
NtRp3930
(dp3931
g62
(dp3932
g70
I4
ssg71
Nsg64
(lp3933
g57
(g73
g59
NtRp3934
(dp3935
g62
(dp3936
sg71
g3930
sg64
(lp3937
g57
(g78
g59
NtRp3938
(dp3939
g62
(dp3940
sg71
g3934
sg64
(lp3941
g57
(g58
g59
NtRp3942
(dp3943
g62
(dp3944
g70
I4
ssg71
g3938
sg64
(lp3945
g57
(g66
g59
NtRp3946
(dp3947
g62
(dp3948
g70
I3
ssg71
Nsg64
(lp3949
g57
(g73
g59
NtRp3950
(dp3951
g62
(dp3952
sg71
g3946
sg64
(lp3953
g57
(g78
g59
NtRp3954
(dp3955
g62
(dp3956
sg71
g3950
sg64
(lp3957
g57
(g58
g59
NtRp3958
(dp3959
g62
(dp3960
g70
I3
ssg71
g3954
sg64
(lp3961
cgluon.languages
lazyT_unpickle
p3962
(S't\x04\x00\x00\x00Home'
tRp3963
asbasbasbag57
(g73
g59
NtRp3964
(dp3965
g62
(dp3966
sg71
g3946
sg64
(lp3967
g57
(g78
g59
NtRp3968
(dp3969
g62
(dp3970
sg71
g3964
sg64
(lp3971
g57
(g58
g59
NtRp3972
(dp3973
g62
(dp3974
g70
I3
ssg71
g3968
sg64
(lp3975
g100
asbasbasbag57
(g73
g59
NtRp3976
(dp3977
g62
(dp3978
sg71
g3946
sg64
(lp3979
g57
(g78
g59
NtRp3980
(dp3981
g62
(dp3982
sg71
g3976
sg64
(lp3983
g57
(g58
g59
NtRp3984
(dp3985
g62
(dp3986
g70
I3
ssg71
g3980
sg64
(lp3987
S'/Read_it/default/index'
p3988
asbasbasbag57
(g73
g59
NtRp3989
(dp3990
g62
(dp3991
sg71
g3946
sg64
(lp3992
g57
(g78
g59
NtRp3993
(dp3994
g62
(dp3995
sg71
g3989
sg64
(lp3996
g57
(g58
g59
NtRp3997
(dp3998
g62
(dp3999
g70
I3
ssg71
g3993
sg64
(lp4000
g57
(g66
g59
NtRp4001
(dp4002
g62
(dp4003
g70
I2
ssg71
Nsg64
(lp4004
sbasbasbasbasbasbasbasbag57
(g73
g59
NtRp4005
(dp4006
g62
(dp4007
sg71
g3930
sg64
(lp4008
g57
(g78
g59
NtRp4009
(dp4010
g62
(dp4011
sg71
g4005
sg64
(lp4012
g57
(g58
g59
NtRp4013
(dp4014
g62
(dp4015
g70
I4
ssg71
g4009
sg64
(lp4016
g57
(g66
g59
NtRp4017
(dp4018
g62
(dp4019
g70
I3
ssg71
Nsg64
(lp4020
g57
(g73
g59
NtRp4021
(dp4022
g62
(dp4023
sg71
g4017
sg64
(lp4024
g57
(g78
g59
NtRp4025
(dp4026
g62
(dp4027
sg71
g4021
sg64
(lp4028
g57
(g58
g59
NtRp4029
(dp4030
g62
(dp4031
g70
I3
ssg71
g4025
sg64
(lp4032
g57
(cgluon.html
SPAN
p4033
g59
NtRp4034
(dp4035
g62
(dp4036
g82
S'color:yellow'
p4037
ssg71
Nsg64
(lp4038
g3908
asbasbasbasbag57
(g73
g59
NtRp4039
(dp4040
g62
(dp4041
sg71
g4017
sg64
(lp4042
g57
(g78
g59
NtRp4043
(dp4044
g62
(dp4045
sg71
g4039
sg64
(lp4046
g57
(g58
g59
NtRp4047
(dp4048
g62
(dp4049
g70
I3
ssg71
g4043
sg64
(lp4050
g100
asbasbasbag57
(g73
g59
NtRp4051
(dp4052
g62
(dp4053
sg71
g4017
sg64
(lp4054
g57
(g78
g59
NtRp4055
(dp4056
g62
(dp4057
sg71
g4051
sg64
(lp4058
g57
(g58
g59
NtRp4059
(dp4060
g62
(dp4061
g70
I3
ssg71
g4055
sg64
(lp4062
S'None'
p4063
asbasbasbag57
(g73
g59
NtRp4064
(dp4065
g62
(dp4066
sg71
g4017
sg64
(lp4067
g57
(g78
g59
NtRp4068
(dp4069
g62
(dp4070
sg71
g4064
sg64
(lp4071
g57
(g58
g59
NtRp4072
(dp4073
g62
(dp4074
g70
I3
ssg71
g4068
sg64
(lp4075
g57
(g66
g59
NtRp4076
(dp4077
g62
(dp4078
g70
I2
ssg71
Nsg64
(lp4079
g57
(g73
g59
NtRp4080
(dp4081
g62
(dp4082
sg71
g4076
sg64
(lp4083
g57
(g78
g59
NtRp4084
(dp4085
g62
(dp4086
sg71
g4080
sg64
(lp4087
g57
(g58
g59
NtRp4088
(dp4089
g62
(dp4090
g70
I2
ssg71
g4084
sg64
(lp4091
g57
(g66
g59
NtRp4092
(dp4093
g62
(dp4094
g70
I1
ssg71
Nsg64
(lp4095
g57
(g73
g59
NtRp4096
(dp4097
g62
(dp4098
sg71
g4092
sg64
(lp4099
g57
(g78
g59
NtRp4100
(dp4101
g62
(dp4102
sg71
g4096
sg64
(lp4103
g57
(g58
g59
NtRp4104
(dp4105
g62
(dp4106
g70
I1
ssg71
g4100
sg64
(lp4107
g3962
(S's\x08\x00\x00\x00My Sites'
tRp4108
asbasbasbag57
(g73
g59
NtRp4109
(dp4110
g62
(dp4111
sg71
g4092
sg64
(lp4112
g57
(g78
g59
NtRp4113
(dp4114
g62
(dp4115
sg71
g4109
sg64
(lp4116
g57
(g58
g59
NtRp4117
(dp4118
g62
(dp4119
g70
I1
ssg71
g4113
sg64
(lp4120
I00
asbasbasbag57
(g73
g59
NtRp4121
(dp4122
g62
(dp4123
sg71
g4092
sg64
(lp4124
g57
(g78
g59
NtRp4125
(dp4126
g62
(dp4127
sg71
g4121
sg64
(lp4128
g57
(g58
g59
NtRp4129
(dp4130
g62
(dp4131
g70
I1
ssg71
g4125
sg64
(lp4132
S'/admin/default/site'
p4133
asbasbasbasbasbasbasbag57
(g73
g59
NtRp4134
(dp4135
g62
(dp4136
sg71
g4076
sg64
(lp4137
g57
(g78
g59
NtRp4138
(dp4139
g62
(dp4140
sg71
g4134
sg64
(lp4141
g57
(g58
g59
NtRp4142
(dp4143
g62
(dp4144
g70
I2
ssg71
g4138
sg64
(lp4145
g57
(g66
g59
NtRp4146
(dp4147
g62
(dp4148
g70
I1
ssg71
Nsg64
(lp4149
g57
(g73
g59
NtRp4150
(dp4151
g62
(dp4152
sg71
g4146
sg64
(lp4153
g57
(g78
g59
NtRp4154
(dp4155
g62
(dp4156
sg71
g4150
sg64
(lp4157
g57
(g58
g59
NtRp4158
(dp4159
g62
(dp4160
g70
I1
ssg71
g4154
sg64
(lp4161
g3962
(S's\x08\x00\x00\x00This App'
tRp4162
asbasbasbag57
(g73
g59
NtRp4163
(dp4164
g62
(dp4165
sg71
g4146
sg64
(lp4166
g57
(g78
g59
NtRp4167
(dp4168
g62
(dp4169
sg71
g4163
sg64
(lp4170
g57
(g58
g59
NtRp4171
(dp4172
g62
(dp4173
g70
I1
ssg71
g4167
sg64
(lp4174
I00
asbasbasbag57
(g73
g59
NtRp4175
(dp4176
g62
(dp4177
sg71
g4146
sg64
(lp4178
g57
(g78
g59
NtRp4179
(dp4180
g62
(dp4181
sg71
g4175
sg64
(lp4182
g57
(g58
g59
NtRp4183
(dp4184
g62
(dp4185
g70
I1
ssg71
g4179
sg64
(lp4186
S'/admin/default/design/Read_it'
p4187
asbasbasbag57
(g73
g59
NtRp4188
(dp4189
g62
(dp4190
sg71
g4146
sg64
(lp4191
g57
(g78
g59
NtRp4192
(dp4193
g62
(dp4194
sg71
g4188
sg64
(lp4195
g57
(g58
g59
NtRp4196
(dp4197
g62
(dp4198
g70
I1
ssg71
g4192
sg64
(lp4199
(lp4200
(g3962
(S't\n\x00\x00\x00Controller'
tRp4201
I00
S'/admin/default/edit/Read_it/controllers/default.py'
tp4202
a(g3962
(S't\x04\x00\x00\x00View'
tRp4203
I00
S'/admin/default/edit/Read_it/views/default/points.html'
tp4204
a(g3962
(S't\x06\x00\x00\x00Layout'
tRp4205
I00
S'/admin/default/edit/Read_it/views/layout.html'
tp4206
a(g3962
(S't\n\x00\x00\x00Stylesheet'
tRp4207
I00
S'/admin/default/edit/Read_it/static/css/web2py.css'
tp4208
a(g3962
(S's\x08\x00\x00\x00DB Model'
tRp4209
I00
S'/admin/default/edit/Read_it/models/db.py'
tp4210
a(g3962
(S's\n\x00\x00\x00Menu Model'
tRp4211
I00
S'/admin/default/edit/Read_it/models/menu.py'
tp4212
a(g3962
(S't\x08\x00\x00\x00Database'
tRp4213
I00
S'/Read_it/appadmin/index'
tp4214
a(g3962
(S't\x06\x00\x00\x00Errors'
tRp4215
I00
S'/admin/default/errors/Read_it'
tp4216
a(g3962
(S't\x05\x00\x00\x00About'
tRp4217
I00
S'/admin/default/about/Read_it'
tp4218
aasbasbasbasbasbasbasbag57
(g73
g59
NtRp4219
(dp4220
g62
(dp4221
sg71
g4076
sg64
(lp4222
g57
(g78
g59
NtRp4223
(dp4224
g62
(dp4225
sg71
g4219
sg64
(lp4226
g57
(g58
g59
NtRp4227
(dp4228
g62
(dp4229
g70
I2
ssg71
g4223
sg64
(lp4230
g57
(g66
g59
NtRp4231
(dp4232
g62
(dp4233
g70
I1
ssg71
Nsg64
(lp4234
g57
(g73
g59
NtRp4235
(dp4236
g62
(dp4237
sg71
g4231
sg64
(lp4238
g57
(g78
g59
NtRp4239
(dp4240
g62
(dp4241
sg71
g4235
sg64
(lp4242
g57
(g58
g59
NtRp4243
(dp4244
g62
(dp4245
g70
I1
ssg71
g4239
sg64
(lp4246
S'web2py.com'
p4247
asbasbasbag57
(g73
g59
NtRp4248
(dp4249
g62
(dp4250
sg71
g4231
sg64
(lp4251
g57
(g78
g59
NtRp4252
(dp4253
g62
(dp4254
sg71
g4248
sg64
(lp4255
g57
(g58
g59
NtRp4256
(dp4257
g62
(dp4258
g70
I1
ssg71
g4252
sg64
(lp4259
I00
asbasbasbag57
(g73
g59
NtRp4260
(dp4261
g62
(dp4262
sg71
g4231
sg64
(lp4263
g57
(g78
g59
NtRp4264
(dp4265
g62
(dp4266
sg71
g4260
sg64
(lp4267
g57
(g58
g59
NtRp4268
(dp4269
g62
(dp4270
g70
I1
ssg71
g4264
sg64
(lp4271
S'http://www.web2py.com'
p4272
asbasbasbag57
(g73
g59
NtRp4273
(dp4274
g62
(dp4275
sg71
g4231
sg64
(lp4276
g57
(g78
g59
NtRp4277
(dp4278
g62
(dp4279
sg71
g4273
sg64
(lp4280
g57
(g58
g59
NtRp4281
(dp4282
g62
(dp4283
g70
I1
ssg71
g4277
sg64
(lp4284
(lp4285
(g3962
(S't\x08\x00\x00\x00Download'
tRp4286
I00
S'http://www.web2py.com/examples/default/download'
p4287
tp4288
a(g3962
(S't\x07\x00\x00\x00Support'
tRp4289
I00
S'http://www.web2py.com/examples/default/support'
p4290
tp4291
a(g3962
(S't\x04\x00\x00\x00Demo'
tRp4292
I00
S'http://web2py.com/demo_admin'
p4293
tp4294
a(g3962
(S's\x0e\x00\x00\x00Quick Examples'
tRp4295
I00
S'http://web2py.com/examples/default/examples'
p4296
tp4297
a(g3962
(S't\x03\x00\x00\x00FAQ'
tRp4298
I00
S'http://web2py.com/AlterEgo'
p4299
tp4300
a(g3962
(S't\x06\x00\x00\x00Videos'
tRp4301
I00
S'http://www.web2py.com/examples/default/videos/'
p4302
tp4303
a(g3962
(S's\x11\x00\x00\x00Free Applications'
tRp4304
I00
S'http://web2py.com/appliances'
p4305
tp4306
a(g3962
(S't\x07\x00\x00\x00Plugins'
tRp4307
I00
S'http://web2py.com/plugins'
p4308
tp4309
a(g3962
(S't\x07\x00\x00\x00Layouts'
tRp4310
I00
S'http://web2py.com/layouts'
p4311
tp4312
a(g3962
(S't\x07\x00\x00\x00Recipes'
tRp4313
I00
S'http://web2pyslices.com/'
p4314
tp4315
a(g3962
(S't\x08\x00\x00\x00Semantic'
tRp4316
I00
S'http://web2py.com/semantic'
p4317
tp4318
aasbasbasbasbasbasbasbag57
(g73
g59
NtRp4319
(dp4320
g62
(dp4321
sg71
g4076
sg64
(lp4322
g57
(g78
g59
NtRp4323
(dp4324
g62
(dp4325
sg71
g4319
sg64
(lp4326
g57
(g58
g59
NtRp4327
(dp4328
g62
(dp4329
g70
I2
ssg71
g4323
sg64
(lp4330
g57
(g66
g59
NtRp4331
(dp4332
g62
(dp4333
g70
I1
ssg71
Nsg64
(lp4334
g57
(g73
g59
NtRp4335
(dp4336
g62
(dp4337
sg71
g4331
sg64
(lp4338
g57
(g78
g59
NtRp4339
(dp4340
g62
(dp4341
sg71
g4335
sg64
(lp4342
g57
(g58
g59
NtRp4343
(dp4344
g62
(dp4345
g70
I1
ssg71
g4339
sg64
(lp4346
g3962
(S't\r\x00\x00\x00Documentation'
tRp4347
asbasbasbag57
(g73
g59
NtRp4348
(dp4349
g62
(dp4350
sg71
g4331
sg64
(lp4351
g57
(g78
g59
NtRp4352
(dp4353
g62
(dp4354
sg71
g4348
sg64
(lp4355
g57
(g58
g59
NtRp4356
(dp4357
g62
(dp4358
g70
I1
ssg71
g4352
sg64
(lp4359
I00
asbasbasbag57
(g73
g59
NtRp4360
(dp4361
g62
(dp4362
sg71
g4331
sg64
(lp4363
g57
(g78
g59
NtRp4364
(dp4365
g62
(dp4366
sg71
g4360
sg64
(lp4367
g57
(g58
g59
NtRp4368
(dp4369
g62
(dp4370
g70
I1
ssg71
g4364
sg64
(lp4371
S'http://www.web2py.com/book'
p4372
asbasbasbag57
(g73
g59
NtRp4373
(dp4374
g62
(dp4375
sg71
g4331
sg64
(lp4376
g57
(g78
g59
NtRp4377
(dp4378
g62
(dp4379
sg71
g4373
sg64
(lp4380
g57
(g58
g59
NtRp4381
(dp4382
g62
(dp4383
g70
I1
ssg71
g4377
sg64
(lp4384
(lp4385
(g3962
(S't\x07\x00\x00\x00Preface'
tRp4386
I00
S'http://www.web2py.com/book/default/chapter/00'
p4387
tp4388
a(g3962
(S't\x0c\x00\x00\x00Introduction'
tRp4389
I00
S'http://www.web2py.com/book/default/chapter/01'
p4390
tp4391
a(g3962
(S't\x06\x00\x00\x00Python'
tRp4392
I00
S'http://www.web2py.com/book/default/chapter/02'
p4393
tp4394
a(g3962
(S't\x08\x00\x00\x00Overview'
tRp4395
I00
S'http://www.web2py.com/book/default/chapter/03'
p4396
tp4397
a(g3962
(S's\x08\x00\x00\x00The Core'
tRp4398
I00
S'http://www.web2py.com/book/default/chapter/04'
p4399
tp4400
a(g3962
(S's\t\x00\x00\x00The Views'
tRp4401
I00
S'http://www.web2py.com/book/default/chapter/05'
p4402
tp4403
a(g3962
(S't\x08\x00\x00\x00Database'
tRp4404
I00
S'http://www.web2py.com/book/default/chapter/06'
p4405
tp4406
a(g3962
(S's\x14\x00\x00\x00Forms and Validators'
tRp4407
I00
S'http://www.web2py.com/book/default/chapter/07'
p4408
tp4409
a(g3962
(S's\r\x00\x00\x00Email and SMS'
tRp4410
I00
S'http://www.web2py.com/book/default/chapter/08'
p4411
tp4412
a(g3962
(S's\x0e\x00\x00\x00Access Control'
tRp4413
I00
S'http://www.web2py.com/book/default/chapter/09'
p4414
tp4415
a(g3962
(S't\x08\x00\x00\x00Services'
tRp4416
I00
S'http://www.web2py.com/book/default/chapter/10'
p4417
tp4418
a(g3962
(S's\x0c\x00\x00\x00Ajax Recipes'
tRp4419
I00
S'http://www.web2py.com/book/default/chapter/11'
p4420
tp4421
a(g3962
(S's\x16\x00\x00\x00Components and Plugins'
tRp4422
I00
S'http://www.web2py.com/book/default/chapter/12'
p4423
tp4424
a(g3962
(S's\x12\x00\x00\x00Deployment Recipes'
tRp4425
I00
S'http://www.web2py.com/book/default/chapter/13'
p4426
tp4427
a(g3962
(S's\r\x00\x00\x00Other Recipes'
tRp4428
I00
S'http://www.web2py.com/book/default/chapter/14'
p4429
tp4430
a(g3962
(S's\r\x00\x00\x00Buy this book'
tRp4431
I00
S'http://stores.lulu.com/web2py'
p4432
tp4433
aasbasbasbasbasbasbasbag57
(g73
g59
NtRp4434
(dp4435
g62
(dp4436
sg71
g4076
sg64
(lp4437
g57
(g78
g59
NtRp4438
(dp4439
g62
(dp4440
sg71
g4434
sg64
(lp4441
g57
(g58
g59
NtRp4442
(dp4443
g62
(dp4444
g70
I2
ssg71
g4438
sg64
(lp4445
g57
(g66
g59
NtRp4446
(dp4447
g62
(dp4448
g70
I1
ssg71
Nsg64
(lp4449
g57
(g73
g59
NtRp4450
(dp4451
g62
(dp4452
sg71
g4446
sg64
(lp4453
g57
(g78
g59
NtRp4454
(dp4455
g62
(dp4456
sg71
g4450
sg64
(lp4457
g57
(g58
g59
NtRp4458
(dp4459
g62
(dp4460
g70
I1
ssg71
g4454
sg64
(lp4461
g3962
(S't\t\x00\x00\x00Community'
tRp4462
asbasbasbag57
(g73
g59
NtRp4463
(dp4464
g62
(dp4465
sg71
g4446
sg64
(lp4466
g57
(g78
g59
NtRp4467
(dp4468
g62
(dp4469
sg71
g4463
sg64
(lp4470
g57
(g58
g59
NtRp4471
(dp4472
g62
(dp4473
g70
I1
ssg71
g4467
sg64
(lp4474
I00
asbasbasbag57
(g73
g59
NtRp4475
(dp4476
g62
(dp4477
sg71
g4446
sg64
(lp4478
g57
(g78
g59
NtRp4479
(dp4480
g62
(dp4481
sg71
g4475
sg64
(lp4482
g57
(g58
g59
NtRp4483
(dp4484
g62
(dp4485
g70
I1
ssg71
g4479
sg64
(lp4486
Nasbasbasbag57
(g73
g59
NtRp4487
(dp4488
g62
(dp4489
sg71
g4446
sg64
(lp4490
g57
(g78
g59
NtRp4491
(dp4492
g62
(dp4493
sg71
g4487
sg64
(lp4494
g57
(g58
g59
NtRp4495
(dp4496
g62
(dp4497
g70
I1
ssg71
g4491
sg64
(lp4498
(lp4499
(g3962
(S't\x06\x00\x00\x00Groups'
tRp4500
I00
S'http://www.web2py.com/examples/default/usergroups'
p4501
tp4502
a(g3962
(S't\x07\x00\x00\x00Twitter'
tRp4503
I00
S'http://twitter.com/web2py'
p4504
tp4505
a(g3962
(S's\t\x00\x00\x00Live Chat'
tRp4506
I00
S'http://webchat.freenode.net/?channels=web2py'
p4507
tp4508
aasbasbasbasbasbasbasbag57
(g73
g59
NtRp4509
(dp4510
g62
(dp4511
sg71
g4076
sg64
(lp4512
g57
(g78
g59
NtRp4513
(dp4514
g62
(dp4515
sg71
g4509
sg64
(lp4516
g57
(g58
g59
NtRp4517
(dp4518
g62
(dp4519
g70
I2
ssg71
g4513
sg64
(lp4520
g57
(g66
g59
NtRp4521
(dp4522
g62
(dp4523
g70
I1
ssg71
Nsg64
(lp4524
g57
(g73
g59
NtRp4525
(dp4526
g62
(dp4527
sg71
g4521
sg64
(lp4528
g57
(g78
g59
NtRp4529
(dp4530
g62
(dp4531
sg71
g4525
sg64
(lp4532
g57
(g58
g59
NtRp4533
(dp4534
g62
(dp4535
g70
I1
ssg71
g4529
sg64
(lp4536
g3962
(S't\x07\x00\x00\x00Plugins'
tRp4537
asbasbasbag57
(g73
g59
NtRp4538
(dp4539
g62
(dp4540
sg71
g4521
sg64
(lp4541
g57
(g78
g59
NtRp4542
(dp4543
g62
(dp4544
sg71
g4538
sg64
(lp4545
g57
(g58
g59
NtRp4546
(dp4547
g62
(dp4548
g70
I1
ssg71
g4542
sg64
(lp4549
I00
asbasbasbag57
(g73
g59
NtRp4550
(dp4551
g62
(dp4552
sg71
g4521
sg64
(lp4553
g57
(g78
g59
NtRp4554
(dp4555
g62
(dp4556
sg71
g4550
sg64
(lp4557
g57
(g58
g59
NtRp4558
(dp4559
g62
(dp4560
g70
I1
ssg71
g4554
sg64
(lp4561
Nasbasbasbag57
(g73
g59
NtRp4562
(dp4563
g62
(dp4564
sg71
g4521
sg64
(lp4565
g57
(g78
g59
NtRp4566
(dp4567
g62
(dp4568
sg71
g4562
sg64
(lp4569
g57
(g58
g59
NtRp4570
(dp4571
g62
(dp4572
g70
I1
ssg71
g4566
sg64
(lp4573
(lp4574
(S'plugin_wiki'
p4575
I00
S'http://web2py.com/examples/default/download'
p4576
tp4577
a(g3962
(S's\r\x00\x00\x00Other Plugins'
tRp4578
I00
g4308
tp4579
a(g3962
(S's\x0e\x00\x00\x00Layout Plugins'
tRp4580
I00
g4311
tp4581
aasbasbasbasbasbasbasbasbasbasbasbasbasbasbasbasbasbasbasbag57
(g73
g59
NtRp4582
(dp4583
g62
(dp4584
sg71
g3457
sg64
(lp4585
g57
(g78
g59
NtRp4586
(dp4587
g62
(dp4588
g82
g83
ssg71
g4582
sg64
(lp4589
S'meta'
p4590
asbag57
(g78
g59
NtRp4591
(dp4592
g62
(dp4593
g89
g90
ssg71
g4582
sg64
(lp4594
S':'
asbag57
(g78
g59
NtRp4595
(dp4596
g62
(dp4597
sg71
g4582
sg64
(lp4598
g57
(g58
g59
NtRp4599
(dp4600
g62
(dp4601
g70
I5
ssg71
g4595
sg64
(lp4602
g57
(g66
g59
NtRp4603
(dp4604
g62
(dp4605
g70
I4
ssg71
Nsg64
(lp4606
g57
(g73
g59
NtRp4607
(dp4608
g62
(dp4609
sg71
g4603
sg64
(lp4610
g57
(g78
g59
NtRp4611
(dp4612
g62
(dp4613
g82
g83
ssg71
g4607
sg64
(lp4614
S'author'
p4615
asbag57
(g78
g59
NtRp4616
(dp4617
g62
(dp4618
g89
g90
ssg71
g4607
sg64
(lp4619
S':'
asbag57
(g78
g59
NtRp4620
(dp4621
g62
(dp4622
sg71
g4607
sg64
(lp4623
g57
(g58
g59
NtRp4624
(dp4625
g62
(dp4626
g70
I4
ssg71
g4620
sg64
(lp4627
S'Your Name <you@example.com>'
p4628
asbasbasbag57
(g73
g59
NtRp4629
(dp4630
g62
(dp4631
sg71
g4603
sg64
(lp4632
g57
(g78
g59
NtRp4633
(dp4634
g62
(dp4635
g82
g83
ssg71
g4629
sg64
(lp4636
S'copyright'
p4637
asbag57
(g78
g59
NtRp4638
(dp4639
g62
(dp4640
g89
g90
ssg71
g4629
sg64
(lp4641
S':'
asbag57
(g78
g59
NtRp4642
(dp4643
g62
(dp4644
sg71
g4629
sg64
(lp4645
g57
(g58
g59
NtRp4646
(dp4647
g62
(dp4648
g70
I4
ssg71
g4642
sg64
(lp4649
S'Copyright 2011'
p4650
asbasbasbag57
(g73
g59
NtRp4651
(dp4652
g62
(dp4653
sg71
g4603
sg64
(lp4654
g57
(g78
g59
NtRp4655
(dp4656
g62
(dp4657
g82
g83
ssg71
g4651
sg64
(lp4658
S'description'
p4659
asbag57
(g78
g59
NtRp4660
(dp4661
g62
(dp4662
g89
g90
ssg71
g4651
sg64
(lp4663
S':'
asbag57
(g78
g59
NtRp4664
(dp4665
g62
(dp4666
sg71
g4651
sg64
(lp4667
g57
(g58
g59
NtRp4668
(dp4669
g62
(dp4670
g70
I4
ssg71
g4664
sg64
(lp4671
S'a cool new app'
p4672
asbasbasbag57
(g73
g59
NtRp4673
(dp4674
g62
(dp4675
sg71
g4603
sg64
(lp4676
g57
(g78
g59
NtRp4677
(dp4678
g62
(dp4679
g82
g83
ssg71
g4673
sg64
(lp4680
S'generator'
p4681
asbag57
(g78
g59
NtRp4682
(dp4683
g62
(dp4684
g89
g90
ssg71
g4673
sg64
(lp4685
S':'
asbag57
(g78
g59
NtRp4686
(dp4687
g62
(dp4688
sg71
g4673
sg64
(lp4689
g57
(g58
g59
NtRp4690
(dp4691
g62
(dp4692
g70
I4
ssg71
g4686
sg64
(lp4693
S'Web2py Web Framework'
p4694
asbasbasbag57
(g73
g59
NtRp4695
(dp4696
g62
(dp4697
sg71
g4603
sg64
(lp4698
g57
(g78
g59
NtRp4699
(dp4700
g62
(dp4701
g82
g83
ssg71
g4695
sg64
(lp4702
S'keywords'
p4703
asbag57
(g78
g59
NtRp4704
(dp4705
g62
(dp4706
g89
g90
ssg71
g4695
sg64
(lp4707
S':'
asbag57
(g78
g59
NtRp4708
(dp4709
g62
(dp4710
sg71
g4695
sg64
(lp4711
g57
(g58
g59
NtRp4712
(dp4713
g62
(dp4714
g70
I4
ssg71
g4708
sg64
(lp4715
S'web2py, python, framework'
p4716
asbasbasbasbasbasbasbag57
(g73
g59
NtRp4717
(dp4718
g62
(dp4719
sg71
g3457
sg64
(lp4720
g57
(g78
g59
NtRp4721
(dp4722
g62
(dp4723
g82
g83
ssg71
g4717
sg64
(lp4724
S'postprocessing'
p4725
asbag57
(g78
g59
NtRp4726
(dp4727
g62
(dp4728
g89
g90
ssg71
g4717
sg64
(lp4729
S':'
asbag57
(g78
g59
NtRp4730
(dp4731
g62
(dp4732
sg71
g4717
sg64
(lp4733
g57
(g58
g59
NtRp4734
(dp4735
g62
(dp4736
g70
I5
ssg71
g4730
sg64
(lp4737
g57
(g66
g59
NtRp4738
(dp4739
g62
(dp4740
g70
I4
ssg71
Nsg64
(lp4741
sbasbasbasbag57
(g73
g59
NtRp4742
(dp4743
g62
(dp4744
sg71
g3457
sg64
(lp4745
g57
(g78
g59
NtRp4746
(dp4747
g62
(dp4748
g82
g83
ssg71
g4742
sg64
(lp4749
S'session_file'
p4750
asbag57
(g78
g59
NtRp4751
(dp4752
g62
(dp4753
g89
g90
ssg71
g4742
sg64
(lp4754
S':'
asbag57
(g78
g59
NtRp4755
(dp4756
g62
(dp4757
sg71
g4742
sg64
(lp4758
g57
(g58
g59
NtRp4759
(dp4760
g62
(dp4761
g70
I5
ssg71
g4755
sg64
(lp4762
S"<open file '/home/ds-iiit/web2py/applications/Read_it/sessions/127.0.0.1-f4108936-be87-4864-9231-dbb359492e75', mode 'rb+' at 0x7f44f01e00c0>"
p4763
asbasbasbag57
(g73
g59
NtRp4764
(dp4765
g62
(dp4766
sg71
g3457
sg64
(lp4767
g57
(g78
g59
NtRp4768
(dp4769
g62
(dp4770
g82
g83
ssg71
g4764
sg64
(lp4771
S'session_filename'
p4772
asbag57
(g78
g59
NtRp4773
(dp4774
g62
(dp4775
g89
g90
ssg71
g4764
sg64
(lp4776
S':'
asbag57
(g78
g59
NtRp4777
(dp4778
g62
(dp4779
sg71
g4764
sg64
(lp4780
g57
(g58
g59
NtRp4781
(dp4782
g62
(dp4783
g70
I5
ssg71
g4777
sg64
(lp4784
S'/home/ds-iiit/web2py/applications/Read_it/sessions/127.0.0.1-f4108936-be87-4864-9231-dbb359492e75'
p4785
asbasbasbag57
(g73
g59
NtRp4786
(dp4787
g62
(dp4788
sg71
g3457
sg64
(lp4789
g57
(g78
g59
NtRp4790
(dp4791
g62
(dp4792
g82
g83
ssg71
g4786
sg64
(lp4793
S'session_id'
p4794
asbag57
(g78
g59
NtRp4795
(dp4796
g62
(dp4797
g89
g90
ssg71
g4786
sg64
(lp4798
S':'
asbag57
(g78
g59
NtRp4799
(dp4800
g62
(dp4801
sg71
g4786
sg64
(lp4802
g57
(g58
g59
NtRp4803
(dp4804
g62
(dp4805
g70
I5
ssg71
g4799
sg64
(lp4806
S'127.0.0.1-f4108936-be87-4864-9231-dbb359492e75'
p4807
asbasbasbag57
(g73
g59
NtRp4808
(dp4809
g62
(dp4810
sg71
g3457
sg64
(lp4811
g57
(g78
g59
NtRp4812
(dp4813
g62
(dp4814
g82
g83
ssg71
g4808
sg64
(lp4815
S'session_id_name'
p4816
asbag57
(g78
g59
NtRp4817
(dp4818
g62
(dp4819
g89
g90
ssg71
g4808
sg64
(lp4820
S':'
asbag57
(g78
g59
NtRp4821
(dp4822
g62
(dp4823
sg71
g4808
sg64
(lp4824
g57
(g58
g59
NtRp4825
(dp4826
g62
(dp4827
g70
I5
ssg71
g4821
sg64
(lp4828
g3514
asbasbasbag57
(g73
g59
NtRp4829
(dp4830
g62
(dp4831
sg71
g3457
sg64
(lp4832
g57
(g78
g59
NtRp4833
(dp4834
g62
(dp4835
g82
g83
ssg71
g4829
sg64
(lp4836
S'session_locked'
p4837
asbag57
(g78
g59
NtRp4838
(dp4839
g62
(dp4840
g89
g90
ssg71
g4829
sg64
(lp4841
S':'
asbag57
(g78
g59
NtRp4842
(dp4843
g62
(dp4844
sg71
g4829
sg64
(lp4845
g57
(g58
g59
NtRp4846
(dp4847
g62
(dp4848
g70
I5
ssg71
g4842
sg64
(lp4849
g1680
asbasbasbag57
(g73
g59
NtRp4850
(dp4851
g62
(dp4852
sg71
g3457
sg64
(lp4853
g57
(g78
g59
NtRp4854
(dp4855
g62
(dp4856
g82
g83
ssg71
g4850
sg64
(lp4857
S'session_new'
p4858
asbag57
(g78
g59
NtRp4859
(dp4860
g62
(dp4861
g89
g90
ssg71
g4850
sg64
(lp4862
S':'
asbag57
(g78
g59
NtRp4863
(dp4864
g62
(dp4865
sg71
g4850
sg64
(lp4866
g57
(g58
g59
NtRp4867
(dp4868
g62
(dp4869
g70
I5
ssg71
g4863
sg64
(lp4870
g100
asbasbasbag57
(g73
g59
NtRp4871
(dp4872
g62
(dp4873
sg71
g3457
sg64
(lp4874
g57
(g78
g59
NtRp4875
(dp4876
g62
(dp4877
g82
g83
ssg71
g4871
sg64
(lp4878
S'status'
p4879
asbag57
(g78
g59
NtRp4880
(dp4881
g62
(dp4882
g89
g90
ssg71
g4871
sg64
(lp4883
S':'
asbag57
(g78
g59
NtRp4884
(dp4885
g62
(dp4886
sg71
g4871
sg64
(lp4887
g57
(g58
g59
NtRp4888
(dp4889
g62
(dp4890
g70
I5
ssg71
g4884
sg64
(lp4891
S'200'
p4892
asbasbasbag57
(g73
g59
NtRp4893
(dp4894
g62
(dp4895
sg71
g3457
sg64
(lp4896
g57
(g78
g59
NtRp4897
(dp4898
g62
(dp4899
g82
g83
ssg71
g4893
sg64
(lp4900
S'subtitle'
p4901
asbag57
(g78
g59
NtRp4902
(dp4903
g62
(dp4904
g89
g90
ssg71
g4893
sg64
(lp4905
S':'
asbag57
(g78
g59
NtRp4906
(dp4907
g62
(dp4908
sg71
g4893
sg64
(lp4909
g57
(g58
g59
NtRp4910
(dp4911
g62
(dp4912
g70
I5
ssg71
g4906
sg64
(lp4913
g3962
(S's\r\x00\x00\x00customize me!'
tRp4914
asbasbasbag57
(g73
g59
NtRp4915
(dp4916
g62
(dp4917
sg71
g3457
sg64
(lp4918
g57
(g78
g59
NtRp4919
(dp4920
g62
(dp4921
g82
g83
ssg71
g4915
sg64
(lp4922
S'title'
p4923
asbag57
(g78
g59
NtRp4924
(dp4925
g62
(dp4926
g89
g90
ssg71
g4915
sg64
(lp4927
S':'
asbag57
(g78
g59
NtRp4928
(dp4929
g62
(dp4930
sg71
g4915
sg64
(lp4931
g57
(g58
g59
NtRp4932
(dp4933
g62
(dp4934
g70
I5
ssg71
g4928
sg64
(lp4935
S'Read It'
p4936
asbasbasbag57
(g73
g59
NtRp4937
(dp4938
g62
(dp4939
sg71
g3457
sg64
(lp4940
g57
(g78
g59
NtRp4941
(dp4942
g62
(dp4943
g82
g83
ssg71
g4937
sg64
(lp4944
g2366
asbag57
(g78
g59
NtRp4945
(dp4946
g62
(dp4947
g89
g90
ssg71
g4937
sg64
(lp4948
S':'
asbag57
(g78
g59
NtRp4949
(dp4950
g62
(dp4951
sg71
g4937
sg64
(lp4952
g57
(g58
g59
NtRp4953
(dp4954
g62
(dp4955
g70
I5
ssg71
g4949
sg64
(lp4956
g2379
asbasbasbag57
(g73
g59
NtRp4957
(dp4958
g62
(dp4959
sg71
g3457
sg64
(lp4960
g57
(g78
g59
NtRp4961
(dp4962
g62
(dp4963
g82
g83
ssg71
g4957
sg64
(lp4964
S'view'
p4965
asbag57
(g78
g59
NtRp4966
(dp4967
g62
(dp4968
g89
g90
ssg71
g4957
sg64
(lp4969
S':'
asbag57
(g78
g59
NtRp4970
(dp4971
g62
(dp4972
sg71
g4957
sg64
(lp4973
g57
(g58
g59
NtRp4974
(dp4975
g62
(dp4976
g70
I5
ssg71
g4970
sg64
(lp4977
S'default/points.html'
p4978
asbasbasbasbasbsS'locals'
p4979
(dp4980
S'self'
p4981
S"<Row {'update_record': <function <lambda> at 0x7..._record': <function <lambda> at 0x7f45046b4de8>}>"
p4982
sS'm'
S'None'
p4983
sS'key'
p4984
S"'Rating'"
p4985
sssS'traceback'
p4986
S'Traceback (most recent call last):\n  File "/usr/lib/pymodules/python2.7/gluon/restricted.py", line 204, in restricted\n    exec ccode in environment\n  File "/home/ds-iiit/web2py/applications/Read_it/controllers/default.py", line 137, in <module>\n  File "/usr/lib/pymodules/python2.7/gluon/globals.py", line 172, in <lambda>\n    self._caller = lambda f: f()\n  File "/usr/lib/pymodules/python2.7/gluon/tools.py", line 2533, in f\n    return action(*a, **b)\n  File "/home/ds-iiit/web2py/applications/Read_it/controllers/default.py", line 30, in points\n    y[\'Rating\'] = y[\'Rating\'] + int(request.args(1))\n  File "/usr/lib/pymodules/python2.7/gluon/dal.py", line 4431, in __getitem__\n    return dict.__getitem__(self, key)\nKeyError: \'Rating\'\n'
p4987
s.