(dp1
S'my_id'
p2
(dp3
S'type'
p4
S'string'
p5
sS'sortable'
p6
I4
sS'sql'
p7
S'CHAR(512)'
p8
ssS'my_name'
p9
(dp10
g4
g5
sg6
I3
sg7
S'CHAR(512)'
p11
ssS'user_id'
p12
(dp13
g4
S'reference auth_user'
p14
sg6
I2
sg7
S'INTEGER REFERENCES auth_user(id) ON DELETE CASCADE'
p15
ssS'friend_name'
p16
(dp17
g4
g5
sg6
I5
sg7
S'CHAR(512)'
p18
ssS'friend_id'
p19
(dp20
g4
g5
sg6
I6
sg7
S'CHAR(512)'
p21
ssS'id'
p22
(dp23
g4
S'id'
p24
sg6
I1
sg7
S'INTEGER PRIMARY KEY AUTOINCREMENT'
p25
ss.